
gen/riscv32_generic_x86_64_default_gcc/bin/person_detection:     file format elf32-littleriscv


Disassembly of section .text:

00000000 <_start>:
       0:	80077117          	auipc	sp,0x80077
       4:	e5010113          	addi	sp,sp,-432 # 80076e50 <__stack_top+0x0>
       8:	8004d517          	auipc	a0,0x8004d
       c:	c6850513          	addi	a0,a0,-920 # 8004cc70 <__stack_top+0xfffd5e20>
      10:	8004d597          	auipc	a1,0x8004d
      14:	e4058593          	addi	a1,a1,-448 # 8004ce50 <__stack_top+0xfffd6000>
      18:	00b57863          	bgeu	a0,a1,28 <_start+0x28>
      1c:	00052023          	sw	zero,0(a0)
      20:	00450513          	addi	a0,a0,4
      24:	ff5ff06f          	j	18 <_start+0x18>
      28:	00000097          	auipc	ra,0x0
      2c:	00c080e7          	jalr	12(ra) # 34 <main>
      30:	0000006f          	j	30 <_start+0x30>

00000034 <main>:
      34:	ff010113          	addi	sp,sp,-16
      38:	00112623          	sw	ra,12(sp)
      3c:	00000097          	auipc	ra,0x0
      40:	094080e7          	jalr	148(ra) # d0 <setup>
      44:	00000097          	auipc	ra,0x0
      48:	228080e7          	jalr	552(ra) # 26c <loop>
      4c:	0000006f          	j	4c <main+0x18>

00000050 <_ZL7RawPutcc>:
      50:	40600737          	lui	a4,0x40600
      54:	00872783          	lw	a5,8(a4) # 40600008 <__trunctfdf2+0x405ec6a0>
      58:	0087f793          	andi	a5,a5,8
      5c:	fe079ce3          	bnez	a5,54 <_ZL7RawPutcc+0x4>
      60:	00a70223          	sb	a0,4(a4)
      64:	00008067          	ret

00000068 <_ZL11RawPutHex32m>:
      68:	ff010113          	addi	sp,sp,-16
      6c:	00812423          	sw	s0,8(sp)
      70:	00912223          	sw	s1,4(sp)
      74:	01212023          	sw	s2,0(sp)
      78:	00112623          	sw	ra,12(sp)
      7c:	00050913          	mv	s2,a0
      80:	01c00413          	li	s0,28
      84:	ffc00493          	li	s1,-4
      88:	008957b3          	srl	a5,s2,s0
      8c:	80000717          	auipc	a4,0x80000
      90:	f7470713          	addi	a4,a4,-140 # 80000000 <__stack_top+0xfff891b0>
      94:	00f7f793          	andi	a5,a5,15
      98:	00e787b3          	add	a5,a5,a4
      9c:	0007c503          	lbu	a0,0(a5)
      a0:	ffc40413          	addi	s0,s0,-4
      a4:	00000097          	auipc	ra,0x0
      a8:	fac080e7          	jalr	-84(ra) # 50 <_ZL7RawPutcc>
      ac:	fc941ee3          	bne	s0,s1,88 <_ZL11RawPutHex32m+0x20>
      b0:	00812403          	lw	s0,8(sp)
      b4:	00c12083          	lw	ra,12(sp)
      b8:	00412483          	lw	s1,4(sp)
      bc:	00012903          	lw	s2,0(sp)
      c0:	02000513          	li	a0,32
      c4:	01010113          	addi	sp,sp,16
      c8:	00000317          	auipc	t1,0x0
      cc:	f8830067          	jr	-120(t1) # 50 <_ZL7RawPutcc>

000000d0 <setup>:
      d0:	fe010113          	addi	sp,sp,-32
      d4:	03100513          	li	a0,49
      d8:	00112e23          	sw	ra,28(sp)
      dc:	00812c23          	sw	s0,24(sp)
      e0:	00912a23          	sw	s1,20(sp)
      e4:	01212823          	sw	s2,16(sp)
      e8:	00000097          	auipc	ra,0x0
      ec:	f68080e7          	jalr	-152(ra) # 50 <_ZL7RawPutcc>
      f0:	00001097          	auipc	ra,0x1
      f4:	58c080e7          	jalr	1420(ra) # 167c <_ZN6tflite16InitializeTargetEv>
      f8:	03200513          	li	a0,50
      fc:	00000097          	auipc	ra,0x0
     100:	f54080e7          	jalr	-172(ra) # 50 <_ZL7RawPutcc>
     104:	80000717          	auipc	a4,0x80000
     108:	f1c70713          	addi	a4,a4,-228 # 80000020 <__stack_top+0xfff891d0>
     10c:	00000413          	li	s0,0
     110:	02070a63          	beqz	a4,144 <setup+0x74>
     114:	80000697          	auipc	a3,0x80000
     118:	f0d6c783          	lbu	a5,-243(a3) # 80000021 <__stack_top+0xfff891d1>
     11c:	f0c6c403          	lbu	s0,-244(a3)
     120:	00879793          	slli	a5,a5,0x8
     124:	0087e7b3          	or	a5,a5,s0
     128:	f0e6c403          	lbu	s0,-242(a3)
     12c:	01041413          	slli	s0,s0,0x10
     130:	00f467b3          	or	a5,s0,a5
     134:	f0f6c403          	lbu	s0,-241(a3)
     138:	01841413          	slli	s0,s0,0x18
     13c:	00f46433          	or	s0,s0,a5
     140:	00e40433          	add	s0,s0,a4
     144:	8004d917          	auipc	s2,0x8004d
     148:	b3090913          	addi	s2,s2,-1232 # 8004cc74 <__stack_top+0xfffd5e24>
     14c:	03300513          	li	a0,51
     150:	00892023          	sw	s0,0(s2)
     154:	00000097          	auipc	ra,0x0
     158:	efc080e7          	jalr	-260(ra) # 50 <_ZL7RawPutcc>
     15c:	00041a63          	bnez	s0,170 <setup+0xa0>
     160:	05800513          	li	a0,88
     164:	00000097          	auipc	ra,0x0
     168:	eec080e7          	jalr	-276(ra) # 50 <_ZL7RawPutcc>
     16c:	0000006f          	j	16c <setup+0x9c>
     170:	03400513          	li	a0,52
     174:	00000097          	auipc	ra,0x0
     178:	edc080e7          	jalr	-292(ra) # 50 <_ZL7RawPutcc>
     17c:	00000013          	nop
     180:	00000013          	nop
     184:	00000013          	nop
     188:	00012423          	sw	zero,8(sp)
     18c:	00812783          	lw	a5,8(sp)
     190:	00178793          	addi	a5,a5,1
     194:	00f12423          	sw	a5,8(sp)
     198:	04100513          	li	a0,65
     19c:	8004d497          	auipc	s1,0x8004d
     1a0:	00000097          	auipc	ra,0x0
     1a4:	eb0080e7          	jalr	-336(ra) # 50 <_ZL7RawPutcc>
     1a8:	cb448493          	addi	s1,s1,-844 # 8004ce50 <__stack_top+0xfffd6000>
     1ac:	00048513          	mv	a0,s1
     1b0:	00000097          	auipc	ra,0x0
     1b4:	eb8080e7          	jalr	-328(ra) # 68 <_ZL11RawPutHex32m>
     1b8:	04200513          	li	a0,66
     1bc:	00000097          	auipc	ra,0x0
     1c0:	e94080e7          	jalr	-364(ra) # 50 <_ZL7RawPutcc>
     1c4:	04900513          	li	a0,73
     1c8:	8004d417          	auipc	s0,0x8004d
     1cc:	00000097          	auipc	ra,0x0
     1d0:	e84080e7          	jalr	-380(ra) # 50 <_ZL7RawPutcc>
     1d4:	b8840413          	addi	s0,s0,-1144 # 8004cd50 <__stack_top+0xfffd5f00>
     1d8:	00040513          	mv	a0,s0
     1dc:	00000097          	auipc	ra,0x0
     1e0:	e8c080e7          	jalr	-372(ra) # 68 <_ZL11RawPutHex32m>
     1e4:	04a00513          	li	a0,74
     1e8:	00000097          	auipc	ra,0x0
     1ec:	e68080e7          	jalr	-408(ra) # 50 <_ZL7RawPutcc>
     1f0:	000227b7          	lui	a5,0x22
     1f4:	05000513          	li	a0,80
     1f8:	00f12623          	sw	a5,12(sp)
     1fc:	00000097          	auipc	ra,0x0
     200:	e54080e7          	jalr	-428(ra) # 50 <_ZL7RawPutcc>
     204:	00048513          	mv	a0,s1
     208:	00000097          	auipc	ra,0x0
     20c:	e60080e7          	jalr	-416(ra) # 68 <_ZL11RawPutHex32m>
     210:	00c12503          	lw	a0,12(sp)
     214:	00000097          	auipc	ra,0x0
     218:	e54080e7          	jalr	-428(ra) # 68 <_ZL11RawPutHex32m>
     21c:	05100513          	li	a0,81
     220:	00000097          	auipc	ra,0x0
     224:	e30080e7          	jalr	-464(ra) # 50 <_ZL7RawPutcc>
     228:	00c12703          	lw	a4,12(sp)
     22c:	00092583          	lw	a1,0(s2)
     230:	8004d617          	auipc	a2,0x8004d
     234:	00000793          	li	a5,0
     238:	00040513          	mv	a0,s0
     23c:	00000893          	li	a7,0
     240:	00000813          	li	a6,0
     244:	00048693          	mv	a3,s1
     248:	a6060613          	addi	a2,a2,-1440 # 8004cc90 <__stack_top+0xfffd5e40>
     24c:	00000097          	auipc	ra,0x0
     250:	174080e7          	jalr	372(ra) # 3c0 <_ZN6tflite16MicroInterpreterC1EPKNS_5ModelERKNS_15MicroOpResolverEPhjPNS_22MicroResourceVariablesEPNS_22MicroProfilerInterfaceEb>
     254:	8004d797          	auipc	a5,0x8004d
     258:	05a00513          	li	a0,90
     25c:	a087ae23          	sw	s0,-1508(a5) # 8004cc70 <__stack_top+0xfffd5e20>
     260:	00000097          	auipc	ra,0x0
     264:	df0080e7          	jalr	-528(ra) # 50 <_ZL7RawPutcc>
     268:	0000006f          	j	268 <setup+0x198>

0000026c <loop>:
     26c:	ff010113          	addi	sp,sp,-16
     270:	03800513          	li	a0,56
     274:	00112623          	sw	ra,12(sp)
     278:	00000097          	auipc	ra,0x0
     27c:	dd8080e7          	jalr	-552(ra) # 50 <_ZL7RawPutcc>
     280:	00c12083          	lw	ra,12(sp)
     284:	06a00513          	li	a0,106
     288:	01010113          	addi	sp,sp,16
     28c:	00000317          	auipc	t1,0x0
     290:	dc430067          	jr	-572(t1) # 50 <_ZL7RawPutcc>

00000294 <_ZN6tflite36MicroContextAllocatePersistentBufferEP13TfLiteContextj>:
     294:	00c52503          	lw	a0,12(a0)
     298:	00052783          	lw	a5,0(a0)
     29c:	0087a303          	lw	t1,8(a5)
     2a0:	00030067          	jr	t1

000002a4 <_ZN6tflite39MicroContextRequestScratchBufferInArenaEP13TfLiteContextjPi>:
     2a4:	00c52503          	lw	a0,12(a0)
     2a8:	00052783          	lw	a5,0(a0)
     2ac:	00c7a303          	lw	t1,12(a5)
     2b0:	00030067          	jr	t1

000002b4 <_ZN6tflite28MicroContextGetScratchBufferEP13TfLiteContexti>:
     2b4:	00c52503          	lw	a0,12(a0)
     2b8:	00052783          	lw	a5,0(a0)
     2bc:	0107a303          	lw	t1,16(a5)
     2c0:	00030067          	jr	t1

000002c4 <_ZN6tflite21MicroContextGetTensorEPK13TfLiteContexti>:
     2c4:	00c52503          	lw	a0,12(a0)
     2c8:	00052783          	lw	a5,0(a0)
     2cc:	0147a303          	lw	t1,20(a5)
     2d0:	00030067          	jr	t1

000002d4 <_ZN6tflite25MicroContextGetEvalTensorEPK13TfLiteContexti>:
     2d4:	00c52503          	lw	a0,12(a0)
     2d8:	00052783          	lw	a5,0(a0)
     2dc:	0247a303          	lw	t1,36(a5)
     2e0:	00030067          	jr	t1

000002e4 <_ZN6tflite30MicroContextGetExternalContextEP13TfLiteContext25TfLiteExternalContextType>:
     2e4:	00c52503          	lw	a0,12(a0)
     2e8:	00052783          	lw	a5,0(a0)
     2ec:	02c7a303          	lw	t1,44(a5)
     2f0:	00030067          	jr	t1

000002f4 <_ZNK11flatbuffers5Table22GetOptionalFieldOffsetEt>:
     2f4:	00052783          	lw	a5,0(a0)
     2f8:	40f50533          	sub	a0,a0,a5
     2fc:	00055783          	lhu	a5,0(a0)
     300:	00f5f863          	bgeu	a1,a5,310 <_ZNK11flatbuffers5Table22GetOptionalFieldOffsetEt+0x1c>
     304:	00b50533          	add	a0,a0,a1
     308:	00055503          	lhu	a0,0(a0)
     30c:	00008067          	ret
     310:	00000513          	li	a0,0
     314:	00008067          	ret

00000318 <_ZN6tflite16MicroInterpreter4InitEPNS_22MicroProfilerInterfaceE>:
     318:	ff010113          	addi	sp,sp,-16
     31c:	00912223          	sw	s1,4(sp)
     320:	0a850493          	addi	s1,a0,168
     324:	00812423          	sw	s0,8(sp)
     328:	01212023          	sw	s2,0(sp)
     32c:	00050413          	mv	s0,a0
     330:	00058913          	mv	s2,a1
     334:	00048513          	mv	a0,s1
     338:	00000593          	li	a1,0
     33c:	00112623          	sw	ra,12(sp)
     340:	00000097          	auipc	ra,0x0
     344:	4e4080e7          	jalr	1252(ra) # 824 <_ZN6tflite23MicroInterpreterContext19SetInterpreterStateENS0_16InterpreterStateE>
     348:	00003797          	auipc	a5,0x3
     34c:	e8478793          	addi	a5,a5,-380 # 31cc <_ZN6tflite25MicroContextReportOpErrorEP13TfLiteContextPKcz>
     350:	00f42e23          	sw	a5,28(s0)
     354:	00000797          	auipc	a5,0x0
     358:	f7078793          	addi	a5,a5,-144 # 2c4 <_ZN6tflite21MicroContextGetTensorEPK13TfLiteContexti>
     35c:	04f42c23          	sw	a5,88(s0)
     360:	00000797          	auipc	a5,0x0
     364:	f7478793          	addi	a5,a5,-140 # 2d4 <_ZN6tflite25MicroContextGetEvalTensorEPK13TfLiteContexti>
     368:	04f42e23          	sw	a5,92(s0)
     36c:	00000797          	auipc	a5,0x0
     370:	f3878793          	addi	a5,a5,-200 # 2a4 <_ZN6tflite39MicroContextRequestScratchBufferInArenaEP13TfLiteContextjPi>
     374:	04f42423          	sw	a5,72(s0)
     378:	00000797          	auipc	a5,0x0
     37c:	f6c78793          	addi	a5,a5,-148 # 2e4 <_ZN6tflite30MicroContextGetExternalContextEP13TfLiteContext25TfLiteExternalContextType>
     380:	02f42823          	sw	a5,48(s0)
     384:	00000797          	auipc	a5,0x0
     388:	f1078793          	addi	a5,a5,-240 # 294 <_ZN6tflite36MicroContextAllocatePersistentBufferEP13TfLiteContextj>
     38c:	04f42023          	sw	a5,64(s0)
     390:	00000797          	auipc	a5,0x0
     394:	f2478793          	addi	a5,a5,-220 # 2b4 <_ZN6tflite28MicroContextGetScratchBufferEP13TfLiteContexti>
     398:	00942a23          	sw	s1,20(s0)
     39c:	03242e23          	sw	s2,60(s0)
     3a0:	04f42623          	sw	a5,76(s0)
     3a4:	08042c23          	sw	zero,152(s0)
     3a8:	00c12083          	lw	ra,12(sp)
     3ac:	00812403          	lw	s0,8(sp)
     3b0:	00412483          	lw	s1,4(sp)
     3b4:	00012903          	lw	s2,0(sp)
     3b8:	01010113          	addi	sp,sp,16
     3bc:	00008067          	ret

000003c0 <_ZN6tflite16MicroInterpreterC1EPKNS_5ModelERKNS_15MicroOpResolverEPhjPNS_22MicroResourceVariablesEPNS_22MicroProfilerInterfaceEb>:
     3c0:	fc010113          	addi	sp,sp,-64
     3c4:	02812c23          	sw	s0,56(sp)
     3c8:	00050413          	mv	s0,a0
     3cc:	02112e23          	sw	ra,60(sp)
     3d0:	02912a23          	sw	s1,52(sp)
     3d4:	03212823          	sw	s2,48(sp)
     3d8:	03312623          	sw	s3,44(sp)
     3dc:	00b42023          	sw	a1,0(s0)
     3e0:	00850913          	addi	s2,a0,8
     3e4:	00058993          	mv	s3,a1
     3e8:	00c52223          	sw	a2,4(a0)
     3ec:	00000593          	li	a1,0
     3f0:	06400613          	li	a2,100
     3f4:	00090513          	mv	a0,s2
     3f8:	01012823          	sw	a6,16(sp)
     3fc:	00f12a23          	sw	a5,20(sp)
     400:	00d12e23          	sw	a3,28(sp)
     404:	00e12c23          	sw	a4,24(sp)
     408:	01112623          	sw	a7,12(sp)
     40c:	00006097          	auipc	ra,0x6
     410:	690080e7          	jalr	1680(ra) # 6a9c <memset>
     414:	00c12883          	lw	a7,12(sp)
     418:	01812703          	lw	a4,24(sp)
     41c:	01c12683          	lw	a3,28(sp)
     420:	00088613          	mv	a2,a7
     424:	00070593          	mv	a1,a4
     428:	00068513          	mv	a0,a3
     42c:	00002097          	auipc	ra,0x2
     430:	c78080e7          	jalr	-904(ra) # 20a4 <_ZN6tflite14MicroAllocator6CreateEPhjNS_17MemoryPlannerTypeE>
     434:	01412783          	lw	a5,20(sp)
     438:	07040493          	addi	s1,s0,112
     43c:	00050693          	mv	a3,a0
     440:	06a42623          	sw	a0,108(s0)
     444:	00078713          	mv	a4,a5
     448:	00098613          	mv	a2,s3
     44c:	00090593          	mv	a1,s2
     450:	00048513          	mv	a0,s1
     454:	00001097          	auipc	ra,0x1
     458:	f80080e7          	jalr	-128(ra) # 13d4 <_ZN6tflite21MicroInterpreterGraphC1EP13TfLiteContextPKNS_5ModelEPNS_14MicroAllocatorEPNS_22MicroResourceVariablesE>
     45c:	06c42583          	lw	a1,108(s0)
     460:	00042603          	lw	a2,0(s0)
     464:	00100793          	li	a5,1
     468:	0a840513          	addi	a0,s0,168
     46c:	08040a23          	sb	zero,148(s0)
     470:	08f42c23          	sw	a5,152(s0)
     474:	08042e23          	sw	zero,156(s0)
     478:	0a042023          	sw	zero,160(s0)
     47c:	0a042223          	sw	zero,164(s0)
     480:	00048693          	mv	a3,s1
     484:	00000097          	auipc	ra,0x0
     488:	368080e7          	jalr	872(ra) # 7ec <_ZN6tflite23MicroInterpreterContextC1EPNS_14MicroAllocatorEPKNS_5ModelEPNS_21MicroInterpreterGraphE>
     48c:	01012803          	lw	a6,16(sp)
     490:	00040513          	mv	a0,s0
     494:	03812403          	lw	s0,56(sp)
     498:	03c12083          	lw	ra,60(sp)
     49c:	03412483          	lw	s1,52(sp)
     4a0:	03012903          	lw	s2,48(sp)
     4a4:	02c12983          	lw	s3,44(sp)
     4a8:	00080593          	mv	a1,a6
     4ac:	04010113          	addi	sp,sp,64
     4b0:	00000317          	auipc	t1,0x0
     4b4:	e6830067          	jr	-408(t1) # 318 <_ZN6tflite16MicroInterpreter4InitEPNS_22MicroProfilerInterfaceE>

000004b8 <_ZNK11flatbuffers6VectorIlmE3GetEm>:
     4b8:	00052783          	lw	a5,0(a0)
     4bc:	02f5e863          	bltu	a1,a5,4ec <_ZNK11flatbuffers6VectorIlmE3GetEm+0x34>
     4c0:	80049697          	auipc	a3,0x80049
     4c4:	80049617          	auipc	a2,0x80049
     4c8:	80049517          	auipc	a0,0x80049
     4cc:	ff010113          	addi	sp,sp,-16
     4d0:	4c468693          	addi	a3,a3,1220 # 80049984 <__stack_top+0xfffd2b34>
     4d4:	61060613          	addi	a2,a2,1552 # 80049ad4 <__stack_top+0xfffd2c84>
     4d8:	0c200593          	li	a1,194
     4dc:	4c850513          	addi	a0,a0,1224 # 80049990 <__stack_top+0xfffd2b40>
     4e0:	00112623          	sw	ra,12(sp)
     4e4:	00005097          	auipc	ra,0x5
     4e8:	7e4080e7          	jalr	2020(ra) # 5cc8 <__assert_func>
     4ec:	00259593          	slli	a1,a1,0x2
     4f0:	00b50533          	add	a0,a0,a1
     4f4:	00452503          	lw	a0,4(a0)
     4f8:	00008067          	ret

000004fc <_ZNK11flatbuffers6VectorINS_6OffsetIN6tflite8SubGraphEEEmE3GetEm>:
     4fc:	00052783          	lw	a5,0(a0)
     500:	02f5e863          	bltu	a1,a5,530 <_ZNK11flatbuffers6VectorINS_6OffsetIN6tflite8SubGraphEEEmE3GetEm+0x34>
     504:	80049697          	auipc	a3,0x80049
     508:	80049617          	auipc	a2,0x80049
     50c:	80049517          	auipc	a0,0x80049
     510:	ff010113          	addi	sp,sp,-16
     514:	48068693          	addi	a3,a3,1152 # 80049984 <__stack_top+0xfffd2b34>
     518:	4dc60613          	addi	a2,a2,1244 # 800499e4 <__stack_top+0xfffd2b94>
     51c:	0c200593          	li	a1,194
     520:	48450513          	addi	a0,a0,1156 # 80049990 <__stack_top+0xfffd2b40>
     524:	00112623          	sw	ra,12(sp)
     528:	00005097          	auipc	ra,0x5
     52c:	7a0080e7          	jalr	1952(ra) # 5cc8 <__assert_func>
     530:	00259593          	slli	a1,a1,0x2
     534:	00450513          	addi	a0,a0,4
     538:	00b50533          	add	a0,a0,a1
     53c:	00052783          	lw	a5,0(a0)
     540:	00f50533          	add	a0,a0,a5
     544:	00008067          	ret

00000548 <_ZN11flatbuffers5Table10GetPointerIPKNS_6VectorIlmEEmEET_t>:
     548:	ff010113          	addi	sp,sp,-16
     54c:	00812423          	sw	s0,8(sp)
     550:	00112623          	sw	ra,12(sp)
     554:	00050413          	mv	s0,a0
     558:	00000097          	auipc	ra,0x0
     55c:	d9c080e7          	jalr	-612(ra) # 2f4 <_ZNK11flatbuffers5Table22GetOptionalFieldOffsetEt>
     560:	02050063          	beqz	a0,580 <_ZN11flatbuffers5Table10GetPointerIPKNS_6VectorIlmEEmEET_t+0x38>
     564:	00a40533          	add	a0,s0,a0
     568:	00052783          	lw	a5,0(a0)
     56c:	00f50533          	add	a0,a0,a5
     570:	00c12083          	lw	ra,12(sp)
     574:	00812403          	lw	s0,8(sp)
     578:	01010113          	addi	sp,sp,16
     57c:	00008067          	ret
     580:	00000513          	li	a0,0
     584:	fedff06f          	j	570 <_ZN11flatbuffers5Table10GetPointerIPKNS_6VectorIlmEEmEET_t+0x28>

00000588 <_ZN11flatbuffers5Table10GetPointerIPKNS_6VectorINS_6OffsetIN6tflite8SubGraphEEEmEEmEET_t>:
     588:	ff010113          	addi	sp,sp,-16
     58c:	00812423          	sw	s0,8(sp)
     590:	00112623          	sw	ra,12(sp)
     594:	00050413          	mv	s0,a0
     598:	00000097          	auipc	ra,0x0
     59c:	d5c080e7          	jalr	-676(ra) # 2f4 <_ZNK11flatbuffers5Table22GetOptionalFieldOffsetEt>
     5a0:	02050063          	beqz	a0,5c0 <_ZN11flatbuffers5Table10GetPointerIPKNS_6VectorINS_6OffsetIN6tflite8SubGraphEEEmEEmEET_t+0x38>
     5a4:	00a40533          	add	a0,s0,a0
     5a8:	00052783          	lw	a5,0(a0)
     5ac:	00f50533          	add	a0,a0,a5
     5b0:	00c12083          	lw	ra,12(sp)
     5b4:	00812403          	lw	s0,8(sp)
     5b8:	01010113          	addi	sp,sp,16
     5bc:	00008067          	ret
     5c0:	00000513          	li	a0,0
     5c4:	fedff06f          	j	5b0 <_ZN11flatbuffers5Table10GetPointerIPKNS_6VectorINS_6OffsetIN6tflite8SubGraphEEEmEEmEET_t+0x28>

000005c8 <_ZN6tflite23MicroInterpreterContext16external_contextEv>:
     5c8:	02452503          	lw	a0,36(a0)
     5cc:	00008067          	ret

000005d0 <_ZN6tflite23MicroInterpreterContext5graphEv>:
     5d0:	01452503          	lw	a0,20(a0)
     5d4:	00008067          	ret

000005d8 <_ZN6tflite23MicroInterpreterContextD0Ev>:
     5d8:	00008067          	ret

000005dc <_ZN6tflite23MicroInterpreterContext24AllocateTempTfLiteTensorEi>:
     5dc:	00050793          	mv	a5,a0
     5e0:	01052503          	lw	a0,16(a0)
     5e4:	0147a603          	lw	a2,20(a5)
     5e8:	00058693          	mv	a3,a1
     5ec:	00052703          	lw	a4,0(a0)
     5f0:	0187a583          	lw	a1,24(a5)
     5f4:	00472303          	lw	t1,4(a4)
     5f8:	01462703          	lw	a4,20(a2)
     5fc:	01062603          	lw	a2,16(a2)
     600:	00030067          	jr	t1

00000604 <_ZN6tflite23MicroInterpreterContext26DeallocateTempTfLiteTensorEP12TfLiteTensor>:
     604:	01052503          	lw	a0,16(a0)
     608:	00052783          	lw	a5,0(a0)
     60c:	0087a303          	lw	t1,8(a5)
     610:	00030067          	jr	t1

00000614 <_ZN6tflite23MicroInterpreterContext13GetEvalTensorEi>:
     614:	01452783          	lw	a5,20(a0)
     618:	00c00513          	li	a0,12
     61c:	02a585b3          	mul	a1,a1,a0
     620:	0147a703          	lw	a4,20(a5)
     624:	0107a783          	lw	a5,16(a5)
     628:	00371713          	slli	a4,a4,0x3
     62c:	00e787b3          	add	a5,a5,a4
     630:	0047a503          	lw	a0,4(a5)
     634:	00b50533          	add	a0,a0,a1
     638:	00008067          	ret

0000063c <_ZN6tflite23MicroInterpreterContext20SetAlternateProfilerEPNS_22MicroProfilerInterfaceE>:
     63c:	02b52423          	sw	a1,40(a0)
     640:	00000513          	li	a0,0
     644:	00008067          	ret

00000648 <_ZNK6tflite23MicroInterpreterContext20GetAlternateProfilerEv>:
     648:	02852503          	lw	a0,40(a0)
     64c:	00008067          	ret

00000650 <_ZN6tflite23MicroInterpreterContext22SetDecompressionMemoryEPKNS_12MicroContext21AlternateMemoryRegionEj>:
     650:	01c52783          	lw	a5,28(a0)
     654:	00079663          	bnez	a5,660 <_ZN6tflite23MicroInterpreterContext22SetDecompressionMemoryEPKNS_12MicroContext21AlternateMemoryRegionEj+0x10>
     658:	00003317          	auipc	t1,0x3
     65c:	9e030067          	jr	-1568(t1) # 3038 <_ZN6tflite12MicroContext22SetDecompressionMemoryEPKNS0_21AlternateMemoryRegionEj>
     660:	00100513          	li	a0,1
     664:	00008067          	ret

00000668 <_Z9AbortImplv>:
     668:	8004a517          	auipc	a0,0x8004a
     66c:	ff010113          	addi	sp,sp,-16
     670:	0b450513          	addi	a0,a0,180 # 8004a71c <__stack_top+0xfffd38cc>
     674:	00112623          	sw	ra,12(sp)
     678:	00001097          	auipc	ra,0x1
     67c:	f58080e7          	jalr	-168(ra) # 15d0 <_Z11MicroPrintfPKcz>
     680:	0000006f          	j	680 <_Z9AbortImplv+0x18>

00000684 <_ZN6tflite23MicroInterpreterContext24AllocatePersistentBufferEj>:
     684:	01c52703          	lw	a4,28(a0)
     688:	00100793          	li	a5,1
     68c:	00e7fa63          	bgeu	a5,a4,6a0 <_ZN6tflite23MicroInterpreterContext24AllocatePersistentBufferEj+0x1c>
     690:	ff010113          	addi	sp,sp,-16
     694:	00112623          	sw	ra,12(sp)
     698:	00000097          	auipc	ra,0x0
     69c:	fd0080e7          	jalr	-48(ra) # 668 <_Z9AbortImplv>
     6a0:	01052503          	lw	a0,16(a0)
     6a4:	00052783          	lw	a5,0(a0)
     6a8:	01c7a303          	lw	t1,28(a5)
     6ac:	00030067          	jr	t1

000006b0 <_ZN6tflite23MicroInterpreterContext27RequestScratchBufferInArenaEjPi>:
     6b0:	01c52703          	lw	a4,28(a0)
     6b4:	00100793          	li	a5,1
     6b8:	00f70a63          	beq	a4,a5,6cc <_ZN6tflite23MicroInterpreterContext27RequestScratchBufferInArenaEjPi+0x1c>
     6bc:	ff010113          	addi	sp,sp,-16
     6c0:	00112623          	sw	ra,12(sp)
     6c4:	00000097          	auipc	ra,0x0
     6c8:	fa4080e7          	jalr	-92(ra) # 668 <_Z9AbortImplv>
     6cc:	01452783          	lw	a5,20(a0)
     6d0:	00060693          	mv	a3,a2
     6d4:	01052503          	lw	a0,16(a0)
     6d8:	0147a603          	lw	a2,20(a5)
     6dc:	00002317          	auipc	t1,0x2
     6e0:	a9c30067          	jr	-1380(t1) # 2178 <_ZN6tflite14MicroAllocator27RequestScratchBufferInArenaEjiPi>

000006e4 <_ZN6tflite23MicroInterpreterContext16GetScratchBufferEi>:
     6e4:	01c52703          	lw	a4,28(a0)
     6e8:	00300793          	li	a5,3
     6ec:	00f70a63          	beq	a4,a5,700 <_ZN6tflite23MicroInterpreterContext16GetScratchBufferEi+0x1c>
     6f0:	ff010113          	addi	sp,sp,-16
     6f4:	00112623          	sw	ra,12(sp)
     6f8:	00000097          	auipc	ra,0x0
     6fc:	f70080e7          	jalr	-144(ra) # 668 <_Z9AbortImplv>
     700:	02052783          	lw	a5,32(a0)
     704:	00259593          	slli	a1,a1,0x2
     708:	00b787b3          	add	a5,a5,a1
     70c:	0007a503          	lw	a0,0(a5)
     710:	00008067          	ret

00000714 <_ZN6tflite23MicroInterpreterContext18AllocateTempBufferEjj>:
     714:	01c52703          	lw	a4,28(a0)
     718:	00100793          	li	a5,1
     71c:	00f70a63          	beq	a4,a5,730 <_ZN6tflite23MicroInterpreterContext18AllocateTempBufferEjj+0x1c>
     720:	ff010113          	addi	sp,sp,-16
     724:	00112623          	sw	ra,12(sp)
     728:	00000097          	auipc	ra,0x0
     72c:	f40080e7          	jalr	-192(ra) # 668 <_Z9AbortImplv>
     730:	01052503          	lw	a0,16(a0)
     734:	00052783          	lw	a5,0(a0)
     738:	00c7a303          	lw	t1,12(a5)
     73c:	00030067          	jr	t1

00000740 <_ZN6tflite23MicroInterpreterContext20DeallocateTempBufferEPh>:
     740:	01c52703          	lw	a4,28(a0)
     744:	00100793          	li	a5,1
     748:	00f70a63          	beq	a4,a5,75c <_ZN6tflite23MicroInterpreterContext20DeallocateTempBufferEPh+0x1c>
     74c:	ff010113          	addi	sp,sp,-16
     750:	00112623          	sw	ra,12(sp)
     754:	00000097          	auipc	ra,0x0
     758:	f14080e7          	jalr	-236(ra) # 668 <_Z9AbortImplv>
     75c:	01052503          	lw	a0,16(a0)
     760:	00052783          	lw	a5,0(a0)
     764:	0107a303          	lw	t1,16(a5)
     768:	00030067          	jr	t1

0000076c <_ZN6tflite23MicroInterpreterContext20set_external_contextEPv>:
     76c:	01c52783          	lw	a5,28(a0)
     770:	ff010113          	addi	sp,sp,-16
     774:	00112623          	sw	ra,12(sp)
     778:	00100713          	li	a4,1
     77c:	00f77a63          	bgeu	a4,a5,790 <_ZN6tflite23MicroInterpreterContext20set_external_contextEPv+0x24>
     780:	00300713          	li	a4,3
     784:	00e78663          	beq	a5,a4,790 <_ZN6tflite23MicroInterpreterContext20set_external_contextEPv+0x24>
     788:	00000097          	auipc	ra,0x0
     78c:	ee0080e7          	jalr	-288(ra) # 668 <_Z9AbortImplv>
     790:	02452603          	lw	a2,36(a0)
     794:	00058463          	beqz	a1,79c <_ZN6tflite23MicroInterpreterContext20set_external_contextEPv+0x30>
     798:	02060263          	beqz	a2,7bc <_ZN6tflite23MicroInterpreterContext20set_external_contextEPv+0x50>
     79c:	8004a517          	auipc	a0,0x8004a
     7a0:	f8850513          	addi	a0,a0,-120 # 8004a724 <__stack_top+0xfffd38d4>
     7a4:	00001097          	auipc	ra,0x1
     7a8:	e2c080e7          	jalr	-468(ra) # 15d0 <_Z11MicroPrintfPKcz>
     7ac:	00100513          	li	a0,1
     7b0:	00c12083          	lw	ra,12(sp)
     7b4:	01010113          	addi	sp,sp,16
     7b8:	00008067          	ret
     7bc:	02b52223          	sw	a1,36(a0)
     7c0:	00000513          	li	a0,0
     7c4:	fedff06f          	j	7b0 <_ZN6tflite23MicroInterpreterContext20set_external_contextEPv+0x44>

000007c8 <_ZN6tflite23MicroInterpreterContext27AllocateDecompressionMemoryEjj>:
     7c8:	01c52703          	lw	a4,28(a0)
     7cc:	00100793          	li	a5,1
     7d0:	00f70a63          	beq	a4,a5,7e4 <_ZN6tflite23MicroInterpreterContext27AllocateDecompressionMemoryEjj+0x1c>
     7d4:	ff010113          	addi	sp,sp,-16
     7d8:	00112623          	sw	ra,12(sp)
     7dc:	00000097          	auipc	ra,0x0
     7e0:	e8c080e7          	jalr	-372(ra) # 668 <_Z9AbortImplv>
     7e4:	00003317          	auipc	t1,0x3
     7e8:	8c030067          	jr	-1856(t1) # 30a4 <_ZN6tflite12MicroContext27AllocateDecompressionMemoryEjj>

000007ec <_ZN6tflite23MicroInterpreterContextC1EPNS_14MicroAllocatorEPKNS_5ModelEPNS_21MicroInterpreterGraphE>:
     7ec:	8004a797          	auipc	a5,0x8004a
     7f0:	ee878793          	addi	a5,a5,-280 # 8004a6d4 <__stack_top+0xfffd3884>
     7f4:	00052223          	sw	zero,4(a0)
     7f8:	00052423          	sw	zero,8(a0)
     7fc:	00052623          	sw	zero,12(a0)
     800:	00f52023          	sw	a5,0(a0)
     804:	00b52823          	sw	a1,16(a0)
     808:	00d52a23          	sw	a3,20(a0)
     80c:	00c52c23          	sw	a2,24(a0)
     810:	00052e23          	sw	zero,28(a0)
     814:	02052023          	sw	zero,32(a0)
     818:	02052223          	sw	zero,36(a0)
     81c:	02052423          	sw	zero,40(a0)
     820:	00008067          	ret

00000824 <_ZN6tflite23MicroInterpreterContext19SetInterpreterStateENS0_16InterpreterStateE>:
     824:	00b52e23          	sw	a1,28(a0)
     828:	00008067          	ret

0000082c <_ZN6tflite21MicroInterpreterGraph20GetResourceVariablesEv>:
     82c:	01c52503          	lw	a0,28(a0)
     830:	00008067          	ret

00000834 <_ZN6tflite12_GLOBAL__N_122OpNameFromRegistrationEPK16TFLMRegistration>:
     834:	01452783          	lw	a5,20(a0)
     838:	02000713          	li	a4,32
     83c:	00e79663          	bne	a5,a4,848 <_ZN6tflite12_GLOBAL__N_122OpNameFromRegistrationEPK16TFLMRegistration+0x14>
     840:	01852503          	lw	a0,24(a0)
     844:	00008067          	ret
     848:	8004b517          	auipc	a0,0x8004b
     84c:	0d100713          	li	a4,209
     850:	06050513          	addi	a0,a0,96 # 8004b8a8 <__stack_top+0xfffd4a58>
     854:	00f76c63          	bltu	a4,a5,86c <_ZN6tflite12_GLOBAL__N_122OpNameFromRegistrationEPK16TFLMRegistration+0x38>
     858:	80049717          	auipc	a4,0x80049
     85c:	00279793          	slli	a5,a5,0x2
     860:	de070713          	addi	a4,a4,-544 # 80049638 <__stack_top+0xfffd27e8>
     864:	00e787b3          	add	a5,a5,a4
     868:	0007a503          	lw	a0,0(a5)
     86c:	00008067          	ret

00000870 <_ZN6tflite21MicroInterpreterGraphD0Ev>:
     870:	00008067          	ret

00000874 <_ZN6tflite21MicroInterpreterGraph13InitSubgraphsEv>:
     874:	fd010113          	addi	sp,sp,-48
     878:	01312e23          	sw	s3,28(sp)
     87c:	01412c23          	sw	s4,24(sp)
     880:	01852983          	lw	s3,24(a0)
     884:	01452a03          	lw	s4,20(a0)
     888:	02812423          	sw	s0,40(sp)
     88c:	03212023          	sw	s2,32(sp)
     890:	01512a23          	sw	s5,20(sp)
     894:	02112623          	sw	ra,44(sp)
     898:	02912223          	sw	s1,36(sp)
     89c:	01612823          	sw	s6,16(sp)
     8a0:	01712623          	sw	s7,12(sp)
     8a4:	00050413          	mv	s0,a0
     8a8:	00000913          	li	s2,0
     8ac:	02000a93          	li	s5,32
     8b0:	02042783          	lw	a5,32(s0)
     8b4:	0007a783          	lw	a5,0(a5)
     8b8:	08f97663          	bgeu	s2,a5,944 <_ZN6tflite21MicroInterpreterGraph13InitSubgraphsEv+0xd0>
     8bc:	00842503          	lw	a0,8(s0)
     8c0:	01242a23          	sw	s2,20(s0)
     8c4:	00090593          	mv	a1,s2
     8c8:	00001097          	auipc	ra,0x1
     8cc:	0d4080e7          	jalr	212(ra) # 199c <_ZN6tflite20NumSubgraphOperatorsEPKNS_5ModelEi>
     8d0:	00050b13          	mv	s6,a0
     8d4:	00042c23          	sw	zero,24(s0)
     8d8:	00391b93          	slli	s7,s2,0x3
     8dc:	01842483          	lw	s1,24(s0)
     8e0:	0564fe63          	bgeu	s1,s6,93c <_ZN6tflite21MicroInterpreterGraph13InitSubgraphsEv+0xc8>
     8e4:	01042703          	lw	a4,16(s0)
     8e8:	00549793          	slli	a5,s1,0x5
     8ec:	01770733          	add	a4,a4,s7
     8f0:	00072483          	lw	s1,0(a4)
     8f4:	00f484b3          	add	s1,s1,a5
     8f8:	01c4a783          	lw	a5,28(s1)
     8fc:	0147a703          	lw	a4,20(a5)
     900:	03571863          	bne	a4,s5,930 <_ZN6tflite21MicroInterpreterGraph13InitSubgraphsEv+0xbc>
     904:	0144a583          	lw	a1,20(s1)
     908:	0184a603          	lw	a2,24(s1)
     90c:	0007a783          	lw	a5,0(a5)
     910:	00078863          	beqz	a5,920 <_ZN6tflite21MicroInterpreterGraph13InitSubgraphsEv+0xac>
     914:	00442503          	lw	a0,4(s0)
     918:	000780e7          	jalr	a5
     91c:	00a4a623          	sw	a0,12(s1)
     920:	01842783          	lw	a5,24(s0)
     924:	00178793          	addi	a5,a5,1
     928:	00f42c23          	sw	a5,24(s0)
     92c:	fb1ff06f          	j	8dc <_ZN6tflite21MicroInterpreterGraph13InitSubgraphsEv+0x68>
     930:	0104a583          	lw	a1,16(s1)
     934:	00000613          	li	a2,0
     938:	fd5ff06f          	j	90c <_ZN6tflite21MicroInterpreterGraph13InitSubgraphsEv+0x98>
     93c:	00190913          	addi	s2,s2,1
     940:	f71ff06f          	j	8b0 <_ZN6tflite21MicroInterpreterGraph13InitSubgraphsEv+0x3c>
     944:	01442a23          	sw	s4,20(s0)
     948:	01342c23          	sw	s3,24(s0)
     94c:	02c12083          	lw	ra,44(sp)
     950:	02812403          	lw	s0,40(sp)
     954:	02412483          	lw	s1,36(sp)
     958:	02012903          	lw	s2,32(sp)
     95c:	01c12983          	lw	s3,28(sp)
     960:	01812a03          	lw	s4,24(sp)
     964:	01412a83          	lw	s5,20(sp)
     968:	01012b03          	lw	s6,16(sp)
     96c:	00c12b83          	lw	s7,12(sp)
     970:	00000513          	li	a0,0
     974:	03010113          	addi	sp,sp,48
     978:	00008067          	ret

0000097c <_ZN6tflite21MicroInterpreterGraph14ResetSubgraphsEv>:
     97c:	fe010113          	addi	sp,sp,-32
     980:	01212823          	sw	s2,16(sp)
     984:	01312623          	sw	s3,12(sp)
     988:	01852903          	lw	s2,24(a0)
     98c:	01452983          	lw	s3,20(a0)
     990:	00812c23          	sw	s0,24(sp)
     994:	00912a23          	sw	s1,20(sp)
     998:	00112e23          	sw	ra,28(sp)
     99c:	01412423          	sw	s4,8(sp)
     9a0:	01512223          	sw	s5,4(sp)
     9a4:	00050413          	mv	s0,a0
     9a8:	00000493          	li	s1,0
     9ac:	02042783          	lw	a5,32(s0)
     9b0:	0007a783          	lw	a5,0(a5)
     9b4:	06f4fa63          	bgeu	s1,a5,a28 <_ZN6tflite21MicroInterpreterGraph14ResetSubgraphsEv+0xac>
     9b8:	00842503          	lw	a0,8(s0)
     9bc:	00942a23          	sw	s1,20(s0)
     9c0:	00048593          	mv	a1,s1
     9c4:	00001097          	auipc	ra,0x1
     9c8:	fd8080e7          	jalr	-40(ra) # 199c <_ZN6tflite20NumSubgraphOperatorsEPKNS_5ModelEi>
     9cc:	00050a13          	mv	s4,a0
     9d0:	00042c23          	sw	zero,24(s0)
     9d4:	00349a93          	slli	s5,s1,0x3
     9d8:	01842783          	lw	a5,24(s0)
     9dc:	0547f263          	bgeu	a5,s4,a20 <_ZN6tflite21MicroInterpreterGraph14ResetSubgraphsEv+0xa4>
     9e0:	01042683          	lw	a3,16(s0)
     9e4:	00579713          	slli	a4,a5,0x5
     9e8:	015686b3          	add	a3,a3,s5
     9ec:	0006a783          	lw	a5,0(a3)
     9f0:	00e787b3          	add	a5,a5,a4
     9f4:	01c7a703          	lw	a4,28(a5)
     9f8:	00070c63          	beqz	a4,a10 <_ZN6tflite21MicroInterpreterGraph14ResetSubgraphsEv+0x94>
     9fc:	01072703          	lw	a4,16(a4)
     a00:	00070863          	beqz	a4,a10 <_ZN6tflite21MicroInterpreterGraph14ResetSubgraphsEv+0x94>
     a04:	00c7a583          	lw	a1,12(a5)
     a08:	00442503          	lw	a0,4(s0)
     a0c:	000700e7          	jalr	a4
     a10:	01842783          	lw	a5,24(s0)
     a14:	00178793          	addi	a5,a5,1
     a18:	00f42c23          	sw	a5,24(s0)
     a1c:	fbdff06f          	j	9d8 <_ZN6tflite21MicroInterpreterGraph14ResetSubgraphsEv+0x5c>
     a20:	00148493          	addi	s1,s1,1
     a24:	f89ff06f          	j	9ac <_ZN6tflite21MicroInterpreterGraph14ResetSubgraphsEv+0x30>
     a28:	01342a23          	sw	s3,20(s0)
     a2c:	01242c23          	sw	s2,24(s0)
     a30:	01c12083          	lw	ra,28(sp)
     a34:	01812403          	lw	s0,24(sp)
     a38:	01412483          	lw	s1,20(sp)
     a3c:	01012903          	lw	s2,16(sp)
     a40:	00c12983          	lw	s3,12(sp)
     a44:	00812a03          	lw	s4,8(sp)
     a48:	00412a83          	lw	s5,4(sp)
     a4c:	00000513          	li	a0,0
     a50:	02010113          	addi	sp,sp,32
     a54:	00008067          	ret

00000a58 <_ZN6tflite21MicroInterpreterGraph13FreeSubgraphsEv>:
     a58:	fe010113          	addi	sp,sp,-32
     a5c:	01212823          	sw	s2,16(sp)
     a60:	01312623          	sw	s3,12(sp)
     a64:	01852903          	lw	s2,24(a0)
     a68:	01452983          	lw	s3,20(a0)
     a6c:	00812c23          	sw	s0,24(sp)
     a70:	00912a23          	sw	s1,20(sp)
     a74:	00112e23          	sw	ra,28(sp)
     a78:	01412423          	sw	s4,8(sp)
     a7c:	01512223          	sw	s5,4(sp)
     a80:	00050413          	mv	s0,a0
     a84:	00000493          	li	s1,0
     a88:	02042783          	lw	a5,32(s0)
     a8c:	0007a783          	lw	a5,0(a5)
     a90:	06f4fa63          	bgeu	s1,a5,b04 <_ZN6tflite21MicroInterpreterGraph13FreeSubgraphsEv+0xac>
     a94:	00842503          	lw	a0,8(s0)
     a98:	00942a23          	sw	s1,20(s0)
     a9c:	00048593          	mv	a1,s1
     aa0:	00001097          	auipc	ra,0x1
     aa4:	efc080e7          	jalr	-260(ra) # 199c <_ZN6tflite20NumSubgraphOperatorsEPKNS_5ModelEi>
     aa8:	00050a13          	mv	s4,a0
     aac:	00042c23          	sw	zero,24(s0)
     ab0:	00349a93          	slli	s5,s1,0x3
     ab4:	01842783          	lw	a5,24(s0)
     ab8:	0547f263          	bgeu	a5,s4,afc <_ZN6tflite21MicroInterpreterGraph13FreeSubgraphsEv+0xa4>
     abc:	01042683          	lw	a3,16(s0)
     ac0:	00579713          	slli	a4,a5,0x5
     ac4:	015686b3          	add	a3,a3,s5
     ac8:	0006a783          	lw	a5,0(a3)
     acc:	00e787b3          	add	a5,a5,a4
     ad0:	01c7a703          	lw	a4,28(a5)
     ad4:	00070c63          	beqz	a4,aec <_ZN6tflite21MicroInterpreterGraph13FreeSubgraphsEv+0x94>
     ad8:	00472703          	lw	a4,4(a4)
     adc:	00070863          	beqz	a4,aec <_ZN6tflite21MicroInterpreterGraph13FreeSubgraphsEv+0x94>
     ae0:	00c7a583          	lw	a1,12(a5)
     ae4:	00442503          	lw	a0,4(s0)
     ae8:	000700e7          	jalr	a4
     aec:	01842783          	lw	a5,24(s0)
     af0:	00178793          	addi	a5,a5,1
     af4:	00f42c23          	sw	a5,24(s0)
     af8:	fbdff06f          	j	ab4 <_ZN6tflite21MicroInterpreterGraph13FreeSubgraphsEv+0x5c>
     afc:	00148493          	addi	s1,s1,1
     b00:	f89ff06f          	j	a88 <_ZN6tflite21MicroInterpreterGraph13FreeSubgraphsEv+0x30>
     b04:	01342a23          	sw	s3,20(s0)
     b08:	01242c23          	sw	s2,24(s0)
     b0c:	01c12083          	lw	ra,28(sp)
     b10:	01812403          	lw	s0,24(sp)
     b14:	01412483          	lw	s1,20(sp)
     b18:	01012903          	lw	s2,16(sp)
     b1c:	00c12983          	lw	s3,12(sp)
     b20:	00812a03          	lw	s4,8(sp)
     b24:	00412a83          	lw	s5,4(sp)
     b28:	00000513          	li	a0,0
     b2c:	02010113          	addi	sp,sp,32
     b30:	00008067          	ret

00000b34 <_ZN6tflite21MicroInterpreterGraph16PrepareSubgraphsEv>:
     b34:	fb010113          	addi	sp,sp,-80
     b38:	03312e23          	sw	s3,60(sp)
     b3c:	03412c23          	sw	s4,56(sp)
     b40:	01852983          	lw	s3,24(a0)
     b44:	01452a03          	lw	s4,20(a0)
     b48:	04812423          	sw	s0,72(sp)
     b4c:	04912223          	sw	s1,68(sp)
     b50:	03512a23          	sw	s5,52(sp)
     b54:	03612823          	sw	s6,48(sp)
     b58:	03a12023          	sw	s10,32(sp)
     b5c:	04112623          	sw	ra,76(sp)
     b60:	05212023          	sw	s2,64(sp)
     b64:	03712623          	sw	s7,44(sp)
     b68:	03812423          	sw	s8,40(sp)
     b6c:	03912223          	sw	s9,36(sp)
     b70:	01b12e23          	sw	s11,28(sp)
     b74:	00050413          	mv	s0,a0
     b78:	00000d13          	li	s10,0
     b7c:	00c00a93          	li	s5,12
     b80:	00100493          	li	s1,1
     b84:	00200b13          	li	s6,2
     b88:	02042783          	lw	a5,32(s0)
     b8c:	0007a783          	lw	a5,0(a5)
     b90:	1cfd7c63          	bgeu	s10,a5,d68 <_ZN6tflite21MicroInterpreterGraph16PrepareSubgraphsEv+0x234>
     b94:	00842503          	lw	a0,8(s0)
     b98:	01a42a23          	sw	s10,20(s0)
     b9c:	000d0593          	mv	a1,s10
     ba0:	00001097          	auipc	ra,0x1
     ba4:	dfc080e7          	jalr	-516(ra) # 199c <_ZN6tflite20NumSubgraphOperatorsEPKNS_5ModelEi>
     ba8:	00050b93          	mv	s7,a0
     bac:	00042c23          	sw	zero,24(s0)
     bb0:	003d1913          	slli	s2,s10,0x3
     bb4:	00300c13          	li	s8,3
     bb8:	01842c83          	lw	s9,24(s0)
     bbc:	1b7cf263          	bgeu	s9,s7,d60 <_ZN6tflite21MicroInterpreterGraph16PrepareSubgraphsEv+0x22c>
     bc0:	01042703          	lw	a4,16(s0)
     bc4:	005c9793          	slli	a5,s9,0x5
     bc8:	01270733          	add	a4,a4,s2
     bcc:	00072c83          	lw	s9,0(a4)
     bd0:	00fc8cb3          	add	s9,s9,a5
     bd4:	01ccad83          	lw	s11,28(s9)
     bd8:	008da783          	lw	a5,8(s11)
     bdc:	04078463          	beqz	a5,c24 <_ZN6tflite21MicroInterpreterGraph16PrepareSubgraphsEv+0xf0>
     be0:	00442503          	lw	a0,4(s0)
     be4:	000c8593          	mv	a1,s9
     be8:	000780e7          	jalr	a5
     bec:	02050c63          	beqz	a0,c24 <_ZN6tflite21MicroInterpreterGraph16PrepareSubgraphsEv+0xf0>
     bf0:	00a12623          	sw	a0,12(sp)
     bf4:	000d8513          	mv	a0,s11
     bf8:	00000097          	auipc	ra,0x0
     bfc:	c3c080e7          	jalr	-964(ra) # 834 <_ZN6tflite12_GLOBAL__N_122OpNameFromRegistrationEPK16TFLMRegistration>
     c00:	00c12683          	lw	a3,12(sp)
     c04:	01842603          	lw	a2,24(s0)
     c08:	00050593          	mv	a1,a0
     c0c:	8004a517          	auipc	a0,0x8004a
     c10:	c0450513          	addi	a0,a0,-1020 # 8004a810 <__stack_top+0xfffd39c0>
     c14:	00001097          	auipc	ra,0x1
     c18:	9bc080e7          	jalr	-1604(ra) # 15d0 <_Z11MicroPrintfPKcz>
     c1c:	00100513          	li	a0,1
     c20:	1540006f          	j	d74 <_ZN6tflite21MicroInterpreterGraph16PrepareSubgraphsEv+0x240>
     c24:	01042783          	lw	a5,16(s0)
     c28:	004ca583          	lw	a1,4(s9)
     c2c:	012787b3          	add	a5,a5,s2
     c30:	0047a803          	lw	a6,4(a5)
     c34:	10058663          	beqz	a1,d40 <_ZN6tflite21MicroInterpreterGraph16PrepareSubgraphsEv+0x20c>
     c38:	0005a883          	lw	a7,0(a1)
     c3c:	00000513          	li	a0,0
     c40:	00458593          	addi	a1,a1,4
     c44:	0f155e63          	bge	a0,a7,d40 <_ZN6tflite21MicroInterpreterGraph16PrepareSubgraphsEv+0x20c>
     c48:	0005a703          	lw	a4,0(a1)
     c4c:	0e074463          	bltz	a4,d34 <_ZN6tflite21MicroInterpreterGraph16PrepareSubgraphsEv+0x200>
     c50:	035707b3          	mul	a5,a4,s5
     c54:	00f807b3          	add	a5,a6,a5
     c58:	0047a783          	lw	a5,4(a5)
     c5c:	0007a683          	lw	a3,0(a5)
     c60:	00969663          	bne	a3,s1,c6c <_ZN6tflite21MicroInterpreterGraph16PrepareSubgraphsEv+0x138>
     c64:	0047a603          	lw	a2,4(a5)
     c68:	0c060663          	beqz	a2,d34 <_ZN6tflite21MicroInterpreterGraph16PrepareSubgraphsEv+0x200>
     c6c:	00269693          	slli	a3,a3,0x2
     c70:	00478793          	addi	a5,a5,4
     c74:	00d78633          	add	a2,a5,a3
     c78:	4046d693          	srai	a3,a3,0x4
     c7c:	06d05e63          	blez	a3,cf8 <_ZN6tflite21MicroInterpreterGraph16PrepareSubgraphsEv+0x1c4>
     c80:	0007a303          	lw	t1,0(a5)
     c84:	00605863          	blez	t1,c94 <_ZN6tflite21MicroInterpreterGraph16PrepareSubgraphsEv+0x160>
     c88:	0047a303          	lw	t1,4(a5)
     c8c:	04604063          	bgtz	t1,ccc <_ZN6tflite21MicroInterpreterGraph16PrepareSubgraphsEv+0x198>
     c90:	00478793          	addi	a5,a5,4
     c94:	0af60063          	beq	a2,a5,d34 <_ZN6tflite21MicroInterpreterGraph16PrepareSubgraphsEv+0x200>
     c98:	000d8513          	mv	a0,s11
     c9c:	00e12623          	sw	a4,12(sp)
     ca0:	00000097          	auipc	ra,0x0
     ca4:	b94080e7          	jalr	-1132(ra) # 834 <_ZN6tflite12_GLOBAL__N_122OpNameFromRegistrationEPK16TFLMRegistration>
     ca8:	00c12703          	lw	a4,12(sp)
     cac:	01442683          	lw	a3,20(s0)
     cb0:	01842583          	lw	a1,24(s0)
     cb4:	00050613          	mv	a2,a0
     cb8:	8004a517          	auipc	a0,0x8004a
     cbc:	b9050513          	addi	a0,a0,-1136 # 8004a848 <__stack_top+0xfffd39f8>
     cc0:	00001097          	auipc	ra,0x1
     cc4:	910080e7          	jalr	-1776(ra) # 15d0 <_Z11MicroPrintfPKcz>
     cc8:	f55ff06f          	j	c1c <_ZN6tflite21MicroInterpreterGraph16PrepareSubgraphsEv+0xe8>
     ccc:	0087a303          	lw	t1,8(a5)
     cd0:	00604663          	bgtz	t1,cdc <_ZN6tflite21MicroInterpreterGraph16PrepareSubgraphsEv+0x1a8>
     cd4:	00878793          	addi	a5,a5,8
     cd8:	fbdff06f          	j	c94 <_ZN6tflite21MicroInterpreterGraph16PrepareSubgraphsEv+0x160>
     cdc:	00c7a303          	lw	t1,12(a5)
     ce0:	00604663          	bgtz	t1,cec <_ZN6tflite21MicroInterpreterGraph16PrepareSubgraphsEv+0x1b8>
     ce4:	00c78793          	addi	a5,a5,12
     ce8:	fadff06f          	j	c94 <_ZN6tflite21MicroInterpreterGraph16PrepareSubgraphsEv+0x160>
     cec:	01078793          	addi	a5,a5,16
     cf0:	fff68693          	addi	a3,a3,-1
     cf4:	f89ff06f          	j	c7c <_ZN6tflite21MicroInterpreterGraph16PrepareSubgraphsEv+0x148>
     cf8:	40f606b3          	sub	a3,a2,a5
     cfc:	4026d693          	srai	a3,a3,0x2
     d00:	03668063          	beq	a3,s6,d20 <_ZN6tflite21MicroInterpreterGraph16PrepareSubgraphsEv+0x1ec>
     d04:	01868863          	beq	a3,s8,d14 <_ZN6tflite21MicroInterpreterGraph16PrepareSubgraphsEv+0x1e0>
     d08:	02968263          	beq	a3,s1,d2c <_ZN6tflite21MicroInterpreterGraph16PrepareSubgraphsEv+0x1f8>
     d0c:	00060793          	mv	a5,a2
     d10:	f85ff06f          	j	c94 <_ZN6tflite21MicroInterpreterGraph16PrepareSubgraphsEv+0x160>
     d14:	0007a683          	lw	a3,0(a5)
     d18:	f6d05ee3          	blez	a3,c94 <_ZN6tflite21MicroInterpreterGraph16PrepareSubgraphsEv+0x160>
     d1c:	00478793          	addi	a5,a5,4
     d20:	0007a683          	lw	a3,0(a5)
     d24:	f6d058e3          	blez	a3,c94 <_ZN6tflite21MicroInterpreterGraph16PrepareSubgraphsEv+0x160>
     d28:	00478793          	addi	a5,a5,4
     d2c:	0007a683          	lw	a3,0(a5)
     d30:	f6d052e3          	blez	a3,c94 <_ZN6tflite21MicroInterpreterGraph16PrepareSubgraphsEv+0x160>
     d34:	00150513          	addi	a0,a0,1
     d38:	00458593          	addi	a1,a1,4
     d3c:	f09ff06f          	j	c44 <_ZN6tflite21MicroInterpreterGraph16PrepareSubgraphsEv+0x110>
     d40:	01842583          	lw	a1,24(s0)
     d44:	00c42503          	lw	a0,12(s0)
     d48:	00001097          	auipc	ra,0x1
     d4c:	4e8080e7          	jalr	1256(ra) # 2230 <_ZN6tflite14MicroAllocator28FinishPrepareNodeAllocationsEi>
     d50:	01842783          	lw	a5,24(s0)
     d54:	00178793          	addi	a5,a5,1
     d58:	00f42c23          	sw	a5,24(s0)
     d5c:	e5dff06f          	j	bb8 <_ZN6tflite21MicroInterpreterGraph16PrepareSubgraphsEv+0x84>
     d60:	001d0d13          	addi	s10,s10,1
     d64:	e25ff06f          	j	b88 <_ZN6tflite21MicroInterpreterGraph16PrepareSubgraphsEv+0x54>
     d68:	01442a23          	sw	s4,20(s0)
     d6c:	01342c23          	sw	s3,24(s0)
     d70:	00000513          	li	a0,0
     d74:	04c12083          	lw	ra,76(sp)
     d78:	04812403          	lw	s0,72(sp)
     d7c:	04412483          	lw	s1,68(sp)
     d80:	04012903          	lw	s2,64(sp)
     d84:	03c12983          	lw	s3,60(sp)
     d88:	03812a03          	lw	s4,56(sp)
     d8c:	03412a83          	lw	s5,52(sp)
     d90:	03012b03          	lw	s6,48(sp)
     d94:	02c12b83          	lw	s7,44(sp)
     d98:	02812c03          	lw	s8,40(sp)
     d9c:	02412c83          	lw	s9,36(sp)
     da0:	02012d03          	lw	s10,32(sp)
     da4:	01c12d83          	lw	s11,28(sp)
     da8:	05010113          	addi	sp,sp,80
     dac:	00008067          	ret

00000db0 <_ZNK6tflite6Tensor11is_variableEv>:
     db0:	ff010113          	addi	sp,sp,-16
     db4:	00e00593          	li	a1,14
     db8:	00812423          	sw	s0,8(sp)
     dbc:	00112623          	sw	ra,12(sp)
     dc0:	00050413          	mv	s0,a0
     dc4:	fffff097          	auipc	ra,0xfffff
     dc8:	530080e7          	jalr	1328(ra) # 2f4 <_ZNK11flatbuffers5Table22GetOptionalFieldOffsetEt>
     dcc:	02050063          	beqz	a0,dec <_ZNK6tflite6Tensor11is_variableEv+0x3c>
     dd0:	00a40433          	add	s0,s0,a0
     dd4:	00044503          	lbu	a0,0(s0)
     dd8:	00c12083          	lw	ra,12(sp)
     ddc:	00812403          	lw	s0,8(sp)
     de0:	00a03533          	snez	a0,a0
     de4:	01010113          	addi	sp,sp,16
     de8:	00008067          	ret
     dec:	00000513          	li	a0,0
     df0:	fe9ff06f          	j	dd8 <_ZNK6tflite6Tensor11is_variableEv+0x28>

00000df4 <_ZN6tflite19ScopedMicroProfilerD1Ev>:
     df4:	00452783          	lw	a5,4(a0)
     df8:	00078c63          	beqz	a5,e10 <_ZN6tflite19ScopedMicroProfilerD1Ev+0x1c>
     dfc:	0007a703          	lw	a4,0(a5)
     e00:	00052583          	lw	a1,0(a0)
     e04:	00078513          	mv	a0,a5
     e08:	00c72303          	lw	t1,12(a4)
     e0c:	00030067          	jr	t1
     e10:	00008067          	ret

00000e14 <_ZN6tflite21MicroInterpreterGraph14InvokeSubgraphEi>:
     e14:	02052783          	lw	a5,32(a0)
     e18:	fd010113          	addi	sp,sp,-48
     e1c:	02812423          	sw	s0,40(sp)
     e20:	0007a603          	lw	a2,0(a5)
     e24:	01312e23          	sw	s3,28(sp)
     e28:	01412c23          	sw	s4,24(sp)
     e2c:	02112623          	sw	ra,44(sp)
     e30:	02912223          	sw	s1,36(sp)
     e34:	03212023          	sw	s2,32(sp)
     e38:	01512a23          	sw	s5,20(sp)
     e3c:	01612823          	sw	s6,16(sp)
     e40:	01452a03          	lw	s4,20(a0)
     e44:	00b52a23          	sw	a1,20(a0)
     e48:	00050413          	mv	s0,a0
     e4c:	01852983          	lw	s3,24(a0)
     e50:	04c5e263          	bltu	a1,a2,e94 <_ZN6tflite21MicroInterpreterGraph14InvokeSubgraphEi+0x80>
     e54:	8004a517          	auipc	a0,0x8004a
     e58:	95450513          	addi	a0,a0,-1708 # 8004a7a8 <__stack_top+0xfffd3958>
     e5c:	00000097          	auipc	ra,0x0
     e60:	774080e7          	jalr	1908(ra) # 15d0 <_Z11MicroPrintfPKcz>
     e64:	00100493          	li	s1,1
     e68:	02c12083          	lw	ra,44(sp)
     e6c:	02812403          	lw	s0,40(sp)
     e70:	00048513          	mv	a0,s1
     e74:	02012903          	lw	s2,32(sp)
     e78:	02412483          	lw	s1,36(sp)
     e7c:	01c12983          	lw	s3,28(sp)
     e80:	01812a03          	lw	s4,24(sp)
     e84:	01412a83          	lw	s5,20(sp)
     e88:	01012b03          	lw	s6,16(sp)
     e8c:	03010113          	addi	sp,sp,48
     e90:	00008067          	ret
     e94:	00852503          	lw	a0,8(a0)
     e98:	00058913          	mv	s2,a1
     e9c:	00391913          	slli	s2,s2,0x3
     ea0:	00001097          	auipc	ra,0x1
     ea4:	afc080e7          	jalr	-1284(ra) # 199c <_ZN6tflite20NumSubgraphOperatorsEPKNS_5ModelEi>
     ea8:	00050a93          	mv	s5,a0
     eac:	00042c23          	sw	zero,24(s0)
     eb0:	01842483          	lw	s1,24(s0)
     eb4:	0f54fa63          	bgeu	s1,s5,fa8 <_ZN6tflite21MicroInterpreterGraph14InvokeSubgraphEi+0x194>
     eb8:	01042783          	lw	a5,16(s0)
     ebc:	00549493          	slli	s1,s1,0x5
     ec0:	012787b3          	add	a5,a5,s2
     ec4:	0007a783          	lw	a5,0(a5)
     ec8:	009784b3          	add	s1,a5,s1
     ecc:	01c4ab03          	lw	s6,28(s1)
     ed0:	000b0513          	mv	a0,s6
     ed4:	00000097          	auipc	ra,0x0
     ed8:	960080e7          	jalr	-1696(ra) # 834 <_ZN6tflite12_GLOBAL__N_122OpNameFromRegistrationEPK16TFLMRegistration>
     edc:	00442783          	lw	a5,4(s0)
     ee0:	00050593          	mv	a1,a0
     ee4:	00012423          	sw	zero,8(sp)
     ee8:	0347a503          	lw	a0,52(a5)
     eec:	00a12623          	sw	a0,12(sp)
     ef0:	00050a63          	beqz	a0,f04 <_ZN6tflite21MicroInterpreterGraph14InvokeSubgraphEi+0xf0>
     ef4:	00052703          	lw	a4,0(a0)
     ef8:	00872703          	lw	a4,8(a4)
     efc:	000700e7          	jalr	a4
     f00:	00a12423          	sw	a0,8(sp)
     f04:	00cb2783          	lw	a5,12(s6)
     f08:	00079c63          	bnez	a5,f20 <_ZN6tflite21MicroInterpreterGraph14InvokeSubgraphEi+0x10c>
     f0c:	8004a517          	auipc	a0,0x8004a
     f10:	81050513          	addi	a0,a0,-2032 # 8004a71c <__stack_top+0xfffd38cc>
     f14:	00000097          	auipc	ra,0x0
     f18:	6bc080e7          	jalr	1724(ra) # 15d0 <_Z11MicroPrintfPKcz>
     f1c:	0000006f          	j	f1c <_ZN6tflite21MicroInterpreterGraph14InvokeSubgraphEi+0x108>
     f20:	00442503          	lw	a0,4(s0)
     f24:	00048593          	mv	a1,s1
     f28:	000780e7          	jalr	a5
     f2c:	00050493          	mv	s1,a0
     f30:	00c42503          	lw	a0,12(s0)
     f34:	00052783          	lw	a5,0(a0)
     f38:	0147a783          	lw	a5,20(a5)
     f3c:	000780e7          	jalr	a5
     f40:	04048663          	beqz	s1,f8c <_ZN6tflite21MicroInterpreterGraph14InvokeSubgraphEi+0x178>
     f44:	00f00793          	li	a5,15
     f48:	02f48663          	beq	s1,a5,f74 <_ZN6tflite21MicroInterpreterGraph14InvokeSubgraphEi+0x160>
     f4c:	000b0513          	mv	a0,s6
     f50:	00000097          	auipc	ra,0x0
     f54:	8e4080e7          	jalr	-1820(ra) # 834 <_ZN6tflite12_GLOBAL__N_122OpNameFromRegistrationEPK16TFLMRegistration>
     f58:	01842603          	lw	a2,24(s0)
     f5c:	00050593          	mv	a1,a0
     f60:	8004a517          	auipc	a0,0x8004a
     f64:	00048693          	mv	a3,s1
     f68:	87c50513          	addi	a0,a0,-1924 # 8004a7dc <__stack_top+0xfffd398c>
     f6c:	00000097          	auipc	ra,0x0
     f70:	664080e7          	jalr	1636(ra) # 15d0 <_Z11MicroPrintfPKcz>
     f74:	00810513          	addi	a0,sp,8
     f78:	00000097          	auipc	ra,0x0
     f7c:	e7c080e7          	jalr	-388(ra) # df4 <_ZN6tflite19ScopedMicroProfilerD1Ev>
     f80:	01442a23          	sw	s4,20(s0)
     f84:	01342c23          	sw	s3,24(s0)
     f88:	ee1ff06f          	j	e68 <_ZN6tflite21MicroInterpreterGraph14InvokeSubgraphEi+0x54>
     f8c:	00810513          	addi	a0,sp,8
     f90:	00000097          	auipc	ra,0x0
     f94:	e64080e7          	jalr	-412(ra) # df4 <_ZN6tflite19ScopedMicroProfilerD1Ev>
     f98:	01842783          	lw	a5,24(s0)
     f9c:	00178793          	addi	a5,a5,1
     fa0:	00f42c23          	sw	a5,24(s0)
     fa4:	f0dff06f          	j	eb0 <_ZN6tflite21MicroInterpreterGraph14InvokeSubgraphEi+0x9c>
     fa8:	00000493          	li	s1,0
     fac:	fd5ff06f          	j	f80 <_ZN6tflite21MicroInterpreterGraph14InvokeSubgraphEi+0x16c>

00000fb0 <_ZN6tflite21MicroInterpreterGraph15ResetTensorDataEPKNS_6TensorEP16TfLiteEvalTensor>:
     fb0:	fe010113          	addi	sp,sp,-32
     fb4:	00812c23          	sw	s0,24(sp)
     fb8:	00060513          	mv	a0,a2
     fbc:	00058413          	mv	s0,a1
     fc0:	00c10593          	addi	a1,sp,12
     fc4:	00912a23          	sw	s1,20(sp)
     fc8:	00112e23          	sw	ra,28(sp)
     fcc:	01212823          	sw	s2,16(sp)
     fd0:	00060493          	mv	s1,a2
     fd4:	00001097          	auipc	ra,0x1
     fd8:	bc4080e7          	jalr	-1084(ra) # 1b98 <_ZN6tflite26TfLiteEvalTensorByteLengthEPK16TfLiteEvalTensorPj>
     fdc:	08051c63          	bnez	a0,1074 <_ZN6tflite21MicroInterpreterGraph15ResetTensorDataEPKNS_6TensorEP16TfLiteEvalTensor+0xc4>
     fe0:	00600593          	li	a1,6
     fe4:	00040513          	mv	a0,s0
     fe8:	fffff097          	auipc	ra,0xfffff
     fec:	30c080e7          	jalr	780(ra) # 2f4 <_ZNK11flatbuffers5Table22GetOptionalFieldOffsetEt>
     ff0:	00000913          	li	s2,0
     ff4:	06050463          	beqz	a0,105c <_ZN6tflite21MicroInterpreterGraph15ResetTensorDataEPKNS_6TensorEP16TfLiteEvalTensor+0xac>
     ff8:	00a40533          	add	a0,s0,a0
     ffc:	00050703          	lb	a4,0(a0)
    1000:	00900793          	li	a5,9
    1004:	04f71c63          	bne	a4,a5,105c <_ZN6tflite21MicroInterpreterGraph15ResetTensorDataEPKNS_6TensorEP16TfLiteEvalTensor+0xac>
    1008:	00c00593          	li	a1,12
    100c:	00040513          	mv	a0,s0
    1010:	fffff097          	auipc	ra,0xfffff
    1014:	2e4080e7          	jalr	740(ra) # 2f4 <_ZNK11flatbuffers5Table22GetOptionalFieldOffsetEt>
    1018:	04050263          	beqz	a0,105c <_ZN6tflite21MicroInterpreterGraph15ResetTensorDataEPKNS_6TensorEP16TfLiteEvalTensor+0xac>
    101c:	00a40433          	add	s0,s0,a0
    1020:	00042503          	lw	a0,0(s0)
    1024:	00a40433          	add	s0,s0,a0
    1028:	02040a63          	beqz	s0,105c <_ZN6tflite21MicroInterpreterGraph15ResetTensorDataEPKNS_6TensorEP16TfLiteEvalTensor+0xac>
    102c:	00a00593          	li	a1,10
    1030:	00040513          	mv	a0,s0
    1034:	fffff097          	auipc	ra,0xfffff
    1038:	2c0080e7          	jalr	704(ra) # 2f4 <_ZNK11flatbuffers5Table22GetOptionalFieldOffsetEt>
    103c:	02050063          	beqz	a0,105c <_ZN6tflite21MicroInterpreterGraph15ResetTensorDataEPKNS_6TensorEP16TfLiteEvalTensor+0xac>
    1040:	00a40433          	add	s0,s0,a0
    1044:	00042503          	lw	a0,0(s0)
    1048:	00a40433          	add	s0,s0,a0
    104c:	00040863          	beqz	s0,105c <_ZN6tflite21MicroInterpreterGraph15ResetTensorDataEPKNS_6TensorEP16TfLiteEvalTensor+0xac>
    1050:	00042783          	lw	a5,0(s0)
    1054:	00078463          	beqz	a5,105c <_ZN6tflite21MicroInterpreterGraph15ResetTensorDataEPKNS_6TensorEP16TfLiteEvalTensor+0xac>
    1058:	00442903          	lw	s2,4(s0)
    105c:	00c12603          	lw	a2,12(sp)
    1060:	0004a503          	lw	a0,0(s1)
    1064:	00090593          	mv	a1,s2
    1068:	00006097          	auipc	ra,0x6
    106c:	a34080e7          	jalr	-1484(ra) # 6a9c <memset>
    1070:	00000513          	li	a0,0
    1074:	01c12083          	lw	ra,28(sp)
    1078:	01812403          	lw	s0,24(sp)
    107c:	01412483          	lw	s1,20(sp)
    1080:	01012903          	lw	s2,16(sp)
    1084:	02010113          	addi	sp,sp,32
    1088:	00008067          	ret

0000108c <_ZNK11flatbuffers6VectorINS_6OffsetIN6tflite6TensorEEEmE3GetEm>:
    108c:	00052783          	lw	a5,0(a0)
    1090:	02f5e863          	bltu	a1,a5,10c0 <_ZNK11flatbuffers6VectorINS_6OffsetIN6tflite6TensorEEEmE3GetEm+0x34>
    1094:	80049697          	auipc	a3,0x80049
    1098:	8004a617          	auipc	a2,0x8004a
    109c:	80049517          	auipc	a0,0x80049
    10a0:	ff010113          	addi	sp,sp,-16
    10a4:	8f068693          	addi	a3,a3,-1808 # 80049984 <__stack_top+0xfffd2b34>
    10a8:	88060613          	addi	a2,a2,-1920 # 8004a918 <__stack_top+0xfffd3ac8>
    10ac:	0c200593          	li	a1,194
    10b0:	8f450513          	addi	a0,a0,-1804 # 80049990 <__stack_top+0xfffd2b40>
    10b4:	00112623          	sw	ra,12(sp)
    10b8:	00005097          	auipc	ra,0x5
    10bc:	c10080e7          	jalr	-1008(ra) # 5cc8 <__assert_func>
    10c0:	00259593          	slli	a1,a1,0x2
    10c4:	00450513          	addi	a0,a0,4
    10c8:	00b50533          	add	a0,a0,a1
    10cc:	00052783          	lw	a5,0(a0)
    10d0:	00f50533          	add	a0,a0,a5
    10d4:	00008067          	ret

000010d8 <_ZN6tflite21MicroInterpreterGraph20ResetVariableTensorsEv>:
    10d8:	fd010113          	addi	sp,sp,-48
    10dc:	02812423          	sw	s0,40(sp)
    10e0:	03212023          	sw	s2,32(sp)
    10e4:	01512a23          	sw	s5,20(sp)
    10e8:	02112623          	sw	ra,44(sp)
    10ec:	02912223          	sw	s1,36(sp)
    10f0:	01312e23          	sw	s3,28(sp)
    10f4:	01412c23          	sw	s4,24(sp)
    10f8:	01612823          	sw	s6,16(sp)
    10fc:	00050913          	mv	s2,a0
    1100:	00000413          	li	s0,0
    1104:	00c00a93          	li	s5,12
    1108:	02092503          	lw	a0,32(s2)
    110c:	00052783          	lw	a5,0(a0)
    1110:	0cf47863          	bgeu	s0,a5,11e0 <_ZN6tflite21MicroInterpreterGraph20ResetVariableTensorsEv+0x108>
    1114:	00040593          	mv	a1,s0
    1118:	fffff097          	auipc	ra,0xfffff
    111c:	3e4080e7          	jalr	996(ra) # 4fc <_ZNK11flatbuffers6VectorINS_6OffsetIN6tflite8SubGraphEEEmE3GetEm>
    1120:	00050a13          	mv	s4,a0
    1124:	00341b13          	slli	s6,s0,0x3
    1128:	00000493          	li	s1,0
    112c:	00400593          	li	a1,4
    1130:	000a0513          	mv	a0,s4
    1134:	fffff097          	auipc	ra,0xfffff
    1138:	1c0080e7          	jalr	448(ra) # 2f4 <_ZNK11flatbuffers5Table22GetOptionalFieldOffsetEt>
    113c:	00050793          	mv	a5,a0
    1140:	00000513          	li	a0,0
    1144:	00078863          	beqz	a5,1154 <_ZN6tflite21MicroInterpreterGraph20ResetVariableTensorsEv+0x7c>
    1148:	00fa07b3          	add	a5,s4,a5
    114c:	0007a503          	lw	a0,0(a5)
    1150:	00a78533          	add	a0,a5,a0
    1154:	00052783          	lw	a5,0(a0)
    1158:	08f4f063          	bgeu	s1,a5,11d8 <_ZN6tflite21MicroInterpreterGraph20ResetVariableTensorsEv+0x100>
    115c:	00048593          	mv	a1,s1
    1160:	00000097          	auipc	ra,0x0
    1164:	f2c080e7          	jalr	-212(ra) # 108c <_ZNK11flatbuffers6VectorINS_6OffsetIN6tflite6TensorEEEmE3GetEm>
    1168:	00a12623          	sw	a0,12(sp)
    116c:	00000097          	auipc	ra,0x0
    1170:	c44080e7          	jalr	-956(ra) # db0 <_ZNK6tflite6Tensor11is_variableEv>
    1174:	00c12583          	lw	a1,12(sp)
    1178:	00051663          	bnez	a0,1184 <_ZN6tflite21MicroInterpreterGraph20ResetVariableTensorsEv+0xac>
    117c:	00148493          	addi	s1,s1,1
    1180:	fadff06f          	j	112c <_ZN6tflite21MicroInterpreterGraph20ResetVariableTensorsEv+0x54>
    1184:	03548633          	mul	a2,s1,s5
    1188:	01092783          	lw	a5,16(s2)
    118c:	00090513          	mv	a0,s2
    1190:	016787b3          	add	a5,a5,s6
    1194:	0047a783          	lw	a5,4(a5)
    1198:	00c78633          	add	a2,a5,a2
    119c:	00000097          	auipc	ra,0x0
    11a0:	e14080e7          	jalr	-492(ra) # fb0 <_ZN6tflite21MicroInterpreterGraph15ResetTensorDataEPKNS_6TensorEP16TfLiteEvalTensor>
    11a4:	00050993          	mv	s3,a0
    11a8:	fc050ae3          	beqz	a0,117c <_ZN6tflite21MicroInterpreterGraph20ResetVariableTensorsEv+0xa4>
    11ac:	02c12083          	lw	ra,44(sp)
    11b0:	02812403          	lw	s0,40(sp)
    11b4:	00098513          	mv	a0,s3
    11b8:	02412483          	lw	s1,36(sp)
    11bc:	02012903          	lw	s2,32(sp)
    11c0:	01c12983          	lw	s3,28(sp)
    11c4:	01812a03          	lw	s4,24(sp)
    11c8:	01412a83          	lw	s5,20(sp)
    11cc:	01012b03          	lw	s6,16(sp)
    11d0:	03010113          	addi	sp,sp,48
    11d4:	00008067          	ret
    11d8:	00140413          	addi	s0,s0,1
    11dc:	f2dff06f          	j	1108 <_ZN6tflite21MicroInterpreterGraph20ResetVariableTensorsEv+0x30>
    11e0:	01c92503          	lw	a0,28(s2)
    11e4:	00000993          	li	s3,0
    11e8:	fc0502e3          	beqz	a0,11ac <_ZN6tflite21MicroInterpreterGraph20ResetVariableTensorsEv+0xd4>
    11ec:	00000097          	auipc	ra,0x0
    11f0:	424080e7          	jalr	1060(ra) # 1610 <_ZN6tflite22MicroResourceVariables8ResetAllEv>
    11f4:	fb9ff06f          	j	11ac <_ZN6tflite21MicroInterpreterGraph20ResetVariableTensorsEv+0xd4>

000011f8 <_ZN6tflite21MicroInterpreterGraph19ResetVariableTensorEii>:
    11f8:	fd010113          	addi	sp,sp,-48
    11fc:	01312e23          	sw	s3,28(sp)
    1200:	00050993          	mv	s3,a0
    1204:	02052503          	lw	a0,32(a0)
    1208:	02812423          	sw	s0,40(sp)
    120c:	00060413          	mv	s0,a2
    1210:	00052603          	lw	a2,0(a0)
    1214:	02112623          	sw	ra,44(sp)
    1218:	02912223          	sw	s1,36(sp)
    121c:	03212023          	sw	s2,32(sp)
    1220:	00c46e63          	bltu	s0,a2,123c <_ZN6tflite21MicroInterpreterGraph19ResetVariableTensorEii+0x44>
    1224:	80049517          	auipc	a0,0x80049
    1228:	00040593          	mv	a1,s0
    122c:	58450513          	addi	a0,a0,1412 # 8004a7a8 <__stack_top+0xfffd3958>
    1230:	00000097          	auipc	ra,0x0
    1234:	3a0080e7          	jalr	928(ra) # 15d0 <_Z11MicroPrintfPKcz>
    1238:	0900006f          	j	12c8 <_ZN6tflite21MicroInterpreterGraph19ResetVariableTensorEii+0xd0>
    123c:	00058913          	mv	s2,a1
    1240:	00040593          	mv	a1,s0
    1244:	fffff097          	auipc	ra,0xfffff
    1248:	2b8080e7          	jalr	696(ra) # 4fc <_ZNK11flatbuffers6VectorINS_6OffsetIN6tflite8SubGraphEEEmE3GetEm>
    124c:	00400593          	li	a1,4
    1250:	00050493          	mv	s1,a0
    1254:	fffff097          	auipc	ra,0xfffff
    1258:	0a0080e7          	jalr	160(ra) # 2f4 <_ZNK11flatbuffers5Table22GetOptionalFieldOffsetEt>
    125c:	04050863          	beqz	a0,12ac <_ZN6tflite21MicroInterpreterGraph19ResetVariableTensorEii+0xb4>
    1260:	00a48533          	add	a0,s1,a0
    1264:	00052783          	lw	a5,0(a0)
    1268:	00f50533          	add	a0,a0,a5
    126c:	04050063          	beqz	a0,12ac <_ZN6tflite21MicroInterpreterGraph19ResetVariableTensorEii+0xb4>
    1270:	00052603          	lw	a2,0(a0)
    1274:	02c97e63          	bgeu	s2,a2,12b0 <_ZN6tflite21MicroInterpreterGraph19ResetVariableTensorEii+0xb8>
    1278:	00090593          	mv	a1,s2
    127c:	00000097          	auipc	ra,0x0
    1280:	e10080e7          	jalr	-496(ra) # 108c <_ZNK11flatbuffers6VectorINS_6OffsetIN6tflite6TensorEEEmE3GetEm>
    1284:	00a12623          	sw	a0,12(sp)
    1288:	00000097          	auipc	ra,0x0
    128c:	b28080e7          	jalr	-1240(ra) # db0 <_ZNK6tflite6Tensor11is_variableEv>
    1290:	00c12583          	lw	a1,12(sp)
    1294:	04051a63          	bnez	a0,12e8 <_ZN6tflite21MicroInterpreterGraph19ResetVariableTensorEii+0xf0>
    1298:	80049517          	auipc	a0,0x80049
    129c:	00040613          	mv	a2,s0
    12a0:	00090593          	mv	a1,s2
    12a4:	64450513          	addi	a0,a0,1604 # 8004a8dc <__stack_top+0xfffd3a8c>
    12a8:	f89ff06f          	j	1230 <_ZN6tflite21MicroInterpreterGraph19ResetVariableTensorEii+0x38>
    12ac:	00000613          	li	a2,0
    12b0:	80049517          	auipc	a0,0x80049
    12b4:	00040693          	mv	a3,s0
    12b8:	00090593          	mv	a1,s2
    12bc:	5ec50513          	addi	a0,a0,1516 # 8004a89c <__stack_top+0xfffd3a4c>
    12c0:	00000097          	auipc	ra,0x0
    12c4:	310080e7          	jalr	784(ra) # 15d0 <_Z11MicroPrintfPKcz>
    12c8:	02c12083          	lw	ra,44(sp)
    12cc:	02812403          	lw	s0,40(sp)
    12d0:	02412483          	lw	s1,36(sp)
    12d4:	02012903          	lw	s2,32(sp)
    12d8:	01c12983          	lw	s3,28(sp)
    12dc:	00100513          	li	a0,1
    12e0:	03010113          	addi	sp,sp,48
    12e4:	00008067          	ret
    12e8:	00c00613          	li	a2,12
    12ec:	02c90933          	mul	s2,s2,a2
    12f0:	0109a683          	lw	a3,16(s3)
    12f4:	00341413          	slli	s0,s0,0x3
    12f8:	02c12083          	lw	ra,44(sp)
    12fc:	00868433          	add	s0,a3,s0
    1300:	00442603          	lw	a2,4(s0)
    1304:	02812403          	lw	s0,40(sp)
    1308:	02412483          	lw	s1,36(sp)
    130c:	00098513          	mv	a0,s3
    1310:	01c12983          	lw	s3,28(sp)
    1314:	01260633          	add	a2,a2,s2
    1318:	02012903          	lw	s2,32(sp)
    131c:	03010113          	addi	sp,sp,48
    1320:	00000317          	auipc	t1,0x0
    1324:	c9030067          	jr	-880(t1) # fb0 <_ZN6tflite21MicroInterpreterGraph15ResetTensorDataEPKNS_6TensorEP16TfLiteEvalTensor>

00001328 <_ZN6tflite21MicroInterpreterGraph17GetSubgraphOutputEii>:
    1328:	fe010113          	addi	sp,sp,-32
    132c:	00912a23          	sw	s1,20(sp)
    1330:	00050493          	mv	s1,a0
    1334:	00852503          	lw	a0,8(a0)
    1338:	00812c23          	sw	s0,24(sp)
    133c:	00058413          	mv	s0,a1
    1340:	00800593          	li	a1,8
    1344:	00112e23          	sw	ra,28(sp)
    1348:	00c12623          	sw	a2,12(sp)
    134c:	fffff097          	auipc	ra,0xfffff
    1350:	23c080e7          	jalr	572(ra) # 588 <_ZN11flatbuffers5Table10GetPointerIPKNS_6VectorINS_6OffsetIN6tflite8SubGraphEEEmEEmEET_t>
    1354:	00040593          	mv	a1,s0
    1358:	fffff097          	auipc	ra,0xfffff
    135c:	1a4080e7          	jalr	420(ra) # 4fc <_ZNK11flatbuffers6VectorINS_6OffsetIN6tflite8SubGraphEEEmE3GetEm>
    1360:	00800593          	li	a1,8
    1364:	fffff097          	auipc	ra,0xfffff
    1368:	1e4080e7          	jalr	484(ra) # 548 <_ZN11flatbuffers5Table10GetPointerIPKNS_6VectorIlmEEmEET_t>
    136c:	00c12603          	lw	a2,12(sp)
    1370:	00341413          	slli	s0,s0,0x3
    1374:	00060593          	mv	a1,a2
    1378:	fffff097          	auipc	ra,0xfffff
    137c:	140080e7          	jalr	320(ra) # 4b8 <_ZNK11flatbuffers6VectorIlmE3GetEm>
    1380:	0104a783          	lw	a5,16(s1)
    1384:	01c12083          	lw	ra,28(sp)
    1388:	01412483          	lw	s1,20(sp)
    138c:	00878433          	add	s0,a5,s0
    1390:	00c00793          	li	a5,12
    1394:	02f50533          	mul	a0,a0,a5
    1398:	00442783          	lw	a5,4(s0)
    139c:	01812403          	lw	s0,24(sp)
    13a0:	02010113          	addi	sp,sp,32
    13a4:	00a78533          	add	a0,a5,a0
    13a8:	00008067          	ret

000013ac <_ZN6tflite21MicroInterpreterGraph12NumSubgraphsEv>:
    13ac:	00852503          	lw	a0,8(a0)
    13b0:	ff010113          	addi	sp,sp,-16
    13b4:	00800593          	li	a1,8
    13b8:	00112623          	sw	ra,12(sp)
    13bc:	fffff097          	auipc	ra,0xfffff
    13c0:	1cc080e7          	jalr	460(ra) # 588 <_ZN11flatbuffers5Table10GetPointerIPKNS_6VectorINS_6OffsetIN6tflite8SubGraphEEEmEEmEET_t>
    13c4:	00c12083          	lw	ra,12(sp)
    13c8:	00052503          	lw	a0,0(a0)
    13cc:	01010113          	addi	sp,sp,16
    13d0:	00008067          	ret

000013d4 <_ZN6tflite21MicroInterpreterGraphC1EP13TfLiteContextPKNS_5ModelEPNS_14MicroAllocatorEPNS_22MicroResourceVariablesE>:
    13d4:	ff010113          	addi	sp,sp,-16
    13d8:	00812423          	sw	s0,8(sp)
    13dc:	00050413          	mv	s0,a0
    13e0:	80049517          	auipc	a0,0x80049
    13e4:	38c50513          	addi	a0,a0,908 # 8004a76c <__stack_top+0xfffd391c>
    13e8:	00112623          	sw	ra,12(sp)
    13ec:	00a42023          	sw	a0,0(s0)
    13f0:	00b42223          	sw	a1,4(s0)
    13f4:	00c42423          	sw	a2,8(s0)
    13f8:	00d42623          	sw	a3,12(s0)
    13fc:	00042823          	sw	zero,16(s0)
    1400:	00042a23          	sw	zero,20(s0)
    1404:	00042c23          	sw	zero,24(s0)
    1408:	00e42e23          	sw	a4,28(s0)
    140c:	02042023          	sw	zero,32(s0)
    1410:	00060c63          	beqz	a2,1428 <_ZN6tflite21MicroInterpreterGraphC1EP13TfLiteContextPKNS_5ModelEPNS_14MicroAllocatorEPNS_22MicroResourceVariablesE+0x54>
    1414:	00060513          	mv	a0,a2
    1418:	00800593          	li	a1,8
    141c:	fffff097          	auipc	ra,0xfffff
    1420:	16c080e7          	jalr	364(ra) # 588 <_ZN11flatbuffers5Table10GetPointerIPKNS_6VectorINS_6OffsetIN6tflite8SubGraphEEEmEEmEET_t>
    1424:	02a42023          	sw	a0,32(s0)
    1428:	00c12083          	lw	ra,12(sp)
    142c:	00812403          	lw	s0,8(sp)
    1430:	01010113          	addi	sp,sp,16
    1434:	00008067          	ret

00001438 <_ZN6tflite21MicroInterpreterGraph17NumSubgraphInputsEi>:
    1438:	00852503          	lw	a0,8(a0)
    143c:	ff010113          	addi	sp,sp,-16
    1440:	00812423          	sw	s0,8(sp)
    1444:	00058413          	mv	s0,a1
    1448:	00800593          	li	a1,8
    144c:	00112623          	sw	ra,12(sp)
    1450:	fffff097          	auipc	ra,0xfffff
    1454:	138080e7          	jalr	312(ra) # 588 <_ZN11flatbuffers5Table10GetPointerIPKNS_6VectorINS_6OffsetIN6tflite8SubGraphEEEmEEmEET_t>
    1458:	00040593          	mv	a1,s0
    145c:	fffff097          	auipc	ra,0xfffff
    1460:	0a0080e7          	jalr	160(ra) # 4fc <_ZNK11flatbuffers6VectorINS_6OffsetIN6tflite8SubGraphEEEmE3GetEm>
    1464:	00600593          	li	a1,6
    1468:	fffff097          	auipc	ra,0xfffff
    146c:	0e0080e7          	jalr	224(ra) # 548 <_ZN11flatbuffers5Table10GetPointerIPKNS_6VectorIlmEEmEET_t>
    1470:	00c12083          	lw	ra,12(sp)
    1474:	00812403          	lw	s0,8(sp)
    1478:	00052503          	lw	a0,0(a0)
    147c:	01010113          	addi	sp,sp,16
    1480:	00008067          	ret

00001484 <_ZN6tflite21MicroInterpreterGraph18NumSubgraphOutputsEi>:
    1484:	00852503          	lw	a0,8(a0)
    1488:	ff010113          	addi	sp,sp,-16
    148c:	00812423          	sw	s0,8(sp)
    1490:	00058413          	mv	s0,a1
    1494:	00800593          	li	a1,8
    1498:	00112623          	sw	ra,12(sp)
    149c:	fffff097          	auipc	ra,0xfffff
    14a0:	0ec080e7          	jalr	236(ra) # 588 <_ZN11flatbuffers5Table10GetPointerIPKNS_6VectorINS_6OffsetIN6tflite8SubGraphEEEmEEmEET_t>
    14a4:	00040593          	mv	a1,s0
    14a8:	fffff097          	auipc	ra,0xfffff
    14ac:	054080e7          	jalr	84(ra) # 4fc <_ZNK11flatbuffers6VectorINS_6OffsetIN6tflite8SubGraphEEEmE3GetEm>
    14b0:	00800593          	li	a1,8
    14b4:	fffff097          	auipc	ra,0xfffff
    14b8:	094080e7          	jalr	148(ra) # 548 <_ZN11flatbuffers5Table10GetPointerIPKNS_6VectorIlmEEmEET_t>
    14bc:	00050c63          	beqz	a0,14d4 <_ZN6tflite21MicroInterpreterGraph18NumSubgraphOutputsEi+0x50>
    14c0:	00052503          	lw	a0,0(a0)
    14c4:	00c12083          	lw	ra,12(sp)
    14c8:	00812403          	lw	s0,8(sp)
    14cc:	01010113          	addi	sp,sp,16
    14d0:	00008067          	ret
    14d4:	00000513          	li	a0,0
    14d8:	fedff06f          	j	14c4 <_ZN6tflite21MicroInterpreterGraph18NumSubgraphOutputsEi+0x40>

000014dc <_ZN6tflite21MicroInterpreterGraph16GetSubgraphInputEii>:
    14dc:	fe010113          	addi	sp,sp,-32
    14e0:	00912a23          	sw	s1,20(sp)
    14e4:	00050493          	mv	s1,a0
    14e8:	00852503          	lw	a0,8(a0)
    14ec:	00812c23          	sw	s0,24(sp)
    14f0:	00058413          	mv	s0,a1
    14f4:	00800593          	li	a1,8
    14f8:	00112e23          	sw	ra,28(sp)
    14fc:	00c12623          	sw	a2,12(sp)
    1500:	fffff097          	auipc	ra,0xfffff
    1504:	088080e7          	jalr	136(ra) # 588 <_ZN11flatbuffers5Table10GetPointerIPKNS_6VectorINS_6OffsetIN6tflite8SubGraphEEEmEEmEET_t>
    1508:	00040593          	mv	a1,s0
    150c:	fffff097          	auipc	ra,0xfffff
    1510:	ff0080e7          	jalr	-16(ra) # 4fc <_ZNK11flatbuffers6VectorINS_6OffsetIN6tflite8SubGraphEEEmE3GetEm>
    1514:	00600593          	li	a1,6
    1518:	fffff097          	auipc	ra,0xfffff
    151c:	030080e7          	jalr	48(ra) # 548 <_ZN11flatbuffers5Table10GetPointerIPKNS_6VectorIlmEEmEET_t>
    1520:	00c12603          	lw	a2,12(sp)
    1524:	00341413          	slli	s0,s0,0x3
    1528:	00060593          	mv	a1,a2
    152c:	fffff097          	auipc	ra,0xfffff
    1530:	f8c080e7          	jalr	-116(ra) # 4b8 <_ZNK11flatbuffers6VectorIlmE3GetEm>
    1534:	0104a783          	lw	a5,16(s1)
    1538:	01c12083          	lw	ra,28(sp)
    153c:	01412483          	lw	s1,20(sp)
    1540:	00878433          	add	s0,a5,s0
    1544:	00c00793          	li	a5,12
    1548:	02f50533          	mul	a0,a0,a5
    154c:	00442783          	lw	a5,4(s0)
    1550:	01812403          	lw	s0,24(sp)
    1554:	02010113          	addi	sp,sp,32
    1558:	00a78533          	add	a0,a5,a0
    155c:	00008067          	ret

00001560 <_ZN12_GLOBAL__N_19VDebugLogEPKcz.constprop.0>:
    1560:	fc010113          	addi	sp,sp,-64
    1564:	80049517          	auipc	a0,0x80049
    1568:	02b12223          	sw	a1,36(sp)
    156c:	4a050513          	addi	a0,a0,1184 # 8004aa04 <__stack_top+0xfffd3bb4>
    1570:	02410593          	addi	a1,sp,36
    1574:	00112e23          	sw	ra,28(sp)
    1578:	02c12423          	sw	a2,40(sp)
    157c:	02d12623          	sw	a3,44(sp)
    1580:	02e12823          	sw	a4,48(sp)
    1584:	02f12a23          	sw	a5,52(sp)
    1588:	03012c23          	sw	a6,56(sp)
    158c:	03112e23          	sw	a7,60(sp)
    1590:	00b12623          	sw	a1,12(sp)
    1594:	00000097          	auipc	ra,0x0
    1598:	368080e7          	jalr	872(ra) # 18fc <DebugLog>
    159c:	01c12083          	lw	ra,28(sp)
    15a0:	04010113          	addi	sp,sp,64
    15a4:	00008067          	ret

000015a8 <_Z12VMicroPrintfPKcPv>:
    15a8:	ff010113          	addi	sp,sp,-16
    15ac:	00112623          	sw	ra,12(sp)
    15b0:	00000097          	auipc	ra,0x0
    15b4:	34c080e7          	jalr	844(ra) # 18fc <DebugLog>
    15b8:	00c12083          	lw	ra,12(sp)
    15bc:	80049517          	auipc	a0,0x80049
    15c0:	44850513          	addi	a0,a0,1096 # 8004aa04 <__stack_top+0xfffd3bb4>
    15c4:	01010113          	addi	sp,sp,16
    15c8:	00000317          	auipc	t1,0x0
    15cc:	f9830067          	jr	-104(t1) # 1560 <_ZN12_GLOBAL__N_19VDebugLogEPKcz.constprop.0>

000015d0 <_Z11MicroPrintfPKcz>:
    15d0:	fc010113          	addi	sp,sp,-64
    15d4:	02b12223          	sw	a1,36(sp)
    15d8:	02410593          	addi	a1,sp,36
    15dc:	00112e23          	sw	ra,28(sp)
    15e0:	02c12423          	sw	a2,40(sp)
    15e4:	02d12623          	sw	a3,44(sp)
    15e8:	02e12823          	sw	a4,48(sp)
    15ec:	02f12a23          	sw	a5,52(sp)
    15f0:	03012c23          	sw	a6,56(sp)
    15f4:	03112e23          	sw	a7,60(sp)
    15f8:	00b12623          	sw	a1,12(sp)
    15fc:	00000097          	auipc	ra,0x0
    1600:	fac080e7          	jalr	-84(ra) # 15a8 <_Z12VMicroPrintfPKcPv>
    1604:	01c12083          	lw	ra,28(sp)
    1608:	04010113          	addi	sp,sp,64
    160c:	00008067          	ret

00001610 <_ZN6tflite22MicroResourceVariables8ResetAllEv>:
    1610:	ff010113          	addi	sp,sp,-16
    1614:	00812423          	sw	s0,8(sp)
    1618:	00912223          	sw	s1,4(sp)
    161c:	01212023          	sw	s2,0(sp)
    1620:	00112623          	sw	ra,12(sp)
    1624:	00050493          	mv	s1,a0
    1628:	00000413          	li	s0,0
    162c:	01400913          	li	s2,20
    1630:	0084a783          	lw	a5,8(s1)
    1634:	02f45663          	bge	s0,a5,1660 <_ZN6tflite22MicroResourceVariables8ResetAllEv+0x50>
    1638:	03240733          	mul	a4,s0,s2
    163c:	0004a783          	lw	a5,0(s1)
    1640:	00140413          	addi	s0,s0,1
    1644:	00e787b3          	add	a5,a5,a4
    1648:	00c7a603          	lw	a2,12(a5)
    164c:	01078583          	lb	a1,16(a5)
    1650:	0087a503          	lw	a0,8(a5)
    1654:	00005097          	auipc	ra,0x5
    1658:	448080e7          	jalr	1096(ra) # 6a9c <memset>
    165c:	fd5ff06f          	j	1630 <_ZN6tflite22MicroResourceVariables8ResetAllEv+0x20>
    1660:	00c12083          	lw	ra,12(sp)
    1664:	00812403          	lw	s0,8(sp)
    1668:	00412483          	lw	s1,4(sp)
    166c:	00012903          	lw	s2,0(sp)
    1670:	00000513          	li	a0,0
    1674:	01010113          	addi	sp,sp,16
    1678:	00008067          	ret

0000167c <_ZN6tflite16InitializeTargetEv>:
    167c:	00008067          	ret

00001680 <_ZN6tflite17ConvertTensorTypeENS_10TensorTypeEP10TfLiteType>:
    1680:	fe010113          	addi	sp,sp,-32
    1684:	00812c23          	sw	s0,24(sp)
    1688:	00112e23          	sw	ra,28(sp)
    168c:	00050413          	mv	s0,a0
    1690:	00b12623          	sw	a1,12(sp)
    1694:	00000097          	auipc	ra,0x0
    1698:	054080e7          	jalr	84(ra) # 16e8 <_ZN6tflite21GetMicroErrorReporterEv>
    169c:	00050613          	mv	a2,a0
    16a0:	00040513          	mv	a0,s0
    16a4:	01812403          	lw	s0,24(sp)
    16a8:	00c12583          	lw	a1,12(sp)
    16ac:	01c12083          	lw	ra,28(sp)
    16b0:	02010113          	addi	sp,sp,32
    16b4:	00000317          	auipc	t1,0x0
    16b8:	06830067          	jr	104(t1) # 171c <_ZN6tflite17ConvertTensorTypeENS_10TensorTypeEP10TfLiteTypePNS_13ErrorReporterE>

000016bc <_ZN6tflite18MicroErrorReporterD0Ev>:
    16bc:	00008067          	ret

000016c0 <_ZN6tflite18MicroErrorReporter6ReportEPKcPv>:
    16c0:	ff010113          	addi	sp,sp,-16
    16c4:	00058513          	mv	a0,a1
    16c8:	00060593          	mv	a1,a2
    16cc:	00112623          	sw	ra,12(sp)
    16d0:	00000097          	auipc	ra,0x0
    16d4:	ed8080e7          	jalr	-296(ra) # 15a8 <_Z12VMicroPrintfPKcPv>
    16d8:	00c12083          	lw	ra,12(sp)
    16dc:	00000513          	li	a0,0
    16e0:	01010113          	addi	sp,sp,16
    16e4:	00008067          	ret

000016e8 <_ZN6tflite21GetMicroErrorReporterEv>:
    16e8:	8004b797          	auipc	a5,0x8004b
    16ec:	5907a703          	lw	a4,1424(a5) # 8004cc78 <__stack_top+0xfffd5e28>
    16f0:	8004b797          	auipc	a5,0x8004b
    16f4:	58878793          	addi	a5,a5,1416 # 8004cc78 <__stack_top+0xfffd5e28>
    16f8:	00071e63          	bnez	a4,1714 <_ZN6tflite21GetMicroErrorReporterEv+0x2c>
    16fc:	8004b717          	auipc	a4,0x8004b
    1700:	80049697          	auipc	a3,0x80049
    1704:	58070713          	addi	a4,a4,1408 # 8004cc7c <__stack_top+0xfffd5e2c>
    1708:	31068693          	addi	a3,a3,784 # 8004aa10 <__stack_top+0xfffd3bc0>
    170c:	00d72023          	sw	a3,0(a4)
    1710:	00e7a023          	sw	a4,0(a5)
    1714:	0007a503          	lw	a0,0(a5)
    1718:	00008067          	ret

0000171c <_ZN6tflite17ConvertTensorTypeENS_10TensorTypeEP10TfLiteTypePNS_13ErrorReporterE>:
    171c:	0ff57793          	zext.b	a5,a0
    1720:	01400693          	li	a3,20
    1724:	0cf6e863          	bltu	a3,a5,17f4 <_ZN6tflite17ConvertTensorTypeENS_10TensorTypeEP10TfLiteTypePNS_13ErrorReporterE+0xd8>
    1728:	80049717          	auipc	a4,0x80049
    172c:	2f470713          	addi	a4,a4,756 # 8004aa1c <__stack_top+0xfffd3bcc>
    1730:	00279793          	slli	a5,a5,0x2
    1734:	00e787b3          	add	a5,a5,a4
    1738:	0007a783          	lw	a5,0(a5)
    173c:	00e78733          	add	a4,a5,a4
    1740:	00070067          	jr	a4
    1744:	00a00793          	li	a5,10
    1748:	00f5a023          	sw	a5,0(a1)
    174c:	00000513          	li	a0,0
    1750:	00008067          	ret
    1754:	01300793          	li	a5,19
    1758:	ff1ff06f          	j	1748 <_ZN6tflite17ConvertTensorTypeENS_10TensorTypeEP10TfLiteTypePNS_13ErrorReporterE+0x2c>
    175c:	00100793          	li	a5,1
    1760:	fe9ff06f          	j	1748 <_ZN6tflite17ConvertTensorTypeENS_10TensorTypeEP10TfLiteTypePNS_13ErrorReporterE+0x2c>
    1764:	00b00793          	li	a5,11
    1768:	fe1ff06f          	j	1748 <_ZN6tflite17ConvertTensorTypeENS_10TensorTypeEP10TfLiteTypePNS_13ErrorReporterE+0x2c>
    176c:	00700793          	li	a5,7
    1770:	fd9ff06f          	j	1748 <_ZN6tflite17ConvertTensorTypeENS_10TensorTypeEP10TfLiteTypePNS_13ErrorReporterE+0x2c>
    1774:	01100793          	li	a5,17
    1778:	fd1ff06f          	j	1748 <_ZN6tflite17ConvertTensorTypeENS_10TensorTypeEP10TfLiteTypePNS_13ErrorReporterE+0x2c>
    177c:	00200793          	li	a5,2
    1780:	fc9ff06f          	j	1748 <_ZN6tflite17ConvertTensorTypeENS_10TensorTypeEP10TfLiteTypePNS_13ErrorReporterE+0x2c>
    1784:	01000793          	li	a5,16
    1788:	fc1ff06f          	j	1748 <_ZN6tflite17ConvertTensorTypeENS_10TensorTypeEP10TfLiteTypePNS_13ErrorReporterE+0x2c>
    178c:	00300793          	li	a5,3
    1790:	fb9ff06f          	j	1748 <_ZN6tflite17ConvertTensorTypeENS_10TensorTypeEP10TfLiteTypePNS_13ErrorReporterE+0x2c>
    1794:	00900793          	li	a5,9
    1798:	fb1ff06f          	j	1748 <_ZN6tflite17ConvertTensorTypeENS_10TensorTypeEP10TfLiteTypePNS_13ErrorReporterE+0x2c>
    179c:	00400793          	li	a5,4
    17a0:	fa9ff06f          	j	1748 <_ZN6tflite17ConvertTensorTypeENS_10TensorTypeEP10TfLiteTypePNS_13ErrorReporterE+0x2c>
    17a4:	00d00793          	li	a5,13
    17a8:	fa1ff06f          	j	1748 <_ZN6tflite17ConvertTensorTypeENS_10TensorTypeEP10TfLiteTypePNS_13ErrorReporterE+0x2c>
    17ac:	00500793          	li	a5,5
    17b0:	f99ff06f          	j	1748 <_ZN6tflite17ConvertTensorTypeENS_10TensorTypeEP10TfLiteTypePNS_13ErrorReporterE+0x2c>
    17b4:	00600793          	li	a5,6
    17b8:	f91ff06f          	j	1748 <_ZN6tflite17ConvertTensorTypeENS_10TensorTypeEP10TfLiteTypePNS_13ErrorReporterE+0x2c>
    17bc:	00800793          	li	a5,8
    17c0:	f89ff06f          	j	1748 <_ZN6tflite17ConvertTensorTypeENS_10TensorTypeEP10TfLiteTypePNS_13ErrorReporterE+0x2c>
    17c4:	00c00793          	li	a5,12
    17c8:	f81ff06f          	j	1748 <_ZN6tflite17ConvertTensorTypeENS_10TensorTypeEP10TfLiteTypePNS_13ErrorReporterE+0x2c>
    17cc:	00e00793          	li	a5,14
    17d0:	f79ff06f          	j	1748 <_ZN6tflite17ConvertTensorTypeENS_10TensorTypeEP10TfLiteTypePNS_13ErrorReporterE+0x2c>
    17d4:	00f00793          	li	a5,15
    17d8:	f71ff06f          	j	1748 <_ZN6tflite17ConvertTensorTypeENS_10TensorTypeEP10TfLiteTypePNS_13ErrorReporterE+0x2c>
    17dc:	01200793          	li	a5,18
    17e0:	f69ff06f          	j	1748 <_ZN6tflite17ConvertTensorTypeENS_10TensorTypeEP10TfLiteTypePNS_13ErrorReporterE+0x2c>
    17e4:	01400793          	li	a5,20
    17e8:	f61ff06f          	j	1748 <_ZN6tflite17ConvertTensorTypeENS_10TensorTypeEP10TfLiteTypePNS_13ErrorReporterE+0x2c>
    17ec:	01500793          	li	a5,21
    17f0:	f59ff06f          	j	1748 <_ZN6tflite17ConvertTensorTypeENS_10TensorTypeEP10TfLiteTypePNS_13ErrorReporterE+0x2c>
    17f4:	ff010113          	addi	sp,sp,-16
    17f8:	00112623          	sw	ra,12(sp)
    17fc:	00050713          	mv	a4,a0
    1800:	0005a023          	sw	zero,0(a1)
    1804:	80049597          	auipc	a1,0x80049
    1808:	00060513          	mv	a0,a2
    180c:	26c58593          	addi	a1,a1,620 # 8004aa70 <__stack_top+0xfffd3c20>
    1810:	00070613          	mv	a2,a4
    1814:	00000097          	auipc	ra,0x0
    1818:	0a8080e7          	jalr	168(ra) # 18bc <_ZN6tflite13ErrorReporter6ReportEPKcz>
    181c:	00c12083          	lw	ra,12(sp)
    1820:	00100513          	li	a0,1
    1824:	01010113          	addi	sp,sp,16
    1828:	00008067          	ret

0000182c <_ZNK11flatbuffers5Table8GetFieldIlEET_tS2_>:
    182c:	fe010113          	addi	sp,sp,-32
    1830:	00812c23          	sw	s0,24(sp)
    1834:	00c12623          	sw	a2,12(sp)
    1838:	00112e23          	sw	ra,28(sp)
    183c:	00050413          	mv	s0,a0
    1840:	fffff097          	auipc	ra,0xfffff
    1844:	ab4080e7          	jalr	-1356(ra) # 2f4 <_ZNK11flatbuffers5Table22GetOptionalFieldOffsetEt>
    1848:	00c12603          	lw	a2,12(sp)
    184c:	00050663          	beqz	a0,1858 <_ZNK11flatbuffers5Table8GetFieldIlEET_tS2_+0x2c>
    1850:	00a40433          	add	s0,s0,a0
    1854:	00042603          	lw	a2,0(s0)
    1858:	01c12083          	lw	ra,28(sp)
    185c:	01812403          	lw	s0,24(sp)
    1860:	00060513          	mv	a0,a2
    1864:	02010113          	addi	sp,sp,32
    1868:	00008067          	ret

0000186c <_ZNK11flatbuffers5Table8GetFieldIhEET_tS2_>:
    186c:	fe010113          	addi	sp,sp,-32
    1870:	00812c23          	sw	s0,24(sp)
    1874:	00c12623          	sw	a2,12(sp)
    1878:	00112e23          	sw	ra,28(sp)
    187c:	00050413          	mv	s0,a0
    1880:	fffff097          	auipc	ra,0xfffff
    1884:	a74080e7          	jalr	-1420(ra) # 2f4 <_ZNK11flatbuffers5Table22GetOptionalFieldOffsetEt>
    1888:	00c12603          	lw	a2,12(sp)
    188c:	00050663          	beqz	a0,1898 <_ZNK11flatbuffers5Table8GetFieldIhEET_tS2_+0x2c>
    1890:	00a40433          	add	s0,s0,a0
    1894:	00044603          	lbu	a2,0(s0)
    1898:	01c12083          	lw	ra,28(sp)
    189c:	01812403          	lw	s0,24(sp)
    18a0:	00060513          	mv	a0,a2
    18a4:	02010113          	addi	sp,sp,32
    18a8:	00008067          	ret

000018ac <_ZNK6tflite8Operator20builtin_options_typeEv>:
    18ac:	00000613          	li	a2,0
    18b0:	00a00593          	li	a1,10
    18b4:	00000317          	auipc	t1,0x0
    18b8:	fb830067          	jr	-72(t1) # 186c <_ZNK11flatbuffers5Table8GetFieldIhEET_tS2_>

000018bc <_ZN6tflite13ErrorReporter6ReportEPKcz>:
    18bc:	fc010113          	addi	sp,sp,-64
    18c0:	02c12423          	sw	a2,40(sp)
    18c4:	02d12623          	sw	a3,44(sp)
    18c8:	02e12823          	sw	a4,48(sp)
    18cc:	02f12a23          	sw	a5,52(sp)
    18d0:	03012c23          	sw	a6,56(sp)
    18d4:	03112e23          	sw	a7,60(sp)
    18d8:	00052783          	lw	a5,0(a0)
    18dc:	02810613          	addi	a2,sp,40
    18e0:	00112e23          	sw	ra,28(sp)
    18e4:	0087a783          	lw	a5,8(a5)
    18e8:	00c12623          	sw	a2,12(sp)
    18ec:	000780e7          	jalr	a5
    18f0:	01c12083          	lw	ra,28(sp)
    18f4:	04010113          	addi	sp,sp,64
    18f8:	00008067          	ret

000018fc <DebugLog>:
    18fc:	ef010113          	addi	sp,sp,-272
    1900:	00050613          	mv	a2,a0
    1904:	00058693          	mv	a3,a1
    1908:	00010513          	mv	a0,sp
    190c:	10000593          	li	a1,256
    1910:	10112623          	sw	ra,268(sp)
    1914:	00009097          	auipc	ra,0x9
    1918:	de0080e7          	jalr	-544(ra) # a6f4 <vsnprintf>
    191c:	00010793          	mv	a5,sp
    1920:	00a00613          	li	a2,10
    1924:	40600737          	lui	a4,0x40600
    1928:	00d00593          	li	a1,13
    192c:	0007c683          	lbu	a3,0(a5)
    1930:	00068e63          	beqz	a3,194c <DebugLog+0x50>
    1934:	00c69463          	bne	a3,a2,193c <DebugLog+0x40>
    1938:	00b72223          	sw	a1,4(a4) # 40600004 <__trunctfdf2+0x405ec69c>
    193c:	00178793          	addi	a5,a5,1
    1940:	fff7c683          	lbu	a3,-1(a5)
    1944:	00d72223          	sw	a3,4(a4)
    1948:	fe5ff06f          	j	192c <DebugLog+0x30>
    194c:	10c12083          	lw	ra,268(sp)
    1950:	11010113          	addi	sp,sp,272
    1954:	00008067          	ret

00001958 <_ZN6tflite20NumSubgraphOperatorsEPKNS_8SubGraphE>:
    1958:	00052783          	lw	a5,0(a0)
    195c:	00a00713          	li	a4,10
    1960:	40f507b3          	sub	a5,a0,a5
    1964:	0007d683          	lhu	a3,0(a5)
    1968:	02d77663          	bgeu	a4,a3,1994 <_ZN6tflite20NumSubgraphOperatorsEPKNS_8SubGraphE+0x3c>
    196c:	00a7d703          	lhu	a4,10(a5)
    1970:	00e507b3          	add	a5,a0,a4
    1974:	00000513          	li	a0,0
    1978:	02070063          	beqz	a4,1998 <_ZN6tflite20NumSubgraphOperatorsEPKNS_8SubGraphE+0x40>
    197c:	0007a503          	lw	a0,0(a5)
    1980:	00a787b3          	add	a5,a5,a0
    1984:	00000513          	li	a0,0
    1988:	00078863          	beqz	a5,1998 <_ZN6tflite20NumSubgraphOperatorsEPKNS_8SubGraphE+0x40>
    198c:	0007a503          	lw	a0,0(a5)
    1990:	00008067          	ret
    1994:	00000513          	li	a0,0
    1998:	00008067          	ret

0000199c <_ZN6tflite20NumSubgraphOperatorsEPKNS_5ModelEi>:
    199c:	00052703          	lw	a4,0(a0)
    19a0:	00800693          	li	a3,8
    19a4:	00000793          	li	a5,0
    19a8:	40e50733          	sub	a4,a0,a4
    19ac:	00075603          	lhu	a2,0(a4)
    19b0:	00c6fc63          	bgeu	a3,a2,19c8 <_ZN6tflite20NumSubgraphOperatorsEPKNS_5ModelEi+0x2c>
    19b4:	00875703          	lhu	a4,8(a4)
    19b8:	00e50533          	add	a0,a0,a4
    19bc:	00070663          	beqz	a4,19c8 <_ZN6tflite20NumSubgraphOperatorsEPKNS_5ModelEi+0x2c>
    19c0:	00052783          	lw	a5,0(a0)
    19c4:	00f507b3          	add	a5,a0,a5
    19c8:	0007a703          	lw	a4,0(a5)
    19cc:	02e5e863          	bltu	a1,a4,19fc <_ZN6tflite20NumSubgraphOperatorsEPKNS_5ModelEi+0x60>
    19d0:	80048697          	auipc	a3,0x80048
    19d4:	80049617          	auipc	a2,0x80049
    19d8:	80048517          	auipc	a0,0x80048
    19dc:	ff010113          	addi	sp,sp,-16
    19e0:	fb468693          	addi	a3,a3,-76 # 80049984 <__stack_top+0xfffd2b34>
    19e4:	0c060613          	addi	a2,a2,192 # 8004aa94 <__stack_top+0xfffd3c44>
    19e8:	0c200593          	li	a1,194
    19ec:	fb850513          	addi	a0,a0,-72 # 80049990 <__stack_top+0xfffd2b40>
    19f0:	00112623          	sw	ra,12(sp)
    19f4:	00004097          	auipc	ra,0x4
    19f8:	2d4080e7          	jalr	724(ra) # 5cc8 <__assert_func>
    19fc:	00478793          	addi	a5,a5,4
    1a00:	00259593          	slli	a1,a1,0x2
    1a04:	00b787b3          	add	a5,a5,a1
    1a08:	0007a503          	lw	a0,0(a5)
    1a0c:	00a78533          	add	a0,a5,a0
    1a10:	00000317          	auipc	t1,0x0
    1a14:	f4830067          	jr	-184(t1) # 1958 <_ZN6tflite20NumSubgraphOperatorsEPKNS_8SubGraphE>

00001a18 <_ZN6tflite33FlatBufferVectorToTfLiteTypeArrayEPKN11flatbuffers6VectorIlmEE>:
    1a18:	00008067          	ret

00001a1c <_ZN6tflite33FlatBufferVectorToTfLiteTypeArrayEPKN11flatbuffers6VectorIfmEE>:
    1a1c:	00008067          	ret

00001a20 <_ZN6tflite14AlignPointerUpEPhj>:
    1a20:	fff58793          	addi	a5,a1,-1
    1a24:	00f50533          	add	a0,a0,a5
    1a28:	02b55533          	divu	a0,a0,a1
    1a2c:	02b50533          	mul	a0,a0,a1
    1a30:	00008067          	ret

00001a34 <_ZN6tflite16AlignPointerDownEPhj>:
    1a34:	02b55533          	divu	a0,a0,a1
    1a38:	02b50533          	mul	a0,a0,a1
    1a3c:	00008067          	ret

00001a40 <_ZN6tflite11AlignSizeUpEjj>:
    1a40:	fff50513          	addi	a0,a0,-1
    1a44:	00b50533          	add	a0,a0,a1
    1a48:	02b55533          	divu	a0,a0,a1
    1a4c:	02b50533          	mul	a0,a0,a1
    1a50:	00008067          	ret

00001a54 <_ZN6tflite16TfLiteTypeSizeOfE10TfLiteTypePj>:
    1a54:	fff50513          	addi	a0,a0,-1
    1a58:	01200793          	li	a5,18
    1a5c:	04a7e863          	bltu	a5,a0,1aac <_ZN6tflite16TfLiteTypeSizeOfE10TfLiteTypePj+0x58>
    1a60:	80049797          	auipc	a5,0x80049
    1a64:	12478793          	addi	a5,a5,292 # 8004ab84 <__stack_top+0xfffd3d34>
    1a68:	00251513          	slli	a0,a0,0x2
    1a6c:	00f50533          	add	a0,a0,a5
    1a70:	00052703          	lw	a4,0(a0)
    1a74:	00f707b3          	add	a5,a4,a5
    1a78:	00078067          	jr	a5
    1a7c:	00200793          	li	a5,2
    1a80:	00f5a023          	sw	a5,0(a1)
    1a84:	00000513          	li	a0,0
    1a88:	00008067          	ret
    1a8c:	00400793          	li	a5,4
    1a90:	ff1ff06f          	j	1a80 <_ZN6tflite16TfLiteTypeSizeOfE10TfLiteTypePj+0x2c>
    1a94:	00800793          	li	a5,8
    1a98:	fe9ff06f          	j	1a80 <_ZN6tflite16TfLiteTypeSizeOfE10TfLiteTypePj+0x2c>
    1a9c:	00100793          	li	a5,1
    1aa0:	fe1ff06f          	j	1a80 <_ZN6tflite16TfLiteTypeSizeOfE10TfLiteTypePj+0x2c>
    1aa4:	01000793          	li	a5,16
    1aa8:	fd9ff06f          	j	1a80 <_ZN6tflite16TfLiteTypeSizeOfE10TfLiteTypePj+0x2c>
    1aac:	00100513          	li	a0,1
    1ab0:	00008067          	ret

00001ab4 <_ZN6tflite22BytesRequiredForTensorERKNS_6TensorEPjS3_>:
    1ab4:	00052683          	lw	a3,0(a0)
    1ab8:	fe010113          	addi	sp,sp,-32
    1abc:	01212823          	sw	s2,16(sp)
    1ac0:	40d506b3          	sub	a3,a0,a3
    1ac4:	00060913          	mv	s2,a2
    1ac8:	0006d603          	lhu	a2,0(a3)
    1acc:	00912a23          	sw	s1,20(sp)
    1ad0:	00112e23          	sw	ra,28(sp)
    1ad4:	00812c23          	sw	s0,24(sp)
    1ad8:	00400793          	li	a5,4
    1adc:	00058493          	mv	s1,a1
    1ae0:	0ac7f663          	bgeu	a5,a2,1b8c <_ZN6tflite22BytesRequiredForTensorERKNS_6TensorEPjS3_+0xd8>
    1ae4:	0046d583          	lhu	a1,4(a3)
    1ae8:	00050713          	mv	a4,a0
    1aec:	00100413          	li	s0,1
    1af0:	00b507b3          	add	a5,a0,a1
    1af4:	02058a63          	beqz	a1,1b28 <_ZN6tflite22BytesRequiredForTensorERKNS_6TensorEPjS3_+0x74>
    1af8:	0007a583          	lw	a1,0(a5)
    1afc:	00b787b3          	add	a5,a5,a1
    1b00:	02078463          	beqz	a5,1b28 <_ZN6tflite22BytesRequiredForTensorERKNS_6TensorEPjS3_+0x74>
    1b04:	0007a803          	lw	a6,0(a5)
    1b08:	00000593          	li	a1,0
    1b0c:	00478793          	addi	a5,a5,4
    1b10:	01058c63          	beq	a1,a6,1b28 <_ZN6tflite22BytesRequiredForTensorERKNS_6TensorEPjS3_+0x74>
    1b14:	0007a503          	lw	a0,0(a5)
    1b18:	00158593          	addi	a1,a1,1
    1b1c:	00478793          	addi	a5,a5,4
    1b20:	02a40433          	mul	s0,s0,a0
    1b24:	fedff06f          	j	1b10 <_ZN6tflite22BytesRequiredForTensorERKNS_6TensorEPjS3_+0x5c>
    1b28:	00600793          	li	a5,6
    1b2c:	00000513          	li	a0,0
    1b30:	00c7fa63          	bgeu	a5,a2,1b44 <_ZN6tflite22BytesRequiredForTensorERKNS_6TensorEPjS3_+0x90>
    1b34:	0066d783          	lhu	a5,6(a3)
    1b38:	00078663          	beqz	a5,1b44 <_ZN6tflite22BytesRequiredForTensorERKNS_6TensorEPjS3_+0x90>
    1b3c:	00f70733          	add	a4,a4,a5
    1b40:	00070503          	lb	a0,0(a4)
    1b44:	00c10593          	addi	a1,sp,12
    1b48:	00000097          	auipc	ra,0x0
    1b4c:	b38080e7          	jalr	-1224(ra) # 1680 <_ZN6tflite17ConvertTensorTypeENS_10TensorTypeEP10TfLiteType>
    1b50:	02051263          	bnez	a0,1b74 <_ZN6tflite22BytesRequiredForTensorERKNS_6TensorEPjS3_+0xc0>
    1b54:	00c12503          	lw	a0,12(sp)
    1b58:	00090593          	mv	a1,s2
    1b5c:	00000097          	auipc	ra,0x0
    1b60:	ef8080e7          	jalr	-264(ra) # 1a54 <_ZN6tflite16TfLiteTypeSizeOfE10TfLiteTypePj>
    1b64:	00051863          	bnez	a0,1b74 <_ZN6tflite22BytesRequiredForTensorERKNS_6TensorEPjS3_+0xc0>
    1b68:	00092783          	lw	a5,0(s2)
    1b6c:	02878433          	mul	s0,a5,s0
    1b70:	0084a023          	sw	s0,0(s1)
    1b74:	01c12083          	lw	ra,28(sp)
    1b78:	01812403          	lw	s0,24(sp)
    1b7c:	01412483          	lw	s1,20(sp)
    1b80:	01012903          	lw	s2,16(sp)
    1b84:	02010113          	addi	sp,sp,32
    1b88:	00008067          	ret
    1b8c:	00100413          	li	s0,1
    1b90:	00000513          	li	a0,0
    1b94:	fb1ff06f          	j	1b44 <_ZN6tflite22BytesRequiredForTensorERKNS_6TensorEPjS3_+0x90>

00001b98 <_ZN6tflite26TfLiteEvalTensorByteLengthEPK16TfLiteEvalTensorPj>:
    1b98:	fe010113          	addi	sp,sp,-32
    1b9c:	00112e23          	sw	ra,28(sp)
    1ba0:	00812c23          	sw	s0,24(sp)
    1ba4:	00912a23          	sw	s1,20(sp)
    1ba8:	00059c63          	bnez	a1,1bc0 <_ZN6tflite26TfLiteEvalTensorByteLengthEPK16TfLiteEvalTensorPj+0x28>
    1bac:	80049517          	auipc	a0,0x80049
    1bb0:	b7050513          	addi	a0,a0,-1168 # 8004a71c <__stack_top+0xfffd38cc>
    1bb4:	00000097          	auipc	ra,0x0
    1bb8:	a1c080e7          	jalr	-1508(ra) # 15d0 <_Z11MicroPrintfPKcz>
    1bbc:	0000006f          	j	1bbc <_ZN6tflite26TfLiteEvalTensorByteLengthEPK16TfLiteEvalTensorPj+0x24>
    1bc0:	00452783          	lw	a5,4(a0)
    1bc4:	00058493          	mv	s1,a1
    1bc8:	00100413          	li	s0,1
    1bcc:	02078463          	beqz	a5,1bf4 <_ZN6tflite26TfLiteEvalTensorByteLengthEPK16TfLiteEvalTensorPj+0x5c>
    1bd0:	0007a603          	lw	a2,0(a5)
    1bd4:	00000713          	li	a4,0
    1bd8:	00478793          	addi	a5,a5,4
    1bdc:	00c75c63          	bge	a4,a2,1bf4 <_ZN6tflite26TfLiteEvalTensorByteLengthEPK16TfLiteEvalTensorPj+0x5c>
    1be0:	0007a683          	lw	a3,0(a5)
    1be4:	00170713          	addi	a4,a4,1
    1be8:	00478793          	addi	a5,a5,4
    1bec:	02d40433          	mul	s0,s0,a3
    1bf0:	fedff06f          	j	1bdc <_ZN6tflite26TfLiteEvalTensorByteLengthEPK16TfLiteEvalTensorPj+0x44>
    1bf4:	00852503          	lw	a0,8(a0)
    1bf8:	00c10593          	addi	a1,sp,12
    1bfc:	00000097          	auipc	ra,0x0
    1c00:	e58080e7          	jalr	-424(ra) # 1a54 <_ZN6tflite16TfLiteTypeSizeOfE10TfLiteTypePj>
    1c04:	00051863          	bnez	a0,1c14 <_ZN6tflite26TfLiteEvalTensorByteLengthEPK16TfLiteEvalTensorPj+0x7c>
    1c08:	00c12783          	lw	a5,12(sp)
    1c0c:	02878433          	mul	s0,a5,s0
    1c10:	0084a023          	sw	s0,0(s1)
    1c14:	01c12083          	lw	ra,28(sp)
    1c18:	01812403          	lw	s0,24(sp)
    1c1c:	01412483          	lw	s1,20(sp)
    1c20:	02010113          	addi	sp,sp,32
    1c24:	00008067          	ret

00001c28 <_ZN6tflite14MicroAllocatorD0Ev>:
    1c28:	00008067          	ret

00001c2c <_ZN6tflite14MicroAllocator24AllocatePersistentBufferEj>:
    1c2c:	00852503          	lw	a0,8(a0)
    1c30:	01000613          	li	a2,16
    1c34:	00052783          	lw	a5,0(a0)
    1c38:	0087a303          	lw	t1,8(a5)
    1c3c:	00030067          	jr	t1

00001c40 <_ZN6tflite14MicroAllocator18AllocateTempBufferEjj>:
    1c40:	00452503          	lw	a0,4(a0)
    1c44:	00052783          	lw	a5,0(a0)
    1c48:	0087a303          	lw	t1,8(a5)
    1c4c:	00030067          	jr	t1

00001c50 <_ZN6tflite14MicroAllocator20DeallocateTempBufferEPh>:
    1c50:	00452503          	lw	a0,4(a0)
    1c54:	00052783          	lw	a5,0(a0)
    1c58:	00c7a303          	lw	t1,12(a5)
    1c5c:	00030067          	jr	t1

00001c60 <_ZN6tflite14MicroAllocator20ResetTempAllocationsEv>:
    1c60:	00452503          	lw	a0,4(a0)
    1c64:	00052783          	lw	a5,0(a0)
    1c68:	0147a303          	lw	t1,20(a5)
    1c6c:	00030067          	jr	t1

00001c70 <_ZN6tflite14MicroAllocator20IsAllTempDeallocatedEv>:
    1c70:	00452503          	lw	a0,4(a0)
    1c74:	00052783          	lw	a5,0(a0)
    1c78:	0107a303          	lw	t1,16(a5)
    1c7c:	00030067          	jr	t1

00001c80 <_ZN6tflite14MicroAllocator38AllocatePersistentTfLiteTensorInternalEv>:
    1c80:	00852503          	lw	a0,8(a0)
    1c84:	00400613          	li	a2,4
    1c88:	02800593          	li	a1,40
    1c8c:	00052783          	lw	a5,0(a0)
    1c90:	0087a303          	lw	t1,8(a5)
    1c94:	00030067          	jr	t1

00001c98 <_ZNK6tflite22QuantizationParameters5scaleEv>:
    1c98:	ff010113          	addi	sp,sp,-16
    1c9c:	00800593          	li	a1,8
    1ca0:	00812423          	sw	s0,8(sp)
    1ca4:	00112623          	sw	ra,12(sp)
    1ca8:	00050413          	mv	s0,a0
    1cac:	ffffe097          	auipc	ra,0xffffe
    1cb0:	648080e7          	jalr	1608(ra) # 2f4 <_ZNK11flatbuffers5Table22GetOptionalFieldOffsetEt>
    1cb4:	02050063          	beqz	a0,1cd4 <_ZNK6tflite22QuantizationParameters5scaleEv+0x3c>
    1cb8:	00a40533          	add	a0,s0,a0
    1cbc:	00052783          	lw	a5,0(a0)
    1cc0:	00f50533          	add	a0,a0,a5
    1cc4:	00c12083          	lw	ra,12(sp)
    1cc8:	00812403          	lw	s0,8(sp)
    1ccc:	01010113          	addi	sp,sp,16
    1cd0:	00008067          	ret
    1cd4:	00000513          	li	a0,0
    1cd8:	fedff06f          	j	1cc4 <_ZNK6tflite22QuantizationParameters5scaleEv+0x2c>

00001cdc <_ZNK6tflite22QuantizationParameters10zero_pointEv>:
    1cdc:	ff010113          	addi	sp,sp,-16
    1ce0:	00a00593          	li	a1,10
    1ce4:	00812423          	sw	s0,8(sp)
    1ce8:	00112623          	sw	ra,12(sp)
    1cec:	00050413          	mv	s0,a0
    1cf0:	ffffe097          	auipc	ra,0xffffe
    1cf4:	604080e7          	jalr	1540(ra) # 2f4 <_ZNK11flatbuffers5Table22GetOptionalFieldOffsetEt>
    1cf8:	02050063          	beqz	a0,1d18 <_ZNK6tflite22QuantizationParameters10zero_pointEv+0x3c>
    1cfc:	00a40533          	add	a0,s0,a0
    1d00:	00052783          	lw	a5,0(a0)
    1d04:	00f50533          	add	a0,a0,a5
    1d08:	00c12083          	lw	ra,12(sp)
    1d0c:	00812403          	lw	s0,8(sp)
    1d10:	01010113          	addi	sp,sp,16
    1d14:	00008067          	ret
    1d18:	00000513          	li	a0,0
    1d1c:	fedff06f          	j	1d08 <_ZNK6tflite22QuantizationParameters10zero_pointEv+0x2c>

00001d20 <_ZNK6tflite6Tensor4typeEv>:
    1d20:	ff010113          	addi	sp,sp,-16
    1d24:	00600593          	li	a1,6
    1d28:	00812423          	sw	s0,8(sp)
    1d2c:	00112623          	sw	ra,12(sp)
    1d30:	00050413          	mv	s0,a0
    1d34:	ffffe097          	auipc	ra,0xffffe
    1d38:	5c0080e7          	jalr	1472(ra) # 2f4 <_ZNK11flatbuffers5Table22GetOptionalFieldOffsetEt>
    1d3c:	00050e63          	beqz	a0,1d58 <_ZNK6tflite6Tensor4typeEv+0x38>
    1d40:	00a40433          	add	s0,s0,a0
    1d44:	00040503          	lb	a0,0(s0)
    1d48:	00c12083          	lw	ra,12(sp)
    1d4c:	00812403          	lw	s0,8(sp)
    1d50:	01010113          	addi	sp,sp,16
    1d54:	00008067          	ret
    1d58:	00000513          	li	a0,0
    1d5c:	fedff06f          	j	1d48 <_ZNK6tflite6Tensor4typeEv+0x28>

00001d60 <_ZNK6tflite5Model9subgraphsEv>:
    1d60:	ff010113          	addi	sp,sp,-16
    1d64:	00800593          	li	a1,8
    1d68:	00812423          	sw	s0,8(sp)
    1d6c:	00112623          	sw	ra,12(sp)
    1d70:	00050413          	mv	s0,a0
    1d74:	ffffe097          	auipc	ra,0xffffe
    1d78:	580080e7          	jalr	1408(ra) # 2f4 <_ZNK11flatbuffers5Table22GetOptionalFieldOffsetEt>
    1d7c:	02050063          	beqz	a0,1d9c <_ZNK6tflite5Model9subgraphsEv+0x3c>
    1d80:	00a40533          	add	a0,s0,a0
    1d84:	00052783          	lw	a5,0(a0)
    1d88:	00f50533          	add	a0,a0,a5
    1d8c:	00c12083          	lw	ra,12(sp)
    1d90:	00812403          	lw	s0,8(sp)
    1d94:	01010113          	addi	sp,sp,16
    1d98:	00008067          	ret
    1d9c:	00000513          	li	a0,0
    1da0:	fedff06f          	j	1d8c <_ZNK6tflite5Model9subgraphsEv+0x2c>

00001da4 <_ZN6tflite14MicroAllocator26DeallocateTempTfLiteTensorEP12TfLiteTensor>:
    1da4:	ff010113          	addi	sp,sp,-16
    1da8:	00112623          	sw	ra,12(sp)
    1dac:	00812423          	sw	s0,8(sp)
    1db0:	00912223          	sw	s1,4(sp)
    1db4:	01212023          	sw	s2,0(sp)
    1db8:	00059663          	bnez	a1,1dc4 <_ZN6tflite14MicroAllocator26DeallocateTempTfLiteTensorEP12TfLiteTensor+0x20>
    1dbc:	fffff097          	auipc	ra,0xfffff
    1dc0:	8ac080e7          	jalr	-1876(ra) # 668 <_Z9AbortImplv>
    1dc4:	0005a703          	lw	a4,0(a1)
    1dc8:	00100793          	li	a5,1
    1dcc:	00050493          	mv	s1,a0
    1dd0:	00058413          	mv	s0,a1
    1dd4:	02f71a63          	bne	a4,a5,1e08 <_ZN6tflite14MicroAllocator26DeallocateTempTfLiteTensorEP12TfLiteTensor+0x64>
    1dd8:	0045a903          	lw	s2,4(a1)
    1ddc:	fe0900e3          	beqz	s2,1dbc <_ZN6tflite14MicroAllocator26DeallocateTempTfLiteTensorEP12TfLiteTensor+0x18>
    1de0:	00452503          	lw	a0,4(a0)
    1de4:	00492583          	lw	a1,4(s2)
    1de8:	00052783          	lw	a5,0(a0)
    1dec:	00c7a783          	lw	a5,12(a5)
    1df0:	000780e7          	jalr	a5
    1df4:	0044a503          	lw	a0,4(s1)
    1df8:	00090593          	mv	a1,s2
    1dfc:	00052783          	lw	a5,0(a0)
    1e00:	00c7a783          	lw	a5,12(a5)
    1e04:	000780e7          	jalr	a5
    1e08:	0044a503          	lw	a0,4(s1)
    1e0c:	00042223          	sw	zero,4(s0)
    1e10:	00042823          	sw	zero,16(s0)
    1e14:	00052783          	lw	a5,0(a0)
    1e18:	00042023          	sw	zero,0(s0)
    1e1c:	00042a23          	sw	zero,20(s0)
    1e20:	00040593          	mv	a1,s0
    1e24:	00812403          	lw	s0,8(sp)
    1e28:	00c12083          	lw	ra,12(sp)
    1e2c:	00412483          	lw	s1,4(sp)
    1e30:	00012903          	lw	s2,0(sp)
    1e34:	00c7a303          	lw	t1,12(a5)
    1e38:	01010113          	addi	sp,sp,16
    1e3c:	00030067          	jr	t1

00001e40 <_ZN6tflite14MicroAllocator28AllocateScratchBufferHandlesEPPNS_19ScratchBufferHandleEj>:
    1e40:	ff010113          	addi	sp,sp,-16
    1e44:	00812423          	sw	s0,8(sp)
    1e48:	00112623          	sw	ra,12(sp)
    1e4c:	00058413          	mv	s0,a1
    1e50:	00059663          	bnez	a1,1e5c <_ZN6tflite14MicroAllocator28AllocateScratchBufferHandlesEPPNS_19ScratchBufferHandleEj+0x1c>
    1e54:	fffff097          	auipc	ra,0xfffff
    1e58:	814080e7          	jalr	-2028(ra) # 668 <_Z9AbortImplv>
    1e5c:	01852783          	lw	a5,24(a0)
    1e60:	02078263          	beqz	a5,1e84 <_ZN6tflite14MicroAllocator28AllocateScratchBufferHandlesEPPNS_19ScratchBufferHandleEj+0x44>
    1e64:	00852503          	lw	a0,8(a0)
    1e68:	00060593          	mv	a1,a2
    1e6c:	00259593          	slli	a1,a1,0x2
    1e70:	00052783          	lw	a5,0(a0)
    1e74:	00400613          	li	a2,4
    1e78:	0087a783          	lw	a5,8(a5)
    1e7c:	000780e7          	jalr	a5
    1e80:	00a42023          	sw	a0,0(s0)
    1e84:	00c12083          	lw	ra,12(sp)
    1e88:	00812403          	lw	s0,8(sp)
    1e8c:	00000513          	li	a0,0
    1e90:	01010113          	addi	sp,sp,16
    1e94:	00008067          	ret

00001e98 <_ZN6tflite8internal25GetFlatbufferTensorBufferERKNS_6TensorEPKN11flatbuffers6VectorINS4_6OffsetINS_6BufferEEEmEE>:
    1e98:	ff010113          	addi	sp,sp,-16
    1e9c:	00812423          	sw	s0,8(sp)
    1ea0:	00058413          	mv	s0,a1
    1ea4:	00800593          	li	a1,8
    1ea8:	00912223          	sw	s1,4(sp)
    1eac:	00112623          	sw	ra,12(sp)
    1eb0:	00050493          	mv	s1,a0
    1eb4:	ffffe097          	auipc	ra,0xffffe
    1eb8:	440080e7          	jalr	1088(ra) # 2f4 <_ZNK11flatbuffers5Table22GetOptionalFieldOffsetEt>
    1ebc:	00000793          	li	a5,0
    1ec0:	00050663          	beqz	a0,1ecc <_ZN6tflite8internal25GetFlatbufferTensorBufferERKNS_6TensorEPKN11flatbuffers6VectorINS4_6OffsetINS_6BufferEEEmEE+0x34>
    1ec4:	00a484b3          	add	s1,s1,a0
    1ec8:	0004a783          	lw	a5,0(s1)
    1ecc:	00042703          	lw	a4,0(s0)
    1ed0:	02e7e463          	bltu	a5,a4,1ef8 <_ZN6tflite8internal25GetFlatbufferTensorBufferERKNS_6TensorEPKN11flatbuffers6VectorINS4_6OffsetINS_6BufferEEEmEE+0x60>
    1ed4:	80048697          	auipc	a3,0x80048
    1ed8:	80049617          	auipc	a2,0x80049
    1edc:	80048517          	auipc	a0,0x80048
    1ee0:	ab068693          	addi	a3,a3,-1360 # 80049984 <__stack_top+0xfffd2b34>
    1ee4:	fb060613          	addi	a2,a2,-80 # 8004ae88 <__stack_top+0xfffd4038>
    1ee8:	0c200593          	li	a1,194
    1eec:	ab450513          	addi	a0,a0,-1356 # 80049990 <__stack_top+0xfffd2b40>
    1ef0:	00004097          	auipc	ra,0x4
    1ef4:	dd8080e7          	jalr	-552(ra) # 5cc8 <__assert_func>
    1ef8:	00279793          	slli	a5,a5,0x2
    1efc:	00440413          	addi	s0,s0,4
    1f00:	00f40433          	add	s0,s0,a5
    1f04:	00042503          	lw	a0,0(s0)
    1f08:	00000793          	li	a5,0
    1f0c:	00a40433          	add	s0,s0,a0
    1f10:	02040c63          	beqz	s0,1f48 <_ZN6tflite8internal25GetFlatbufferTensorBufferERKNS_6TensorEPKN11flatbuffers6VectorINS4_6OffsetINS_6BufferEEEmEE+0xb0>
    1f14:	00400593          	li	a1,4
    1f18:	00040513          	mv	a0,s0
    1f1c:	ffffe097          	auipc	ra,0xffffe
    1f20:	3d8080e7          	jalr	984(ra) # 2f4 <_ZNK11flatbuffers5Table22GetOptionalFieldOffsetEt>
    1f24:	00000793          	li	a5,0
    1f28:	02050063          	beqz	a0,1f48 <_ZN6tflite8internal25GetFlatbufferTensorBufferERKNS_6TensorEPKN11flatbuffers6VectorINS4_6OffsetINS_6BufferEEEmEE+0xb0>
    1f2c:	00a40433          	add	s0,s0,a0
    1f30:	00042503          	lw	a0,0(s0)
    1f34:	00a40433          	add	s0,s0,a0
    1f38:	00040863          	beqz	s0,1f48 <_ZN6tflite8internal25GetFlatbufferTensorBufferERKNS_6TensorEPKN11flatbuffers6VectorINS4_6OffsetINS_6BufferEEEmEE+0xb0>
    1f3c:	00042703          	lw	a4,0(s0)
    1f40:	00070463          	beqz	a4,1f48 <_ZN6tflite8internal25GetFlatbufferTensorBufferERKNS_6TensorEPKN11flatbuffers6VectorINS4_6OffsetINS_6BufferEEEmEE+0xb0>
    1f44:	00440793          	addi	a5,s0,4
    1f48:	00c12083          	lw	ra,12(sp)
    1f4c:	00812403          	lw	s0,8(sp)
    1f50:	00412483          	lw	s1,4(sp)
    1f54:	00078513          	mv	a0,a5
    1f58:	01010113          	addi	sp,sp,16
    1f5c:	00008067          	ret

00001f60 <_ZN6tflite8internal40InitializeTfLiteEvalTensorFromFlatbufferERKNS_6TensorEPKN11flatbuffers6VectorINS4_6OffsetINS_6BufferEEEmEEP16TfLiteEvalTensor>:
    1f60:	fe010113          	addi	sp,sp,-32
    1f64:	00062023          	sw	zero,0(a2)
    1f68:	00062223          	sw	zero,4(a2)
    1f6c:	00062423          	sw	zero,8(a2)
    1f70:	00112e23          	sw	ra,28(sp)
    1f74:	00812c23          	sw	s0,24(sp)
    1f78:	00912a23          	sw	s1,20(sp)
    1f7c:	01212823          	sw	s2,16(sp)
    1f80:	00060493          	mv	s1,a2
    1f84:	01312623          	sw	s3,12(sp)
    1f88:	00050413          	mv	s0,a0
    1f8c:	00058993          	mv	s3,a1
    1f90:	00000097          	auipc	ra,0x0
    1f94:	d90080e7          	jalr	-624(ra) # 1d20 <_ZNK6tflite6Tensor4typeEv>
    1f98:	00848593          	addi	a1,s1,8
    1f9c:	fffff097          	auipc	ra,0xfffff
    1fa0:	6e4080e7          	jalr	1764(ra) # 1680 <_ZN6tflite17ConvertTensorTypeENS_10TensorTypeEP10TfLiteType>
    1fa4:	00050913          	mv	s2,a0
    1fa8:	04051663          	bnez	a0,1ff4 <_ZN6tflite8internal40InitializeTfLiteEvalTensorFromFlatbufferERKNS_6TensorEPKN11flatbuffers6VectorINS4_6OffsetINS_6BufferEEEmEEP16TfLiteEvalTensor+0x94>
    1fac:	00098593          	mv	a1,s3
    1fb0:	00040513          	mv	a0,s0
    1fb4:	00000097          	auipc	ra,0x0
    1fb8:	ee4080e7          	jalr	-284(ra) # 1e98 <_ZN6tflite8internal25GetFlatbufferTensorBufferERKNS_6TensorEPKN11flatbuffers6VectorINS4_6OffsetINS_6BufferEEEmEE>
    1fbc:	00a4a023          	sw	a0,0(s1)
    1fc0:	00400593          	li	a1,4
    1fc4:	00040513          	mv	a0,s0
    1fc8:	ffffe097          	auipc	ra,0xffffe
    1fcc:	32c080e7          	jalr	812(ra) # 2f4 <_ZNK11flatbuffers5Table22GetOptionalFieldOffsetEt>
    1fd0:	00050a63          	beqz	a0,1fe4 <_ZN6tflite8internal40InitializeTfLiteEvalTensorFromFlatbufferERKNS_6TensorEPKN11flatbuffers6VectorINS4_6OffsetINS_6BufferEEEmEEP16TfLiteEvalTensor+0x84>
    1fd4:	00a40533          	add	a0,s0,a0
    1fd8:	00052403          	lw	s0,0(a0)
    1fdc:	00850533          	add	a0,a0,s0
    1fe0:	02051a63          	bnez	a0,2014 <_ZN6tflite8internal40InitializeTfLiteEvalTensorFromFlatbufferERKNS_6TensorEPKN11flatbuffers6VectorINS4_6OffsetINS_6BufferEEEmEEP16TfLiteEvalTensor+0xb4>
    1fe4:	8004b797          	auipc	a5,0x8004b
    1fe8:	c7878793          	addi	a5,a5,-904 # 8004cc5c <__stack_top+0xfffd5e0c>
    1fec:	00f4a223          	sw	a5,4(s1)
    1ff0:	00000913          	li	s2,0
    1ff4:	01c12083          	lw	ra,28(sp)
    1ff8:	01812403          	lw	s0,24(sp)
    1ffc:	00090513          	mv	a0,s2
    2000:	01412483          	lw	s1,20(sp)
    2004:	01012903          	lw	s2,16(sp)
    2008:	00c12983          	lw	s3,12(sp)
    200c:	02010113          	addi	sp,sp,32
    2010:	00008067          	ret
    2014:	00000097          	auipc	ra,0x0
    2018:	a04080e7          	jalr	-1532(ra) # 1a18 <_ZN6tflite33FlatBufferVectorToTfLiteTypeArrayEPKN11flatbuffers6VectorIlmEE>
    201c:	00a4a223          	sw	a0,4(s1)
    2020:	fd5ff06f          	j	1ff4 <_ZN6tflite8internal40InitializeTfLiteEvalTensorFromFlatbufferERKNS_6TensorEPKN11flatbuffers6VectorINS4_6OffsetINS_6BufferEEEmEEP16TfLiteEvalTensor+0x94>

00002024 <_ZN6tflite14MicroAllocator6CreateEPNS_26SingleArenaBufferAllocatorEPNS_18MicroMemoryPlannerE>:
    2024:	ff010113          	addi	sp,sp,-16
    2028:	00112623          	sw	ra,12(sp)
    202c:	00812423          	sw	s0,8(sp)
    2030:	00912223          	sw	s1,4(sp)
    2034:	00051663          	bnez	a0,2040 <_ZN6tflite14MicroAllocator6CreateEPNS_26SingleArenaBufferAllocatorEPNS_18MicroMemoryPlannerE+0x1c>
    2038:	ffffe097          	auipc	ra,0xffffe
    203c:	630080e7          	jalr	1584(ra) # 668 <_Z9AbortImplv>
    2040:	00058493          	mv	s1,a1
    2044:	fe058ae3          	beqz	a1,2038 <_ZN6tflite14MicroAllocator6CreateEPNS_26SingleArenaBufferAllocatorEPNS_18MicroMemoryPlannerE+0x14>
    2048:	00052783          	lw	a5,0(a0)
    204c:	00400613          	li	a2,4
    2050:	02400593          	li	a1,36
    2054:	0347a783          	lw	a5,52(a5)
    2058:	00050413          	mv	s0,a0
    205c:	000780e7          	jalr	a5
    2060:	00852223          	sw	s0,4(a0)
    2064:	00440413          	addi	s0,s0,4
    2068:	00852423          	sw	s0,8(a0)
    206c:	00c12083          	lw	ra,12(sp)
    2070:	00812403          	lw	s0,8(sp)
    2074:	80049717          	auipc	a4,0x80049
    2078:	b6470713          	addi	a4,a4,-1180 # 8004abd8 <__stack_top+0xfffd3d88>
    207c:	00952823          	sw	s1,16(a0)
    2080:	00e52023          	sw	a4,0(a0)
    2084:	00052623          	sw	zero,12(a0)
    2088:	00050a23          	sb	zero,20(a0)
    208c:	00052c23          	sw	zero,24(a0)
    2090:	00052e23          	sw	zero,28(a0)
    2094:	02052023          	sw	zero,32(a0)
    2098:	00412483          	lw	s1,4(sp)
    209c:	01010113          	addi	sp,sp,16
    20a0:	00008067          	ret

000020a4 <_ZN6tflite14MicroAllocator6CreateEPhjNS_17MemoryPlannerTypeE>:
    20a4:	fe010113          	addi	sp,sp,-32
    20a8:	00912a23          	sw	s1,20(sp)
    20ac:	00058493          	mv	s1,a1
    20b0:	01000593          	li	a1,16
    20b4:	00c12623          	sw	a2,12(sp)
    20b8:	00112e23          	sw	ra,28(sp)
    20bc:	00812c23          	sw	s0,24(sp)
    20c0:	00050413          	mv	s0,a0
    20c4:	00000097          	auipc	ra,0x0
    20c8:	95c080e7          	jalr	-1700(ra) # 1a20 <_ZN6tflite14AlignPointerUpEPhj>
    20cc:	009405b3          	add	a1,s0,s1
    20d0:	40a585b3          	sub	a1,a1,a0
    20d4:	00001097          	auipc	ra,0x1
    20d8:	57c080e7          	jalr	1404(ra) # 3650 <_ZN6tflite26SingleArenaBufferAllocator6CreateEPhj>
    20dc:	00050413          	mv	s0,a0
    20e0:	00c12603          	lw	a2,12(sp)
    20e4:	00450513          	addi	a0,a0,4
    20e8:	00041463          	bnez	s0,20f0 <_ZN6tflite14MicroAllocator6CreateEPhjNS_17MemoryPlannerTypeE+0x4c>
    20ec:	00000513          	li	a0,0
    20f0:	04060a63          	beqz	a2,2144 <_ZN6tflite14MicroAllocator6CreateEPhjNS_17MemoryPlannerTypeE+0xa0>
    20f4:	00100793          	li	a5,1
    20f8:	00000493          	li	s1,0
    20fc:	02f61463          	bne	a2,a5,2124 <_ZN6tflite14MicroAllocator6CreateEPhjNS_17MemoryPlannerTypeE+0x80>
    2100:	00052783          	lw	a5,0(a0)
    2104:	000015b7          	lui	a1,0x1
    2108:	00400613          	li	a2,4
    210c:	0087a783          	lw	a5,8(a5)
    2110:	00c58593          	addi	a1,a1,12 # 100c <_ZN6tflite21MicroInterpreterGraph15ResetTensorDataEPKNS_6TensorEP16TfLiteEvalTensor+0x5c>
    2114:	000780e7          	jalr	a5
    2118:	00050493          	mv	s1,a0
    211c:	00002097          	auipc	ra,0x2
    2120:	fbc080e7          	jalr	-68(ra) # 40d8 <_ZN6tflite19LinearMemoryPlannerC1Ev>
    2124:	00040513          	mv	a0,s0
    2128:	01812403          	lw	s0,24(sp)
    212c:	01c12083          	lw	ra,28(sp)
    2130:	00048593          	mv	a1,s1
    2134:	01412483          	lw	s1,20(sp)
    2138:	02010113          	addi	sp,sp,32
    213c:	00000317          	auipc	t1,0x0
    2140:	ee830067          	jr	-280(t1) # 2024 <_ZN6tflite14MicroAllocator6CreateEPNS_26SingleArenaBufferAllocatorEPNS_18MicroMemoryPlannerE>
    2144:	00052783          	lw	a5,0(a0)
    2148:	00400613          	li	a2,4
    214c:	02c00593          	li	a1,44
    2150:	0087a783          	lw	a5,8(a5)
    2154:	000780e7          	jalr	a5
    2158:	00050493          	mv	s1,a0
    215c:	00001097          	auipc	ra,0x1
    2160:	75c080e7          	jalr	1884(ra) # 38b8 <_ZN6tflite19GreedyMemoryPlannerC1Ev>
    2164:	fc1ff06f          	j	2124 <_ZN6tflite14MicroAllocator6CreateEPhjNS_17MemoryPlannerTypeE+0x80>

00002168 <_ZN6tflite14MicroAllocator24GetScratchBufferRequestsEv>:
    2168:	01c52503          	lw	a0,28(a0)
    216c:	00400593          	li	a1,4
    2170:	00000317          	auipc	t1,0x0
    2174:	8b030067          	jr	-1872(t1) # 1a20 <_ZN6tflite14AlignPointerUpEPhj>

00002178 <_ZN6tflite14MicroAllocator27RequestScratchBufferInArenaEjiPi>:
    2178:	fe010113          	addi	sp,sp,-32
    217c:	00812c23          	sw	s0,24(sp)
    2180:	00b12623          	sw	a1,12(sp)
    2184:	00050413          	mv	s0,a0
    2188:	00c12423          	sw	a2,8(sp)
    218c:	00d12223          	sw	a3,4(sp)
    2190:	00112e23          	sw	ra,28(sp)
    2194:	00000097          	auipc	ra,0x0
    2198:	fd4080e7          	jalr	-44(ra) # 2168 <_ZN6tflite14MicroAllocator24GetScratchBufferRequestsEv>
    219c:	01842803          	lw	a6,24(s0)
    21a0:	00c00793          	li	a5,12
    21a4:	00c12583          	lw	a1,12(sp)
    21a8:	02f807b3          	mul	a5,a6,a5
    21ac:	00812603          	lw	a2,8(sp)
    21b0:	00412683          	lw	a3,4(sp)
    21b4:	00000713          	li	a4,0
    21b8:	fff00893          	li	a7,-1
    21bc:	00f507b3          	add	a5,a0,a5
    21c0:	00f50c63          	beq	a0,a5,21d8 <_ZN6tflite14MicroAllocator27RequestScratchBufferInArenaEjiPi+0x60>
    21c4:	00452303          	lw	t1,4(a0)
    21c8:	01131463          	bne	t1,a7,21d0 <_ZN6tflite14MicroAllocator27RequestScratchBufferInArenaEjiPi+0x58>
    21cc:	00170713          	addi	a4,a4,1
    21d0:	00c50513          	addi	a0,a0,12
    21d4:	fedff06f          	j	21c0 <_ZN6tflite14MicroAllocator27RequestScratchBufferInArenaEjiPi+0x48>
    21d8:	00b00793          	li	a5,11
    21dc:	02e7f663          	bgeu	a5,a4,2208 <_ZN6tflite14MicroAllocator27RequestScratchBufferInArenaEjiPi+0x90>
    21e0:	80049517          	auipc	a0,0x80049
    21e4:	b5450513          	addi	a0,a0,-1196 # 8004ad34 <__stack_top+0xfffd3ee4>
    21e8:	00c00593          	li	a1,12
    21ec:	fffff097          	auipc	ra,0xfffff
    21f0:	3e4080e7          	jalr	996(ra) # 15d0 <_Z11MicroPrintfPKcz>
    21f4:	00100513          	li	a0,1
    21f8:	01c12083          	lw	ra,28(sp)
    21fc:	01812403          	lw	s0,24(sp)
    2200:	02010113          	addi	sp,sp,32
    2204:	00008067          	ret
    2208:	fff00793          	li	a5,-1
    220c:	00f52223          	sw	a5,4(a0)
    2210:	00b52023          	sw	a1,0(a0)
    2214:	00c52423          	sw	a2,8(a0)
    2218:	0106a023          	sw	a6,0(a3)
    221c:	01842783          	lw	a5,24(s0)
    2220:	00000513          	li	a0,0
    2224:	00178793          	addi	a5,a5,1
    2228:	00f42c23          	sw	a5,24(s0)
    222c:	fcdff06f          	j	21f8 <_ZN6tflite14MicroAllocator27RequestScratchBufferInArenaEjiPi+0x80>

00002230 <_ZN6tflite14MicroAllocator28FinishPrepareNodeAllocationsEi>:
    2230:	00052783          	lw	a5,0(a0)
    2234:	ff010113          	addi	sp,sp,-16
    2238:	00812423          	sw	s0,8(sp)
    223c:	0147a783          	lw	a5,20(a5)
    2240:	00912223          	sw	s1,4(sp)
    2244:	00112623          	sw	ra,12(sp)
    2248:	00050413          	mv	s0,a0
    224c:	00058493          	mv	s1,a1
    2250:	000780e7          	jalr	a5
    2254:	06051463          	bnez	a0,22bc <_ZN6tflite14MicroAllocator28FinishPrepareNodeAllocationsEi+0x8c>
    2258:	00040513          	mv	a0,s0
    225c:	00000097          	auipc	ra,0x0
    2260:	f0c080e7          	jalr	-244(ra) # 2168 <_ZN6tflite14MicroAllocator24GetScratchBufferRequestsEv>
    2264:	01842783          	lw	a5,24(s0)
    2268:	00c00613          	li	a2,12
    226c:	fff00713          	li	a4,-1
    2270:	02f60633          	mul	a2,a2,a5
    2274:	00a607b3          	add	a5,a2,a0
    2278:	00f50c63          	beq	a0,a5,2290 <_ZN6tflite14MicroAllocator28FinishPrepareNodeAllocationsEi+0x60>
    227c:	00452683          	lw	a3,4(a0)
    2280:	00e69463          	bne	a3,a4,2288 <_ZN6tflite14MicroAllocator28FinishPrepareNodeAllocationsEi+0x58>
    2284:	00952223          	sw	s1,4(a0)
    2288:	00c50513          	addi	a0,a0,12
    228c:	fedff06f          	j	2278 <_ZN6tflite14MicroAllocator28FinishPrepareNodeAllocationsEi+0x48>
    2290:	00442503          	lw	a0,4(s0)
    2294:	01c42583          	lw	a1,28(s0)
    2298:	00812403          	lw	s0,8(sp)
    229c:	00052783          	lw	a5,0(a0)
    22a0:	00c12083          	lw	ra,12(sp)
    22a4:	00412483          	lw	s1,4(sp)
    22a8:	01c7a303          	lw	t1,28(a5)
    22ac:	00400693          	li	a3,4
    22b0:	09060613          	addi	a2,a2,144
    22b4:	01010113          	addi	sp,sp,16
    22b8:	00030067          	jr	t1
    22bc:	00c12083          	lw	ra,12(sp)
    22c0:	00812403          	lw	s0,8(sp)
    22c4:	00412483          	lw	s1,4(sp)
    22c8:	01010113          	addi	sp,sp,16
    22cc:	00008067          	ret

000022d0 <_ZNK11flatbuffers6VectorIxmE3GetEm>:
    22d0:	00052783          	lw	a5,0(a0)
    22d4:	02f5e863          	bltu	a1,a5,2304 <_ZNK11flatbuffers6VectorIxmE3GetEm+0x34>
    22d8:	80047697          	auipc	a3,0x80047
    22dc:	80049617          	auipc	a2,0x80049
    22e0:	80047517          	auipc	a0,0x80047
    22e4:	ff010113          	addi	sp,sp,-16
    22e8:	6ac68693          	addi	a3,a3,1708 # 80049984 <__stack_top+0xfffd2b34>
    22ec:	c9860613          	addi	a2,a2,-872 # 8004af74 <__stack_top+0xfffd4124>
    22f0:	0c200593          	li	a1,194
    22f4:	6b050513          	addi	a0,a0,1712 # 80049990 <__stack_top+0xfffd2b40>
    22f8:	00112623          	sw	ra,12(sp)
    22fc:	00004097          	auipc	ra,0x4
    2300:	9cc080e7          	jalr	-1588(ra) # 5cc8 <__assert_func>
    2304:	00359593          	slli	a1,a1,0x3
    2308:	00b50533          	add	a0,a0,a1
    230c:	00852583          	lw	a1,8(a0)
    2310:	00452503          	lw	a0,4(a0)
    2314:	00008067          	ret

00002318 <_ZN6tflite8internal36InitializeTfLiteTensorFromFlatbufferEPNS_26IPersistentBufferAllocatorEPNS_29INonPersistentBufferAllocatorEbRKNS_6TensorEPKN11flatbuffers6VectorINS8_6OffsetINS_6BufferEEEmEEP12TfLiteTensor>:
    2318:	fd010113          	addi	sp,sp,-48
    231c:	02112623          	sw	ra,44(sp)
    2320:	02812423          	sw	s0,40(sp)
    2324:	02912223          	sw	s1,36(sp)
    2328:	03212023          	sw	s2,32(sp)
    232c:	01312e23          	sw	s3,28(sp)
    2330:	01412c23          	sw	s4,24(sp)
    2334:	01512a23          	sw	s5,20(sp)
    2338:	01612823          	sw	s6,16(sp)
    233c:	00079663          	bnez	a5,2348 <_ZN6tflite8internal36InitializeTfLiteTensorFromFlatbufferEPNS_26IPersistentBufferAllocatorEPNS_29INonPersistentBufferAllocatorEbRKNS_6TensorEPKN11flatbuffers6VectorINS8_6OffsetINS_6BufferEEEmEEP12TfLiteTensor+0x30>
    2340:	ffffe097          	auipc	ra,0xffffe
    2344:	328080e7          	jalr	808(ra) # 668 <_Z9AbortImplv>
    2348:	00050993          	mv	s3,a0
    234c:	00058a13          	mv	s4,a1
    2350:	00078513          	mv	a0,a5
    2354:	00000593          	li	a1,0
    2358:	00060b13          	mv	s6,a2
    235c:	02800613          	li	a2,40
    2360:	00068413          	mv	s0,a3
    2364:	00078913          	mv	s2,a5
    2368:	00070a93          	mv	s5,a4
    236c:	00004097          	auipc	ra,0x4
    2370:	730080e7          	jalr	1840(ra) # 6a9c <memset>
    2374:	00040513          	mv	a0,s0
    2378:	00000097          	auipc	ra,0x0
    237c:	9a8080e7          	jalr	-1624(ra) # 1d20 <_ZNK6tflite6Tensor4typeEv>
    2380:	01c90593          	addi	a1,s2,28
    2384:	fffff097          	auipc	ra,0xfffff
    2388:	2fc080e7          	jalr	764(ra) # 1680 <_ZN6tflite17ConvertTensorTypeENS_10TensorTypeEP10TfLiteType>
    238c:	00050493          	mv	s1,a0
    2390:	14051663          	bnez	a0,24dc <_ZN6tflite8internal36InitializeTfLiteTensorFromFlatbufferEPNS_26IPersistentBufferAllocatorEPNS_29INonPersistentBufferAllocatorEbRKNS_6TensorEPKN11flatbuffers6VectorINS8_6OffsetINS_6BufferEEEmEEP12TfLiteTensor+0x1c4>
    2394:	00040513          	mv	a0,s0
    2398:	fffff097          	auipc	ra,0xfffff
    239c:	a18080e7          	jalr	-1512(ra) # db0 <_ZNK6tflite6Tensor11is_variableEv>
    23a0:	02a90223          	sb	a0,36(s2)
    23a4:	000a8593          	mv	a1,s5
    23a8:	00040513          	mv	a0,s0
    23ac:	00000097          	auipc	ra,0x0
    23b0:	aec080e7          	jalr	-1300(ra) # 1e98 <_ZN6tflite8internal25GetFlatbufferTensorBufferERKNS_6TensorEPKN11flatbuffers6VectorINS4_6OffsetINS_6BufferEEEmEE>
    23b4:	00a92823          	sw	a0,16(s2)
    23b8:	00200793          	li	a5,2
    23bc:	00050463          	beqz	a0,23c4 <_ZN6tflite8internal36InitializeTfLiteTensorFromFlatbufferEPNS_26IPersistentBufferAllocatorEPNS_29INonPersistentBufferAllocatorEbRKNS_6TensorEPKN11flatbuffers6VectorINS8_6OffsetINS_6BufferEEEmEEP12TfLiteTensor+0xac>
    23c0:	00100793          	li	a5,1
    23c4:	02f92023          	sw	a5,32(s2)
    23c8:	00c10613          	addi	a2,sp,12
    23cc:	01890593          	addi	a1,s2,24
    23d0:	00040513          	mv	a0,s0
    23d4:	fffff097          	auipc	ra,0xfffff
    23d8:	6e0080e7          	jalr	1760(ra) # 1ab4 <_ZN6tflite22BytesRequiredForTensorERKNS_6TensorEPjS3_>
    23dc:	00050493          	mv	s1,a0
    23e0:	0e051e63          	bnez	a0,24dc <_ZN6tflite8internal36InitializeTfLiteTensorFromFlatbufferEPNS_26IPersistentBufferAllocatorEPNS_29INonPersistentBufferAllocatorEbRKNS_6TensorEPKN11flatbuffers6VectorINS8_6OffsetINS_6BufferEEEmEEP12TfLiteTensor+0x1c4>
    23e4:	00400593          	li	a1,4
    23e8:	00040513          	mv	a0,s0
    23ec:	ffffe097          	auipc	ra,0xffffe
    23f0:	f08080e7          	jalr	-248(ra) # 2f4 <_ZNK11flatbuffers5Table22GetOptionalFieldOffsetEt>
    23f4:	00050a63          	beqz	a0,2408 <_ZN6tflite8internal36InitializeTfLiteTensorFromFlatbufferEPNS_26IPersistentBufferAllocatorEPNS_29INonPersistentBufferAllocatorEbRKNS_6TensorEPKN11flatbuffers6VectorINS8_6OffsetINS_6BufferEEEmEEP12TfLiteTensor+0xf0>
    23f8:	00a40533          	add	a0,s0,a0
    23fc:	00052783          	lw	a5,0(a0)
    2400:	00f50533          	add	a0,a0,a5
    2404:	10051263          	bnez	a0,2508 <_ZN6tflite8internal36InitializeTfLiteTensorFromFlatbufferEPNS_26IPersistentBufferAllocatorEPNS_29INonPersistentBufferAllocatorEbRKNS_6TensorEPKN11flatbuffers6VectorINS8_6OffsetINS_6BufferEEEmEEP12TfLiteTensor+0x1f0>
    2408:	8004b797          	auipc	a5,0x8004b
    240c:	85478793          	addi	a5,a5,-1964 # 8004cc5c <__stack_top+0xfffd5e0c>
    2410:	00f92a23          	sw	a5,20(s2)
    2414:	00c00593          	li	a1,12
    2418:	00040513          	mv	a0,s0
    241c:	ffffe097          	auipc	ra,0xffffe
    2420:	ed8080e7          	jalr	-296(ra) # 2f4 <_ZNK11flatbuffers5Table22GetOptionalFieldOffsetEt>
    2424:	00000493          	li	s1,0
    2428:	0a050a63          	beqz	a0,24dc <_ZN6tflite8internal36InitializeTfLiteTensorFromFlatbufferEPNS_26IPersistentBufferAllocatorEPNS_29INonPersistentBufferAllocatorEbRKNS_6TensorEPKN11flatbuffers6VectorINS8_6OffsetINS_6BufferEEEmEEP12TfLiteTensor+0x1c4>
    242c:	00a40433          	add	s0,s0,a0
    2430:	00042503          	lw	a0,0(s0)
    2434:	00a40433          	add	s0,s0,a0
    2438:	0a040263          	beqz	s0,24dc <_ZN6tflite8internal36InitializeTfLiteTensorFromFlatbufferEPNS_26IPersistentBufferAllocatorEPNS_29INonPersistentBufferAllocatorEbRKNS_6TensorEPKN11flatbuffers6VectorINS8_6OffsetINS_6BufferEEEmEEP12TfLiteTensor+0x1c4>
    243c:	00040513          	mv	a0,s0
    2440:	00000097          	auipc	ra,0x0
    2444:	858080e7          	jalr	-1960(ra) # 1c98 <_ZNK6tflite22QuantizationParameters5scaleEv>
    2448:	00050a93          	mv	s5,a0
    244c:	08050863          	beqz	a0,24dc <_ZN6tflite8internal36InitializeTfLiteTensorFromFlatbufferEPNS_26IPersistentBufferAllocatorEPNS_29INonPersistentBufferAllocatorEbRKNS_6TensorEPKN11flatbuffers6VectorINS8_6OffsetINS_6BufferEEEmEEP12TfLiteTensor+0x1c4>
    2450:	00052783          	lw	a5,0(a0)
    2454:	08078463          	beqz	a5,24dc <_ZN6tflite8internal36InitializeTfLiteTensorFromFlatbufferEPNS_26IPersistentBufferAllocatorEPNS_29INonPersistentBufferAllocatorEbRKNS_6TensorEPKN11flatbuffers6VectorINS8_6OffsetINS_6BufferEEEmEEP12TfLiteTensor+0x1c4>
    2458:	00040513          	mv	a0,s0
    245c:	00000097          	auipc	ra,0x0
    2460:	880080e7          	jalr	-1920(ra) # 1cdc <_ZNK6tflite22QuantizationParameters10zero_pointEv>
    2464:	06050c63          	beqz	a0,24dc <_ZN6tflite8internal36InitializeTfLiteTensorFromFlatbufferEPNS_26IPersistentBufferAllocatorEPNS_29INonPersistentBufferAllocatorEbRKNS_6TensorEPKN11flatbuffers6VectorINS8_6OffsetINS_6BufferEEEmEEP12TfLiteTensor+0x1c4>
    2468:	00052783          	lw	a5,0(a0)
    246c:	06078863          	beqz	a5,24dc <_ZN6tflite8internal36InitializeTfLiteTensorFromFlatbufferEPNS_26IPersistentBufferAllocatorEPNS_29INonPersistentBufferAllocatorEbRKNS_6TensorEPKN11flatbuffers6VectorINS8_6OffsetINS_6BufferEEEmEEP12TfLiteTensor+0x1c4>
    2470:	004aa783          	lw	a5,4(s5)
    2474:	00040513          	mv	a0,s0
    2478:	00f92423          	sw	a5,8(s2)
    247c:	00000097          	auipc	ra,0x0
    2480:	860080e7          	jalr	-1952(ra) # 1cdc <_ZNK6tflite22QuantizationParameters10zero_pointEv>
    2484:	00000593          	li	a1,0
    2488:	00000097          	auipc	ra,0x0
    248c:	e48080e7          	jalr	-440(ra) # 22d0 <_ZNK11flatbuffers6VectorIxmE3GetEm>
    2490:	00a92623          	sw	a0,12(s2)
    2494:	00040513          	mv	a0,s0
    2498:	00000097          	auipc	ra,0x0
    249c:	800080e7          	jalr	-2048(ra) # 1c98 <_ZNK6tflite22QuantizationParameters5scaleEv>
    24a0:	00052a83          	lw	s5,0(a0)
    24a4:	060b0a63          	beqz	s6,2518 <_ZN6tflite8internal36InitializeTfLiteTensorFromFlatbufferEPNS_26IPersistentBufferAllocatorEPNS_29INonPersistentBufferAllocatorEbRKNS_6TensorEPKN11flatbuffers6VectorINS8_6OffsetINS_6BufferEEEmEEP12TfLiteTensor+0x200>
    24a8:	000a2783          	lw	a5,0(s4)
    24ac:	00400613          	li	a2,4
    24b0:	00c00593          	li	a1,12
    24b4:	0087a783          	lw	a5,8(a5)
    24b8:	000a0513          	mv	a0,s4
    24bc:	000780e7          	jalr	a5
    24c0:	00050493          	mv	s1,a0
    24c4:	08051e63          	bnez	a0,2560 <_ZN6tflite8internal36InitializeTfLiteTensorFromFlatbufferEPNS_26IPersistentBufferAllocatorEPNS_29INonPersistentBufferAllocatorEbRKNS_6TensorEPKN11flatbuffers6VectorINS8_6OffsetINS_6BufferEEEmEEP12TfLiteTensor+0x248>
    24c8:	80049517          	auipc	a0,0x80049
    24cc:	96050513          	addi	a0,a0,-1696 # 8004ae28 <__stack_top+0xfffd3fd8>
    24d0:	fffff097          	auipc	ra,0xfffff
    24d4:	100080e7          	jalr	256(ra) # 15d0 <_Z11MicroPrintfPKcz>
    24d8:	00100493          	li	s1,1
    24dc:	02c12083          	lw	ra,44(sp)
    24e0:	02812403          	lw	s0,40(sp)
    24e4:	00048513          	mv	a0,s1
    24e8:	02012903          	lw	s2,32(sp)
    24ec:	02412483          	lw	s1,36(sp)
    24f0:	01c12983          	lw	s3,28(sp)
    24f4:	01812a03          	lw	s4,24(sp)
    24f8:	01412a83          	lw	s5,20(sp)
    24fc:	01012b03          	lw	s6,16(sp)
    2500:	03010113          	addi	sp,sp,48
    2504:	00008067          	ret
    2508:	fffff097          	auipc	ra,0xfffff
    250c:	510080e7          	jalr	1296(ra) # 1a18 <_ZN6tflite33FlatBufferVectorToTfLiteTypeArrayEPKN11flatbuffers6VectorIlmEE>
    2510:	00a92a23          	sw	a0,20(s2)
    2514:	f01ff06f          	j	2414 <_ZN6tflite8internal36InitializeTfLiteTensorFromFlatbufferEPNS_26IPersistentBufferAllocatorEPNS_29INonPersistentBufferAllocatorEbRKNS_6TensorEPKN11flatbuffers6VectorINS8_6OffsetINS_6BufferEEEmEEP12TfLiteTensor+0xfc>
    2518:	0009a783          	lw	a5,0(s3)
    251c:	00400613          	li	a2,4
    2520:	00c00593          	li	a1,12
    2524:	0087a783          	lw	a5,8(a5)
    2528:	00098513          	mv	a0,s3
    252c:	000780e7          	jalr	a5
    2530:	00050493          	mv	s1,a0
    2534:	f8050ae3          	beqz	a0,24c8 <_ZN6tflite8internal36InitializeTfLiteTensorFromFlatbufferEPNS_26IPersistentBufferAllocatorEPNS_29INonPersistentBufferAllocatorEbRKNS_6TensorEPKN11flatbuffers6VectorINS8_6OffsetINS_6BufferEEEmEEP12TfLiteTensor+0x1b0>
    2538:	0009a783          	lw	a5,0(s3)
    253c:	000a8513          	mv	a0,s5
    2540:	0087aa03          	lw	s4,8(a5)
    2544:	00002097          	auipc	ra,0x2
    2548:	bb4080e7          	jalr	-1100(ra) # 40f8 <TfLiteIntArrayGetSizeInBytes>
    254c:	00050593          	mv	a1,a0
    2550:	00400613          	li	a2,4
    2554:	00098513          	mv	a0,s3
    2558:	000a00e7          	jalr	s4
    255c:	0280006f          	j	2584 <_ZN6tflite8internal36InitializeTfLiteTensorFromFlatbufferEPNS_26IPersistentBufferAllocatorEPNS_29INonPersistentBufferAllocatorEbRKNS_6TensorEPKN11flatbuffers6VectorINS8_6OffsetINS_6BufferEEEmEEP12TfLiteTensor+0x26c>
    2560:	000a2783          	lw	a5,0(s4)
    2564:	000a8513          	mv	a0,s5
    2568:	0087a983          	lw	s3,8(a5)
    256c:	00002097          	auipc	ra,0x2
    2570:	b8c080e7          	jalr	-1140(ra) # 40f8 <TfLiteIntArrayGetSizeInBytes>
    2574:	00050593          	mv	a1,a0
    2578:	00400613          	li	a2,4
    257c:	000a0513          	mv	a0,s4
    2580:	000980e7          	jalr	s3
    2584:	00a4a223          	sw	a0,4(s1)
    2588:	00051863          	bnez	a0,2598 <_ZN6tflite8internal36InitializeTfLiteTensorFromFlatbufferEPNS_26IPersistentBufferAllocatorEPNS_29INonPersistentBufferAllocatorEbRKNS_6TensorEPKN11flatbuffers6VectorINS8_6OffsetINS_6BufferEEEmEEP12TfLiteTensor+0x280>
    258c:	80049517          	auipc	a0,0x80049
    2590:	8cc50513          	addi	a0,a0,-1844 # 8004ae58 <__stack_top+0xfffd4008>
    2594:	f3dff06f          	j	24d0 <_ZN6tflite8internal36InitializeTfLiteTensorFromFlatbufferEPNS_26IPersistentBufferAllocatorEPNS_29INonPersistentBufferAllocatorEbRKNS_6TensorEPKN11flatbuffers6VectorINS8_6OffsetINS_6BufferEEEmEEP12TfLiteTensor+0x1b8>
    2598:	00040513          	mv	a0,s0
    259c:	fffff097          	auipc	ra,0xfffff
    25a0:	6fc080e7          	jalr	1788(ra) # 1c98 <_ZNK6tflite22QuantizationParameters5scaleEv>
    25a4:	fffff097          	auipc	ra,0xfffff
    25a8:	478080e7          	jalr	1144(ra) # 1a1c <_ZN6tflite33FlatBufferVectorToTfLiteTypeArrayEPKN11flatbuffers6VectorIfmEE>
    25ac:	0044a983          	lw	s3,4(s1)
    25b0:	00a4a023          	sw	a0,0(s1)
    25b4:	00000a13          	li	s4,0
    25b8:	0159a023          	sw	s5,0(s3)
    25bc:	00498993          	addi	s3,s3,4
    25c0:	055a5863          	bge	s4,s5,2610 <_ZN6tflite8internal36InitializeTfLiteTensorFromFlatbufferEPNS_26IPersistentBufferAllocatorEPNS_29INonPersistentBufferAllocatorEbRKNS_6TensorEPKN11flatbuffers6VectorINS8_6OffsetINS_6BufferEEEmEEP12TfLiteTensor+0x2f8>
    25c4:	00040513          	mv	a0,s0
    25c8:	fffff097          	auipc	ra,0xfffff
    25cc:	714080e7          	jalr	1812(ra) # 1cdc <_ZNK6tflite22QuantizationParameters10zero_pointEv>
    25d0:	00050b13          	mv	s6,a0
    25d4:	00040513          	mv	a0,s0
    25d8:	fffff097          	auipc	ra,0xfffff
    25dc:	6c0080e7          	jalr	1728(ra) # 1c98 <_ZNK6tflite22QuantizationParameters5scaleEv>
    25e0:	000b2703          	lw	a4,0(s6)
    25e4:	00052783          	lw	a5,0(a0)
    25e8:	000a0593          	mv	a1,s4
    25ec:	00f70463          	beq	a4,a5,25f4 <_ZN6tflite8internal36InitializeTfLiteTensorFromFlatbufferEPNS_26IPersistentBufferAllocatorEPNS_29INonPersistentBufferAllocatorEbRKNS_6TensorEPKN11flatbuffers6VectorINS8_6OffsetINS_6BufferEEEmEEP12TfLiteTensor+0x2dc>
    25f0:	00000593          	li	a1,0
    25f4:	000b0513          	mv	a0,s6
    25f8:	00000097          	auipc	ra,0x0
    25fc:	cd8080e7          	jalr	-808(ra) # 22d0 <_ZNK11flatbuffers6VectorIxmE3GetEm>
    2600:	00a9a023          	sw	a0,0(s3)
    2604:	001a0a13          	addi	s4,s4,1
    2608:	00498993          	addi	s3,s3,4
    260c:	fb5ff06f          	j	25c0 <_ZN6tflite8internal36InitializeTfLiteTensorFromFlatbufferEPNS_26IPersistentBufferAllocatorEPNS_29INonPersistentBufferAllocatorEbRKNS_6TensorEPKN11flatbuffers6VectorINS8_6OffsetINS_6BufferEEEmEEP12TfLiteTensor+0x2a8>
    2610:	01000593          	li	a1,16
    2614:	00040513          	mv	a0,s0
    2618:	ffffe097          	auipc	ra,0xffffe
    261c:	cdc080e7          	jalr	-804(ra) # 2f4 <_ZNK11flatbuffers5Table22GetOptionalFieldOffsetEt>
    2620:	00000793          	li	a5,0
    2624:	00050663          	beqz	a0,2630 <_ZN6tflite8internal36InitializeTfLiteTensorFromFlatbufferEPNS_26IPersistentBufferAllocatorEPNS_29INonPersistentBufferAllocatorEbRKNS_6TensorEPKN11flatbuffers6VectorINS8_6OffsetINS_6BufferEEEmEEP12TfLiteTensor+0x318>
    2628:	00a40433          	add	s0,s0,a0
    262c:	00042783          	lw	a5,0(s0)
    2630:	00f4a423          	sw	a5,8(s1)
    2634:	00100793          	li	a5,1
    2638:	00992223          	sw	s1,4(s2)
    263c:	00f92023          	sw	a5,0(s2)
    2640:	00000493          	li	s1,0
    2644:	e99ff06f          	j	24dc <_ZN6tflite8internal36InitializeTfLiteTensorFromFlatbufferEPNS_26IPersistentBufferAllocatorEPNS_29INonPersistentBufferAllocatorEbRKNS_6TensorEPKN11flatbuffers6VectorINS8_6OffsetINS_6BufferEEEmEEP12TfLiteTensor+0x1c4>

00002648 <_ZN6tflite14MicroAllocator28AllocateNodeAndRegistrationsEPKNS_5ModelEPNS_19SubgraphAllocationsE>:
    2648:	fe010113          	addi	sp,sp,-32
    264c:	00112e23          	sw	ra,28(sp)
    2650:	00812c23          	sw	s0,24(sp)
    2654:	00912a23          	sw	s1,20(sp)
    2658:	01212823          	sw	s2,16(sp)
    265c:	01312623          	sw	s3,12(sp)
    2660:	00061663          	bnez	a2,266c <_ZN6tflite14MicroAllocator28AllocateNodeAndRegistrationsEPKNS_5ModelEPNS_19SubgraphAllocationsE+0x24>
    2664:	ffffe097          	auipc	ra,0xffffe
    2668:	004080e7          	jalr	4(ra) # 668 <_Z9AbortImplv>
    266c:	00050913          	mv	s2,a0
    2670:	00058993          	mv	s3,a1
    2674:	00060493          	mv	s1,a2
    2678:	00000413          	li	s0,0
    267c:	00098513          	mv	a0,s3
    2680:	fffff097          	auipc	ra,0xfffff
    2684:	6e0080e7          	jalr	1760(ra) # 1d60 <_ZNK6tflite5Model9subgraphsEv>
    2688:	00052783          	lw	a5,0(a0)
    268c:	08f47063          	bgeu	s0,a5,270c <_ZN6tflite14MicroAllocator28AllocateNodeAndRegistrationsEPKNS_5ModelEPNS_19SubgraphAllocationsE+0xc4>
    2690:	00040593          	mv	a1,s0
    2694:	ffffe097          	auipc	ra,0xffffe
    2698:	e68080e7          	jalr	-408(ra) # 4fc <_ZNK11flatbuffers6VectorINS_6OffsetIN6tflite8SubGraphEEEmE3GetEm>
    269c:	fc0504e3          	beqz	a0,2664 <_ZN6tflite14MicroAllocator28AllocateNodeAndRegistrationsEPKNS_5ModelEPNS_19SubgraphAllocationsE+0x1c>
    26a0:	fffff097          	auipc	ra,0xfffff
    26a4:	2b8080e7          	jalr	696(ra) # 1958 <_ZN6tflite20NumSubgraphOperatorsEPKNS_8SubGraphE>
    26a8:	00892783          	lw	a5,8(s2)
    26ac:	00551593          	slli	a1,a0,0x5
    26b0:	00400613          	li	a2,4
    26b4:	0007a703          	lw	a4,0(a5)
    26b8:	00078513          	mv	a0,a5
    26bc:	00872703          	lw	a4,8(a4)
    26c0:	000700e7          	jalr	a4
    26c4:	02051a63          	bnez	a0,26f8 <_ZN6tflite14MicroAllocator28AllocateNodeAndRegistrationsEPKNS_5ModelEPNS_19SubgraphAllocationsE+0xb0>
    26c8:	80048517          	auipc	a0,0x80048
    26cc:	6a450513          	addi	a0,a0,1700 # 8004ad6c <__stack_top+0xfffd3f1c>
    26d0:	fffff097          	auipc	ra,0xfffff
    26d4:	f00080e7          	jalr	-256(ra) # 15d0 <_Z11MicroPrintfPKcz>
    26d8:	00100513          	li	a0,1
    26dc:	01c12083          	lw	ra,28(sp)
    26e0:	01812403          	lw	s0,24(sp)
    26e4:	01412483          	lw	s1,20(sp)
    26e8:	01012903          	lw	s2,16(sp)
    26ec:	00c12983          	lw	s3,12(sp)
    26f0:	02010113          	addi	sp,sp,32
    26f4:	00008067          	ret
    26f8:	00341793          	slli	a5,s0,0x3
    26fc:	00f487b3          	add	a5,s1,a5
    2700:	00a7a023          	sw	a0,0(a5)
    2704:	00140413          	addi	s0,s0,1
    2708:	f75ff06f          	j	267c <_ZN6tflite14MicroAllocator28AllocateNodeAndRegistrationsEPKNS_5ModelEPNS_19SubgraphAllocationsE+0x34>
    270c:	00000513          	li	a0,0
    2710:	fcdff06f          	j	26dc <_ZN6tflite14MicroAllocator28AllocateNodeAndRegistrationsEPKNS_5ModelEPNS_19SubgraphAllocationsE+0x94>

00002714 <_ZN6tflite14MicroAllocator30AllocatePersistentTfLiteTensorEPKNS_5ModelEPKNS_19SubgraphAllocationsEii>:
    2714:	fe010113          	addi	sp,sp,-32
    2718:	01412423          	sw	s4,8(sp)
    271c:	00050a13          	mv	s4,a0
    2720:	00058513          	mv	a0,a1
    2724:	00912a23          	sw	s1,20(sp)
    2728:	01212823          	sw	s2,16(sp)
    272c:	01312623          	sw	s3,12(sp)
    2730:	01512223          	sw	s5,4(sp)
    2734:	00112e23          	sw	ra,28(sp)
    2738:	00812c23          	sw	s0,24(sp)
    273c:	00058a93          	mv	s5,a1
    2740:	00070493          	mv	s1,a4
    2744:	00060993          	mv	s3,a2
    2748:	00068913          	mv	s2,a3
    274c:	fffff097          	auipc	ra,0xfffff
    2750:	614080e7          	jalr	1556(ra) # 1d60 <_ZNK6tflite5Model9subgraphsEv>
    2754:	00048593          	mv	a1,s1
    2758:	ffffe097          	auipc	ra,0xffffe
    275c:	da4080e7          	jalr	-604(ra) # 4fc <_ZNK11flatbuffers6VectorINS_6OffsetIN6tflite8SubGraphEEEmE3GetEm>
    2760:	00051663          	bnez	a0,276c <_ZN6tflite14MicroAllocator30AllocatePersistentTfLiteTensorEPKNS_5ModelEPKNS_19SubgraphAllocationsEii+0x58>
    2764:	ffffe097          	auipc	ra,0xffffe
    2768:	f04080e7          	jalr	-252(ra) # 668 <_Z9AbortImplv>
    276c:	000a2783          	lw	a5,0(s4)
    2770:	000a0513          	mv	a0,s4
    2774:	0347a783          	lw	a5,52(a5)
    2778:	000780e7          	jalr	a5
    277c:	00050413          	mv	s0,a0
    2780:	02051e63          	bnez	a0,27bc <_ZN6tflite14MicroAllocator30AllocatePersistentTfLiteTensorEPKNS_5ModelEPKNS_19SubgraphAllocationsEii+0xa8>
    2784:	80048517          	auipc	a0,0x80048
    2788:	62050513          	addi	a0,a0,1568 # 8004ada4 <__stack_top+0xfffd3f54>
    278c:	fffff097          	auipc	ra,0xfffff
    2790:	e44080e7          	jalr	-444(ra) # 15d0 <_Z11MicroPrintfPKcz>
    2794:	00040513          	mv	a0,s0
    2798:	01c12083          	lw	ra,28(sp)
    279c:	01812403          	lw	s0,24(sp)
    27a0:	01412483          	lw	s1,20(sp)
    27a4:	01012903          	lw	s2,16(sp)
    27a8:	00c12983          	lw	s3,12(sp)
    27ac:	00812a03          	lw	s4,8(sp)
    27b0:	00412a83          	lw	s5,4(sp)
    27b4:	02010113          	addi	sp,sp,32
    27b8:	00008067          	ret
    27bc:	000a2783          	lw	a5,0(s4)
    27c0:	00050613          	mv	a2,a0
    27c4:	00048713          	mv	a4,s1
    27c8:	0387a803          	lw	a6,56(a5)
    27cc:	00090693          	mv	a3,s2
    27d0:	00000793          	li	a5,0
    27d4:	000a8593          	mv	a1,s5
    27d8:	000a0513          	mv	a0,s4
    27dc:	000800e7          	jalr	a6
    27e0:	00050e63          	beqz	a0,27fc <_ZN6tflite14MicroAllocator30AllocatePersistentTfLiteTensorEPKNS_5ModelEPKNS_19SubgraphAllocationsEii+0xe8>
    27e4:	80048517          	auipc	a0,0x80048
    27e8:	5f850513          	addi	a0,a0,1528 # 8004addc <__stack_top+0xfffd3f8c>
    27ec:	fffff097          	auipc	ra,0xfffff
    27f0:	de4080e7          	jalr	-540(ra) # 15d0 <_Z11MicroPrintfPKcz>
    27f4:	00000413          	li	s0,0
    27f8:	f9dff06f          	j	2794 <_ZN6tflite14MicroAllocator30AllocatePersistentTfLiteTensorEPKNS_5ModelEPKNS_19SubgraphAllocationsEii+0x80>
    27fc:	f8098ce3          	beqz	s3,2794 <_ZN6tflite14MicroAllocator30AllocatePersistentTfLiteTensorEPKNS_5ModelEPKNS_19SubgraphAllocationsEii+0x80>
    2800:	00c00693          	li	a3,12
    2804:	02d90933          	mul	s2,s2,a3
    2808:	00349493          	slli	s1,s1,0x3
    280c:	009984b3          	add	s1,s3,s1
    2810:	0044a683          	lw	a3,4(s1)
    2814:	012686b3          	add	a3,a3,s2
    2818:	0006a783          	lw	a5,0(a3)
    281c:	00f42823          	sw	a5,16(s0)
    2820:	0046a783          	lw	a5,4(a3)
    2824:	00f42a23          	sw	a5,20(s0)
    2828:	f6dff06f          	j	2794 <_ZN6tflite14MicroAllocator30AllocatePersistentTfLiteTensorEPKNS_5ModelEPKNS_19SubgraphAllocationsEii+0x80>

0000282c <_ZN6tflite14MicroAllocator24AllocateTempTfLiteTensorEPKNS_5ModelEPKNS_19SubgraphAllocationsEii>:
    282c:	fe010113          	addi	sp,sp,-32
    2830:	01412423          	sw	s4,8(sp)
    2834:	00050a13          	mv	s4,a0
    2838:	00058513          	mv	a0,a1
    283c:	00912a23          	sw	s1,20(sp)
    2840:	01212823          	sw	s2,16(sp)
    2844:	01312623          	sw	s3,12(sp)
    2848:	01512223          	sw	s5,4(sp)
    284c:	00112e23          	sw	ra,28(sp)
    2850:	00812c23          	sw	s0,24(sp)
    2854:	00058a93          	mv	s5,a1
    2858:	00070493          	mv	s1,a4
    285c:	00060993          	mv	s3,a2
    2860:	00068913          	mv	s2,a3
    2864:	fffff097          	auipc	ra,0xfffff
    2868:	4fc080e7          	jalr	1276(ra) # 1d60 <_ZNK6tflite5Model9subgraphsEv>
    286c:	00048593          	mv	a1,s1
    2870:	ffffe097          	auipc	ra,0xffffe
    2874:	c8c080e7          	jalr	-884(ra) # 4fc <_ZNK11flatbuffers6VectorINS_6OffsetIN6tflite8SubGraphEEEmE3GetEm>
    2878:	00051663          	bnez	a0,2884 <_ZN6tflite14MicroAllocator24AllocateTempTfLiteTensorEPKNS_5ModelEPKNS_19SubgraphAllocationsEii+0x58>
    287c:	ffffe097          	auipc	ra,0xffffe
    2880:	dec080e7          	jalr	-532(ra) # 668 <_Z9AbortImplv>
    2884:	004a2503          	lw	a0,4(s4)
    2888:	00400613          	li	a2,4
    288c:	02800593          	li	a1,40
    2890:	00052783          	lw	a5,0(a0)
    2894:	0087a783          	lw	a5,8(a5)
    2898:	000780e7          	jalr	a5
    289c:	00050413          	mv	s0,a0
    28a0:	04051263          	bnez	a0,28e4 <_ZN6tflite14MicroAllocator24AllocateTempTfLiteTensorEPKNS_5ModelEPKNS_19SubgraphAllocationsEii+0xb8>
    28a4:	80048517          	auipc	a0,0x80048
    28a8:	00048613          	mv	a2,s1
    28ac:	00090593          	mv	a1,s2
    28b0:	3a850513          	addi	a0,a0,936 # 8004ac4c <__stack_top+0xfffd3dfc>
    28b4:	fffff097          	auipc	ra,0xfffff
    28b8:	d1c080e7          	jalr	-740(ra) # 15d0 <_Z11MicroPrintfPKcz>
    28bc:	00040513          	mv	a0,s0
    28c0:	01c12083          	lw	ra,28(sp)
    28c4:	01812403          	lw	s0,24(sp)
    28c8:	01412483          	lw	s1,20(sp)
    28cc:	01012903          	lw	s2,16(sp)
    28d0:	00c12983          	lw	s3,12(sp)
    28d4:	00812a03          	lw	s4,8(sp)
    28d8:	00412a83          	lw	s5,4(sp)
    28dc:	02010113          	addi	sp,sp,32
    28e0:	00008067          	ret
    28e4:	000a2783          	lw	a5,0(s4)
    28e8:	00050613          	mv	a2,a0
    28ec:	00048713          	mv	a4,s1
    28f0:	0387a803          	lw	a6,56(a5)
    28f4:	00090693          	mv	a3,s2
    28f8:	00100793          	li	a5,1
    28fc:	000a8593          	mv	a1,s5
    2900:	000a0513          	mv	a0,s4
    2904:	000800e7          	jalr	a6
    2908:	00050e63          	beqz	a0,2924 <_ZN6tflite14MicroAllocator24AllocateTempTfLiteTensorEPKNS_5ModelEPKNS_19SubgraphAllocationsEii+0xf8>
    290c:	80048517          	auipc	a0,0x80048
    2910:	37c50513          	addi	a0,a0,892 # 8004ac88 <__stack_top+0xfffd3e38>
    2914:	fffff097          	auipc	ra,0xfffff
    2918:	cbc080e7          	jalr	-836(ra) # 15d0 <_Z11MicroPrintfPKcz>
    291c:	00000413          	li	s0,0
    2920:	f9dff06f          	j	28bc <_ZN6tflite14MicroAllocator24AllocateTempTfLiteTensorEPKNS_5ModelEPKNS_19SubgraphAllocationsEii+0x90>
    2924:	f8098ce3          	beqz	s3,28bc <_ZN6tflite14MicroAllocator24AllocateTempTfLiteTensorEPKNS_5ModelEPKNS_19SubgraphAllocationsEii+0x90>
    2928:	00c00793          	li	a5,12
    292c:	02f90933          	mul	s2,s2,a5
    2930:	00349493          	slli	s1,s1,0x3
    2934:	009984b3          	add	s1,s3,s1
    2938:	0044a783          	lw	a5,4(s1)
    293c:	01278933          	add	s2,a5,s2
    2940:	00092783          	lw	a5,0(s2)
    2944:	00f42823          	sw	a5,16(s0)
    2948:	00492783          	lw	a5,4(s2)
    294c:	00f42a23          	sw	a5,20(s0)
    2950:	f6dff06f          	j	28bc <_ZN6tflite14MicroAllocator24AllocateTempTfLiteTensorEPKNS_5ModelEPKNS_19SubgraphAllocationsEii+0x90>

00002954 <_ZN6tflite14MicroAllocator22CommitStaticMemoryPlanEPKNS_5ModelEPNS_19SubgraphAllocationsEPNS_19ScratchBufferHandleE>:
    2954:	00452783          	lw	a5,4(a0)
    2958:	f9010113          	addi	sp,sp,-112
    295c:	06812423          	sw	s0,104(sp)
    2960:	07212023          	sw	s2,96(sp)
    2964:	05412c23          	sw	s4,88(sp)
    2968:	00050413          	mv	s0,a0
    296c:	00b12e23          	sw	a1,28(sp)
    2970:	00058a13          	mv	s4,a1
    2974:	00060913          	mv	s2,a2
    2978:	00000593          	li	a1,0
    297c:	01800613          	li	a2,24
    2980:	02410513          	addi	a0,sp,36
    2984:	05512a23          	sw	s5,84(sp)
    2988:	06112623          	sw	ra,108(sp)
    298c:	06912223          	sw	s1,100(sp)
    2990:	05312e23          	sw	s3,92(sp)
    2994:	05612823          	sw	s6,80(sp)
    2998:	05712623          	sw	s7,76(sp)
    299c:	05812423          	sw	s8,72(sp)
    29a0:	00068a93          	mv	s5,a3
    29a4:	02f12023          	sw	a5,32(sp)
    29a8:	00004097          	auipc	ra,0x4
    29ac:	0f4080e7          	jalr	244(ra) # 6a9c <memset>
    29b0:	01842583          	lw	a1,24(s0)
    29b4:	01c10513          	addi	a0,sp,28
    29b8:	02012e23          	sw	zero,60(sp)
    29bc:	00002097          	auipc	ra,0x2
    29c0:	16c080e7          	jalr	364(ra) # 4b28 <_ZN6tflite21AllocationInfoBuilder20CreateAllocationInfoEi>
    29c4:	18051463          	bnez	a0,2b4c <_ZN6tflite14MicroAllocator22CommitStaticMemoryPlanEPKNS_5ModelEPNS_19SubgraphAllocationsEPNS_19ScratchBufferHandleE+0x1f8>
    29c8:	01410593          	addi	a1,sp,20
    29cc:	01c10513          	addi	a0,sp,28
    29d0:	00012a23          	sw	zero,20(sp)
    29d4:	00001097          	auipc	ra,0x1
    29d8:	7e8080e7          	jalr	2024(ra) # 41bc <_ZN6tflite21AllocationInfoBuilder24GetOfflinePlannedOffsetsEPPKl>
    29dc:	16051863          	bnez	a0,2b4c <_ZN6tflite14MicroAllocator22CommitStaticMemoryPlanEPKNS_5ModelEPNS_19SubgraphAllocationsEPNS_19ScratchBufferHandleE+0x1f8>
    29e0:	00490993          	addi	s3,s2,4
    29e4:	00000493          	li	s1,0
    29e8:	000a0513          	mv	a0,s4
    29ec:	fffff097          	auipc	ra,0xfffff
    29f0:	374080e7          	jalr	884(ra) # 1d60 <_ZNK6tflite5Model9subgraphsEv>
    29f4:	00052783          	lw	a5,0(a0)
    29f8:	01412683          	lw	a3,20(sp)
    29fc:	04f4f663          	bgeu	s1,a5,2a48 <_ZN6tflite14MicroAllocator22CommitStaticMemoryPlanEPKNS_5ModelEPNS_19SubgraphAllocationsEPNS_19ScratchBufferHandleE+0xf4>
    2a00:	00048593          	mv	a1,s1
    2a04:	00d12623          	sw	a3,12(sp)
    2a08:	ffffe097          	auipc	ra,0xffffe
    2a0c:	af4080e7          	jalr	-1292(ra) # 4fc <_ZNK11flatbuffers6VectorINS_6OffsetIN6tflite8SubGraphEEEmE3GetEm>
    2a10:	00050593          	mv	a1,a0
    2a14:	00c12683          	lw	a3,12(sp)
    2a18:	00051663          	bnez	a0,2a24 <_ZN6tflite14MicroAllocator22CommitStaticMemoryPlanEPKNS_5ModelEPNS_19SubgraphAllocationsEPNS_19ScratchBufferHandleE+0xd0>
    2a1c:	ffffe097          	auipc	ra,0xffffe
    2a20:	c4c080e7          	jalr	-948(ra) # 668 <_Z9AbortImplv>
    2a24:	00042783          	lw	a5,0(s0)
    2a28:	0009a603          	lw	a2,0(s3)
    2a2c:	00040513          	mv	a0,s0
    2a30:	0307a783          	lw	a5,48(a5)
    2a34:	00898993          	addi	s3,s3,8
    2a38:	000780e7          	jalr	a5
    2a3c:	10051863          	bnez	a0,2b4c <_ZN6tflite14MicroAllocator22CommitStaticMemoryPlanEPKNS_5ModelEPNS_19SubgraphAllocationsEPNS_19ScratchBufferHandleE+0x1f8>
    2a40:	00148493          	addi	s1,s1,1
    2a44:	fa5ff06f          	j	29e8 <_ZN6tflite14MicroAllocator22CommitStaticMemoryPlanEPKNS_5ModelEPNS_19SubgraphAllocationsEPNS_19ScratchBufferHandleE+0x94>
    2a48:	00090613          	mv	a2,s2
    2a4c:	00068593          	mv	a1,a3
    2a50:	01c10513          	addi	a0,sp,28
    2a54:	00002097          	auipc	ra,0x2
    2a58:	230080e7          	jalr	560(ra) # 4c84 <_ZN6tflite21AllocationInfoBuilder24InitializeAllocationInfoEPKlPNS_19SubgraphAllocationsE>
    2a5c:	0e051863          	bnez	a0,2b4c <_ZN6tflite14MicroAllocator22CommitStaticMemoryPlanEPKNS_5ModelEPNS_19SubgraphAllocationsEPNS_19ScratchBufferHandleE+0x1f8>
    2a60:	00040513          	mv	a0,s0
    2a64:	fffff097          	auipc	ra,0xfffff
    2a68:	704080e7          	jalr	1796(ra) # 2168 <_ZN6tflite14MicroAllocator24GetScratchBufferRequestsEv>
    2a6c:	00050613          	mv	a2,a0
    2a70:	00090713          	mv	a4,s2
    2a74:	000a8693          	mv	a3,s5
    2a78:	00000593          	li	a1,0
    2a7c:	01c10513          	addi	a0,sp,28
    2a80:	00002097          	auipc	ra,0x2
    2a84:	ad4080e7          	jalr	-1324(ra) # 4554 <_ZN6tflite21AllocationInfoBuilder23MarkAllocationLifetimesEiPNS_8internal20ScratchBufferRequestEPNS_19ScratchBufferHandleEPNS_19SubgraphAllocationsE>
    2a88:	0c051263          	bnez	a0,2b4c <_ZN6tflite14MicroAllocator22CommitStaticMemoryPlanEPKNS_5ModelEPNS_19SubgraphAllocationsEPNS_19ScratchBufferHandleE+0x1f8>
    2a8c:	00442503          	lw	a0,4(s0)
    2a90:	01000593          	li	a1,16
    2a94:	02812a03          	lw	s4,40(sp)
    2a98:	00052783          	lw	a5,0(a0)
    2a9c:	02412903          	lw	s2,36(sp)
    2aa0:	0307a783          	lw	a5,48(a5)
    2aa4:	000780e7          	jalr	a5
    2aa8:	00050493          	mv	s1,a0
    2aac:	00442503          	lw	a0,4(s0)
    2ab0:	01000613          	li	a2,16
    2ab4:	00048593          	mv	a1,s1
    2ab8:	00052783          	lw	a5,0(a0)
    2abc:	0087a783          	lw	a5,8(a5)
    2ac0:	000780e7          	jalr	a5
    2ac4:	00050a93          	mv	s5,a0
    2ac8:	00100513          	li	a0,1
    2acc:	080a8063          	beqz	s5,2b4c <_ZN6tflite14MicroAllocator22CommitStaticMemoryPlanEPKNS_5ModelEPNS_19SubgraphAllocationsEPNS_19ScratchBufferHandleE+0x1f8>
    2ad0:	01042503          	lw	a0,16(s0)
    2ad4:	00048613          	mv	a2,s1
    2ad8:	000a8593          	mv	a1,s5
    2adc:	00052783          	lw	a5,0(a0)
    2ae0:	00090993          	mv	s3,s2
    2ae4:	00090493          	mv	s1,s2
    2ae8:	01c7a783          	lw	a5,28(a5)
    2aec:	00000b93          	li	s7,0
    2af0:	fff00c13          	li	s8,-1
    2af4:	000780e7          	jalr	a5
    2af8:	01042b03          	lw	s6,16(s0)
    2afc:	117a0a63          	beq	s4,s7,2c10 <_ZN6tflite14MicroAllocator22CommitStaticMemoryPlanEPKNS_5ModelEPNS_19SubgraphAllocationsEPNS_19ScratchBufferHandleE+0x2bc>
    2b00:	0144c783          	lbu	a5,20(s1)
    2b04:	00079863          	bnez	a5,2b14 <_ZN6tflite14MicroAllocator22CommitStaticMemoryPlanEPKNS_5ModelEPNS_19SubgraphAllocationsEPNS_19ScratchBufferHandleE+0x1c0>
    2b08:	001b8b93          	addi	s7,s7,1
    2b0c:	01848493          	addi	s1,s1,24
    2b10:	fedff06f          	j	2afc <_ZN6tflite14MicroAllocator22CommitStaticMemoryPlanEPKNS_5ModelEPNS_19SubgraphAllocationsEPNS_19ScratchBufferHandleE+0x1a8>
    2b14:	0004a503          	lw	a0,0(s1)
    2b18:	01000593          	li	a1,16
    2b1c:	fffff097          	auipc	ra,0xfffff
    2b20:	f24080e7          	jalr	-220(ra) # 1a40 <_ZN6tflite11AlignSizeUpEjj>
    2b24:	0104a703          	lw	a4,16(s1)
    2b28:	00050593          	mv	a1,a0
    2b2c:	00c4a683          	lw	a3,12(s1)
    2b30:	0084a603          	lw	a2,8(s1)
    2b34:	000b2783          	lw	a5,0(s6)
    2b38:	05871263          	bne	a4,s8,2b7c <_ZN6tflite14MicroAllocator22CommitStaticMemoryPlanEPKNS_5ModelEPNS_19SubgraphAllocationsEPNS_19ScratchBufferHandleE+0x228>
    2b3c:	0087a783          	lw	a5,8(a5)
    2b40:	000b0513          	mv	a0,s6
    2b44:	000780e7          	jalr	a5
    2b48:	fc0500e3          	beqz	a0,2b08 <_ZN6tflite14MicroAllocator22CommitStaticMemoryPlanEPKNS_5ModelEPNS_19SubgraphAllocationsEPNS_19ScratchBufferHandleE+0x1b4>
    2b4c:	06c12083          	lw	ra,108(sp)
    2b50:	06812403          	lw	s0,104(sp)
    2b54:	06412483          	lw	s1,100(sp)
    2b58:	06012903          	lw	s2,96(sp)
    2b5c:	05c12983          	lw	s3,92(sp)
    2b60:	05812a03          	lw	s4,88(sp)
    2b64:	05412a83          	lw	s5,84(sp)
    2b68:	05012b03          	lw	s6,80(sp)
    2b6c:	04c12b83          	lw	s7,76(sp)
    2b70:	04812c03          	lw	s8,72(sp)
    2b74:	07010113          	addi	sp,sp,112
    2b78:	00008067          	ret
    2b7c:	00c7a783          	lw	a5,12(a5)
    2b80:	000b0513          	mv	a0,s6
    2b84:	000780e7          	jalr	a5
    2b88:	fc1ff06f          	j	2b48 <_ZN6tflite14MicroAllocator22CommitStaticMemoryPlanEPKNS_5ModelEPNS_19SubgraphAllocationsEPNS_19ScratchBufferHandleE+0x1f4>
    2b8c:	01c10513          	addi	a0,sp,28
    2b90:	00001097          	auipc	ra,0x1
    2b94:	5e0080e7          	jalr	1504(ra) # 4170 <_ZN6tflite21AllocationInfoBuilder18FreeAllocationInfoEv>
    2b98:	00442503          	lw	a0,4(s0)
    2b9c:	000a8593          	mv	a1,s5
    2ba0:	00052783          	lw	a5,0(a0)
    2ba4:	00c7a783          	lw	a5,12(a5)
    2ba8:	000780e7          	jalr	a5
    2bac:	00442503          	lw	a0,4(s0)
    2bb0:	00052783          	lw	a5,0(a0)
    2bb4:	0147a783          	lw	a5,20(a5)
    2bb8:	000780e7          	jalr	a5
    2bbc:	f80518e3          	bnez	a0,2b4c <_ZN6tflite14MicroAllocator22CommitStaticMemoryPlanEPKNS_5ModelEPNS_19SubgraphAllocationsEPNS_19ScratchBufferHandleE+0x1f8>
    2bc0:	00442503          	lw	a0,4(s0)
    2bc4:	01c42583          	lw	a1,28(s0)
    2bc8:	00052783          	lw	a5,0(a0)
    2bcc:	0207a783          	lw	a5,32(a5)
    2bd0:	000780e7          	jalr	a5
    2bd4:	f6051ce3          	bnez	a0,2b4c <_ZN6tflite14MicroAllocator22CommitStaticMemoryPlanEPKNS_5ModelEPNS_19SubgraphAllocationsEPNS_19ScratchBufferHandleE+0x1f8>
    2bd8:	01042503          	lw	a0,16(s0)
    2bdc:	00052783          	lw	a5,0(a0)
    2be0:	0107a783          	lw	a5,16(a5)
    2be4:	000780e7          	jalr	a5
    2be8:	02042783          	lw	a5,32(s0)
    2bec:	00a7f463          	bgeu	a5,a0,2bf4 <_ZN6tflite14MicroAllocator22CommitStaticMemoryPlanEPKNS_5ModelEPNS_19SubgraphAllocationsEPNS_19ScratchBufferHandleE+0x2a0>
    2bf0:	02a42023          	sw	a0,32(s0)
    2bf4:	00442503          	lw	a0,4(s0)
    2bf8:	02042583          	lw	a1,32(s0)
    2bfc:	01000613          	li	a2,16
    2c00:	00052783          	lw	a5,0(a0)
    2c04:	0287a783          	lw	a5,40(a5)
    2c08:	000780e7          	jalr	a5
    2c0c:	f41ff06f          	j	2b4c <_ZN6tflite14MicroAllocator22CommitStaticMemoryPlanEPKNS_5ModelEPNS_19SubgraphAllocationsEPNS_19ScratchBufferHandleE+0x1f8>
    2c10:	00442503          	lw	a0,4(s0)
    2c14:	01042b03          	lw	s6,16(s0)
    2c18:	00000493          	li	s1,0
    2c1c:	00052783          	lw	a5,0(a0)
    2c20:	0247a783          	lw	a5,36(a5)
    2c24:	000780e7          	jalr	a5
    2c28:	01800793          	li	a5,24
    2c2c:	02fa0a33          	mul	s4,s4,a5
    2c30:	00050b93          	mv	s7,a0
    2c34:	01490933          	add	s2,s2,s4
    2c38:	fff00a13          	li	s4,-1
    2c3c:	f53908e3          	beq	s2,s3,2b8c <_ZN6tflite14MicroAllocator22CommitStaticMemoryPlanEPKNS_5ModelEPNS_19SubgraphAllocationsEPNS_19ScratchBufferHandleE+0x238>
    2c40:	0149c783          	lbu	a5,20(s3)
    2c44:	02078c63          	beqz	a5,2c7c <_ZN6tflite14MicroAllocator22CommitStaticMemoryPlanEPKNS_5ModelEPNS_19SubgraphAllocationsEPNS_19ScratchBufferHandleE+0x328>
    2c48:	000b2783          	lw	a5,0(s6)
    2c4c:	01412c23          	sw	s4,24(sp)
    2c50:	01810613          	addi	a2,sp,24
    2c54:	0187a783          	lw	a5,24(a5)
    2c58:	00048593          	mv	a1,s1
    2c5c:	000b0513          	mv	a0,s6
    2c60:	000780e7          	jalr	a5
    2c64:	ee0514e3          	bnez	a0,2b4c <_ZN6tflite14MicroAllocator22CommitStaticMemoryPlanEPKNS_5ModelEPNS_19SubgraphAllocationsEPNS_19ScratchBufferHandleE+0x1f8>
    2c68:	01812783          	lw	a5,24(sp)
    2c6c:	0049a703          	lw	a4,4(s3)
    2c70:	00148493          	addi	s1,s1,1
    2c74:	00fb87b3          	add	a5,s7,a5
    2c78:	00f72023          	sw	a5,0(a4)
    2c7c:	01898993          	addi	s3,s3,24
    2c80:	fbdff06f          	j	2c3c <_ZN6tflite14MicroAllocator22CommitStaticMemoryPlanEPKNS_5ModelEPNS_19SubgraphAllocationsEPNS_19ScratchBufferHandleE+0x2e8>

00002c84 <_ZN11flatbuffers5Table10GetPointerIPKNS_6VectorINS_6OffsetIN6tflite6TensorEEEmEEmEET_t>:
    2c84:	ff010113          	addi	sp,sp,-16
    2c88:	00812423          	sw	s0,8(sp)
    2c8c:	00112623          	sw	ra,12(sp)
    2c90:	00050413          	mv	s0,a0
    2c94:	ffffd097          	auipc	ra,0xffffd
    2c98:	660080e7          	jalr	1632(ra) # 2f4 <_ZNK11flatbuffers5Table22GetOptionalFieldOffsetEt>
    2c9c:	02050063          	beqz	a0,2cbc <_ZN11flatbuffers5Table10GetPointerIPKNS_6VectorINS_6OffsetIN6tflite6TensorEEEmEEmEET_t+0x38>
    2ca0:	00a40533          	add	a0,s0,a0
    2ca4:	00052783          	lw	a5,0(a0)
    2ca8:	00f50533          	add	a0,a0,a5
    2cac:	00c12083          	lw	ra,12(sp)
    2cb0:	00812403          	lw	s0,8(sp)
    2cb4:	01010113          	addi	sp,sp,16
    2cb8:	00008067          	ret
    2cbc:	00000513          	li	a0,0
    2cc0:	fedff06f          	j	2cac <_ZN11flatbuffers5Table10GetPointerIPKNS_6VectorINS_6OffsetIN6tflite6TensorEEEmEEmEET_t+0x28>

00002cc4 <_ZN6tflite14MicroAllocator17AllocateVariablesEPKNS_8SubGraphEP16TfLiteEvalTensorPKl>:
    2cc4:	fc010113          	addi	sp,sp,-64
    2cc8:	02812c23          	sw	s0,56(sp)
    2ccc:	03212823          	sw	s2,48(sp)
    2cd0:	03312623          	sw	s3,44(sp)
    2cd4:	03412423          	sw	s4,40(sp)
    2cd8:	03512223          	sw	s5,36(sp)
    2cdc:	03612023          	sw	s6,32(sp)
    2ce0:	01712e23          	sw	s7,28(sp)
    2ce4:	02112e23          	sw	ra,60(sp)
    2ce8:	02912a23          	sw	s1,52(sp)
    2cec:	00050993          	mv	s3,a0
    2cf0:	00058a13          	mv	s4,a1
    2cf4:	00060a93          	mv	s5,a2
    2cf8:	00068913          	mv	s2,a3
    2cfc:	00000413          	li	s0,0
    2d00:	00c00b13          	li	s6,12
    2d04:	fff00b93          	li	s7,-1
    2d08:	00400593          	li	a1,4
    2d0c:	000a0513          	mv	a0,s4
    2d10:	00000097          	auipc	ra,0x0
    2d14:	f74080e7          	jalr	-140(ra) # 2c84 <_ZN11flatbuffers5Table10GetPointerIPKNS_6VectorINS_6OffsetIN6tflite6TensorEEEmEEmEET_t>
    2d18:	00052783          	lw	a5,0(a0)
    2d1c:	0af47c63          	bgeu	s0,a5,2dd4 <_ZN6tflite14MicroAllocator17AllocateVariablesEPKNS_8SubGraphEP16TfLiteEvalTensorPKl+0x110>
    2d20:	00040593          	mv	a1,s0
    2d24:	ffffe097          	auipc	ra,0xffffe
    2d28:	368080e7          	jalr	872(ra) # 108c <_ZNK11flatbuffers6VectorINS_6OffsetIN6tflite6TensorEEEmE3GetEm>
    2d2c:	ffffe097          	auipc	ra,0xffffe
    2d30:	084080e7          	jalr	132(ra) # db0 <_ZNK6tflite6Tensor11is_variableEv>
    2d34:	08050c63          	beqz	a0,2dcc <_ZN6tflite14MicroAllocator17AllocateVariablesEPKNS_8SubGraphEP16TfLiteEvalTensorPKl+0x108>
    2d38:	00090a63          	beqz	s2,2d4c <_ZN6tflite14MicroAllocator17AllocateVariablesEPKNS_8SubGraphEP16TfLiteEvalTensorPKl+0x88>
    2d3c:	00241793          	slli	a5,s0,0x2
    2d40:	00f907b3          	add	a5,s2,a5
    2d44:	0007a783          	lw	a5,0(a5)
    2d48:	09779263          	bne	a5,s7,2dcc <_ZN6tflite14MicroAllocator17AllocateVariablesEPKNS_8SubGraphEP16TfLiteEvalTensorPKl+0x108>
    2d4c:	036404b3          	mul	s1,s0,s6
    2d50:	00c10593          	addi	a1,sp,12
    2d54:	009a84b3          	add	s1,s5,s1
    2d58:	00048513          	mv	a0,s1
    2d5c:	fffff097          	auipc	ra,0xfffff
    2d60:	e3c080e7          	jalr	-452(ra) # 1b98 <_ZN6tflite26TfLiteEvalTensorByteLengthEPK16TfLiteEvalTensorPj>
    2d64:	02051e63          	bnez	a0,2da0 <_ZN6tflite14MicroAllocator17AllocateVariablesEPKNS_8SubGraphEP16TfLiteEvalTensorPKl+0xdc>
    2d68:	0089a503          	lw	a0,8(s3)
    2d6c:	00c12583          	lw	a1,12(sp)
    2d70:	01000613          	li	a2,16
    2d74:	00052783          	lw	a5,0(a0)
    2d78:	0087a783          	lw	a5,8(a5)
    2d7c:	000780e7          	jalr	a5
    2d80:	00a4a023          	sw	a0,0(s1)
    2d84:	04051463          	bnez	a0,2dcc <_ZN6tflite14MicroAllocator17AllocateVariablesEPKNS_8SubGraphEP16TfLiteEvalTensorPKl+0x108>
    2d88:	00c12583          	lw	a1,12(sp)
    2d8c:	80048517          	auipc	a0,0x80048
    2d90:	e9050513          	addi	a0,a0,-368 # 8004ac1c <__stack_top+0xfffd3dcc>
    2d94:	fffff097          	auipc	ra,0xfffff
    2d98:	83c080e7          	jalr	-1988(ra) # 15d0 <_Z11MicroPrintfPKcz>
    2d9c:	00100513          	li	a0,1
    2da0:	03c12083          	lw	ra,60(sp)
    2da4:	03812403          	lw	s0,56(sp)
    2da8:	03412483          	lw	s1,52(sp)
    2dac:	03012903          	lw	s2,48(sp)
    2db0:	02c12983          	lw	s3,44(sp)
    2db4:	02812a03          	lw	s4,40(sp)
    2db8:	02412a83          	lw	s5,36(sp)
    2dbc:	02012b03          	lw	s6,32(sp)
    2dc0:	01c12b83          	lw	s7,28(sp)
    2dc4:	04010113          	addi	sp,sp,64
    2dc8:	00008067          	ret
    2dcc:	00140413          	addi	s0,s0,1
    2dd0:	f39ff06f          	j	2d08 <_ZN6tflite14MicroAllocator17AllocateVariablesEPKNS_8SubGraphEP16TfLiteEvalTensorPKl+0x44>
    2dd4:	00000513          	li	a0,0
    2dd8:	fc9ff06f          	j	2da0 <_ZN6tflite14MicroAllocator17AllocateVariablesEPKNS_8SubGraphEP16TfLiteEvalTensorPKl+0xdc>

00002ddc <_ZN6tflite14MicroAllocator25AllocateTfLiteEvalTensorsEPKNS_5ModelEPNS_19SubgraphAllocationsE>:
    2ddc:	fd010113          	addi	sp,sp,-48
    2de0:	02112623          	sw	ra,44(sp)
    2de4:	02812423          	sw	s0,40(sp)
    2de8:	02912223          	sw	s1,36(sp)
    2dec:	03212023          	sw	s2,32(sp)
    2df0:	01312e23          	sw	s3,28(sp)
    2df4:	01412c23          	sw	s4,24(sp)
    2df8:	01512a23          	sw	s5,20(sp)
    2dfc:	01612823          	sw	s6,16(sp)
    2e00:	01712623          	sw	s7,12(sp)
    2e04:	01812423          	sw	s8,8(sp)
    2e08:	01912223          	sw	s9,4(sp)
    2e0c:	00061663          	bnez	a2,2e18 <_ZN6tflite14MicroAllocator25AllocateTfLiteEvalTensorsEPKNS_5ModelEPNS_19SubgraphAllocationsE+0x3c>
    2e10:	ffffe097          	auipc	ra,0xffffe
    2e14:	858080e7          	jalr	-1960(ra) # 668 <_Z9AbortImplv>
    2e18:	00050a93          	mv	s5,a0
    2e1c:	00058913          	mv	s2,a1
    2e20:	00060993          	mv	s3,a2
    2e24:	00000493          	li	s1,0
    2e28:	00c00a13          	li	s4,12
    2e2c:	00090513          	mv	a0,s2
    2e30:	fffff097          	auipc	ra,0xfffff
    2e34:	f30080e7          	jalr	-208(ra) # 1d60 <_ZNK6tflite5Model9subgraphsEv>
    2e38:	00052783          	lw	a5,0(a0)
    2e3c:	12f4f463          	bgeu	s1,a5,2f64 <_ZN6tflite14MicroAllocator25AllocateTfLiteEvalTensorsEPKNS_5ModelEPNS_19SubgraphAllocationsE+0x188>
    2e40:	00048593          	mv	a1,s1
    2e44:	ffffd097          	auipc	ra,0xffffd
    2e48:	6b8080e7          	jalr	1720(ra) # 4fc <_ZNK11flatbuffers6VectorINS_6OffsetIN6tflite8SubGraphEEEmE3GetEm>
    2e4c:	00050b13          	mv	s6,a0
    2e50:	fc0500e3          	beqz	a0,2e10 <_ZN6tflite14MicroAllocator25AllocateTfLiteEvalTensorsEPKNS_5ModelEPNS_19SubgraphAllocationsE+0x34>
    2e54:	00400593          	li	a1,4
    2e58:	00000097          	auipc	ra,0x0
    2e5c:	e2c080e7          	jalr	-468(ra) # 2c84 <_ZN11flatbuffers5Table10GetPointerIPKNS_6VectorINS_6OffsetIN6tflite6TensorEEEmEEmEET_t>
    2e60:	00052b83          	lw	s7,0(a0)
    2e64:	008aa503          	lw	a0,8(s5)
    2e68:	00400613          	li	a2,4
    2e6c:	034b8433          	mul	s0,s7,s4
    2e70:	00052783          	lw	a5,0(a0)
    2e74:	0087a783          	lw	a5,8(a5)
    2e78:	00040593          	mv	a1,s0
    2e7c:	000780e7          	jalr	a5
    2e80:	00050c13          	mv	s8,a0
    2e84:	04051863          	bnez	a0,2ed4 <_ZN6tflite14MicroAllocator25AllocateTfLiteEvalTensorsEPKNS_5ModelEPNS_19SubgraphAllocationsE+0xf8>
    2e88:	80048517          	auipc	a0,0x80048
    2e8c:	00040593          	mv	a1,s0
    2e90:	e4450513          	addi	a0,a0,-444 # 8004accc <__stack_top+0xfffd3e7c>
    2e94:	ffffe097          	auipc	ra,0xffffe
    2e98:	73c080e7          	jalr	1852(ra) # 15d0 <_Z11MicroPrintfPKcz>
    2e9c:	00100513          	li	a0,1
    2ea0:	02c12083          	lw	ra,44(sp)
    2ea4:	02812403          	lw	s0,40(sp)
    2ea8:	02412483          	lw	s1,36(sp)
    2eac:	02012903          	lw	s2,32(sp)
    2eb0:	01c12983          	lw	s3,28(sp)
    2eb4:	01812a03          	lw	s4,24(sp)
    2eb8:	01412a83          	lw	s5,20(sp)
    2ebc:	01012b03          	lw	s6,16(sp)
    2ec0:	00c12b83          	lw	s7,12(sp)
    2ec4:	00812c03          	lw	s8,8(sp)
    2ec8:	00412c83          	lw	s9,4(sp)
    2ecc:	03010113          	addi	sp,sp,48
    2ed0:	00008067          	ret
    2ed4:	00000413          	li	s0,0
    2ed8:	068b8c63          	beq	s7,s0,2f50 <_ZN6tflite14MicroAllocator25AllocateTfLiteEvalTensorsEPKNS_5ModelEPNS_19SubgraphAllocationsE+0x174>
    2edc:	00400593          	li	a1,4
    2ee0:	000b0513          	mv	a0,s6
    2ee4:	00000097          	auipc	ra,0x0
    2ee8:	da0080e7          	jalr	-608(ra) # 2c84 <_ZN11flatbuffers5Table10GetPointerIPKNS_6VectorINS_6OffsetIN6tflite6TensorEEEmEEmEET_t>
    2eec:	00040593          	mv	a1,s0
    2ef0:	ffffe097          	auipc	ra,0xffffe
    2ef4:	19c080e7          	jalr	412(ra) # 108c <_ZNK11flatbuffers6VectorINS_6OffsetIN6tflite6TensorEEEmE3GetEm>
    2ef8:	00c00593          	li	a1,12
    2efc:	00050c93          	mv	s9,a0
    2f00:	00090513          	mv	a0,s2
    2f04:	ffffd097          	auipc	ra,0xffffd
    2f08:	3f0080e7          	jalr	1008(ra) # 2f4 <_ZNK11flatbuffers5Table22GetOptionalFieldOffsetEt>
    2f0c:	00000593          	li	a1,0
    2f10:	00050863          	beqz	a0,2f20 <_ZN6tflite14MicroAllocator25AllocateTfLiteEvalTensorsEPKNS_5ModelEPNS_19SubgraphAllocationsE+0x144>
    2f14:	00a90533          	add	a0,s2,a0
    2f18:	00052583          	lw	a1,0(a0)
    2f1c:	00b505b3          	add	a1,a0,a1
    2f20:	03440633          	mul	a2,s0,s4
    2f24:	000c8513          	mv	a0,s9
    2f28:	00cc0633          	add	a2,s8,a2
    2f2c:	fffff097          	auipc	ra,0xfffff
    2f30:	034080e7          	jalr	52(ra) # 1f60 <_ZN6tflite8internal40InitializeTfLiteEvalTensorFromFlatbufferERKNS_6TensorEPKN11flatbuffers6VectorINS4_6OffsetINS_6BufferEEEmEEP16TfLiteEvalTensor>
    2f34:	00050a63          	beqz	a0,2f48 <_ZN6tflite14MicroAllocator25AllocateTfLiteEvalTensorsEPKNS_5ModelEPNS_19SubgraphAllocationsE+0x16c>
    2f38:	80048517          	auipc	a0,0x80048
    2f3c:	00040593          	mv	a1,s0
    2f40:	ddc50513          	addi	a0,a0,-548 # 8004ad14 <__stack_top+0xfffd3ec4>
    2f44:	f51ff06f          	j	2e94 <_ZN6tflite14MicroAllocator25AllocateTfLiteEvalTensorsEPKNS_5ModelEPNS_19SubgraphAllocationsE+0xb8>
    2f48:	00140413          	addi	s0,s0,1
    2f4c:	f8dff06f          	j	2ed8 <_ZN6tflite14MicroAllocator25AllocateTfLiteEvalTensorsEPKNS_5ModelEPNS_19SubgraphAllocationsE+0xfc>
    2f50:	00349793          	slli	a5,s1,0x3
    2f54:	00f987b3          	add	a5,s3,a5
    2f58:	0187a223          	sw	s8,4(a5)
    2f5c:	00148493          	addi	s1,s1,1
    2f60:	ecdff06f          	j	2e2c <_ZN6tflite14MicroAllocator25AllocateTfLiteEvalTensorsEPKNS_5ModelEPNS_19SubgraphAllocationsE+0x50>
    2f64:	00000513          	li	a0,0
    2f68:	f39ff06f          	j	2ea0 <_ZN6tflite14MicroAllocator25AllocateTfLiteEvalTensorsEPKNS_5ModelEPNS_19SubgraphAllocationsE+0xc4>

00002f6c <_ZN6tflite14MicroAllocator34PopulateTfLiteTensorFromFlatbufferEPKNS_5ModelEP12TfLiteTensoriib>:
    2f6c:	fd010113          	addi	sp,sp,-48
    2f70:	02912223          	sw	s1,36(sp)
    2f74:	03212023          	sw	s2,32(sp)
    2f78:	00852483          	lw	s1,8(a0)
    2f7c:	00452903          	lw	s2,4(a0)
    2f80:	00058513          	mv	a0,a1
    2f84:	00c12623          	sw	a2,12(sp)
    2f88:	02112623          	sw	ra,44(sp)
    2f8c:	00d12423          	sw	a3,8(sp)
    2f90:	02812423          	sw	s0,40(sp)
    2f94:	01312e23          	sw	s3,28(sp)
    2f98:	00058413          	mv	s0,a1
    2f9c:	00078993          	mv	s3,a5
    2fa0:	00e12223          	sw	a4,4(sp)
    2fa4:	fffff097          	auipc	ra,0xfffff
    2fa8:	dbc080e7          	jalr	-580(ra) # 1d60 <_ZNK6tflite5Model9subgraphsEv>
    2fac:	00412703          	lw	a4,4(sp)
    2fb0:	00070593          	mv	a1,a4
    2fb4:	ffffd097          	auipc	ra,0xffffd
    2fb8:	548080e7          	jalr	1352(ra) # 4fc <_ZNK11flatbuffers6VectorINS_6OffsetIN6tflite8SubGraphEEEmE3GetEm>
    2fbc:	00400593          	li	a1,4
    2fc0:	00000097          	auipc	ra,0x0
    2fc4:	cc4080e7          	jalr	-828(ra) # 2c84 <_ZN11flatbuffers5Table10GetPointerIPKNS_6VectorINS_6OffsetIN6tflite6TensorEEEmEEmEET_t>
    2fc8:	00812683          	lw	a3,8(sp)
    2fcc:	00068593          	mv	a1,a3
    2fd0:	ffffe097          	auipc	ra,0xffffe
    2fd4:	0bc080e7          	jalr	188(ra) # 108c <_ZNK11flatbuffers6VectorINS_6OffsetIN6tflite6TensorEEEmE3GetEm>
    2fd8:	00a12223          	sw	a0,4(sp)
    2fdc:	00c00593          	li	a1,12
    2fe0:	00040513          	mv	a0,s0
    2fe4:	ffffd097          	auipc	ra,0xffffd
    2fe8:	310080e7          	jalr	784(ra) # 2f4 <_ZNK11flatbuffers5Table22GetOptionalFieldOffsetEt>
    2fec:	00412683          	lw	a3,4(sp)
    2ff0:	00c12603          	lw	a2,12(sp)
    2ff4:	00000713          	li	a4,0
    2ff8:	00050863          	beqz	a0,3008 <_ZN6tflite14MicroAllocator34PopulateTfLiteTensorFromFlatbufferEPKNS_5ModelEP12TfLiteTensoriib+0x9c>
    2ffc:	00a40433          	add	s0,s0,a0
    3000:	00042703          	lw	a4,0(s0)
    3004:	00e40733          	add	a4,s0,a4
    3008:	02812403          	lw	s0,40(sp)
    300c:	02c12083          	lw	ra,44(sp)
    3010:	00060793          	mv	a5,a2
    3014:	00090593          	mv	a1,s2
    3018:	00098613          	mv	a2,s3
    301c:	02012903          	lw	s2,32(sp)
    3020:	01c12983          	lw	s3,28(sp)
    3024:	00048513          	mv	a0,s1
    3028:	02412483          	lw	s1,36(sp)
    302c:	03010113          	addi	sp,sp,48
    3030:	fffff317          	auipc	t1,0xfffff
    3034:	2e830067          	jr	744(t1) # 2318 <_ZN6tflite8internal36InitializeTfLiteTensorFromFlatbufferEPNS_26IPersistentBufferAllocatorEPNS_29INonPersistentBufferAllocatorEbRKNS_6TensorEPKN11flatbuffers6VectorINS8_6OffsetINS_6BufferEEEmEEP12TfLiteTensor>

00003038 <_ZN6tflite12MicroContext22SetDecompressionMemoryEPKNS0_21AlternateMemoryRegionEj>:
    3038:	00452783          	lw	a5,4(a0)
    303c:	02078063          	beqz	a5,305c <_ZN6tflite12MicroContext22SetDecompressionMemoryEPKNS0_21AlternateMemoryRegionEj+0x24>
    3040:	00100513          	li	a0,1
    3044:	00008067          	ret
    3048:	00100513          	li	a0,1
    304c:	00c12083          	lw	ra,12(sp)
    3050:	00812403          	lw	s0,8(sp)
    3054:	01010113          	addi	sp,sp,16
    3058:	00008067          	ret
    305c:	00052783          	lw	a5,0(a0)
    3060:	ff010113          	addi	sp,sp,-16
    3064:	00812423          	sw	s0,8(sp)
    3068:	0087a783          	lw	a5,8(a5)
    306c:	00112623          	sw	ra,12(sp)
    3070:	00b52223          	sw	a1,4(a0)
    3074:	00c52423          	sw	a2,8(a0)
    3078:	00261593          	slli	a1,a2,0x2
    307c:	00050413          	mv	s0,a0
    3080:	000780e7          	jalr	a5
    3084:	00a42623          	sw	a0,12(s0)
    3088:	fc0500e3          	beqz	a0,3048 <_ZN6tflite12MicroContext22SetDecompressionMemoryEPKNS0_21AlternateMemoryRegionEj+0x10>
    308c:	00042783          	lw	a5,0(s0)
    3090:	00040513          	mv	a0,s0
    3094:	03c7a783          	lw	a5,60(a5)
    3098:	000780e7          	jalr	a5
    309c:	00000513          	li	a0,0
    30a0:	fadff06f          	j	304c <_ZN6tflite12MicroContext22SetDecompressionMemoryEPKNS0_21AlternateMemoryRegionEj+0x14>

000030a4 <_ZN6tflite12MicroContext27AllocateDecompressionMemoryEjj>:
    30a4:	00452783          	lw	a5,4(a0)
    30a8:	0c078a63          	beqz	a5,317c <_ZN6tflite12MicroContext27AllocateDecompressionMemoryEjj+0xd8>
    30ac:	fe010113          	addi	sp,sp,-32
    30b0:	00812c23          	sw	s0,24(sp)
    30b4:	01212823          	sw	s2,16(sp)
    30b8:	01512223          	sw	s5,4(sp)
    30bc:	01612023          	sw	s6,0(sp)
    30c0:	00112e23          	sw	ra,28(sp)
    30c4:	00912a23          	sw	s1,20(sp)
    30c8:	01312623          	sw	s3,12(sp)
    30cc:	01412423          	sw	s4,8(sp)
    30d0:	00060b13          	mv	s6,a2
    30d4:	00058a93          	mv	s5,a1
    30d8:	00050413          	mv	s0,a0
    30dc:	00000913          	li	s2,0
    30e0:	00842783          	lw	a5,8(s0)
    30e4:	08f97863          	bgeu	s2,a5,3174 <_ZN6tflite12MicroContext27AllocateDecompressionMemoryEjj+0xd0>
    30e8:	00442783          	lw	a5,4(s0)
    30ec:	00391993          	slli	s3,s2,0x3
    30f0:	00291713          	slli	a4,s2,0x2
    30f4:	013789b3          	add	s3,a5,s3
    30f8:	00c42783          	lw	a5,12(s0)
    30fc:	0009a483          	lw	s1,0(s3)
    3100:	000b0593          	mv	a1,s6
    3104:	00e787b3          	add	a5,a5,a4
    3108:	0007a783          	lw	a5,0(a5)
    310c:	00070a13          	mv	s4,a4
    3110:	00f484b3          	add	s1,s1,a5
    3114:	00048513          	mv	a0,s1
    3118:	fffff097          	auipc	ra,0xfffff
    311c:	908080e7          	jalr	-1784(ra) # 1a20 <_ZN6tflite14AlignPointerUpEPhj>
    3120:	00c42703          	lw	a4,12(s0)
    3124:	0049a683          	lw	a3,4(s3)
    3128:	409504b3          	sub	s1,a0,s1
    312c:	01470733          	add	a4,a4,s4
    3130:	00072783          	lw	a5,0(a4)
    3134:	00fa87b3          	add	a5,s5,a5
    3138:	009787b3          	add	a5,a5,s1
    313c:	02f6e863          	bltu	a3,a5,316c <_ZN6tflite12MicroContext27AllocateDecompressionMemoryEjj+0xc8>
    3140:	00f72023          	sw	a5,0(a4)
    3144:	01c12083          	lw	ra,28(sp)
    3148:	01812403          	lw	s0,24(sp)
    314c:	01412483          	lw	s1,20(sp)
    3150:	01012903          	lw	s2,16(sp)
    3154:	00c12983          	lw	s3,12(sp)
    3158:	00812a03          	lw	s4,8(sp)
    315c:	00412a83          	lw	s5,4(sp)
    3160:	00012b03          	lw	s6,0(sp)
    3164:	02010113          	addi	sp,sp,32
    3168:	00008067          	ret
    316c:	00190913          	addi	s2,s2,1
    3170:	f71ff06f          	j	30e0 <_ZN6tflite12MicroContext27AllocateDecompressionMemoryEjj+0x3c>
    3174:	00000513          	li	a0,0
    3178:	fcdff06f          	j	3144 <_ZN6tflite12MicroContext27AllocateDecompressionMemoryEjj+0xa0>
    317c:	00000513          	li	a0,0
    3180:	00008067          	ret

00003184 <_ZN6tflite12MicroContext35ResetDecompressionMemoryAllocationsEv>:
    3184:	00452783          	lw	a5,4(a0)
    3188:	04078063          	beqz	a5,31c8 <_ZN6tflite12MicroContext35ResetDecompressionMemoryAllocationsEv+0x44>
    318c:	00c52783          	lw	a5,12(a0)
    3190:	02079063          	bnez	a5,31b0 <_ZN6tflite12MicroContext35ResetDecompressionMemoryAllocationsEv+0x2c>
    3194:	80047517          	auipc	a0,0x80047
    3198:	ff010113          	addi	sp,sp,-16
    319c:	58850513          	addi	a0,a0,1416 # 8004a71c <__stack_top+0xfffd38cc>
    31a0:	00112623          	sw	ra,12(sp)
    31a4:	ffffe097          	auipc	ra,0xffffe
    31a8:	42c080e7          	jalr	1068(ra) # 15d0 <_Z11MicroPrintfPKcz>
    31ac:	0000006f          	j	31ac <_ZN6tflite12MicroContext35ResetDecompressionMemoryAllocationsEv+0x28>
    31b0:	00852703          	lw	a4,8(a0)
    31b4:	00070a63          	beqz	a4,31c8 <_ZN6tflite12MicroContext35ResetDecompressionMemoryAllocationsEv+0x44>
    31b8:	0007a023          	sw	zero,0(a5)
    31bc:	fff70713          	addi	a4,a4,-1
    31c0:	00478793          	addi	a5,a5,4
    31c4:	ff1ff06f          	j	31b4 <_ZN6tflite12MicroContext35ResetDecompressionMemoryAllocationsEv+0x30>
    31c8:	00008067          	ret

000031cc <_ZN6tflite25MicroContextReportOpErrorEP13TfLiteContextPKcz>:
    31cc:	fc010113          	addi	sp,sp,-64
    31d0:	00058513          	mv	a0,a1
    31d4:	02810593          	addi	a1,sp,40
    31d8:	00112e23          	sw	ra,28(sp)
    31dc:	02c12423          	sw	a2,40(sp)
    31e0:	02d12623          	sw	a3,44(sp)
    31e4:	02e12823          	sw	a4,48(sp)
    31e8:	02f12a23          	sw	a5,52(sp)
    31ec:	03012c23          	sw	a6,56(sp)
    31f0:	03112e23          	sw	a7,60(sp)
    31f4:	00b12623          	sw	a1,12(sp)
    31f8:	ffffe097          	auipc	ra,0xffffe
    31fc:	3b0080e7          	jalr	944(ra) # 15a8 <_Z12VMicroPrintfPKcPv>
    3200:	01c12083          	lw	ra,28(sp)
    3204:	04010113          	addi	sp,sp,64
    3208:	00008067          	ret

0000320c <_ZN6tflite26SingleArenaBufferAllocatorD0Ev>:
    320c:	00008067          	ret

00003210 <_ZN6tflite26SingleArenaBufferAllocator25DeallocateResizableBufferEPh>:
    3210:	00052783          	lw	a5,0(a0)
    3214:	00100693          	li	a3,1
    3218:	00000613          	li	a2,0
    321c:	01c7a303          	lw	t1,28(a5)
    3220:	00030067          	jr	t1

00003224 <_ZN6tflite26SingleArenaBufferAllocator14DeallocateTempEPh>:
    3224:	01c52783          	lw	a5,28(a0)
    3228:	00f5c5b3          	xor	a1,a1,a5
    322c:	02052783          	lw	a5,32(a0)
    3230:	00b52e23          	sw	a1,28(a0)
    3234:	fff78793          	addi	a5,a5,-1
    3238:	02f52023          	sw	a5,32(a0)
    323c:	00008067          	ret

00003240 <_ZNK6tflite26SingleArenaBufferAllocator23GetOverlayMemoryAddressEv>:
    3240:	00852503          	lw	a0,8(a0)
    3244:	00008067          	ret

00003248 <_ZNK6tflite26SingleArenaBufferAllocator25GetNonPersistentUsedBytesEv>:
    3248:	01052703          	lw	a4,16(a0)
    324c:	00852783          	lw	a5,8(a0)
    3250:	01852503          	lw	a0,24(a0)
    3254:	00a77663          	bgeu	a4,a0,3260 <_ZNK6tflite26SingleArenaBufferAllocator25GetNonPersistentUsedBytesEv+0x18>
    3258:	40f50533          	sub	a0,a0,a5
    325c:	00008067          	ret
    3260:	40f70533          	sub	a0,a4,a5
    3264:	00008067          	ret

00003268 <_ZNK6tflite26SingleArenaBufferAllocator22GetPersistentUsedBytesEv>:
    3268:	00c52703          	lw	a4,12(a0)
    326c:	01452503          	lw	a0,20(a0)
    3270:	40a70533          	sub	a0,a4,a0
    3274:	00008067          	ret

00003278 <_ZThn4_NK6tflite26SingleArenaBufferAllocator22GetPersistentUsedBytesEv>:
    3278:	ffc50513          	addi	a0,a0,-4
    327c:	00000317          	auipc	t1,0x0
    3280:	fec30067          	jr	-20(t1) # 3268 <_ZNK6tflite26SingleArenaBufferAllocator22GetPersistentUsedBytesEv>

00003284 <_ZN6tflite26SingleArenaBufferAllocator20IsAllTempDeallocatedEv>:
    3284:	02052583          	lw	a1,32(a0)
    3288:	01c52603          	lw	a2,28(a0)
    328c:	00c5e7b3          	or	a5,a1,a2
    3290:	02078863          	beqz	a5,32c0 <_ZN6tflite26SingleArenaBufferAllocator20IsAllTempDeallocatedEv+0x3c>
    3294:	80048517          	auipc	a0,0x80048
    3298:	ff010113          	addi	sp,sp,-16
    329c:	f0850513          	addi	a0,a0,-248 # 8004b19c <__stack_top+0xfffd434c>
    32a0:	00163613          	seqz	a2,a2
    32a4:	00112623          	sw	ra,12(sp)
    32a8:	ffffe097          	auipc	ra,0xffffe
    32ac:	328080e7          	jalr	808(ra) # 15d0 <_Z11MicroPrintfPKcz>
    32b0:	00c12083          	lw	ra,12(sp)
    32b4:	00000513          	li	a0,0
    32b8:	01010113          	addi	sp,sp,16
    32bc:	00008067          	ret
    32c0:	00100513          	li	a0,1
    32c4:	00008067          	ret

000032c8 <_ZN6tflite26SingleArenaBufferAllocator20ResetTempAllocationsEv>:
    32c8:	00052783          	lw	a5,0(a0)
    32cc:	ff010113          	addi	sp,sp,-16
    32d0:	00812423          	sw	s0,8(sp)
    32d4:	0107a783          	lw	a5,16(a5)
    32d8:	00112623          	sw	ra,12(sp)
    32dc:	00050413          	mv	s0,a0
    32e0:	000780e7          	jalr	a5
    32e4:	02051463          	bnez	a0,330c <_ZN6tflite26SingleArenaBufferAllocator20ResetTempAllocationsEv+0x44>
    32e8:	80048517          	auipc	a0,0x80048
    32ec:	ef850513          	addi	a0,a0,-264 # 8004b1e0 <__stack_top+0xfffd4390>
    32f0:	ffffe097          	auipc	ra,0xffffe
    32f4:	2e0080e7          	jalr	736(ra) # 15d0 <_Z11MicroPrintfPKcz>
    32f8:	00100513          	li	a0,1
    32fc:	00c12083          	lw	ra,12(sp)
    3300:	00812403          	lw	s0,8(sp)
    3304:	01010113          	addi	sp,sp,16
    3308:	00008067          	ret
    330c:	01042783          	lw	a5,16(s0)
    3310:	00000513          	li	a0,0
    3314:	00f42c23          	sw	a5,24(s0)
    3318:	fe5ff06f          	j	32fc <_ZN6tflite26SingleArenaBufferAllocator20ResetTempAllocationsEv+0x34>

0000331c <_ZN6tflite26SingleArenaBufferAllocator23AllocateResizableBufferEjj>:
    331c:	fe010113          	addi	sp,sp,-32
    3320:	00912a23          	sw	s1,20(sp)
    3324:	00050493          	mv	s1,a0
    3328:	00852503          	lw	a0,8(a0)
    332c:	01212823          	sw	s2,16(sp)
    3330:	00058913          	mv	s2,a1
    3334:	00060593          	mv	a1,a2
    3338:	00812c23          	sw	s0,24(sp)
    333c:	00112e23          	sw	ra,28(sp)
    3340:	00c12623          	sw	a2,12(sp)
    3344:	ffffe097          	auipc	ra,0xffffe
    3348:	6dc080e7          	jalr	1756(ra) # 1a20 <_ZN6tflite14AlignPointerUpEPhj>
    334c:	0004a783          	lw	a5,0(s1)
    3350:	00c12683          	lw	a3,12(sp)
    3354:	00050413          	mv	s0,a0
    3358:	01c7a783          	lw	a5,28(a5)
    335c:	00050593          	mv	a1,a0
    3360:	00090613          	mv	a2,s2
    3364:	00048513          	mv	a0,s1
    3368:	000780e7          	jalr	a5
    336c:	00050463          	beqz	a0,3374 <_ZN6tflite26SingleArenaBufferAllocator23AllocateResizableBufferEjj+0x58>
    3370:	00000413          	li	s0,0
    3374:	00040513          	mv	a0,s0
    3378:	01c12083          	lw	ra,28(sp)
    337c:	01812403          	lw	s0,24(sp)
    3380:	01412483          	lw	s1,20(sp)
    3384:	01012903          	lw	s2,16(sp)
    3388:	02010113          	addi	sp,sp,32
    338c:	00008067          	ret

00003390 <_ZN6tflite26SingleArenaBufferAllocator33ReserveNonPersistentOverlayMemoryEjj>:
    3390:	fe010113          	addi	sp,sp,-32
    3394:	00812c23          	sw	s0,24(sp)
    3398:	00050413          	mv	s0,a0
    339c:	00852503          	lw	a0,8(a0)
    33a0:	00912a23          	sw	s1,20(sp)
    33a4:	00058493          	mv	s1,a1
    33a8:	00060593          	mv	a1,a2
    33ac:	00112e23          	sw	ra,28(sp)
    33b0:	00c12623          	sw	a2,12(sp)
    33b4:	ffffe097          	auipc	ra,0xffffe
    33b8:	66c080e7          	jalr	1644(ra) # 1a20 <_ZN6tflite14AlignPointerUpEPhj>
    33bc:	00042783          	lw	a5,0(s0)
    33c0:	00050593          	mv	a1,a0
    33c4:	00040513          	mv	a0,s0
    33c8:	01812403          	lw	s0,24(sp)
    33cc:	00c12683          	lw	a3,12(sp)
    33d0:	01c12083          	lw	ra,28(sp)
    33d4:	01c7a303          	lw	t1,28(a5)
    33d8:	00048613          	mv	a2,s1
    33dc:	01412483          	lw	s1,20(sp)
    33e0:	02010113          	addi	sp,sp,32
    33e4:	00030067          	jr	t1

000033e8 <_ZN6tflite26SingleArenaBufferAllocator12AllocateTempEjj>:
    33e8:	ff010113          	addi	sp,sp,-16
    33ec:	00812423          	sw	s0,8(sp)
    33f0:	00050413          	mv	s0,a0
    33f4:	01852503          	lw	a0,24(a0)
    33f8:	00912223          	sw	s1,4(sp)
    33fc:	00058493          	mv	s1,a1
    3400:	00060593          	mv	a1,a2
    3404:	00112623          	sw	ra,12(sp)
    3408:	ffffe097          	auipc	ra,0xffffe
    340c:	618080e7          	jalr	1560(ra) # 1a20 <_ZN6tflite14AlignPointerUpEPhj>
    3410:	01442603          	lw	a2,20(s0)
    3414:	40a60633          	sub	a2,a2,a0
    3418:	02967a63          	bgeu	a2,s1,344c <_ZN6tflite26SingleArenaBufferAllocator12AllocateTempEjj+0x64>
    341c:	80048517          	auipc	a0,0x80048
    3420:	c8050513          	addi	a0,a0,-896 # 8004b09c <__stack_top+0xfffd424c>
    3424:	40c486b3          	sub	a3,s1,a2
    3428:	00048593          	mv	a1,s1
    342c:	ffffe097          	auipc	ra,0xffffe
    3430:	1a4080e7          	jalr	420(ra) # 15d0 <_Z11MicroPrintfPKcz>
    3434:	00000513          	li	a0,0
    3438:	00c12083          	lw	ra,12(sp)
    343c:	00812403          	lw	s0,8(sp)
    3440:	00412483          	lw	s1,4(sp)
    3444:	01010113          	addi	sp,sp,16
    3448:	00008067          	ret
    344c:	01c42783          	lw	a5,28(s0)
    3450:	009504b3          	add	s1,a0,s1
    3454:	00942c23          	sw	s1,24(s0)
    3458:	00f547b3          	xor	a5,a0,a5
    345c:	00f42e23          	sw	a5,28(s0)
    3460:	02042783          	lw	a5,32(s0)
    3464:	00178793          	addi	a5,a5,1
    3468:	02f42023          	sw	a5,32(s0)
    346c:	fcdff06f          	j	3438 <_ZN6tflite26SingleArenaBufferAllocator12AllocateTempEjj+0x50>

00003470 <_ZN6tflite26SingleArenaBufferAllocator24AllocatePersistentBufferEjj>:
    3470:	ff010113          	addi	sp,sp,-16
    3474:	00812423          	sw	s0,8(sp)
    3478:	00050413          	mv	s0,a0
    347c:	01452503          	lw	a0,20(a0)
    3480:	00912223          	sw	s1,4(sp)
    3484:	00058493          	mv	s1,a1
    3488:	40950533          	sub	a0,a0,s1
    348c:	00060593          	mv	a1,a2
    3490:	00112623          	sw	ra,12(sp)
    3494:	ffffe097          	auipc	ra,0xffffe
    3498:	5a0080e7          	jalr	1440(ra) # 1a34 <_ZN6tflite16AlignPointerDownEPhj>
    349c:	01042683          	lw	a3,16(s0)
    34a0:	02d57c63          	bgeu	a0,a3,34d8 <_ZN6tflite26SingleArenaBufferAllocator24AllocatePersistentBufferEjj+0x68>
    34a4:	40a686b3          	sub	a3,a3,a0
    34a8:	80048517          	auipc	a0,0x80048
    34ac:	d8050513          	addi	a0,a0,-640 # 8004b228 <__stack_top+0xfffd43d8>
    34b0:	40d48633          	sub	a2,s1,a3
    34b4:	00048593          	mv	a1,s1
    34b8:	ffffe097          	auipc	ra,0xffffe
    34bc:	118080e7          	jalr	280(ra) # 15d0 <_Z11MicroPrintfPKcz>
    34c0:	00000513          	li	a0,0
    34c4:	00c12083          	lw	ra,12(sp)
    34c8:	00812403          	lw	s0,8(sp)
    34cc:	00412483          	lw	s1,4(sp)
    34d0:	01010113          	addi	sp,sp,16
    34d4:	00008067          	ret
    34d8:	00a42a23          	sw	a0,20(s0)
    34dc:	fe9ff06f          	j	34c4 <_ZN6tflite26SingleArenaBufferAllocator24AllocatePersistentBufferEjj+0x54>

000034e0 <_ZThn4_N6tflite26SingleArenaBufferAllocator24AllocatePersistentBufferEjj>:
    34e0:	ffc50513          	addi	a0,a0,-4
    34e4:	00000317          	auipc	t1,0x0
    34e8:	f8c30067          	jr	-116(t1) # 3470 <_ZN6tflite26SingleArenaBufferAllocator24AllocatePersistentBufferEjj>

000034ec <_ZNK6tflite26SingleArenaBufferAllocator18GetAvailableMemoryEj>:
    34ec:	ff010113          	addi	sp,sp,-16
    34f0:	00812423          	sw	s0,8(sp)
    34f4:	00050413          	mv	s0,a0
    34f8:	01852503          	lw	a0,24(a0)
    34fc:	00112623          	sw	ra,12(sp)
    3500:	00912223          	sw	s1,4(sp)
    3504:	01212023          	sw	s2,0(sp)
    3508:	00058913          	mv	s2,a1
    350c:	ffffe097          	auipc	ra,0xffffe
    3510:	514080e7          	jalr	1300(ra) # 1a20 <_ZN6tflite14AlignPointerUpEPhj>
    3514:	00050493          	mv	s1,a0
    3518:	01442503          	lw	a0,20(s0)
    351c:	00090593          	mv	a1,s2
    3520:	ffffe097          	auipc	ra,0xffffe
    3524:	514080e7          	jalr	1300(ra) # 1a34 <_ZN6tflite16AlignPointerDownEPhj>
    3528:	00c12083          	lw	ra,12(sp)
    352c:	00812403          	lw	s0,8(sp)
    3530:	40950533          	sub	a0,a0,s1
    3534:	00012903          	lw	s2,0(sp)
    3538:	00412483          	lw	s1,4(sp)
    353c:	01010113          	addi	sp,sp,16
    3540:	00008067          	ret

00003544 <_ZN6tflite26SingleArenaBufferAllocator12ResizeBufferEPhjj>:
    3544:	fe010113          	addi	sp,sp,-32
    3548:	00812c23          	sw	s0,24(sp)
    354c:	00050413          	mv	s0,a0
    3550:	00852503          	lw	a0,8(a0)
    3554:	01212823          	sw	s2,16(sp)
    3558:	00058913          	mv	s2,a1
    355c:	00068593          	mv	a1,a3
    3560:	00912a23          	sw	s1,20(sp)
    3564:	00112e23          	sw	ra,28(sp)
    3568:	00060493          	mv	s1,a2
    356c:	00d12623          	sw	a3,12(sp)
    3570:	ffffe097          	auipc	ra,0xffffe
    3574:	4b0080e7          	jalr	1200(ra) # 1a20 <_ZN6tflite14AlignPointerUpEPhj>
    3578:	01042703          	lw	a4,16(s0)
    357c:	01842783          	lw	a5,24(s0)
    3580:	00f71663          	bne	a4,a5,358c <_ZN6tflite26SingleArenaBufferAllocator12ResizeBufferEPhjj+0x48>
    3584:	00c12683          	lw	a3,12(sp)
    3588:	03250863          	beq	a0,s2,35b8 <_ZN6tflite26SingleArenaBufferAllocator12ResizeBufferEPhjj+0x74>
    358c:	80048517          	auipc	a0,0x80048
    3590:	b5c50513          	addi	a0,a0,-1188 # 8004b0e8 <__stack_top+0xfffd4298>
    3594:	ffffe097          	auipc	ra,0xffffe
    3598:	03c080e7          	jalr	60(ra) # 15d0 <_Z11MicroPrintfPKcz>
    359c:	00100513          	li	a0,1
    35a0:	01c12083          	lw	ra,28(sp)
    35a4:	01812403          	lw	s0,24(sp)
    35a8:	01412483          	lw	s1,20(sp)
    35ac:	01012903          	lw	s2,16(sp)
    35b0:	02010113          	addi	sp,sp,32
    35b4:	00008067          	ret
    35b8:	00842503          	lw	a0,8(s0)
    35bc:	00068593          	mv	a1,a3
    35c0:	ffffe097          	auipc	ra,0xffffe
    35c4:	460080e7          	jalr	1120(ra) # 1a20 <_ZN6tflite14AlignPointerUpEPhj>
    35c8:	01442603          	lw	a2,20(s0)
    35cc:	40a60633          	sub	a2,a2,a0
    35d0:	02967063          	bgeu	a2,s1,35f0 <_ZN6tflite26SingleArenaBufferAllocator12ResizeBufferEPhjj+0xac>
    35d4:	80048517          	auipc	a0,0x80048
    35d8:	40c486b3          	sub	a3,s1,a2
    35dc:	00048593          	mv	a1,s1
    35e0:	b8450513          	addi	a0,a0,-1148 # 8004b158 <__stack_top+0xfffd4308>
    35e4:	ffffe097          	auipc	ra,0xffffe
    35e8:	fec080e7          	jalr	-20(ra) # 15d0 <_Z11MicroPrintfPKcz>
    35ec:	fb1ff06f          	j	359c <_ZN6tflite26SingleArenaBufferAllocator12ResizeBufferEPhjj+0x58>
    35f0:	00950533          	add	a0,a0,s1
    35f4:	00a42823          	sw	a0,16(s0)
    35f8:	00a42c23          	sw	a0,24(s0)
    35fc:	00000513          	li	a0,0
    3600:	fa1ff06f          	j	35a0 <_ZN6tflite26SingleArenaBufferAllocator12ResizeBufferEPhjj+0x5c>

00003604 <_ZThn4_N6tflite26SingleArenaBufferAllocatorD0Ev>:
    3604:	00008067          	ret

00003608 <_ZThn4_N6tflite26SingleArenaBufferAllocatorD1Ev>:
    3608:	00008067          	ret

0000360c <_ZN6tflite26SingleArenaBufferAllocatorC1EPhS1_>:
    360c:	80048797          	auipc	a5,0x80048
    3610:	a3c78793          	addi	a5,a5,-1476 # 8004b048 <__stack_top+0xfffd41f8>
    3614:	00f52023          	sw	a5,0(a0)
    3618:	80048797          	auipc	a5,0x80048
    361c:	a7478793          	addi	a5,a5,-1420 # 8004b08c <__stack_top+0xfffd423c>
    3620:	00f52223          	sw	a5,4(a0)
    3624:	00b52423          	sw	a1,8(a0)
    3628:	00c52623          	sw	a2,12(a0)
    362c:	00b52823          	sw	a1,16(a0)
    3630:	00c52a23          	sw	a2,20(a0)
    3634:	00b52c23          	sw	a1,24(a0)
    3638:	00052e23          	sw	zero,28(a0)
    363c:	02052023          	sw	zero,32(a0)
    3640:	00008067          	ret

00003644 <_ZN6tflite26SingleArenaBufferAllocatorC1EPhj>:
    3644:	00c58633          	add	a2,a1,a2
    3648:	00000317          	auipc	t1,0x0
    364c:	fc430067          	jr	-60(t1) # 360c <_ZN6tflite26SingleArenaBufferAllocatorC1EPhS1_>

00003650 <_ZN6tflite26SingleArenaBufferAllocator6CreateEPhj>:
    3650:	fc010113          	addi	sp,sp,-64
    3654:	02112e23          	sw	ra,60(sp)
    3658:	00051c63          	bnez	a0,3670 <_ZN6tflite26SingleArenaBufferAllocator6CreateEPhj+0x20>
    365c:	80047517          	auipc	a0,0x80047
    3660:	0c050513          	addi	a0,a0,192 # 8004a71c <__stack_top+0xfffd38cc>
    3664:	ffffe097          	auipc	ra,0xffffe
    3668:	f6c080e7          	jalr	-148(ra) # 15d0 <_Z11MicroPrintfPKcz>
    366c:	0000006f          	j	366c <_ZN6tflite26SingleArenaBufferAllocator6CreateEPhj+0x1c>
    3670:	00058613          	mv	a2,a1
    3674:	00050593          	mv	a1,a0
    3678:	00c10513          	addi	a0,sp,12
    367c:	00000097          	auipc	ra,0x0
    3680:	fc8080e7          	jalr	-56(ra) # 3644 <_ZN6tflite26SingleArenaBufferAllocatorC1EPhj>
    3684:	00c10513          	addi	a0,sp,12
    3688:	00400613          	li	a2,4
    368c:	02400593          	li	a1,36
    3690:	00000097          	auipc	ra,0x0
    3694:	de0080e7          	jalr	-544(ra) # 3470 <_ZN6tflite26SingleArenaBufferAllocator24AllocatePersistentBufferEjj>
    3698:	80048717          	auipc	a4,0x80048
    369c:	9b070713          	addi	a4,a4,-1616 # 8004b048 <__stack_top+0xfffd41f8>
    36a0:	00e52023          	sw	a4,0(a0)
    36a4:	80048717          	auipc	a4,0x80048
    36a8:	9e870713          	addi	a4,a4,-1560 # 8004b08c <__stack_top+0xfffd423c>
    36ac:	00e52223          	sw	a4,4(a0)
    36b0:	01412703          	lw	a4,20(sp)
    36b4:	03c12083          	lw	ra,60(sp)
    36b8:	00e52423          	sw	a4,8(a0)
    36bc:	01812703          	lw	a4,24(sp)
    36c0:	00e52623          	sw	a4,12(a0)
    36c4:	01c12703          	lw	a4,28(sp)
    36c8:	00e52823          	sw	a4,16(a0)
    36cc:	02012703          	lw	a4,32(sp)
    36d0:	00e52a23          	sw	a4,20(a0)
    36d4:	02412703          	lw	a4,36(sp)
    36d8:	00e52c23          	sw	a4,24(a0)
    36dc:	02812703          	lw	a4,40(sp)
    36e0:	00e52e23          	sw	a4,28(a0)
    36e4:	02c12703          	lw	a4,44(sp)
    36e8:	02e52023          	sw	a4,32(a0)
    36ec:	04010113          	addi	sp,sp,64
    36f0:	00008067          	ret

000036f4 <_ZNK6tflite19GreedyMemoryPlanner21preserves_all_tensorsEv>:
    36f4:	00000513          	li	a0,0
    36f8:	00008067          	ret

000036fc <_ZN6tflite12_GLOBAL__N_119GetOrdinalCharacterEi>:
    36fc:	00900713          	li	a4,9
    3700:	02300693          	li	a3,35
    3704:	03d00613          	li	a2,61
    3708:	03e00793          	li	a5,62
    370c:	00a74863          	blt	a4,a0,371c <_ZN6tflite12_GLOBAL__N_119GetOrdinalCharacterEi+0x20>
    3710:	03050513          	addi	a0,a0,48
    3714:	0ff57513          	zext.b	a0,a0
    3718:	00008067          	ret
    371c:	00a6c663          	blt	a3,a0,3728 <_ZN6tflite12_GLOBAL__N_119GetOrdinalCharacterEi+0x2c>
    3720:	05750513          	addi	a0,a0,87
    3724:	ff1ff06f          	j	3714 <_ZN6tflite12_GLOBAL__N_119GetOrdinalCharacterEi+0x18>
    3728:	00a64663          	blt	a2,a0,3734 <_ZN6tflite12_GLOBAL__N_119GetOrdinalCharacterEi+0x38>
    372c:	01d50513          	addi	a0,a0,29
    3730:	fe5ff06f          	j	3714 <_ZN6tflite12_GLOBAL__N_119GetOrdinalCharacterEi+0x18>
    3734:	02f56533          	rem	a0,a0,a5
    3738:	fd5ff06f          	j	370c <_ZN6tflite12_GLOBAL__N_119GetOrdinalCharacterEi+0x10>

0000373c <_ZN6tflite19GreedyMemoryPlanner4InitEPhi>:
    373c:	00100793          	li	a5,1
    3740:	02f50423          	sb	a5,40(a0)
    3744:	02800793          	li	a5,40
    3748:	02f65633          	divu	a2,a2,a5
    374c:	00b52623          	sw	a1,12(a0)
    3750:	00052423          	sw	zero,8(a0)
    3754:	00461793          	slli	a5,a2,0x4
    3758:	00f585b3          	add	a1,a1,a5
    375c:	00261793          	slli	a5,a2,0x2
    3760:	00b52823          	sw	a1,16(a0)
    3764:	00f585b3          	add	a1,a1,a5
    3768:	00b52a23          	sw	a1,20(a0)
    376c:	00f585b3          	add	a1,a1,a5
    3770:	00c00793          	li	a5,12
    3774:	00c52223          	sw	a2,4(a0)
    3778:	02f60633          	mul	a2,a2,a5
    377c:	00b52c23          	sw	a1,24(a0)
    3780:	00c585b3          	add	a1,a1,a2
    3784:	02b52223          	sw	a1,36(a0)
    3788:	00000513          	li	a0,0
    378c:	00008067          	ret

00003790 <_ZN6tflite19GreedyMemoryPlannerD0Ev>:
    3790:	00008067          	ret

00003794 <_ZN6tflite19GreedyMemoryPlanner9AddBufferEiiii>:
    3794:	00052783          	lw	a5,0(a0)
    3798:	fe010113          	addi	sp,sp,-32
    379c:	00812c23          	sw	s0,24(sp)
    37a0:	0087a783          	lw	a5,8(a5)
    37a4:	00912a23          	sw	s1,20(sp)
    37a8:	00112e23          	sw	ra,28(sp)
    37ac:	00e12623          	sw	a4,12(sp)
    37b0:	00c52403          	lw	s0,12(a0)
    37b4:	00852483          	lw	s1,8(a0)
    37b8:	000780e7          	jalr	a5
    37bc:	02051463          	bnez	a0,37e4 <_ZN6tflite19GreedyMemoryPlanner9AddBufferEiiii+0x50>
    37c0:	00c12703          	lw	a4,12(sp)
    37c4:	00449493          	slli	s1,s1,0x4
    37c8:	00940433          	add	s0,s0,s1
    37cc:	00e42223          	sw	a4,4(s0)
    37d0:	01c12083          	lw	ra,28(sp)
    37d4:	01812403          	lw	s0,24(sp)
    37d8:	01412483          	lw	s1,20(sp)
    37dc:	02010113          	addi	sp,sp,32
    37e0:	00008067          	ret
    37e4:	00100513          	li	a0,1
    37e8:	fe9ff06f          	j	37d0 <_ZN6tflite19GreedyMemoryPlanner9AddBufferEiiii+0x3c>

000037ec <_ZN6tflite19GreedyMemoryPlanner14GetBufferCountEv>:
    37ec:	00852503          	lw	a0,8(a0)
    37f0:	00008067          	ret

000037f4 <_ZN6tflite19GreedyMemoryPlanner9AddBufferEiii>:
    37f4:	00852703          	lw	a4,8(a0)
    37f8:	00452783          	lw	a5,4(a0)
    37fc:	02f74863          	blt	a4,a5,382c <_ZN6tflite19GreedyMemoryPlanner9AddBufferEiii+0x38>
    3800:	80048517          	auipc	a0,0x80048
    3804:	ff010113          	addi	sp,sp,-16
    3808:	b1c50513          	addi	a0,a0,-1252 # 8004b31c <__stack_top+0xfffd44cc>
    380c:	00078593          	mv	a1,a5
    3810:	00112623          	sw	ra,12(sp)
    3814:	ffffe097          	auipc	ra,0xffffe
    3818:	dbc080e7          	jalr	-580(ra) # 15d0 <_Z11MicroPrintfPKcz>
    381c:	00c12083          	lw	ra,12(sp)
    3820:	00100513          	li	a0,1
    3824:	01010113          	addi	sp,sp,16
    3828:	00008067          	ret
    382c:	00c52783          	lw	a5,12(a0)
    3830:	00471813          	slli	a6,a4,0x4
    3834:	00170713          	addi	a4,a4,1
    3838:	010787b3          	add	a5,a5,a6
    383c:	00d7a623          	sw	a3,12(a5)
    3840:	fff00693          	li	a3,-1
    3844:	00b7a023          	sw	a1,0(a5)
    3848:	00c7a423          	sw	a2,8(a5)
    384c:	00d7a223          	sw	a3,4(a5)
    3850:	00100793          	li	a5,1
    3854:	00e52423          	sw	a4,8(a0)
    3858:	02f50423          	sb	a5,40(a0)
    385c:	00000513          	li	a0,0
    3860:	00008067          	ret

00003864 <_ZN6tflite18ReverseSortInPlaceEPiS0_i>:
    3864:	00050713          	mv	a4,a0
    3868:	00058793          	mv	a5,a1
    386c:	00100693          	li	a3,1
    3870:	00000813          	li	a6,0
    3874:	02c6de63          	bge	a3,a2,38b0 <_ZN6tflite18ReverseSortInPlaceEPiS0_i+0x4c>
    3878:	00072883          	lw	a7,0(a4)
    387c:	00472303          	lw	t1,4(a4)
    3880:	0268d063          	bge	a7,t1,38a0 <_ZN6tflite18ReverseSortInPlaceEPiS0_i+0x3c>
    3884:	00672023          	sw	t1,0(a4)
    3888:	01172223          	sw	a7,4(a4)
    388c:	0007a803          	lw	a6,0(a5)
    3890:	0047a883          	lw	a7,4(a5)
    3894:	0107a223          	sw	a6,4(a5)
    3898:	0117a023          	sw	a7,0(a5)
    389c:	00100813          	li	a6,1
    38a0:	00168693          	addi	a3,a3,1
    38a4:	00470713          	addi	a4,a4,4
    38a8:	00478793          	addi	a5,a5,4
    38ac:	fc9ff06f          	j	3874 <_ZN6tflite18ReverseSortInPlaceEPiS0_i+0x10>
    38b0:	fa081ae3          	bnez	a6,3864 <_ZN6tflite18ReverseSortInPlaceEPiS0_i>
    38b4:	00008067          	ret

000038b8 <_ZN6tflite19GreedyMemoryPlannerC1Ev>:
    38b8:	80048797          	auipc	a5,0x80048
    38bc:	9c478793          	addi	a5,a5,-1596 # 8004b27c <__stack_top+0xfffd442c>
    38c0:	00f52023          	sw	a5,0(a0)
    38c4:	00008067          	ret

000038c8 <_ZNK6tflite19GreedyMemoryPlanner22DoesEntryOverlapInTimeEPKNS0_9ListEntryEii>:
    38c8:	0045a783          	lw	a5,4(a1)
    38cc:	00479713          	slli	a4,a5,0x4
    38d0:	00c52783          	lw	a5,12(a0)
    38d4:	00e787b3          	add	a5,a5,a4
    38d8:	0087a703          	lw	a4,8(a5)
    38dc:	00e6ca63          	blt	a3,a4,38f0 <_ZNK6tflite19GreedyMemoryPlanner22DoesEntryOverlapInTimeEPKNS0_9ListEntryEii+0x28>
    38e0:	00c7a503          	lw	a0,12(a5)
    38e4:	00c52533          	slt	a0,a0,a2
    38e8:	00154513          	xori	a0,a0,1
    38ec:	00008067          	ret
    38f0:	00000513          	li	a0,0
    38f4:	00008067          	ret

000038f8 <_ZN6tflite19GreedyMemoryPlanner30NextSimultaneouslyActiveBufferEPKNS0_9ListEntryEii>:
    38f8:	fe010113          	addi	sp,sp,-32
    38fc:	00112e23          	sw	ra,28(sp)
    3900:	00812c23          	sw	s0,24(sp)
    3904:	00912a23          	sw	s1,20(sp)
    3908:	01212823          	sw	s2,16(sp)
    390c:	01312623          	sw	s3,12(sp)
    3910:	01412423          	sw	s4,8(sp)
    3914:	01512223          	sw	s5,4(sp)
    3918:	06059063          	bnez	a1,3978 <_ZN6tflite19GreedyMemoryPlanner30NextSimultaneouslyActiveBufferEPKNS0_9ListEntryEii+0x80>
    391c:	02052783          	lw	a5,32(a0)
    3920:	00c00413          	li	s0,12
    3924:	02f407b3          	mul	a5,s0,a5
    3928:	01852403          	lw	s0,24(a0)
    392c:	00068993          	mv	s3,a3
    3930:	00060913          	mv	s2,a2
    3934:	00050493          	mv	s1,a0
    3938:	fff00a93          	li	s5,-1
    393c:	00c00a13          	li	s4,12
    3940:	00f40433          	add	s0,s0,a5
    3944:	00098693          	mv	a3,s3
    3948:	00090613          	mv	a2,s2
    394c:	00040593          	mv	a1,s0
    3950:	00048513          	mv	a0,s1
    3954:	00000097          	auipc	ra,0x0
    3958:	f74080e7          	jalr	-140(ra) # 38c8 <_ZNK6tflite19GreedyMemoryPlanner22DoesEntryOverlapInTimeEPKNS0_9ListEntryEii>
    395c:	02051663          	bnez	a0,3988 <_ZN6tflite19GreedyMemoryPlanner30NextSimultaneouslyActiveBufferEPKNS0_9ListEntryEii+0x90>
    3960:	00842403          	lw	s0,8(s0)
    3964:	05540663          	beq	s0,s5,39b0 <_ZN6tflite19GreedyMemoryPlanner30NextSimultaneouslyActiveBufferEPKNS0_9ListEntryEii+0xb8>
    3968:	034407b3          	mul	a5,s0,s4
    396c:	0184a403          	lw	s0,24(s1)
    3970:	00f40433          	add	s0,s0,a5
    3974:	fd1ff06f          	j	3944 <_ZN6tflite19GreedyMemoryPlanner30NextSimultaneouslyActiveBufferEPKNS0_9ListEntryEii+0x4c>
    3978:	0085a783          	lw	a5,8(a1)
    397c:	fff00713          	li	a4,-1
    3980:	00000413          	li	s0,0
    3984:	f8e79ee3          	bne	a5,a4,3920 <_ZN6tflite19GreedyMemoryPlanner30NextSimultaneouslyActiveBufferEPKNS0_9ListEntryEii+0x28>
    3988:	00040513          	mv	a0,s0
    398c:	01c12083          	lw	ra,28(sp)
    3990:	01812403          	lw	s0,24(sp)
    3994:	01412483          	lw	s1,20(sp)
    3998:	01012903          	lw	s2,16(sp)
    399c:	00c12983          	lw	s3,12(sp)
    39a0:	00812a03          	lw	s4,8(sp)
    39a4:	00412a83          	lw	s5,4(sp)
    39a8:	02010113          	addi	sp,sp,32
    39ac:	00008067          	ret
    39b0:	00000413          	li	s0,0
    39b4:	fd5ff06f          	j	3988 <_ZN6tflite19GreedyMemoryPlanner30NextSimultaneouslyActiveBufferEPKNS0_9ListEntryEii+0x90>

000039b8 <_ZN6tflite19GreedyMemoryPlanner24CalculateOffsetsIfNeededEv>:
    39b8:	02854783          	lbu	a5,40(a0)
    39bc:	2a078263          	beqz	a5,3c60 <_ZN6tflite19GreedyMemoryPlanner24CalculateOffsetsIfNeededEv+0x2a8>
    39c0:	00852803          	lw	a6,8(a0)
    39c4:	fb010113          	addi	sp,sp,-80
    39c8:	04812423          	sw	s0,72(sp)
    39cc:	04112623          	sw	ra,76(sp)
    39d0:	04912223          	sw	s1,68(sp)
    39d4:	05212023          	sw	s2,64(sp)
    39d8:	03312e23          	sw	s3,60(sp)
    39dc:	03412c23          	sw	s4,56(sp)
    39e0:	03512a23          	sw	s5,52(sp)
    39e4:	03612823          	sw	s6,48(sp)
    39e8:	03712623          	sw	s7,44(sp)
    39ec:	03812423          	sw	s8,40(sp)
    39f0:	03912223          	sw	s9,36(sp)
    39f4:	03a12023          	sw	s10,32(sp)
    39f8:	01b12e23          	sw	s11,28(sp)
    39fc:	00050413          	mv	s0,a0
    3a00:	22080263          	beqz	a6,3c24 <_ZN6tflite19GreedyMemoryPlanner24CalculateOffsetsIfNeededEv+0x26c>
    3a04:	01052303          	lw	t1,16(a0)
    3a08:	01452e03          	lw	t3,20(a0)
    3a0c:	02050423          	sb	zero,40(a0)
    3a10:	00000793          	li	a5,0
    3a14:	00000613          	li	a2,0
    3a18:	fff00e93          	li	t4,-1
    3a1c:	00842703          	lw	a4,8(s0)
    3a20:	00261593          	slli	a1,a2,0x2
    3a24:	00b30533          	add	a0,t1,a1
    3a28:	00be05b3          	add	a1,t3,a1
    3a2c:	06e7d263          	bge	a5,a4,3a90 <_ZN6tflite19GreedyMemoryPlanner24CalculateOffsetsIfNeededEv+0xd8>
    3a30:	00c42683          	lw	a3,12(s0)
    3a34:	02442883          	lw	a7,36(s0)
    3a38:	00479713          	slli	a4,a5,0x4
    3a3c:	00e68733          	add	a4,a3,a4
    3a40:	00279693          	slli	a3,a5,0x2
    3a44:	00d886b3          	add	a3,a7,a3
    3a48:	00472883          	lw	a7,4(a4)
    3a4c:	00072f03          	lw	t5,0(a4)
    3a50:	03d89463          	bne	a7,t4,3a78 <_ZN6tflite19GreedyMemoryPlanner24CalculateOffsetsIfNeededEv+0xc0>
    3a54:	fff80813          	addi	a6,a6,-1
    3a58:	00281713          	slli	a4,a6,0x2
    3a5c:	00e305b3          	add	a1,t1,a4
    3a60:	01e5a023          	sw	t5,0(a1)
    3a64:	00ee0733          	add	a4,t3,a4
    3a68:	00f72023          	sw	a5,0(a4)
    3a6c:	01d6a023          	sw	t4,0(a3)
    3a70:	00178793          	addi	a5,a5,1
    3a74:	fa9ff06f          	j	3a1c <_ZN6tflite19GreedyMemoryPlanner24CalculateOffsetsIfNeededEv+0x64>
    3a78:	01e52023          	sw	t5,0(a0)
    3a7c:	00f5a023          	sw	a5,0(a1)
    3a80:	00472703          	lw	a4,4(a4)
    3a84:	00160613          	addi	a2,a2,1
    3a88:	00e6a023          	sw	a4,0(a3)
    3a8c:	fe5ff06f          	j	3a70 <_ZN6tflite19GreedyMemoryPlanner24CalculateOffsetsIfNeededEv+0xb8>
    3a90:	40c70633          	sub	a2,a4,a2
    3a94:	00000097          	auipc	ra,0x0
    3a98:	dd0080e7          	jalr	-560(ra) # 3864 <_ZN6tflite18ReverseSortInPlaceEPiS0_i>
    3a9c:	01842903          	lw	s2,24(s0)
    3aa0:	00100793          	li	a5,1
    3aa4:	01442b83          	lw	s7,20(s0)
    3aa8:	02042023          	sw	zero,32(s0)
    3aac:	00f42e23          	sw	a5,28(s0)
    3ab0:	fff00693          	li	a3,-1
    3ab4:	00d92423          	sw	a3,8(s2)
    3ab8:	000ba783          	lw	a5,0(s7)
    3abc:	00c42a83          	lw	s5,12(s0)
    3ac0:	02442b03          	lw	s6,36(s0)
    3ac4:	00479713          	slli	a4,a5,0x4
    3ac8:	00ea8733          	add	a4,s5,a4
    3acc:	00472703          	lw	a4,4(a4)
    3ad0:	00f92223          	sw	a5,4(s2)
    3ad4:	00279793          	slli	a5,a5,0x2
    3ad8:	00d71663          	bne	a4,a3,3ae4 <_ZN6tflite19GreedyMemoryPlanner24CalculateOffsetsIfNeededEv+0x12c>
    3adc:	00fb0733          	add	a4,s6,a5
    3ae0:	00072023          	sw	zero,0(a4)
    3ae4:	00fb07b3          	add	a5,s6,a5
    3ae8:	0007a783          	lw	a5,0(a5)
    3aec:	00090c13          	mv	s8,s2
    3af0:	00100a13          	li	s4,1
    3af4:	00f92023          	sw	a5,0(s2)
    3af8:	fff00c93          	li	s9,-1
    3afc:	00c00d13          	li	s10,12
    3b00:	00842783          	lw	a5,8(s0)
    3b04:	12fa5063          	bge	s4,a5,3c24 <_ZN6tflite19GreedyMemoryPlanner24CalculateOffsetsIfNeededEv+0x26c>
    3b08:	002a1793          	slli	a5,s4,0x2
    3b0c:	00fb87b3          	add	a5,s7,a5
    3b10:	0007ad83          	lw	s11,0(a5)
    3b14:	004d9793          	slli	a5,s11,0x4
    3b18:	00fa87b3          	add	a5,s5,a5
    3b1c:	0047a483          	lw	s1,4(a5)
    3b20:	09949063          	bne	s1,s9,3ba0 <_ZN6tflite19GreedyMemoryPlanner24CalculateOffsetsIfNeededEv+0x1e8>
    3b24:	0007a703          	lw	a4,0(a5)
    3b28:	0087a803          	lw	a6,8(a5)
    3b2c:	00c7a883          	lw	a7,12(a5)
    3b30:	00000993          	li	s3,0
    3b34:	00000493          	li	s1,0
    3b38:	00088693          	mv	a3,a7
    3b3c:	00080613          	mv	a2,a6
    3b40:	00098593          	mv	a1,s3
    3b44:	00040513          	mv	a0,s0
    3b48:	00e12623          	sw	a4,12(sp)
    3b4c:	01112423          	sw	a7,8(sp)
    3b50:	01012223          	sw	a6,4(sp)
    3b54:	00000097          	auipc	ra,0x0
    3b58:	da4080e7          	jalr	-604(ra) # 38f8 <_ZN6tflite19GreedyMemoryPlanner30NextSimultaneouslyActiveBufferEPKNS0_9ListEntryEii>
    3b5c:	00412803          	lw	a6,4(sp)
    3b60:	00812883          	lw	a7,8(sp)
    3b64:	00c12703          	lw	a4,12(sp)
    3b68:	02098263          	beqz	s3,3b8c <_ZN6tflite19GreedyMemoryPlanner24CalculateOffsetsIfNeededEv+0x1d4>
    3b6c:	0049a783          	lw	a5,4(s3)
    3b70:	0009a683          	lw	a3,0(s3)
    3b74:	00479793          	slli	a5,a5,0x4
    3b78:	00fa87b3          	add	a5,s5,a5
    3b7c:	0007a783          	lw	a5,0(a5)
    3b80:	00d787b3          	add	a5,a5,a3
    3b84:	00f4d463          	bge	s1,a5,3b8c <_ZN6tflite19GreedyMemoryPlanner24CalculateOffsetsIfNeededEv+0x1d4>
    3b88:	00078493          	mv	s1,a5
    3b8c:	00050a63          	beqz	a0,3ba0 <_ZN6tflite19GreedyMemoryPlanner24CalculateOffsetsIfNeededEv+0x1e8>
    3b90:	00052783          	lw	a5,0(a0)
    3b94:	00050993          	mv	s3,a0
    3b98:	409787b3          	sub	a5,a5,s1
    3b9c:	f8e7cee3          	blt	a5,a4,3b38 <_ZN6tflite19GreedyMemoryPlanner24CalculateOffsetsIfNeededEv+0x180>
    3ba0:	002d9793          	slli	a5,s11,0x2
    3ba4:	00fb07b3          	add	a5,s6,a5
    3ba8:	0097a023          	sw	s1,0(a5)
    3bac:	01c42703          	lw	a4,28(s0)
    3bb0:	03a707b3          	mul	a5,a4,s10
    3bb4:	00170693          	addi	a3,a4,1
    3bb8:	00f907b3          	add	a5,s2,a5
    3bbc:	0097a023          	sw	s1,0(a5)
    3bc0:	01b7a223          	sw	s11,4(a5)
    3bc4:	00d42e23          	sw	a3,28(s0)
    3bc8:	000c2683          	lw	a3,0(s8)
    3bcc:	00d4de63          	bge	s1,a3,3be8 <_ZN6tflite19GreedyMemoryPlanner24CalculateOffsetsIfNeededEv+0x230>
    3bd0:	02042683          	lw	a3,32(s0)
    3bd4:	00078c13          	mv	s8,a5
    3bd8:	00d7a423          	sw	a3,8(a5)
    3bdc:	02e42023          	sw	a4,32(s0)
    3be0:	001a0a13          	addi	s4,s4,1
    3be4:	f1dff06f          	j	3b00 <_ZN6tflite19GreedyMemoryPlanner24CalculateOffsetsIfNeededEv+0x148>
    3be8:	000c0693          	mv	a3,s8
    3bec:	0086a583          	lw	a1,8(a3)
    3bf0:	01959c63          	bne	a1,s9,3c08 <_ZN6tflite19GreedyMemoryPlanner24CalculateOffsetsIfNeededEv+0x250>
    3bf4:	00e6a423          	sw	a4,8(a3)
    3bf8:	0197a423          	sw	s9,8(a5)
    3bfc:	fe5ff06f          	j	3be0 <_ZN6tflite19GreedyMemoryPlanner24CalculateOffsetsIfNeededEv+0x228>
    3c00:	00060693          	mv	a3,a2
    3c04:	fe9ff06f          	j	3bec <_ZN6tflite19GreedyMemoryPlanner24CalculateOffsetsIfNeededEv+0x234>
    3c08:	03a58633          	mul	a2,a1,s10
    3c0c:	00c90633          	add	a2,s2,a2
    3c10:	00062503          	lw	a0,0(a2)
    3c14:	fea4d6e3          	bge	s1,a0,3c00 <_ZN6tflite19GreedyMemoryPlanner24CalculateOffsetsIfNeededEv+0x248>
    3c18:	00b7a423          	sw	a1,8(a5)
    3c1c:	00e6a423          	sw	a4,8(a3)
    3c20:	fc1ff06f          	j	3be0 <_ZN6tflite19GreedyMemoryPlanner24CalculateOffsetsIfNeededEv+0x228>
    3c24:	04c12083          	lw	ra,76(sp)
    3c28:	04812403          	lw	s0,72(sp)
    3c2c:	04412483          	lw	s1,68(sp)
    3c30:	04012903          	lw	s2,64(sp)
    3c34:	03c12983          	lw	s3,60(sp)
    3c38:	03812a03          	lw	s4,56(sp)
    3c3c:	03412a83          	lw	s5,52(sp)
    3c40:	03012b03          	lw	s6,48(sp)
    3c44:	02c12b83          	lw	s7,44(sp)
    3c48:	02812c03          	lw	s8,40(sp)
    3c4c:	02412c83          	lw	s9,36(sp)
    3c50:	02012d03          	lw	s10,32(sp)
    3c54:	01c12d83          	lw	s11,28(sp)
    3c58:	05010113          	addi	sp,sp,80
    3c5c:	00008067          	ret
    3c60:	00008067          	ret

00003c64 <_ZN6tflite19GreedyMemoryPlanner20GetMaximumMemorySizeEv>:
    3c64:	ff010113          	addi	sp,sp,-16
    3c68:	00812423          	sw	s0,8(sp)
    3c6c:	00112623          	sw	ra,12(sp)
    3c70:	00050413          	mv	s0,a0
    3c74:	00000097          	auipc	ra,0x0
    3c78:	d44080e7          	jalr	-700(ra) # 39b8 <_ZN6tflite19GreedyMemoryPlanner24CalculateOffsetsIfNeededEv>
    3c7c:	00842783          	lw	a5,8(s0)
    3c80:	00000513          	li	a0,0
    3c84:	06078063          	beqz	a5,3ce4 <_ZN6tflite19GreedyMemoryPlanner20GetMaximumMemorySizeEv+0x80>
    3c88:	02042703          	lw	a4,32(s0)
    3c8c:	00c00793          	li	a5,12
    3c90:	01842603          	lw	a2,24(s0)
    3c94:	02e787b3          	mul	a5,a5,a4
    3c98:	00000513          	li	a0,0
    3c9c:	fff00813          	li	a6,-1
    3ca0:	00c00593          	li	a1,12
    3ca4:	00f607b3          	add	a5,a2,a5
    3ca8:	02078e63          	beqz	a5,3ce4 <_ZN6tflite19GreedyMemoryPlanner20GetMaximumMemorySizeEv+0x80>
    3cac:	0047a683          	lw	a3,4(a5)
    3cb0:	00c42703          	lw	a4,12(s0)
    3cb4:	00469693          	slli	a3,a3,0x4
    3cb8:	00d70733          	add	a4,a4,a3
    3cbc:	00072703          	lw	a4,0(a4)
    3cc0:	0007a683          	lw	a3,0(a5)
    3cc4:	00d70733          	add	a4,a4,a3
    3cc8:	00e57463          	bgeu	a0,a4,3cd0 <_ZN6tflite19GreedyMemoryPlanner20GetMaximumMemorySizeEv+0x6c>
    3ccc:	00070513          	mv	a0,a4
    3cd0:	0087a783          	lw	a5,8(a5)
    3cd4:	01078863          	beq	a5,a6,3ce4 <_ZN6tflite19GreedyMemoryPlanner20GetMaximumMemorySizeEv+0x80>
    3cd8:	02b787b3          	mul	a5,a5,a1
    3cdc:	00f607b3          	add	a5,a2,a5
    3ce0:	fc9ff06f          	j	3ca8 <_ZN6tflite19GreedyMemoryPlanner20GetMaximumMemorySizeEv+0x44>
    3ce4:	00c12083          	lw	ra,12(sp)
    3ce8:	00812403          	lw	s0,8(sp)
    3cec:	01010113          	addi	sp,sp,16
    3cf0:	00008067          	ret

00003cf4 <_ZN6tflite19GreedyMemoryPlanner15PrintMemoryPlanEv>:
    3cf4:	f5010113          	addi	sp,sp,-176
    3cf8:	0a812423          	sw	s0,168(sp)
    3cfc:	0a912223          	sw	s1,164(sp)
    3d00:	0a112623          	sw	ra,172(sp)
    3d04:	0b212023          	sw	s2,160(sp)
    3d08:	09312e23          	sw	s3,156(sp)
    3d0c:	09412c23          	sw	s4,152(sp)
    3d10:	09512a23          	sw	s5,148(sp)
    3d14:	09612823          	sw	s6,144(sp)
    3d18:	09712623          	sw	s7,140(sp)
    3d1c:	09812423          	sw	s8,136(sp)
    3d20:	09912223          	sw	s9,132(sp)
    3d24:	09a12023          	sw	s10,128(sp)
    3d28:	07b12e23          	sw	s11,124(sp)
    3d2c:	00050493          	mv	s1,a0
    3d30:	00000413          	li	s0,0
    3d34:	00000097          	auipc	ra,0x0
    3d38:	c84080e7          	jalr	-892(ra) # 39b8 <_ZN6tflite19GreedyMemoryPlanner24CalculateOffsetsIfNeededEv>
    3d3c:	0084a603          	lw	a2,8(s1)
    3d40:	06c45863          	bge	s0,a2,3db0 <_ZN6tflite19GreedyMemoryPlanner15PrintMemoryPlanEv+0xbc>
    3d44:	00c4a783          	lw	a5,12(s1)
    3d48:	00441913          	slli	s2,s0,0x4
    3d4c:	02a00593          	li	a1,42
    3d50:	01278933          	add	s2,a5,s2
    3d54:	00892783          	lw	a5,8(s2)
    3d58:	00c92803          	lw	a6,12(s2)
    3d5c:	03078263          	beq	a5,a6,3d80 <_ZN6tflite19GreedyMemoryPlanner15PrintMemoryPlanEv+0x8c>
    3d60:	00040513          	mv	a0,s0
    3d64:	01012623          	sw	a6,12(sp)
    3d68:	00f12423          	sw	a5,8(sp)
    3d6c:	00000097          	auipc	ra,0x0
    3d70:	990080e7          	jalr	-1648(ra) # 36fc <_ZN6tflite12_GLOBAL__N_119GetOrdinalCharacterEi>
    3d74:	00c12803          	lw	a6,12(sp)
    3d78:	00812783          	lw	a5,8(sp)
    3d7c:	00050593          	mv	a1,a0
    3d80:	0244a703          	lw	a4,36(s1)
    3d84:	00241693          	slli	a3,s0,0x2
    3d88:	80047517          	auipc	a0,0x80047
    3d8c:	00d70733          	add	a4,a4,a3
    3d90:	00072703          	lw	a4,0(a4)
    3d94:	00092683          	lw	a3,0(s2)
    3d98:	00040613          	mv	a2,s0
    3d9c:	51c50513          	addi	a0,a0,1308 # 8004b2a4 <__stack_top+0xfffd4454>
    3da0:	ffffe097          	auipc	ra,0xffffe
    3da4:	830080e7          	jalr	-2000(ra) # 15d0 <_Z11MicroPrintfPKcz>
    3da8:	00140413          	addi	s0,s0,1
    3dac:	f91ff06f          	j	3d3c <_ZN6tflite19GreedyMemoryPlanner15PrintMemoryPlanEv+0x48>
    3db0:	00000793          	li	a5,0
    3db4:	00000d93          	li	s11,0
    3db8:	05000c93          	li	s9,80
    3dbc:	04c7d263          	bge	a5,a2,3e00 <_ZN6tflite19GreedyMemoryPlanner15PrintMemoryPlanEv+0x10c>
    3dc0:	00c4a683          	lw	a3,12(s1)
    3dc4:	00479713          	slli	a4,a5,0x4
    3dc8:	00279593          	slli	a1,a5,0x2
    3dcc:	00e68733          	add	a4,a3,a4
    3dd0:	0244a683          	lw	a3,36(s1)
    3dd4:	00b686b3          	add	a3,a3,a1
    3dd8:	0006a683          	lw	a3,0(a3)
    3ddc:	00072583          	lw	a1,0(a4)
    3de0:	00b686b3          	add	a3,a3,a1
    3de4:	00dcd463          	bge	s9,a3,3dec <_ZN6tflite19GreedyMemoryPlanner15PrintMemoryPlanEv+0xf8>
    3de8:	00068c93          	mv	s9,a3
    3dec:	00c72703          	lw	a4,12(a4)
    3df0:	00edd463          	bge	s11,a4,3df8 <_ZN6tflite19GreedyMemoryPlanner15PrintMemoryPlanEv+0x104>
    3df4:	00070d93          	mv	s11,a4
    3df8:	00178793          	addi	a5,a5,1
    3dfc:	fc1ff06f          	j	3dbc <_ZN6tflite19GreedyMemoryPlanner15PrintMemoryPlanEv+0xc8>
    3e00:	00000993          	li	s3,0
    3e04:	05000b13          	li	s6,80
    3e08:	02100b93          	li	s7,33
    3e0c:	00000793          	li	a5,0
    3e10:	02e00613          	li	a2,46
    3e14:	01c10713          	addi	a4,sp,28
    3e18:	00f706b3          	add	a3,a4,a5
    3e1c:	00c68023          	sb	a2,0(a3)
    3e20:	00178793          	addi	a5,a5,1
    3e24:	ff6798e3          	bne	a5,s6,3e14 <_ZN6tflite19GreedyMemoryPlanner15PrintMemoryPlanEv+0x120>
    3e28:	0084a683          	lw	a3,8(s1)
    3e2c:	00000a13          	li	s4,0
    3e30:	00000c13          	li	s8,0
    3e34:	fff00613          	li	a2,-1
    3e38:	02a00593          	li	a1,42
    3e3c:	0ada5c63          	bge	s4,a3,3ef4 <_ZN6tflite19GreedyMemoryPlanner15PrintMemoryPlanEv+0x200>
    3e40:	00c4a783          	lw	a5,12(s1)
    3e44:	004a1913          	slli	s2,s4,0x4
    3e48:	01278933          	add	s2,a5,s2
    3e4c:	00892783          	lw	a5,8(s2)
    3e50:	08f9ce63          	blt	s3,a5,3eec <_ZN6tflite19GreedyMemoryPlanner15PrintMemoryPlanEv+0x1f8>
    3e54:	00c92783          	lw	a5,12(s2)
    3e58:	0937ca63          	blt	a5,s3,3eec <_ZN6tflite19GreedyMemoryPlanner15PrintMemoryPlanEv+0x1f8>
    3e5c:	0244a783          	lw	a5,36(s1)
    3e60:	002a1513          	slli	a0,s4,0x2
    3e64:	00a787b3          	add	a5,a5,a0
    3e68:	0007a783          	lw	a5,0(a5)
    3e6c:	08c78063          	beq	a5,a2,3eec <_ZN6tflite19GreedyMemoryPlanner15PrintMemoryPlanEv+0x1f8>
    3e70:	00092403          	lw	s0,0(s2)
    3e74:	03678ab3          	mul	s5,a5,s6
    3e78:	008c0c33          	add	s8,s8,s0
    3e7c:	00878433          	add	s0,a5,s0
    3e80:	03640433          	mul	s0,s0,s6
    3e84:	039acab3          	div	s5,s5,s9
    3e88:	03944433          	div	s0,s0,s9
    3e8c:	068ad063          	bge	s5,s0,3eec <_ZN6tflite19GreedyMemoryPlanner15PrintMemoryPlanEv+0x1f8>
    3e90:	01c10793          	addi	a5,sp,28
    3e94:	01578d33          	add	s10,a5,s5
    3e98:	000d4783          	lbu	a5,0(s10)
    3e9c:	02e00713          	li	a4,46
    3ea0:	04e79263          	bne	a5,a4,3ee4 <_ZN6tflite19GreedyMemoryPlanner15PrintMemoryPlanEv+0x1f0>
    3ea4:	00892503          	lw	a0,8(s2)
    3ea8:	00c92783          	lw	a5,12(s2)
    3eac:	00f51863          	bne	a0,a5,3ebc <_ZN6tflite19GreedyMemoryPlanner15PrintMemoryPlanEv+0x1c8>
    3eb0:	00bd0023          	sb	a1,0(s10)
    3eb4:	001a8a93          	addi	s5,s5,1
    3eb8:	fd5ff06f          	j	3e8c <_ZN6tflite19GreedyMemoryPlanner15PrintMemoryPlanEv+0x198>
    3ebc:	000a0513          	mv	a0,s4
    3ec0:	00b12623          	sw	a1,12(sp)
    3ec4:	00d12423          	sw	a3,8(sp)
    3ec8:	00000097          	auipc	ra,0x0
    3ecc:	834080e7          	jalr	-1996(ra) # 36fc <_ZN6tflite12_GLOBAL__N_119GetOrdinalCharacterEi>
    3ed0:	00ad0023          	sb	a0,0(s10)
    3ed4:	00812683          	lw	a3,8(sp)
    3ed8:	fff00613          	li	a2,-1
    3edc:	00c12583          	lw	a1,12(sp)
    3ee0:	fd5ff06f          	j	3eb4 <_ZN6tflite19GreedyMemoryPlanner15PrintMemoryPlanEv+0x1c0>
    3ee4:	017d0023          	sb	s7,0(s10)
    3ee8:	fcdff06f          	j	3eb4 <_ZN6tflite19GreedyMemoryPlanner15PrintMemoryPlanEv+0x1c0>
    3eec:	001a0a13          	addi	s4,s4,1
    3ef0:	f4dff06f          	j	3e3c <_ZN6tflite19GreedyMemoryPlanner15PrintMemoryPlanEv+0x148>
    3ef4:	3ffc0c13          	addi	s8,s8,1023
    3ef8:	40000693          	li	a3,1024
    3efc:	02dc46b3          	div	a3,s8,a3
    3f00:	80047517          	auipc	a0,0x80047
    3f04:	00098593          	mv	a1,s3
    3f08:	01c10613          	addi	a2,sp,28
    3f0c:	3e050513          	addi	a0,a0,992 # 8004b2e0 <__stack_top+0xfffd4490>
    3f10:	00198993          	addi	s3,s3,1
    3f14:	06010623          	sb	zero,108(sp)
    3f18:	ffffd097          	auipc	ra,0xffffd
    3f1c:	6b8080e7          	jalr	1720(ra) # 15d0 <_Z11MicroPrintfPKcz>
    3f20:	ef3dd6e3          	bge	s11,s3,3e0c <_ZN6tflite19GreedyMemoryPlanner15PrintMemoryPlanEv+0x118>
    3f24:	0ac12083          	lw	ra,172(sp)
    3f28:	0a812403          	lw	s0,168(sp)
    3f2c:	0a412483          	lw	s1,164(sp)
    3f30:	0a012903          	lw	s2,160(sp)
    3f34:	09c12983          	lw	s3,156(sp)
    3f38:	09812a03          	lw	s4,152(sp)
    3f3c:	09412a83          	lw	s5,148(sp)
    3f40:	09012b03          	lw	s6,144(sp)
    3f44:	08c12b83          	lw	s7,140(sp)
    3f48:	08812c03          	lw	s8,136(sp)
    3f4c:	08412c83          	lw	s9,132(sp)
    3f50:	08012d03          	lw	s10,128(sp)
    3f54:	07c12d83          	lw	s11,124(sp)
    3f58:	0b010113          	addi	sp,sp,176
    3f5c:	00008067          	ret

00003f60 <_ZN6tflite19GreedyMemoryPlanner18GetOffsetForBufferEiPi>:
    3f60:	fe010113          	addi	sp,sp,-32
    3f64:	00812c23          	sw	s0,24(sp)
    3f68:	00b12623          	sw	a1,12(sp)
    3f6c:	00050413          	mv	s0,a0
    3f70:	00112e23          	sw	ra,28(sp)
    3f74:	00c12423          	sw	a2,8(sp)
    3f78:	00000097          	auipc	ra,0x0
    3f7c:	a40080e7          	jalr	-1472(ra) # 39b8 <_ZN6tflite19GreedyMemoryPlanner24CalculateOffsetsIfNeededEv>
    3f80:	00c12583          	lw	a1,12(sp)
    3f84:	00842783          	lw	a5,8(s0)
    3f88:	0005c663          	bltz	a1,3f94 <_ZN6tflite19GreedyMemoryPlanner18GetOffsetForBufferEiPi+0x34>
    3f8c:	00812603          	lw	a2,8(sp)
    3f90:	02f5c663          	blt	a1,a5,3fbc <_ZN6tflite19GreedyMemoryPlanner18GetOffsetForBufferEiPi+0x5c>
    3f94:	80047517          	auipc	a0,0x80047
    3f98:	35c50513          	addi	a0,a0,860 # 8004b2f0 <__stack_top+0xfffd44a0>
    3f9c:	00078613          	mv	a2,a5
    3fa0:	ffffd097          	auipc	ra,0xffffd
    3fa4:	630080e7          	jalr	1584(ra) # 15d0 <_Z11MicroPrintfPKcz>
    3fa8:	00100513          	li	a0,1
    3fac:	01c12083          	lw	ra,28(sp)
    3fb0:	01812403          	lw	s0,24(sp)
    3fb4:	02010113          	addi	sp,sp,32
    3fb8:	00008067          	ret
    3fbc:	02442783          	lw	a5,36(s0)
    3fc0:	00259593          	slli	a1,a1,0x2
    3fc4:	00000513          	li	a0,0
    3fc8:	00b785b3          	add	a1,a5,a1
    3fcc:	0005a783          	lw	a5,0(a1)
    3fd0:	00f62023          	sw	a5,0(a2)
    3fd4:	fd9ff06f          	j	3fac <_ZN6tflite19GreedyMemoryPlanner18GetOffsetForBufferEiPi+0x4c>

00003fd8 <_ZN6tflite18MicroMemoryPlanner9AddBufferEiiii>:
    3fd8:	00100513          	li	a0,1
    3fdc:	00008067          	ret

00003fe0 <_ZN6tflite18MicroMemoryPlanner4InitEPhi>:
    3fe0:	00000513          	li	a0,0
    3fe4:	00008067          	ret

00003fe8 <_ZN6tflite18MicroMemoryPlanner15PrintMemoryPlanEv>:
    3fe8:	00008067          	ret

00003fec <_ZNK6tflite19LinearMemoryPlanner21preserves_all_tensorsEv>:
    3fec:	00100513          	li	a0,1
    3ff0:	00008067          	ret

00003ff4 <_ZN6tflite19LinearMemoryPlannerD0Ev>:
    3ff4:	00008067          	ret

00003ff8 <_ZN6tflite19LinearMemoryPlanner20GetMaximumMemorySizeEv>:
    3ff8:	000017b7          	lui	a5,0x1
    3ffc:	00f50533          	add	a0,a0,a5
    4000:	00852503          	lw	a0,8(a0)
    4004:	00008067          	ret

00004008 <_ZN6tflite19LinearMemoryPlanner14GetBufferCountEv>:
    4008:	000017b7          	lui	a5,0x1
    400c:	00f50533          	add	a0,a0,a5
    4010:	00452503          	lw	a0,4(a0)
    4014:	00008067          	ret

00004018 <_ZN6tflite19LinearMemoryPlanner9AddBufferEiii>:
    4018:	000017b7          	lui	a5,0x1
    401c:	00f507b3          	add	a5,a0,a5
    4020:	0047a703          	lw	a4,4(a5) # 1004 <_ZN6tflite21MicroInterpreterGraph15ResetTensorDataEPKNS_6TensorEP16TfLiteEvalTensor+0x54>
    4024:	3ff00693          	li	a3,1023
    4028:	02e6d863          	bge	a3,a4,4058 <_ZN6tflite19LinearMemoryPlanner9AddBufferEiii+0x40>
    402c:	80047517          	auipc	a0,0x80047
    4030:	ff010113          	addi	sp,sp,-16
    4034:	2f050513          	addi	a0,a0,752 # 8004b31c <__stack_top+0xfffd44cc>
    4038:	40000593          	li	a1,1024
    403c:	00112623          	sw	ra,12(sp)
    4040:	ffffd097          	auipc	ra,0xffffd
    4044:	590080e7          	jalr	1424(ra) # 15d0 <_Z11MicroPrintfPKcz>
    4048:	00c12083          	lw	ra,12(sp)
    404c:	00100513          	li	a0,1
    4050:	01010113          	addi	sp,sp,16
    4054:	00008067          	ret
    4058:	0087a683          	lw	a3,8(a5)
    405c:	00271613          	slli	a2,a4,0x2
    4060:	00c50533          	add	a0,a0,a2
    4064:	00d52223          	sw	a3,4(a0)
    4068:	00d585b3          	add	a1,a1,a3
    406c:	00170713          	addi	a4,a4,1
    4070:	00b7a423          	sw	a1,8(a5)
    4074:	00e7a223          	sw	a4,4(a5)
    4078:	00000513          	li	a0,0
    407c:	00008067          	ret

00004080 <_ZN6tflite19LinearMemoryPlanner18GetOffsetForBufferEiPi>:
    4080:	000017b7          	lui	a5,0x1
    4084:	00f507b3          	add	a5,a0,a5
    4088:	0047a783          	lw	a5,4(a5) # 1004 <_ZN6tflite21MicroInterpreterGraph15ResetTensorDataEPKNS_6TensorEP16TfLiteEvalTensor+0x54>
    408c:	0005c463          	bltz	a1,4094 <_ZN6tflite19LinearMemoryPlanner18GetOffsetForBufferEiPi+0x14>
    4090:	02f5c863          	blt	a1,a5,40c0 <_ZN6tflite19LinearMemoryPlanner18GetOffsetForBufferEiPi+0x40>
    4094:	80047517          	auipc	a0,0x80047
    4098:	ff010113          	addi	sp,sp,-16
    409c:	25c50513          	addi	a0,a0,604 # 8004b2f0 <__stack_top+0xfffd44a0>
    40a0:	00078613          	mv	a2,a5
    40a4:	00112623          	sw	ra,12(sp)
    40a8:	ffffd097          	auipc	ra,0xffffd
    40ac:	528080e7          	jalr	1320(ra) # 15d0 <_Z11MicroPrintfPKcz>
    40b0:	00c12083          	lw	ra,12(sp)
    40b4:	00100513          	li	a0,1
    40b8:	01010113          	addi	sp,sp,16
    40bc:	00008067          	ret
    40c0:	00259593          	slli	a1,a1,0x2
    40c4:	00b505b3          	add	a1,a0,a1
    40c8:	0045a783          	lw	a5,4(a1)
    40cc:	00000513          	li	a0,0
    40d0:	00f62023          	sw	a5,0(a2)
    40d4:	00008067          	ret

000040d8 <_ZN6tflite19LinearMemoryPlannerC1Ev>:
    40d8:	80047797          	auipc	a5,0x80047
    40dc:	26c78793          	addi	a5,a5,620 # 8004b344 <__stack_top+0xfffd44f4>
    40e0:	00f52023          	sw	a5,0(a0)
    40e4:	000017b7          	lui	a5,0x1
    40e8:	00f50533          	add	a0,a0,a5
    40ec:	00052223          	sw	zero,4(a0)
    40f0:	00052423          	sw	zero,8(a0)
    40f4:	00008067          	ret

000040f8 <TfLiteIntArrayGetSizeInBytes>:
    40f8:	00150513          	addi	a0,a0,1
    40fc:	00251513          	slli	a0,a0,0x2
    4100:	00008067          	ret

00004104 <_ZNK6tflite8SubGraph9operatorsEv>:
    4104:	ff010113          	addi	sp,sp,-16
    4108:	00a00593          	li	a1,10
    410c:	00812423          	sw	s0,8(sp)
    4110:	00112623          	sw	ra,12(sp)
    4114:	00050413          	mv	s0,a0
    4118:	ffffc097          	auipc	ra,0xffffc
    411c:	1dc080e7          	jalr	476(ra) # 2f4 <_ZNK11flatbuffers5Table22GetOptionalFieldOffsetEt>
    4120:	02050063          	beqz	a0,4140 <_ZNK6tflite8SubGraph9operatorsEv+0x3c>
    4124:	00a40533          	add	a0,s0,a0
    4128:	00052783          	lw	a5,0(a0)
    412c:	00f50533          	add	a0,a0,a5
    4130:	00c12083          	lw	ra,12(sp)
    4134:	00812403          	lw	s0,8(sp)
    4138:	01010113          	addi	sp,sp,16
    413c:	00008067          	ret
    4140:	00000513          	li	a0,0
    4144:	fedff06f          	j	4130 <_ZNK6tflite8SubGraph9operatorsEv+0x2c>

00004148 <_ZN6tflite21AllocationInfoBuilder18UpdateFirstCreatedEPNS_14AllocationInfoEi>:
    4148:	0085a783          	lw	a5,8(a1)
    414c:	00f65a63          	bge	a2,a5,4160 <_ZN6tflite21AllocationInfoBuilder18UpdateFirstCreatedEPNS_14AllocationInfoEi+0x18>
    4150:	ff010113          	addi	sp,sp,-16
    4154:	00112623          	sw	ra,12(sp)
    4158:	ffffc097          	auipc	ra,0xffffc
    415c:	510080e7          	jalr	1296(ra) # 668 <_Z9AbortImplv>
    4160:	fff00713          	li	a4,-1
    4164:	00e79463          	bne	a5,a4,416c <_ZN6tflite21AllocationInfoBuilder18UpdateFirstCreatedEPNS_14AllocationInfoEi+0x24>
    4168:	00c5a423          	sw	a2,8(a1)
    416c:	00008067          	ret

00004170 <_ZN6tflite21AllocationInfoBuilder18FreeAllocationInfoEv>:
    4170:	ff010113          	addi	sp,sp,-16
    4174:	00812423          	sw	s0,8(sp)
    4178:	00050413          	mv	s0,a0
    417c:	00452503          	lw	a0,4(a0)
    4180:	00842583          	lw	a1,8(s0)
    4184:	00112623          	sw	ra,12(sp)
    4188:	00052783          	lw	a5,0(a0)
    418c:	00c7a783          	lw	a5,12(a5) # 100c <_ZN6tflite21MicroInterpreterGraph15ResetTensorDataEPKNS_6TensorEP16TfLiteEvalTensor+0x5c>
    4190:	000780e7          	jalr	a5
    4194:	00442503          	lw	a0,4(s0)
    4198:	01042583          	lw	a1,16(s0)
    419c:	00052783          	lw	a5,0(a0)
    41a0:	00c7a783          	lw	a5,12(a5)
    41a4:	000780e7          	jalr	a5
    41a8:	00c12083          	lw	ra,12(sp)
    41ac:	00812403          	lw	s0,8(sp)
    41b0:	00000513          	li	a0,0
    41b4:	01010113          	addi	sp,sp,16
    41b8:	00008067          	ret

000041bc <_ZN6tflite21AllocationInfoBuilder24GetOfflinePlannedOffsetsEPPKl>:
    41bc:	fe010113          	addi	sp,sp,-32
    41c0:	01212823          	sw	s2,16(sp)
    41c4:	00052903          	lw	s2,0(a0)
    41c8:	01412423          	sw	s4,8(sp)
    41cc:	01612023          	sw	s6,0(sp)
    41d0:	00050a13          	mv	s4,a0
    41d4:	00058b13          	mv	s6,a1
    41d8:	00090513          	mv	a0,s2
    41dc:	01000593          	li	a1,16
    41e0:	00112e23          	sw	ra,28(sp)
    41e4:	00812c23          	sw	s0,24(sp)
    41e8:	00912a23          	sw	s1,20(sp)
    41ec:	01312623          	sw	s3,12(sp)
    41f0:	01512223          	sw	s5,4(sp)
    41f4:	ffffc097          	auipc	ra,0xffffc
    41f8:	100080e7          	jalr	256(ra) # 2f4 <_ZNK11flatbuffers5Table22GetOptionalFieldOffsetEt>
    41fc:	1a050663          	beqz	a0,43a8 <_ZN6tflite21AllocationInfoBuilder24GetOfflinePlannedOffsetsEPPKl+0x1ec>
    4200:	00a90533          	add	a0,s2,a0
    4204:	00052783          	lw	a5,0(a0)
    4208:	00f50533          	add	a0,a0,a5
    420c:	18050e63          	beqz	a0,43a8 <_ZN6tflite21AllocationInfoBuilder24GetOfflinePlannedOffsetsEPPKl+0x1ec>
    4210:	00000993          	li	s3,0
    4214:	01700a93          	li	s5,23
    4218:	01000593          	li	a1,16
    421c:	00090513          	mv	a0,s2
    4220:	ffffc097          	auipc	ra,0xffffc
    4224:	0d4080e7          	jalr	212(ra) # 2f4 <_ZNK11flatbuffers5Table22GetOptionalFieldOffsetEt>
    4228:	00000413          	li	s0,0
    422c:	00050863          	beqz	a0,423c <_ZN6tflite21AllocationInfoBuilder24GetOfflinePlannedOffsetsEPPKl+0x80>
    4230:	00a90533          	add	a0,s2,a0
    4234:	00052403          	lw	s0,0(a0)
    4238:	00850433          	add	s0,a0,s0
    423c:	00042783          	lw	a5,0(s0)
    4240:	16f9f463          	bgeu	s3,a5,43a8 <_ZN6tflite21AllocationInfoBuilder24GetOfflinePlannedOffsetsEPPKl+0x1ec>
    4244:	00299513          	slli	a0,s3,0x2
    4248:	00440413          	addi	s0,s0,4
    424c:	00a40433          	add	s0,s0,a0
    4250:	00042503          	lw	a0,0(s0)
    4254:	00400593          	li	a1,4
    4258:	00a40433          	add	s0,s0,a0
    425c:	00040513          	mv	a0,s0
    4260:	ffffc097          	auipc	ra,0xffffc
    4264:	094080e7          	jalr	148(ra) # 2f4 <_ZNK11flatbuffers5Table22GetOptionalFieldOffsetEt>
    4268:	12050c63          	beqz	a0,43a0 <_ZN6tflite21AllocationInfoBuilder24GetOfflinePlannedOffsetsEPPKl+0x1e4>
    426c:	00a40533          	add	a0,s0,a0
    4270:	00052783          	lw	a5,0(a0)
    4274:	00f50533          	add	a0,a0,a5
    4278:	12050463          	beqz	a0,43a0 <_ZN6tflite21AllocationInfoBuilder24GetOfflinePlannedOffsetsEPPKl+0x1e4>
    427c:	00052483          	lw	s1,0(a0)
    4280:	00048613          	mv	a2,s1
    4284:	009af463          	bgeu	s5,s1,428c <_ZN6tflite21AllocationInfoBuilder24GetOfflinePlannedOffsetsEPPKl+0xd0>
    4288:	01700613          	li	a2,23
    428c:	80047597          	auipc	a1,0x80047
    4290:	0e058593          	addi	a1,a1,224 # 8004b36c <__stack_top+0xfffd451c>
    4294:	00450513          	addi	a0,a0,4
    4298:	00003097          	auipc	ra,0x3
    429c:	43c080e7          	jalr	1084(ra) # 76d4 <strncmp>
    42a0:	10051063          	bnez	a0,43a0 <_ZN6tflite21AllocationInfoBuilder24GetOfflinePlannedOffsetsEPPKl+0x1e4>
    42a4:	0f549e63          	bne	s1,s5,43a0 <_ZN6tflite21AllocationInfoBuilder24GetOfflinePlannedOffsetsEPPKl+0x1e4>
    42a8:	00c00593          	li	a1,12
    42ac:	00090513          	mv	a0,s2
    42b0:	ffffc097          	auipc	ra,0xffffc
    42b4:	044080e7          	jalr	68(ra) # 2f4 <_ZNK11flatbuffers5Table22GetOptionalFieldOffsetEt>
    42b8:	00000493          	li	s1,0
    42bc:	00050863          	beqz	a0,42cc <_ZN6tflite21AllocationInfoBuilder24GetOfflinePlannedOffsetsEPPKl+0x110>
    42c0:	00a90533          	add	a0,s2,a0
    42c4:	00052483          	lw	s1,0(a0)
    42c8:	009504b3          	add	s1,a0,s1
    42cc:	00600593          	li	a1,6
    42d0:	00040513          	mv	a0,s0
    42d4:	ffffc097          	auipc	ra,0xffffc
    42d8:	020080e7          	jalr	32(ra) # 2f4 <_ZNK11flatbuffers5Table22GetOptionalFieldOffsetEt>
    42dc:	00000793          	li	a5,0
    42e0:	00050663          	beqz	a0,42ec <_ZN6tflite21AllocationInfoBuilder24GetOfflinePlannedOffsetsEPPKl+0x130>
    42e4:	00a40433          	add	s0,s0,a0
    42e8:	00042783          	lw	a5,0(s0)
    42ec:	0004a703          	lw	a4,0(s1)
    42f0:	02e7e463          	bltu	a5,a4,4318 <_ZN6tflite21AllocationInfoBuilder24GetOfflinePlannedOffsetsEPPKl+0x15c>
    42f4:	80045697          	auipc	a3,0x80045
    42f8:	80047617          	auipc	a2,0x80047
    42fc:	80045517          	auipc	a0,0x80045
    4300:	69068693          	addi	a3,a3,1680 # 80049984 <__stack_top+0xfffd2b34>
    4304:	25060613          	addi	a2,a2,592 # 8004b548 <__stack_top+0xfffd46f8>
    4308:	0c200593          	li	a1,194
    430c:	69450513          	addi	a0,a0,1684 # 80049990 <__stack_top+0xfffd2b40>
    4310:	00002097          	auipc	ra,0x2
    4314:	9b8080e7          	jalr	-1608(ra) # 5cc8 <__assert_func>
    4318:	00279793          	slli	a5,a5,0x2
    431c:	00448493          	addi	s1,s1,4
    4320:	00f484b3          	add	s1,s1,a5
    4324:	0004a503          	lw	a0,0(s1)
    4328:	00400593          	li	a1,4
    432c:	00a484b3          	add	s1,s1,a0
    4330:	00048513          	mv	a0,s1
    4334:	ffffc097          	auipc	ra,0xffffc
    4338:	fc0080e7          	jalr	-64(ra) # 2f4 <_ZNK11flatbuffers5Table22GetOptionalFieldOffsetEt>
    433c:	00000793          	li	a5,0
    4340:	00050863          	beqz	a0,4350 <_ZN6tflite21AllocationInfoBuilder24GetOfflinePlannedOffsetsEPPKl+0x194>
    4344:	00a484b3          	add	s1,s1,a0
    4348:	0004a783          	lw	a5,0(s1)
    434c:	00f487b3          	add	a5,s1,a5
    4350:	00c7a583          	lw	a1,12(a5)
    4354:	018a2603          	lw	a2,24(s4)
    4358:	01078493          	addi	s1,a5,16
    435c:	009b2023          	sw	s1,0(s6)
    4360:	04b60063          	beq	a2,a1,43a0 <_ZN6tflite21AllocationInfoBuilder24GetOfflinePlannedOffsetsEPPKl+0x1e4>
    4364:	80047517          	auipc	a0,0x80047
    4368:	0a050513          	addi	a0,a0,160 # 8004b404 <__stack_top+0xfffd45b4>
    436c:	ffffd097          	auipc	ra,0xffffd
    4370:	264080e7          	jalr	612(ra) # 15d0 <_Z11MicroPrintfPKcz>
    4374:	00100513          	li	a0,1
    4378:	01c12083          	lw	ra,28(sp)
    437c:	01812403          	lw	s0,24(sp)
    4380:	01412483          	lw	s1,20(sp)
    4384:	01012903          	lw	s2,16(sp)
    4388:	00c12983          	lw	s3,12(sp)
    438c:	00812a03          	lw	s4,8(sp)
    4390:	00412a83          	lw	s5,4(sp)
    4394:	00012b03          	lw	s6,0(sp)
    4398:	02010113          	addi	sp,sp,32
    439c:	00008067          	ret
    43a0:	00198993          	addi	s3,s3,1
    43a4:	e75ff06f          	j	4218 <_ZN6tflite21AllocationInfoBuilder24GetOfflinePlannedOffsetsEPPKl+0x5c>
    43a8:	00000513          	li	a0,0
    43ac:	fcdff06f          	j	4378 <_ZN6tflite21AllocationInfoBuilder24GetOfflinePlannedOffsetsEPPKl+0x1bc>

000043b0 <_ZNK11flatbuffers6VectorINS_6OffsetIN6tflite8OperatorEEEmE3GetEm>:
    43b0:	00052783          	lw	a5,0(a0)
    43b4:	02f5e863          	bltu	a1,a5,43e4 <_ZNK11flatbuffers6VectorINS_6OffsetIN6tflite8OperatorEEEmE3GetEm+0x34>
    43b8:	80045697          	auipc	a3,0x80045
    43bc:	80047617          	auipc	a2,0x80047
    43c0:	80045517          	auipc	a0,0x80045
    43c4:	ff010113          	addi	sp,sp,-16
    43c8:	5cc68693          	addi	a3,a3,1484 # 80049984 <__stack_top+0xfffd2b34>
    43cc:	27860613          	addi	a2,a2,632 # 8004b634 <__stack_top+0xfffd47e4>
    43d0:	0c200593          	li	a1,194
    43d4:	5d050513          	addi	a0,a0,1488 # 80049990 <__stack_top+0xfffd2b40>
    43d8:	00112623          	sw	ra,12(sp)
    43dc:	00002097          	auipc	ra,0x2
    43e0:	8ec080e7          	jalr	-1812(ra) # 5cc8 <__assert_func>
    43e4:	00259593          	slli	a1,a1,0x2
    43e8:	00450513          	addi	a0,a0,4
    43ec:	00b50533          	add	a0,a0,a1
    43f0:	00052783          	lw	a5,0(a0)
    43f4:	00f50533          	add	a0,a0,a5
    43f8:	00008067          	ret

000043fc <_ZN11flatbuffers5Table10GetPointerIPKvmEET_t>:
    43fc:	ff010113          	addi	sp,sp,-16
    4400:	00812423          	sw	s0,8(sp)
    4404:	00112623          	sw	ra,12(sp)
    4408:	00050413          	mv	s0,a0
    440c:	ffffc097          	auipc	ra,0xffffc
    4410:	ee8080e7          	jalr	-280(ra) # 2f4 <_ZNK11flatbuffers5Table22GetOptionalFieldOffsetEt>
    4414:	02050063          	beqz	a0,4434 <_ZN11flatbuffers5Table10GetPointerIPKvmEET_t+0x38>
    4418:	00a40533          	add	a0,s0,a0
    441c:	00052783          	lw	a5,0(a0)
    4420:	00f50533          	add	a0,a0,a5
    4424:	00c12083          	lw	ra,12(sp)
    4428:	00812403          	lw	s0,8(sp)
    442c:	01010113          	addi	sp,sp,16
    4430:	00008067          	ret
    4434:	00000513          	li	a0,0
    4438:	fedff06f          	j	4424 <_ZN11flatbuffers5Table10GetPointerIPKvmEET_t+0x28>

0000443c <_ZN6tflite21AllocationInfoBuilder16ValidateSubgraphEPKNS_8SubGraphEP16TfLiteEvalTensor>:
    443c:	fc010113          	addi	sp,sp,-64
    4440:	00058513          	mv	a0,a1
    4444:	02912a23          	sw	s1,52(sp)
    4448:	03212823          	sw	s2,48(sp)
    444c:	03312623          	sw	s3,44(sp)
    4450:	03512223          	sw	s5,36(sp)
    4454:	03612023          	sw	s6,32(sp)
    4458:	01712e23          	sw	s7,28(sp)
    445c:	02112e23          	sw	ra,60(sp)
    4460:	02812c23          	sw	s0,56(sp)
    4464:	03412423          	sw	s4,40(sp)
    4468:	00058913          	mv	s2,a1
    446c:	00060a93          	mv	s5,a2
    4470:	ffffd097          	auipc	ra,0xffffd
    4474:	4e8080e7          	jalr	1256(ra) # 1958 <_ZN6tflite20NumSubgraphOperatorsEPKNS_8SubGraphE>
    4478:	00050993          	mv	s3,a0
    447c:	00000493          	li	s1,0
    4480:	00c00b13          	li	s6,12
    4484:	fff00b93          	li	s7,-1
    4488:	0d348263          	beq	s1,s3,454c <_ZN6tflite21AllocationInfoBuilder16ValidateSubgraphEPKNS_8SubGraphEP16TfLiteEvalTensor+0x110>
    448c:	00090513          	mv	a0,s2
    4490:	00000097          	auipc	ra,0x0
    4494:	c74080e7          	jalr	-908(ra) # 4104 <_ZNK6tflite8SubGraph9operatorsEv>
    4498:	00048593          	mv	a1,s1
    449c:	00000097          	auipc	ra,0x0
    44a0:	f14080e7          	jalr	-236(ra) # 43b0 <_ZNK11flatbuffers6VectorINS_6OffsetIN6tflite8OperatorEEEmE3GetEm>
    44a4:	00050a13          	mv	s4,a0
    44a8:	00000413          	li	s0,0
    44ac:	01400593          	li	a1,20
    44b0:	000a0513          	mv	a0,s4
    44b4:	ffffc097          	auipc	ra,0xffffc
    44b8:	094080e7          	jalr	148(ra) # 548 <_ZN11flatbuffers5Table10GetPointerIPKNS_6VectorIlmEEmEET_t>
    44bc:	06050063          	beqz	a0,451c <_ZN6tflite21AllocationInfoBuilder16ValidateSubgraphEPKNS_8SubGraphEP16TfLiteEvalTensor+0xe0>
    44c0:	00052783          	lw	a5,0(a0)
    44c4:	04f47c63          	bgeu	s0,a5,451c <_ZN6tflite21AllocationInfoBuilder16ValidateSubgraphEPKNS_8SubGraphEP16TfLiteEvalTensor+0xe0>
    44c8:	00040593          	mv	a1,s0
    44cc:	ffffc097          	auipc	ra,0xffffc
    44d0:	fec080e7          	jalr	-20(ra) # 4b8 <_ZNK11flatbuffers6VectorIlmE3GetEm>
    44d4:	03650533          	mul	a0,a0,s6
    44d8:	00c10593          	addi	a1,sp,12
    44dc:	01712623          	sw	s7,12(sp)
    44e0:	00aa8533          	add	a0,s5,a0
    44e4:	ffffd097          	auipc	ra,0xffffd
    44e8:	6b4080e7          	jalr	1716(ra) # 1b98 <_ZN6tflite26TfLiteEvalTensorByteLengthEPK16TfLiteEvalTensorPj>
    44ec:	02050c63          	beqz	a0,4524 <_ZN6tflite21AllocationInfoBuilder16ValidateSubgraphEPKNS_8SubGraphEP16TfLiteEvalTensor+0xe8>
    44f0:	03c12083          	lw	ra,60(sp)
    44f4:	03812403          	lw	s0,56(sp)
    44f8:	03412483          	lw	s1,52(sp)
    44fc:	03012903          	lw	s2,48(sp)
    4500:	02c12983          	lw	s3,44(sp)
    4504:	02812a03          	lw	s4,40(sp)
    4508:	02412a83          	lw	s5,36(sp)
    450c:	02012b03          	lw	s6,32(sp)
    4510:	01c12b83          	lw	s7,28(sp)
    4514:	04010113          	addi	sp,sp,64
    4518:	00008067          	ret
    451c:	00148493          	addi	s1,s1,1
    4520:	f69ff06f          	j	4488 <_ZN6tflite21AllocationInfoBuilder16ValidateSubgraphEPKNS_8SubGraphEP16TfLiteEvalTensor+0x4c>
    4524:	00c12583          	lw	a1,12(sp)
    4528:	00058e63          	beqz	a1,4544 <_ZN6tflite21AllocationInfoBuilder16ValidateSubgraphEPKNS_8SubGraphEP16TfLiteEvalTensor+0x108>
    452c:	80047517          	auipc	a0,0x80047
    4530:	e5850513          	addi	a0,a0,-424 # 8004b384 <__stack_top+0xfffd4534>
    4534:	ffffd097          	auipc	ra,0xffffd
    4538:	09c080e7          	jalr	156(ra) # 15d0 <_Z11MicroPrintfPKcz>
    453c:	00100513          	li	a0,1
    4540:	fb1ff06f          	j	44f0 <_ZN6tflite21AllocationInfoBuilder16ValidateSubgraphEPKNS_8SubGraphEP16TfLiteEvalTensor+0xb4>
    4544:	00140413          	addi	s0,s0,1
    4548:	f65ff06f          	j	44ac <_ZN6tflite21AllocationInfoBuilder16ValidateSubgraphEPKNS_8SubGraphEP16TfLiteEvalTensor+0x70>
    454c:	00000513          	li	a0,0
    4550:	fa1ff06f          	j	44f0 <_ZN6tflite21AllocationInfoBuilder16ValidateSubgraphEPKNS_8SubGraphEP16TfLiteEvalTensor+0xb4>

00004554 <_ZN6tflite21AllocationInfoBuilder23MarkAllocationLifetimesEiPNS_8internal20ScratchBufferRequestEPNS_19ScratchBufferHandleEPNS_19SubgraphAllocationsE>:
    4554:	fb010113          	addi	sp,sp,-80
    4558:	04812423          	sw	s0,72(sp)
    455c:	00050413          	mv	s0,a0
    4560:	00052503          	lw	a0,0(a0)
    4564:	03612823          	sw	s6,48(sp)
    4568:	00058b13          	mv	s6,a1
    456c:	00800593          	li	a1,8
    4570:	04112623          	sw	ra,76(sp)
    4574:	00e12223          	sw	a4,4(sp)
    4578:	04912223          	sw	s1,68(sp)
    457c:	03312e23          	sw	s3,60(sp)
    4580:	03412c23          	sw	s4,56(sp)
    4584:	03512a23          	sw	s5,52(sp)
    4588:	03712623          	sw	s7,44(sp)
    458c:	03812423          	sw	s8,40(sp)
    4590:	00060b93          	mv	s7,a2
    4594:	00068c13          	mv	s8,a3
    4598:	03a12023          	sw	s10,32(sp)
    459c:	05212023          	sw	s2,64(sp)
    45a0:	03912223          	sw	s9,36(sp)
    45a4:	01b12e23          	sw	s11,28(sp)
    45a8:	ffffc097          	auipc	ra,0xffffc
    45ac:	fe0080e7          	jalr	-32(ra) # 588 <_ZN11flatbuffers5Table10GetPointerIPKNS_6VectorINS_6OffsetIN6tflite8SubGraphEEEmEEmEET_t>
    45b0:	000b0593          	mv	a1,s6
    45b4:	ffffc097          	auipc	ra,0xffffc
    45b8:	f48080e7          	jalr	-184(ra) # 4fc <_ZNK11flatbuffers6VectorINS_6OffsetIN6tflite8SubGraphEEEmE3GetEm>
    45bc:	01042783          	lw	a5,16(s0)
    45c0:	002b1713          	slli	a4,s6,0x2
    45c4:	01800493          	li	s1,24
    45c8:	00e787b3          	add	a5,a5,a4
    45cc:	0007a783          	lw	a5,0(a5)
    45d0:	00842d03          	lw	s10,8(s0)
    45d4:	00050a93          	mv	s5,a0
    45d8:	02f484b3          	mul	s1,s1,a5
    45dc:	ffffd097          	auipc	ra,0xffffd
    45e0:	37c080e7          	jalr	892(ra) # 1958 <_ZN6tflite20NumSubgraphOperatorsEPKNS_8SubGraphE>
    45e4:	00a12023          	sw	a0,0(sp)
    45e8:	00000a13          	li	s4,0
    45ec:	01800993          	li	s3,24
    45f0:	009d04b3          	add	s1,s10,s1
    45f4:	00600593          	li	a1,6
    45f8:	000a8513          	mv	a0,s5
    45fc:	ffffc097          	auipc	ra,0xffffc
    4600:	f4c080e7          	jalr	-180(ra) # 548 <_ZN11flatbuffers5Table10GetPointerIPKNS_6VectorIlmEEmEET_t>
    4604:	04050a63          	beqz	a0,4658 <_ZN6tflite21AllocationInfoBuilder23MarkAllocationLifetimesEiPNS_8internal20ScratchBufferRequestEPNS_19ScratchBufferHandleEPNS_19SubgraphAllocationsE+0x104>
    4608:	00052783          	lw	a5,0(a0)
    460c:	04fa7663          	bgeu	s4,a5,4658 <_ZN6tflite21AllocationInfoBuilder23MarkAllocationLifetimesEiPNS_8internal20ScratchBufferRequestEPNS_19ScratchBufferHandleEPNS_19SubgraphAllocationsE+0x104>
    4610:	000a0593          	mv	a1,s4
    4614:	ffffc097          	auipc	ra,0xffffc
    4618:	ea4080e7          	jalr	-348(ra) # 4b8 <_ZNK11flatbuffers6VectorIlmE3GetEm>
    461c:	03350533          	mul	a0,a0,s3
    4620:	02042603          	lw	a2,32(s0)
    4624:	00a48933          	add	s2,s1,a0
    4628:	00090593          	mv	a1,s2
    462c:	00040513          	mv	a0,s0
    4630:	00000097          	auipc	ra,0x0
    4634:	b18080e7          	jalr	-1256(ra) # 4148 <_ZN6tflite21AllocationInfoBuilder18UpdateFirstCreatedEPNS_14AllocationInfoEi>
    4638:	02042783          	lw	a5,32(s0)
    463c:	00c92703          	lw	a4,12(s2)
    4640:	00e7d663          	bge	a5,a4,464c <_ZN6tflite21AllocationInfoBuilder23MarkAllocationLifetimesEiPNS_8internal20ScratchBufferRequestEPNS_19ScratchBufferHandleEPNS_19SubgraphAllocationsE+0xf8>
    4644:	ffffc097          	auipc	ra,0xffffc
    4648:	024080e7          	jalr	36(ra) # 668 <_Z9AbortImplv>
    464c:	00f92623          	sw	a5,12(s2)
    4650:	001a0a13          	addi	s4,s4,1
    4654:	fa1ff06f          	j	45f4 <_ZN6tflite21AllocationInfoBuilder23MarkAllocationLifetimesEiPNS_8internal20ScratchBufferRequestEPNS_19ScratchBufferHandleEPNS_19SubgraphAllocationsE+0xa0>
    4658:	00000913          	li	s2,0
    465c:	01800993          	li	s3,24
    4660:	00012783          	lw	a5,0(sp)
    4664:	1cf90063          	beq	s2,a5,4824 <_ZN6tflite21AllocationInfoBuilder23MarkAllocationLifetimesEiPNS_8internal20ScratchBufferRequestEPNS_19ScratchBufferHandleEPNS_19SubgraphAllocationsE+0x2d0>
    4668:	02042783          	lw	a5,32(s0)
    466c:	000a8513          	mv	a0,s5
    4670:	00000d93          	li	s11,0
    4674:	00178793          	addi	a5,a5,1
    4678:	02f42023          	sw	a5,32(s0)
    467c:	00000097          	auipc	ra,0x0
    4680:	a88080e7          	jalr	-1400(ra) # 4104 <_ZNK6tflite8SubGraph9operatorsEv>
    4684:	00090593          	mv	a1,s2
    4688:	00000097          	auipc	ra,0x0
    468c:	d28080e7          	jalr	-728(ra) # 43b0 <_ZNK11flatbuffers6VectorINS_6OffsetIN6tflite8OperatorEEEmE3GetEm>
    4690:	00050a13          	mv	s4,a0
    4694:	00800593          	li	a1,8
    4698:	000a0513          	mv	a0,s4
    469c:	ffffc097          	auipc	ra,0xffffc
    46a0:	eac080e7          	jalr	-340(ra) # 548 <_ZN11flatbuffers5Table10GetPointerIPKNS_6VectorIlmEEmEET_t>
    46a4:	02042c83          	lw	s9,32(s0)
    46a8:	00050663          	beqz	a0,46b4 <_ZN6tflite21AllocationInfoBuilder23MarkAllocationLifetimesEiPNS_8internal20ScratchBufferRequestEPNS_19ScratchBufferHandleEPNS_19SubgraphAllocationsE+0x160>
    46ac:	00052703          	lw	a4,0(a0)
    46b0:	06ede863          	bltu	s11,a4,4720 <_ZN6tflite21AllocationInfoBuilder23MarkAllocationLifetimesEiPNS_8internal20ScratchBufferRequestEPNS_19ScratchBufferHandleEPNS_19SubgraphAllocationsE+0x1cc>
    46b4:	00412703          	lw	a4,4(sp)
    46b8:	000c0693          	mv	a3,s8
    46bc:	000b8613          	mv	a2,s7
    46c0:	000a0593          	mv	a1,s4
    46c4:	00040513          	mv	a0,s0
    46c8:	00000097          	auipc	ra,0x0
    46cc:	200080e7          	jalr	512(ra) # 48c8 <_ZN6tflite21AllocationInfoBuilder32MarkSubgraphLifetimesIfNecessaryEPKNS_8OperatorEPNS_8internal20ScratchBufferRequestEPNS_19ScratchBufferHandleEPNS_19SubgraphAllocationsE>
    46d0:	00000d93          	li	s11,0
    46d4:	00600593          	li	a1,6
    46d8:	000a0513          	mv	a0,s4
    46dc:	ffffc097          	auipc	ra,0xffffc
    46e0:	e6c080e7          	jalr	-404(ra) # 548 <_ZN11flatbuffers5Table10GetPointerIPKNS_6VectorIlmEEmEET_t>
    46e4:	06050463          	beqz	a0,474c <_ZN6tflite21AllocationInfoBuilder23MarkAllocationLifetimesEiPNS_8internal20ScratchBufferRequestEPNS_19ScratchBufferHandleEPNS_19SubgraphAllocationsE+0x1f8>
    46e8:	00052703          	lw	a4,0(a0)
    46ec:	06edf063          	bgeu	s11,a4,474c <_ZN6tflite21AllocationInfoBuilder23MarkAllocationLifetimesEiPNS_8internal20ScratchBufferRequestEPNS_19ScratchBufferHandleEPNS_19SubgraphAllocationsE+0x1f8>
    46f0:	000d8593          	mv	a1,s11
    46f4:	ffffc097          	auipc	ra,0xffffc
    46f8:	dc4080e7          	jalr	-572(ra) # 4b8 <_ZNK11flatbuffers6VectorIlmE3GetEm>
    46fc:	00054e63          	bltz	a0,4718 <_ZN6tflite21AllocationInfoBuilder23MarkAllocationLifetimesEiPNS_8internal20ScratchBufferRequestEPNS_19ScratchBufferHandleEPNS_19SubgraphAllocationsE+0x1c4>
    4700:	03350533          	mul	a0,a0,s3
    4704:	02042703          	lw	a4,32(s0)
    4708:	00a48533          	add	a0,s1,a0
    470c:	00c52683          	lw	a3,12(a0)
    4710:	f2d74ae3          	blt	a4,a3,4644 <_ZN6tflite21AllocationInfoBuilder23MarkAllocationLifetimesEiPNS_8internal20ScratchBufferRequestEPNS_19ScratchBufferHandleEPNS_19SubgraphAllocationsE+0xf0>
    4714:	00e52623          	sw	a4,12(a0)
    4718:	001d8d93          	addi	s11,s11,1
    471c:	fb9ff06f          	j	46d4 <_ZN6tflite21AllocationInfoBuilder23MarkAllocationLifetimesEiPNS_8internal20ScratchBufferRequestEPNS_19ScratchBufferHandleEPNS_19SubgraphAllocationsE+0x180>
    4720:	000d8593          	mv	a1,s11
    4724:	ffffc097          	auipc	ra,0xffffc
    4728:	d94080e7          	jalr	-620(ra) # 4b8 <_ZNK11flatbuffers6VectorIlmE3GetEm>
    472c:	033505b3          	mul	a1,a0,s3
    4730:	000c8613          	mv	a2,s9
    4734:	00040513          	mv	a0,s0
    4738:	001d8d93          	addi	s11,s11,1
    473c:	00b485b3          	add	a1,s1,a1
    4740:	00000097          	auipc	ra,0x0
    4744:	a08080e7          	jalr	-1528(ra) # 4148 <_ZN6tflite21AllocationInfoBuilder18UpdateFirstCreatedEPNS_14AllocationInfoEi>
    4748:	f4dff06f          	j	4694 <_ZN6tflite21AllocationInfoBuilder23MarkAllocationLifetimesEiPNS_8internal20ScratchBufferRequestEPNS_19ScratchBufferHandleEPNS_19SubgraphAllocationsE+0x140>
    474c:	00000d93          	li	s11,0
    4750:	00800593          	li	a1,8
    4754:	000a0513          	mv	a0,s4
    4758:	ffffc097          	auipc	ra,0xffffc
    475c:	df0080e7          	jalr	-528(ra) # 548 <_ZN11flatbuffers5Table10GetPointerIPKNS_6VectorIlmEEmEET_t>
    4760:	00050663          	beqz	a0,476c <_ZN6tflite21AllocationInfoBuilder23MarkAllocationLifetimesEiPNS_8internal20ScratchBufferRequestEPNS_19ScratchBufferHandleEPNS_19SubgraphAllocationsE+0x218>
    4764:	00052703          	lw	a4,0(a0)
    4768:	08ede463          	bltu	s11,a4,47f0 <_ZN6tflite21AllocationInfoBuilder23MarkAllocationLifetimesEiPNS_8internal20ScratchBufferRequestEPNS_19ScratchBufferHandleEPNS_19SubgraphAllocationsE+0x29c>
    476c:	01442a03          	lw	s4,20(s0)
    4770:	000b8793          	mv	a5,s7
    4774:	00000713          	li	a4,0
    4778:	03498a33          	mul	s4,s3,s4
    477c:	014d0a33          	add	s4,s10,s4
    4780:	01c42683          	lw	a3,28(s0)
    4784:	08d77c63          	bgeu	a4,a3,481c <_ZN6tflite21AllocationInfoBuilder23MarkAllocationLifetimesEiPNS_8internal20ScratchBufferRequestEPNS_19ScratchBufferHandleEPNS_19SubgraphAllocationsE+0x2c8>
    4788:	0047a683          	lw	a3,4(a5)
    478c:	04d91a63          	bne	s2,a3,47e0 <_ZN6tflite21AllocationInfoBuilder23MarkAllocationLifetimesEiPNS_8internal20ScratchBufferRequestEPNS_19ScratchBufferHandleEPNS_19SubgraphAllocationsE+0x28c>
    4790:	0087a683          	lw	a3,8(a5)
    4794:	05669663          	bne	a3,s6,47e0 <_ZN6tflite21AllocationInfoBuilder23MarkAllocationLifetimesEiPNS_8internal20ScratchBufferRequestEPNS_19ScratchBufferHandleEPNS_19SubgraphAllocationsE+0x28c>
    4798:	0007a603          	lw	a2,0(a5)
    479c:	00271693          	slli	a3,a4,0x2
    47a0:	00dc06b3          	add	a3,s8,a3
    47a4:	00da2223          	sw	a3,4(s4)
    47a8:	00ca2023          	sw	a2,0(s4)
    47ac:	000a0593          	mv	a1,s4
    47b0:	000c8613          	mv	a2,s9
    47b4:	00040513          	mv	a0,s0
    47b8:	00f12623          	sw	a5,12(sp)
    47bc:	00e12423          	sw	a4,8(sp)
    47c0:	00000097          	auipc	ra,0x0
    47c4:	988080e7          	jalr	-1656(ra) # 4148 <_ZN6tflite21AllocationInfoBuilder18UpdateFirstCreatedEPNS_14AllocationInfoEi>
    47c8:	02042683          	lw	a3,32(s0)
    47cc:	00ca2603          	lw	a2,12(s4)
    47d0:	e6c6cae3          	blt	a3,a2,4644 <_ZN6tflite21AllocationInfoBuilder23MarkAllocationLifetimesEiPNS_8internal20ScratchBufferRequestEPNS_19ScratchBufferHandleEPNS_19SubgraphAllocationsE+0xf0>
    47d4:	00c12783          	lw	a5,12(sp)
    47d8:	00812703          	lw	a4,8(sp)
    47dc:	00da2623          	sw	a3,12(s4)
    47e0:	00170713          	addi	a4,a4,1
    47e4:	018a0a13          	addi	s4,s4,24
    47e8:	00c78793          	addi	a5,a5,12
    47ec:	f95ff06f          	j	4780 <_ZN6tflite21AllocationInfoBuilder23MarkAllocationLifetimesEiPNS_8internal20ScratchBufferRequestEPNS_19ScratchBufferHandleEPNS_19SubgraphAllocationsE+0x22c>
    47f0:	000d8593          	mv	a1,s11
    47f4:	ffffc097          	auipc	ra,0xffffc
    47f8:	cc4080e7          	jalr	-828(ra) # 4b8 <_ZNK11flatbuffers6VectorIlmE3GetEm>
    47fc:	03350533          	mul	a0,a0,s3
    4800:	02042703          	lw	a4,32(s0)
    4804:	00a48533          	add	a0,s1,a0
    4808:	00c52683          	lw	a3,12(a0)
    480c:	e2d74ce3          	blt	a4,a3,4644 <_ZN6tflite21AllocationInfoBuilder23MarkAllocationLifetimesEiPNS_8internal20ScratchBufferRequestEPNS_19ScratchBufferHandleEPNS_19SubgraphAllocationsE+0xf0>
    4810:	00e52623          	sw	a4,12(a0)
    4814:	001d8d93          	addi	s11,s11,1
    4818:	f39ff06f          	j	4750 <_ZN6tflite21AllocationInfoBuilder23MarkAllocationLifetimesEiPNS_8internal20ScratchBufferRequestEPNS_19ScratchBufferHandleEPNS_19SubgraphAllocationsE+0x1fc>
    481c:	00190913          	addi	s2,s2,1
    4820:	e41ff06f          	j	4660 <_ZN6tflite21AllocationInfoBuilder23MarkAllocationLifetimesEiPNS_8internal20ScratchBufferRequestEPNS_19ScratchBufferHandleEPNS_19SubgraphAllocationsE+0x10c>
    4824:	00000993          	li	s3,0
    4828:	01800a13          	li	s4,24
    482c:	00800593          	li	a1,8
    4830:	000a8513          	mv	a0,s5
    4834:	ffffc097          	auipc	ra,0xffffc
    4838:	d14080e7          	jalr	-748(ra) # 548 <_ZN11flatbuffers5Table10GetPointerIPKNS_6VectorIlmEEmEET_t>
    483c:	04050663          	beqz	a0,4888 <_ZN6tflite21AllocationInfoBuilder23MarkAllocationLifetimesEiPNS_8internal20ScratchBufferRequestEPNS_19ScratchBufferHandleEPNS_19SubgraphAllocationsE+0x334>
    4840:	00052783          	lw	a5,0(a0)
    4844:	04f9f263          	bgeu	s3,a5,4888 <_ZN6tflite21AllocationInfoBuilder23MarkAllocationLifetimesEiPNS_8internal20ScratchBufferRequestEPNS_19ScratchBufferHandleEPNS_19SubgraphAllocationsE+0x334>
    4848:	00098593          	mv	a1,s3
    484c:	ffffc097          	auipc	ra,0xffffc
    4850:	c6c080e7          	jalr	-916(ra) # 4b8 <_ZNK11flatbuffers6VectorIlmE3GetEm>
    4854:	03450533          	mul	a0,a0,s4
    4858:	02042603          	lw	a2,32(s0)
    485c:	00a48933          	add	s2,s1,a0
    4860:	00090593          	mv	a1,s2
    4864:	00040513          	mv	a0,s0
    4868:	00000097          	auipc	ra,0x0
    486c:	8e0080e7          	jalr	-1824(ra) # 4148 <_ZN6tflite21AllocationInfoBuilder18UpdateFirstCreatedEPNS_14AllocationInfoEi>
    4870:	02042783          	lw	a5,32(s0)
    4874:	00c92703          	lw	a4,12(s2)
    4878:	dce7c6e3          	blt	a5,a4,4644 <_ZN6tflite21AllocationInfoBuilder23MarkAllocationLifetimesEiPNS_8internal20ScratchBufferRequestEPNS_19ScratchBufferHandleEPNS_19SubgraphAllocationsE+0xf0>
    487c:	00f92623          	sw	a5,12(s2)
    4880:	00198993          	addi	s3,s3,1
    4884:	fa9ff06f          	j	482c <_ZN6tflite21AllocationInfoBuilder23MarkAllocationLifetimesEiPNS_8internal20ScratchBufferRequestEPNS_19ScratchBufferHandleEPNS_19SubgraphAllocationsE+0x2d8>
    4888:	04c12083          	lw	ra,76(sp)
    488c:	04812403          	lw	s0,72(sp)
    4890:	04412483          	lw	s1,68(sp)
    4894:	04012903          	lw	s2,64(sp)
    4898:	03c12983          	lw	s3,60(sp)
    489c:	03812a03          	lw	s4,56(sp)
    48a0:	03412a83          	lw	s5,52(sp)
    48a4:	03012b03          	lw	s6,48(sp)
    48a8:	02c12b83          	lw	s7,44(sp)
    48ac:	02812c03          	lw	s8,40(sp)
    48b0:	02412c83          	lw	s9,36(sp)
    48b4:	02012d03          	lw	s10,32(sp)
    48b8:	01c12d83          	lw	s11,28(sp)
    48bc:	00000513          	li	a0,0
    48c0:	05010113          	addi	sp,sp,80
    48c4:	00008067          	ret

000048c8 <_ZN6tflite21AllocationInfoBuilder32MarkSubgraphLifetimesIfNecessaryEPKNS_8OperatorEPNS_8internal20ScratchBufferRequestEPNS_19ScratchBufferHandleEPNS_19SubgraphAllocationsE>:
    48c8:	fe010113          	addi	sp,sp,-32
    48cc:	01612023          	sw	s6,0(sp)
    48d0:	00052b03          	lw	s6,0(a0)
    48d4:	00912a23          	sw	s1,20(sp)
    48d8:	01212823          	sw	s2,16(sp)
    48dc:	00058493          	mv	s1,a1
    48e0:	00050913          	mv	s2,a0
    48e4:	00600593          	li	a1,6
    48e8:	000b0513          	mv	a0,s6
    48ec:	00812c23          	sw	s0,24(sp)
    48f0:	01312623          	sw	s3,12(sp)
    48f4:	01412423          	sw	s4,8(sp)
    48f8:	01512223          	sw	s5,4(sp)
    48fc:	00112e23          	sw	ra,28(sp)
    4900:	00060993          	mv	s3,a2
    4904:	00068a13          	mv	s4,a3
    4908:	00070a93          	mv	s5,a4
    490c:	ffffc097          	auipc	ra,0xffffc
    4910:	9e8080e7          	jalr	-1560(ra) # 2f4 <_ZNK11flatbuffers5Table22GetOptionalFieldOffsetEt>
    4914:	00000413          	li	s0,0
    4918:	00050863          	beqz	a0,4928 <_ZN6tflite21AllocationInfoBuilder32MarkSubgraphLifetimesIfNecessaryEPKNS_8OperatorEPNS_8internal20ScratchBufferRequestEPNS_19ScratchBufferHandleEPNS_19SubgraphAllocationsE+0x60>
    491c:	00ab0b33          	add	s6,s6,a0
    4920:	000b2403          	lw	s0,0(s6)
    4924:	008b0433          	add	s0,s6,s0
    4928:	00400593          	li	a1,4
    492c:	00048513          	mv	a0,s1
    4930:	ffffc097          	auipc	ra,0xffffc
    4934:	9c4080e7          	jalr	-1596(ra) # 2f4 <_ZNK11flatbuffers5Table22GetOptionalFieldOffsetEt>
    4938:	00000793          	li	a5,0
    493c:	00050663          	beqz	a0,4948 <_ZN6tflite21AllocationInfoBuilder32MarkSubgraphLifetimesIfNecessaryEPKNS_8OperatorEPNS_8internal20ScratchBufferRequestEPNS_19ScratchBufferHandleEPNS_19SubgraphAllocationsE+0x80>
    4940:	00a48533          	add	a0,s1,a0
    4944:	00052783          	lw	a5,0(a0)
    4948:	00042703          	lw	a4,0(s0)
    494c:	02e7e463          	bltu	a5,a4,4974 <_ZN6tflite21AllocationInfoBuilder32MarkSubgraphLifetimesIfNecessaryEPKNS_8OperatorEPNS_8internal20ScratchBufferRequestEPNS_19ScratchBufferHandleEPNS_19SubgraphAllocationsE+0xac>
    4950:	80045697          	auipc	a3,0x80045
    4954:	80047617          	auipc	a2,0x80047
    4958:	80045517          	auipc	a0,0x80045
    495c:	03468693          	addi	a3,a3,52 # 80049984 <__stack_top+0xfffd2b34>
    4960:	afc60613          	addi	a2,a2,-1284 # 8004b450 <__stack_top+0xfffd4600>
    4964:	0c200593          	li	a1,194
    4968:	03850513          	addi	a0,a0,56 # 80049990 <__stack_top+0xfffd2b40>
    496c:	00001097          	auipc	ra,0x1
    4970:	35c080e7          	jalr	860(ra) # 5cc8 <__assert_func>
    4974:	00279793          	slli	a5,a5,0x2
    4978:	00440413          	addi	s0,s0,4
    497c:	00f40433          	add	s0,s0,a5
    4980:	00042503          	lw	a0,0(s0)
    4984:	00000613          	li	a2,0
    4988:	00a00593          	li	a1,10
    498c:	00a40533          	add	a0,s0,a0
    4990:	ffffd097          	auipc	ra,0xffffd
    4994:	e9c080e7          	jalr	-356(ra) # 182c <_ZNK11flatbuffers5Table8GetFieldIlEET_tS2_>
    4998:	07700713          	li	a4,119
    499c:	00050793          	mv	a5,a0
    49a0:	16e50a63          	beq	a0,a4,4b14 <_ZN6tflite21AllocationInfoBuilder32MarkSubgraphLifetimesIfNecessaryEPKNS_8OperatorEPNS_8internal20ScratchBufferRequestEPNS_19ScratchBufferHandleEPNS_19SubgraphAllocationsE+0x24c>
    49a4:	08100713          	li	a4,129
    49a8:	0ee50a63          	beq	a0,a4,4a9c <_ZN6tflite21AllocationInfoBuilder32MarkSubgraphLifetimesIfNecessaryEPKNS_8OperatorEPNS_8internal20ScratchBufferRequestEPNS_19ScratchBufferHandleEPNS_19SubgraphAllocationsE+0x1d4>
    49ac:	07600713          	li	a4,118
    49b0:	00000513          	li	a0,0
    49b4:	12e79c63          	bne	a5,a4,4aec <_ZN6tflite21AllocationInfoBuilder32MarkSubgraphLifetimesIfNecessaryEPKNS_8OperatorEPNS_8internal20ScratchBufferRequestEPNS_19ScratchBufferHandleEPNS_19SubgraphAllocationsE+0x224>
    49b8:	00048513          	mv	a0,s1
    49bc:	ffffd097          	auipc	ra,0xffffd
    49c0:	ef0080e7          	jalr	-272(ra) # 18ac <_ZNK6tflite8Operator20builtin_options_typeEv>
    49c4:	05c00793          	li	a5,92
    49c8:	00000413          	li	s0,0
    49cc:	00f51c63          	bne	a0,a5,49e4 <_ZN6tflite21AllocationInfoBuilder32MarkSubgraphLifetimesIfNecessaryEPKNS_8OperatorEPNS_8internal20ScratchBufferRequestEPNS_19ScratchBufferHandleEPNS_19SubgraphAllocationsE+0x11c>
    49d0:	00c00593          	li	a1,12
    49d4:	00048513          	mv	a0,s1
    49d8:	00000097          	auipc	ra,0x0
    49dc:	a24080e7          	jalr	-1500(ra) # 43fc <_ZN11flatbuffers5Table10GetPointerIPKvmEET_t>
    49e0:	00050413          	mv	s0,a0
    49e4:	00000613          	li	a2,0
    49e8:	00400593          	li	a1,4
    49ec:	00040513          	mv	a0,s0
    49f0:	ffffd097          	auipc	ra,0xffffd
    49f4:	e3c080e7          	jalr	-452(ra) # 182c <_ZNK11flatbuffers5Table8GetFieldIlEET_tS2_>
    49f8:	00050493          	mv	s1,a0
    49fc:	00000613          	li	a2,0
    4a00:	00040513          	mv	a0,s0
    4a04:	00600593          	li	a1,6
    4a08:	ffffd097          	auipc	ra,0xffffd
    4a0c:	e24080e7          	jalr	-476(ra) # 182c <_ZNK11flatbuffers5Table8GetFieldIlEET_tS2_>
    4a10:	fff00793          	li	a5,-1
    4a14:	00050413          	mv	s0,a0
    4a18:	02f48863          	beq	s1,a5,4a48 <_ZN6tflite21AllocationInfoBuilder32MarkSubgraphLifetimesIfNecessaryEPKNS_8OperatorEPNS_8internal20ScratchBufferRequestEPNS_19ScratchBufferHandleEPNS_19SubgraphAllocationsE+0x180>
    4a1c:	02092783          	lw	a5,32(s2)
    4a20:	000a8713          	mv	a4,s5
    4a24:	000a0693          	mv	a3,s4
    4a28:	00178793          	addi	a5,a5,1
    4a2c:	02f92023          	sw	a5,32(s2)
    4a30:	00098613          	mv	a2,s3
    4a34:	00048593          	mv	a1,s1
    4a38:	00090513          	mv	a0,s2
    4a3c:	00000097          	auipc	ra,0x0
    4a40:	b18080e7          	jalr	-1256(ra) # 4554 <_ZN6tflite21AllocationInfoBuilder23MarkAllocationLifetimesEiPNS_8internal20ScratchBufferRequestEPNS_19ScratchBufferHandleEPNS_19SubgraphAllocationsE>
    4a44:	0a051463          	bnez	a0,4aec <_ZN6tflite21AllocationInfoBuilder32MarkSubgraphLifetimesIfNecessaryEPKNS_8OperatorEPNS_8internal20ScratchBufferRequestEPNS_19ScratchBufferHandleEPNS_19SubgraphAllocationsE+0x224>
    4a48:	fff00793          	li	a5,-1
    4a4c:	08f40e63          	beq	s0,a5,4ae8 <_ZN6tflite21AllocationInfoBuilder32MarkSubgraphLifetimesIfNecessaryEPKNS_8OperatorEPNS_8internal20ScratchBufferRequestEPNS_19ScratchBufferHandleEPNS_19SubgraphAllocationsE+0x220>
    4a50:	02092783          	lw	a5,32(s2)
    4a54:	00040593          	mv	a1,s0
    4a58:	01812403          	lw	s0,24(sp)
    4a5c:	00178793          	addi	a5,a5,1
    4a60:	02f92023          	sw	a5,32(s2)
    4a64:	01c12083          	lw	ra,28(sp)
    4a68:	01412483          	lw	s1,20(sp)
    4a6c:	00012b03          	lw	s6,0(sp)
    4a70:	000a8713          	mv	a4,s5
    4a74:	000a0693          	mv	a3,s4
    4a78:	00412a83          	lw	s5,4(sp)
    4a7c:	00812a03          	lw	s4,8(sp)
    4a80:	00098613          	mv	a2,s3
    4a84:	00090513          	mv	a0,s2
    4a88:	00c12983          	lw	s3,12(sp)
    4a8c:	01012903          	lw	s2,16(sp)
    4a90:	02010113          	addi	sp,sp,32
    4a94:	00000317          	auipc	t1,0x0
    4a98:	ac030067          	jr	-1344(t1) # 4554 <_ZN6tflite21AllocationInfoBuilder23MarkAllocationLifetimesEiPNS_8internal20ScratchBufferRequestEPNS_19ScratchBufferHandleEPNS_19SubgraphAllocationsE>
    4a9c:	00048513          	mv	a0,s1
    4aa0:	ffffd097          	auipc	ra,0xffffd
    4aa4:	e0c080e7          	jalr	-500(ra) # 18ac <_ZNK6tflite8Operator20builtin_options_typeEv>
    4aa8:	06700713          	li	a4,103
    4aac:	00000793          	li	a5,0
    4ab0:	00e51c63          	bne	a0,a4,4ac8 <_ZN6tflite21AllocationInfoBuilder32MarkSubgraphLifetimesIfNecessaryEPKNS_8OperatorEPNS_8internal20ScratchBufferRequestEPNS_19ScratchBufferHandleEPNS_19SubgraphAllocationsE+0x200>
    4ab4:	00c00593          	li	a1,12
    4ab8:	00048513          	mv	a0,s1
    4abc:	00000097          	auipc	ra,0x0
    4ac0:	940080e7          	jalr	-1728(ra) # 43fc <_ZN11flatbuffers5Table10GetPointerIPKvmEET_t>
    4ac4:	00050793          	mv	a5,a0
    4ac8:	00000613          	li	a2,0
    4acc:	00400593          	li	a1,4
    4ad0:	00078513          	mv	a0,a5
    4ad4:	ffffd097          	auipc	ra,0xffffd
    4ad8:	d58080e7          	jalr	-680(ra) # 182c <_ZNK11flatbuffers5Table8GetFieldIlEET_tS2_>
    4adc:	fff00413          	li	s0,-1
    4ae0:	00050493          	mv	s1,a0
    4ae4:	f2851ce3          	bne	a0,s0,4a1c <_ZN6tflite21AllocationInfoBuilder32MarkSubgraphLifetimesIfNecessaryEPKNS_8OperatorEPNS_8internal20ScratchBufferRequestEPNS_19ScratchBufferHandleEPNS_19SubgraphAllocationsE+0x154>
    4ae8:	00000513          	li	a0,0
    4aec:	01c12083          	lw	ra,28(sp)
    4af0:	01812403          	lw	s0,24(sp)
    4af4:	01412483          	lw	s1,20(sp)
    4af8:	01012903          	lw	s2,16(sp)
    4afc:	00c12983          	lw	s3,12(sp)
    4b00:	00812a03          	lw	s4,8(sp)
    4b04:	00412a83          	lw	s5,4(sp)
    4b08:	00012b03          	lw	s6,0(sp)
    4b0c:	02010113          	addi	sp,sp,32
    4b10:	00008067          	ret
    4b14:	00048513          	mv	a0,s1
    4b18:	ffffd097          	auipc	ra,0xffffd
    4b1c:	d94080e7          	jalr	-620(ra) # 18ac <_ZNK6tflite8Operator20builtin_options_typeEv>
    4b20:	05d00793          	li	a5,93
    4b24:	ea5ff06f          	j	49c8 <_ZN6tflite21AllocationInfoBuilder32MarkSubgraphLifetimesIfNecessaryEPKNS_8OperatorEPNS_8internal20ScratchBufferRequestEPNS_19ScratchBufferHandleEPNS_19SubgraphAllocationsE+0x100>

00004b28 <_ZN6tflite21AllocationInfoBuilder20CreateAllocationInfoEi>:
    4b28:	fe010113          	addi	sp,sp,-32
    4b2c:	00912a23          	sw	s1,20(sp)
    4b30:	00050493          	mv	s1,a0
    4b34:	00052503          	lw	a0,0(a0)
    4b38:	01412423          	sw	s4,8(sp)
    4b3c:	00058a13          	mv	s4,a1
    4b40:	00800593          	li	a1,8
    4b44:	00112e23          	sw	ra,28(sp)
    4b48:	00812c23          	sw	s0,24(sp)
    4b4c:	01212823          	sw	s2,16(sp)
    4b50:	01312623          	sw	s3,12(sp)
    4b54:	01512223          	sw	s5,4(sp)
    4b58:	ffffc097          	auipc	ra,0xffffc
    4b5c:	a30080e7          	jalr	-1488(ra) # 588 <_ZN11flatbuffers5Table10GetPointerIPKNS_6VectorINS_6OffsetIN6tflite8SubGraphEEEmEEmEET_t>
    4b60:	00052403          	lw	s0,0(a0)
    4b64:	0044a503          	lw	a0,4(s1)
    4b68:	00400613          	li	a2,4
    4b6c:	00241413          	slli	s0,s0,0x2
    4b70:	00052783          	lw	a5,0(a0)
    4b74:	00040593          	mv	a1,s0
    4b78:	0087a783          	lw	a5,8(a5)
    4b7c:	000780e7          	jalr	a5
    4b80:	00a4a823          	sw	a0,16(s1)
    4b84:	06050863          	beqz	a0,4bf4 <_ZN6tflite21AllocationInfoBuilder20CreateAllocationInfoEi+0xcc>
    4b88:	0004aa83          	lw	s5,0(s1)
    4b8c:	00050993          	mv	s3,a0
    4b90:	00000913          	li	s2,0
    4b94:	00000413          	li	s0,0
    4b98:	00800593          	li	a1,8
    4b9c:	000a8513          	mv	a0,s5
    4ba0:	ffffc097          	auipc	ra,0xffffc
    4ba4:	9e8080e7          	jalr	-1560(ra) # 588 <_ZN11flatbuffers5Table10GetPointerIPKNS_6VectorINS_6OffsetIN6tflite8SubGraphEEEmEEmEET_t>
    4ba8:	00052783          	lw	a5,0(a0)
    4bac:	08f97463          	bgeu	s2,a5,4c34 <_ZN6tflite21AllocationInfoBuilder20CreateAllocationInfoEi+0x10c>
    4bb0:	00291793          	slli	a5,s2,0x2
    4bb4:	00f987b3          	add	a5,s3,a5
    4bb8:	0087a023          	sw	s0,0(a5)
    4bbc:	00800593          	li	a1,8
    4bc0:	000a8513          	mv	a0,s5
    4bc4:	ffffc097          	auipc	ra,0xffffc
    4bc8:	9c4080e7          	jalr	-1596(ra) # 588 <_ZN11flatbuffers5Table10GetPointerIPKNS_6VectorINS_6OffsetIN6tflite8SubGraphEEEmEEmEET_t>
    4bcc:	00090593          	mv	a1,s2
    4bd0:	ffffc097          	auipc	ra,0xffffc
    4bd4:	92c080e7          	jalr	-1748(ra) # 4fc <_ZNK11flatbuffers6VectorINS_6OffsetIN6tflite8SubGraphEEEmE3GetEm>
    4bd8:	00400593          	li	a1,4
    4bdc:	ffffe097          	auipc	ra,0xffffe
    4be0:	0a8080e7          	jalr	168(ra) # 2c84 <_ZN11flatbuffers5Table10GetPointerIPKNS_6VectorINS_6OffsetIN6tflite6TensorEEEmEEmEET_t>
    4be4:	00052783          	lw	a5,0(a0)
    4be8:	00190913          	addi	s2,s2,1
    4bec:	00f40433          	add	s0,s0,a5
    4bf0:	fa9ff06f          	j	4b98 <_ZN6tflite21AllocationInfoBuilder20CreateAllocationInfoEi+0x70>
    4bf4:	80046517          	auipc	a0,0x80046
    4bf8:	00040593          	mv	a1,s0
    4bfc:	7cc50513          	addi	a0,a0,1996 # 8004b3c0 <__stack_top+0xfffd4570>
    4c00:	ffffd097          	auipc	ra,0xffffd
    4c04:	9d0080e7          	jalr	-1584(ra) # 15d0 <_Z11MicroPrintfPKcz>
    4c08:	00100793          	li	a5,1
    4c0c:	01c12083          	lw	ra,28(sp)
    4c10:	01812403          	lw	s0,24(sp)
    4c14:	01412483          	lw	s1,20(sp)
    4c18:	01012903          	lw	s2,16(sp)
    4c1c:	00c12983          	lw	s3,12(sp)
    4c20:	00812a03          	lw	s4,8(sp)
    4c24:	00412a83          	lw	s5,4(sp)
    4c28:	00078513          	mv	a0,a5
    4c2c:	02010113          	addi	sp,sp,32
    4c30:	00008067          	ret
    4c34:	0084ac23          	sw	s0,24(s1)
    4c38:	0084aa23          	sw	s0,20(s1)
    4c3c:	01800793          	li	a5,24
    4c40:	008a0433          	add	s0,s4,s0
    4c44:	0084a623          	sw	s0,12(s1)
    4c48:	02f40433          	mul	s0,s0,a5
    4c4c:	0044a503          	lw	a0,4(s1)
    4c50:	0144ae23          	sw	s4,28(s1)
    4c54:	00400613          	li	a2,4
    4c58:	00052783          	lw	a5,0(a0)
    4c5c:	0087a783          	lw	a5,8(a5)
    4c60:	00040593          	mv	a1,s0
    4c64:	000780e7          	jalr	a5
    4c68:	00a4a423          	sw	a0,8(s1)
    4c6c:	00000793          	li	a5,0
    4c70:	f8051ee3          	bnez	a0,4c0c <_ZN6tflite21AllocationInfoBuilder20CreateAllocationInfoEi+0xe4>
    4c74:	80046517          	auipc	a0,0x80046
    4c78:	00040593          	mv	a1,s0
    4c7c:	74c50513          	addi	a0,a0,1868 # 8004b3c0 <__stack_top+0xfffd4570>
    4c80:	f81ff06f          	j	4c00 <_ZN6tflite21AllocationInfoBuilder20CreateAllocationInfoEi+0xd8>

00004c84 <_ZN6tflite21AllocationInfoBuilder24InitializeAllocationInfoEPKlPNS_19SubgraphAllocationsE>:
    4c84:	fb010113          	addi	sp,sp,-80
    4c88:	04812423          	sw	s0,72(sp)
    4c8c:	00852403          	lw	s0,8(a0)
    4c90:	04912223          	sw	s1,68(sp)
    4c94:	03312e23          	sw	s3,60(sp)
    4c98:	03412c23          	sw	s4,56(sp)
    4c9c:	03612823          	sw	s6,48(sp)
    4ca0:	03812423          	sw	s8,40(sp)
    4ca4:	03912223          	sw	s9,36(sp)
    4ca8:	01b12e23          	sw	s11,28(sp)
    4cac:	04112623          	sw	ra,76(sp)
    4cb0:	05212023          	sw	s2,64(sp)
    4cb4:	03512a23          	sw	s5,52(sp)
    4cb8:	03712623          	sw	s7,44(sp)
    4cbc:	03a12023          	sw	s10,32(sp)
    4cc0:	00050993          	mv	s3,a0
    4cc4:	00058c93          	mv	s9,a1
    4cc8:	00460c13          	addi	s8,a2,4
    4ccc:	00000a13          	li	s4,0
    4cd0:	00000493          	li	s1,0
    4cd4:	fff00b13          	li	s6,-1
    4cd8:	00100d93          	li	s11,1
    4cdc:	0009a503          	lw	a0,0(s3)
    4ce0:	00800593          	li	a1,8
    4ce4:	ffffc097          	auipc	ra,0xffffc
    4ce8:	8a4080e7          	jalr	-1884(ra) # 588 <_ZN11flatbuffers5Table10GetPointerIPKNS_6VectorINS_6OffsetIN6tflite8SubGraphEEEmEEmEET_t>
    4cec:	00052783          	lw	a5,0(a0)
    4cf0:	14fa7663          	bgeu	s4,a5,4e3c <_ZN6tflite21AllocationInfoBuilder24InitializeAllocationInfoEPKlPNS_19SubgraphAllocationsE+0x1b8>
    4cf4:	000a0593          	mv	a1,s4
    4cf8:	ffffc097          	auipc	ra,0xffffc
    4cfc:	804080e7          	jalr	-2044(ra) # 4fc <_ZNK11flatbuffers6VectorINS_6OffsetIN6tflite8SubGraphEEEmE3GetEm>
    4d00:	0109a783          	lw	a5,16(s3)
    4d04:	000c2903          	lw	s2,0(s8)
    4d08:	002a1713          	slli	a4,s4,0x2
    4d0c:	00050b93          	mv	s7,a0
    4d10:	00e787b3          	add	a5,a5,a4
    4d14:	00050593          	mv	a1,a0
    4d18:	00090613          	mv	a2,s2
    4d1c:	00098513          	mv	a0,s3
    4d20:	0007aa83          	lw	s5,0(a5)
    4d24:	fffff097          	auipc	ra,0xfffff
    4d28:	718080e7          	jalr	1816(ra) # 443c <_ZN6tflite21AllocationInfoBuilder16ValidateSubgraphEPKNS_8SubGraphEP16TfLiteEvalTensor>
    4d2c:	14051a63          	bnez	a0,4e80 <_ZN6tflite21AllocationInfoBuilder24InitializeAllocationInfoEPKlPNS_19SubgraphAllocationsE+0x1fc>
    4d30:	01800793          	li	a5,24
    4d34:	02fa87b3          	mul	a5,s5,a5
    4d38:	00000a93          	li	s5,0
    4d3c:	00f40d33          	add	s10,s0,a5
    4d40:	00400593          	li	a1,4
    4d44:	000b8513          	mv	a0,s7
    4d48:	ffffe097          	auipc	ra,0xffffe
    4d4c:	f3c080e7          	jalr	-196(ra) # 2c84 <_ZN11flatbuffers5Table10GetPointerIPKNS_6VectorINS_6OffsetIN6tflite6TensorEEEmEEmEET_t>
    4d50:	00052703          	lw	a4,0(a0)
    4d54:	0ceafe63          	bgeu	s5,a4,4e30 <_ZN6tflite21AllocationInfoBuilder24InitializeAllocationInfoEPKlPNS_19SubgraphAllocationsE+0x1ac>
    4d58:	012d2223          	sw	s2,4(s10)
    4d5c:	000d0593          	mv	a1,s10
    4d60:	00090513          	mv	a0,s2
    4d64:	ffffd097          	auipc	ra,0xffffd
    4d68:	e34080e7          	jalr	-460(ra) # 1b98 <_ZN6tflite26TfLiteEvalTensorByteLengthEPK16TfLiteEvalTensorPj>
    4d6c:	10051a63          	bnez	a0,4e80 <_ZN6tflite21AllocationInfoBuilder24InitializeAllocationInfoEPKlPNS_19SubgraphAllocationsE+0x1fc>
    4d70:	00092683          	lw	a3,0(s2)
    4d74:	016d2423          	sw	s6,8(s10)
    4d78:	016d2623          	sw	s6,12(s10)
    4d7c:	00000713          	li	a4,0
    4d80:	02069e63          	bnez	a3,4dbc <_ZN6tflite21AllocationInfoBuilder24InitializeAllocationInfoEPKlPNS_19SubgraphAllocationsE+0x138>
    4d84:	00400593          	li	a1,4
    4d88:	000b8513          	mv	a0,s7
    4d8c:	00e12623          	sw	a4,12(sp)
    4d90:	ffffe097          	auipc	ra,0xffffe
    4d94:	ef4080e7          	jalr	-268(ra) # 2c84 <_ZN11flatbuffers5Table10GetPointerIPKNS_6VectorINS_6OffsetIN6tflite6TensorEEEmEEmEET_t>
    4d98:	000a8593          	mv	a1,s5
    4d9c:	ffffc097          	auipc	ra,0xffffc
    4da0:	2f0080e7          	jalr	752(ra) # 108c <_ZNK11flatbuffers6VectorINS_6OffsetIN6tflite6TensorEEEmE3GetEm>
    4da4:	ffffc097          	auipc	ra,0xffffc
    4da8:	00c080e7          	jalr	12(ra) # db0 <_ZNK6tflite6Tensor11is_variableEv>
    4dac:	00c12703          	lw	a4,12(sp)
    4db0:	00051663          	bnez	a0,4dbc <_ZN6tflite21AllocationInfoBuilder24InitializeAllocationInfoEPKlPNS_19SubgraphAllocationsE+0x138>
    4db4:	000d2703          	lw	a4,0(s10)
    4db8:	00e03733          	snez	a4,a4
    4dbc:	00ed0a23          	sb	a4,20(s10)
    4dc0:	060c8263          	beqz	s9,4e24 <_ZN6tflite21AllocationInfoBuilder24InitializeAllocationInfoEPKlPNS_19SubgraphAllocationsE+0x1a0>
    4dc4:	00148713          	addi	a4,s1,1
    4dc8:	00249493          	slli	s1,s1,0x2
    4dcc:	009c84b3          	add	s1,s9,s1
    4dd0:	0004a483          	lw	s1,0(s1)
    4dd4:	00400593          	li	a1,4
    4dd8:	000b8513          	mv	a0,s7
    4ddc:	009d2823          	sw	s1,16(s10)
    4de0:	00e12623          	sw	a4,12(sp)
    4de4:	ffffe097          	auipc	ra,0xffffe
    4de8:	ea0080e7          	jalr	-352(ra) # 2c84 <_ZN11flatbuffers5Table10GetPointerIPKNS_6VectorINS_6OffsetIN6tflite6TensorEEEmEEmEET_t>
    4dec:	000a8593          	mv	a1,s5
    4df0:	ffffc097          	auipc	ra,0xffffc
    4df4:	29c080e7          	jalr	668(ra) # 108c <_ZNK11flatbuffers6VectorINS_6OffsetIN6tflite6TensorEEEmE3GetEm>
    4df8:	ffffc097          	auipc	ra,0xffffc
    4dfc:	fb8080e7          	jalr	-72(ra) # db0 <_ZNK6tflite6Tensor11is_variableEv>
    4e00:	00c12703          	lw	a4,12(sp)
    4e04:	00050663          	beqz	a0,4e10 <_ZN6tflite21AllocationInfoBuilder24InitializeAllocationInfoEPKlPNS_19SubgraphAllocationsE+0x18c>
    4e08:	01648463          	beq	s1,s6,4e10 <_ZN6tflite21AllocationInfoBuilder24InitializeAllocationInfoEPKlPNS_19SubgraphAllocationsE+0x18c>
    4e0c:	01bd0a23          	sb	s11,20(s10)
    4e10:	001a8a93          	addi	s5,s5,1
    4e14:	018d0d13          	addi	s10,s10,24
    4e18:	00c90913          	addi	s2,s2,12
    4e1c:	00070493          	mv	s1,a4
    4e20:	f21ff06f          	j	4d40 <_ZN6tflite21AllocationInfoBuilder24InitializeAllocationInfoEPKlPNS_19SubgraphAllocationsE+0xbc>
    4e24:	016d2823          	sw	s6,16(s10)
    4e28:	00048713          	mv	a4,s1
    4e2c:	fe5ff06f          	j	4e10 <_ZN6tflite21AllocationInfoBuilder24InitializeAllocationInfoEPKlPNS_19SubgraphAllocationsE+0x18c>
    4e30:	001a0a13          	addi	s4,s4,1
    4e34:	008c0c13          	addi	s8,s8,8
    4e38:	ea5ff06f          	j	4cdc <_ZN6tflite21AllocationInfoBuilder24InitializeAllocationInfoEPKlPNS_19SubgraphAllocationsE+0x58>
    4e3c:	0149a703          	lw	a4,20(s3)
    4e40:	01800793          	li	a5,24
    4e44:	01c9a603          	lw	a2,28(s3)
    4e48:	02e787b3          	mul	a5,a5,a4
    4e4c:	00100693          	li	a3,1
    4e50:	fff00713          	li	a4,-1
    4e54:	00f40433          	add	s0,s0,a5
    4e58:	00000793          	li	a5,0
    4e5c:	01840413          	addi	s0,s0,24
    4e60:	00f60e63          	beq	a2,a5,4e7c <_ZN6tflite21AllocationInfoBuilder24InitializeAllocationInfoEPKlPNS_19SubgraphAllocationsE+0x1f8>
    4e64:	fee42823          	sw	a4,-16(s0)
    4e68:	fee42a23          	sw	a4,-12(s0)
    4e6c:	fed40e23          	sb	a3,-4(s0)
    4e70:	fee42c23          	sw	a4,-8(s0)
    4e74:	00178793          	addi	a5,a5,1
    4e78:	fe5ff06f          	j	4e5c <_ZN6tflite21AllocationInfoBuilder24InitializeAllocationInfoEPKlPNS_19SubgraphAllocationsE+0x1d8>
    4e7c:	00000513          	li	a0,0
    4e80:	04c12083          	lw	ra,76(sp)
    4e84:	04812403          	lw	s0,72(sp)
    4e88:	04412483          	lw	s1,68(sp)
    4e8c:	04012903          	lw	s2,64(sp)
    4e90:	03c12983          	lw	s3,60(sp)
    4e94:	03812a03          	lw	s4,56(sp)
    4e98:	03412a83          	lw	s5,52(sp)
    4e9c:	03012b03          	lw	s6,48(sp)
    4ea0:	02c12b83          	lw	s7,44(sp)
    4ea4:	02812c03          	lw	s8,40(sp)
    4ea8:	02412c83          	lw	s9,36(sp)
    4eac:	02012d03          	lw	s10,32(sp)
    4eb0:	01c12d83          	lw	s11,28(sp)
    4eb4:	05010113          	addi	sp,sp,80
    4eb8:	00008067          	ret

00004ebc <frexp>:
    4ebc:	ff010113          	addi	sp,sp,-16
    4ec0:	00912223          	sw	s1,4(sp)
    4ec4:	800004b7          	lui	s1,0x80000
    4ec8:	00812423          	sw	s0,8(sp)
    4ecc:	00112623          	sw	ra,12(sp)
    4ed0:	fff4c493          	not	s1,s1
    4ed4:	00b4f733          	and	a4,s1,a1
    4ed8:	00062023          	sw	zero,0(a2)
    4edc:	7ff00837          	lui	a6,0x7ff00
    4ee0:	00050693          	mv	a3,a0
    4ee4:	00058793          	mv	a5,a1
    4ee8:	00060413          	mv	s0,a2
    4eec:	07075663          	bge	a4,a6,4f58 <frexp+0x9c>
    4ef0:	00a768b3          	or	a7,a4,a0
    4ef4:	06088263          	beqz	a7,4f58 <frexp+0x9c>
    4ef8:	0105f833          	and	a6,a1,a6
    4efc:	00058613          	mv	a2,a1
    4f00:	02081863          	bnez	a6,4f30 <frexp+0x74>
    4f04:	80047797          	auipc	a5,0x80047
    4f08:	39c78793          	addi	a5,a5,924 # 8004c2a0 <__stack_top+0xfffd5450>
    4f0c:	0007a603          	lw	a2,0(a5)
    4f10:	0047a683          	lw	a3,4(a5)
    4f14:	00000097          	auipc	ra,0x0
    4f18:	7a8080e7          	jalr	1960(ra) # 56bc <__muldf3>
    4f1c:	fca00793          	li	a5,-54
    4f20:	00050693          	mv	a3,a0
    4f24:	00058613          	mv	a2,a1
    4f28:	00b4f733          	and	a4,s1,a1
    4f2c:	00f42023          	sw	a5,0(s0)
    4f30:	00042783          	lw	a5,0(s0)
    4f34:	41475713          	srai	a4,a4,0x14
    4f38:	c0270713          	addi	a4,a4,-1022
    4f3c:	00e78733          	add	a4,a5,a4
    4f40:	801007b7          	lui	a5,0x80100
    4f44:	fff78793          	addi	a5,a5,-1 # 800fffff <__stack_top+0x891af>
    4f48:	00f67633          	and	a2,a2,a5
    4f4c:	3fe007b7          	lui	a5,0x3fe00
    4f50:	00e42023          	sw	a4,0(s0)
    4f54:	00f667b3          	or	a5,a2,a5
    4f58:	00c12083          	lw	ra,12(sp)
    4f5c:	00812403          	lw	s0,8(sp)
    4f60:	00412483          	lw	s1,4(sp)
    4f64:	00068513          	mv	a0,a3
    4f68:	00078593          	mv	a1,a5
    4f6c:	01010113          	addi	sp,sp,16
    4f70:	00008067          	ret

00004f74 <__clzsi2>:
    4f74:	000107b7          	lui	a5,0x10
    4f78:	02f57a63          	bgeu	a0,a5,4fac <__clzsi2+0x38>
    4f7c:	0ff00793          	li	a5,255
    4f80:	00a7b7b3          	sltu	a5,a5,a0
    4f84:	00379793          	slli	a5,a5,0x3
    4f88:	02000713          	li	a4,32
    4f8c:	40f70733          	sub	a4,a4,a5
    4f90:	00f557b3          	srl	a5,a0,a5
    4f94:	80047517          	auipc	a0,0x80047
    4f98:	80850513          	addi	a0,a0,-2040 # 8004b79c <__stack_top+0xfffd494c>
    4f9c:	00f507b3          	add	a5,a0,a5
    4fa0:	0007c503          	lbu	a0,0(a5) # 10000 <_exit+0x20>
    4fa4:	40a70533          	sub	a0,a4,a0
    4fa8:	00008067          	ret
    4fac:	01000737          	lui	a4,0x1000
    4fb0:	01000793          	li	a5,16
    4fb4:	fce56ae3          	bltu	a0,a4,4f88 <__clzsi2+0x14>
    4fb8:	01800793          	li	a5,24
    4fbc:	fcdff06f          	j	4f88 <__clzsi2+0x14>

00004fc0 <__divdf3>:
    4fc0:	fd010113          	addi	sp,sp,-48
    4fc4:	02812423          	sw	s0,40(sp)
    4fc8:	02912223          	sw	s1,36(sp)
    4fcc:	01612823          	sw	s6,16(sp)
    4fd0:	00050413          	mv	s0,a0
    4fd4:	00050b13          	mv	s6,a0
    4fd8:	001004b7          	lui	s1,0x100
    4fdc:	0145d513          	srli	a0,a1,0x14
    4fe0:	03212023          	sw	s2,32(sp)
    4fe4:	01312e23          	sw	s3,28(sp)
    4fe8:	01712623          	sw	s7,12(sp)
    4fec:	fff48493          	addi	s1,s1,-1 # fffff <__trunctfdf2+0xec697>
    4ff0:	02112623          	sw	ra,44(sp)
    4ff4:	01412c23          	sw	s4,24(sp)
    4ff8:	01512a23          	sw	s5,20(sp)
    4ffc:	7ff57513          	andi	a0,a0,2047
    5000:	00060b93          	mv	s7,a2
    5004:	00068993          	mv	s3,a3
    5008:	00b4f4b3          	and	s1,s1,a1
    500c:	01f5d913          	srli	s2,a1,0x1f
    5010:	0a050663          	beqz	a0,50bc <__divdf3+0xfc>
    5014:	7ff00793          	li	a5,2047
    5018:	10f50a63          	beq	a0,a5,512c <__divdf3+0x16c>
    501c:	01db5a93          	srli	s5,s6,0x1d
    5020:	00349493          	slli	s1,s1,0x3
    5024:	009ae4b3          	or	s1,s5,s1
    5028:	00800ab7          	lui	s5,0x800
    502c:	0154eab3          	or	s5,s1,s5
    5030:	003b1413          	slli	s0,s6,0x3
    5034:	c0150a13          	addi	s4,a0,-1023
    5038:	00000b13          	li	s6,0
    503c:	0149d513          	srli	a0,s3,0x14
    5040:	001004b7          	lui	s1,0x100
    5044:	fff48493          	addi	s1,s1,-1 # fffff <__trunctfdf2+0xec697>
    5048:	7ff57513          	andi	a0,a0,2047
    504c:	0134f4b3          	and	s1,s1,s3
    5050:	000b8813          	mv	a6,s7
    5054:	01f9d993          	srli	s3,s3,0x1f
    5058:	10050663          	beqz	a0,5164 <__divdf3+0x1a4>
    505c:	7ff00793          	li	a5,2047
    5060:	16f50a63          	beq	a0,a5,51d4 <__divdf3+0x214>
    5064:	01dbd793          	srli	a5,s7,0x1d
    5068:	00349493          	slli	s1,s1,0x3
    506c:	0097e7b3          	or	a5,a5,s1
    5070:	008008b7          	lui	a7,0x800
    5074:	0117e8b3          	or	a7,a5,a7
    5078:	003b9813          	slli	a6,s7,0x3
    507c:	c0150513          	addi	a0,a0,-1023
    5080:	00000793          	li	a5,0
    5084:	002b1713          	slli	a4,s6,0x2
    5088:	00f76733          	or	a4,a4,a5
    508c:	fff70713          	addi	a4,a4,-1 # ffffff <__trunctfdf2+0xfec697>
    5090:	00e00693          	li	a3,14
    5094:	01394633          	xor	a2,s2,s3
    5098:	40aa0533          	sub	a0,s4,a0
    509c:	16e6e863          	bltu	a3,a4,520c <__divdf3+0x24c>
    50a0:	80046697          	auipc	a3,0x80046
    50a4:	68468693          	addi	a3,a3,1668 # 8004b724 <__stack_top+0xfffd48d4>
    50a8:	00271713          	slli	a4,a4,0x2
    50ac:	00d70733          	add	a4,a4,a3
    50b0:	00072703          	lw	a4,0(a4)
    50b4:	00d70733          	add	a4,a4,a3
    50b8:	00070067          	jr	a4
    50bc:	0164eab3          	or	s5,s1,s6
    50c0:	080a8263          	beqz	s5,5144 <__divdf3+0x184>
    50c4:	04048263          	beqz	s1,5108 <__divdf3+0x148>
    50c8:	00048513          	mv	a0,s1
    50cc:	00000097          	auipc	ra,0x0
    50d0:	ea8080e7          	jalr	-344(ra) # 4f74 <__clzsi2>
    50d4:	ff550793          	addi	a5,a0,-11
    50d8:	01c00713          	li	a4,28
    50dc:	04f74063          	blt	a4,a5,511c <__divdf3+0x15c>
    50e0:	01d00a93          	li	s5,29
    50e4:	ff850413          	addi	s0,a0,-8
    50e8:	40fa8ab3          	sub	s5,s5,a5
    50ec:	008494b3          	sll	s1,s1,s0
    50f0:	015b5ab3          	srl	s5,s6,s5
    50f4:	009aeab3          	or	s5,s5,s1
    50f8:	008b1433          	sll	s0,s6,s0
    50fc:	c0d00a13          	li	s4,-1011
    5100:	40aa0a33          	sub	s4,s4,a0
    5104:	f35ff06f          	j	5038 <__divdf3+0x78>
    5108:	000b0513          	mv	a0,s6
    510c:	00000097          	auipc	ra,0x0
    5110:	e68080e7          	jalr	-408(ra) # 4f74 <__clzsi2>
    5114:	02050513          	addi	a0,a0,32
    5118:	fbdff06f          	j	50d4 <__divdf3+0x114>
    511c:	fd850493          	addi	s1,a0,-40
    5120:	009b1ab3          	sll	s5,s6,s1
    5124:	00000413          	li	s0,0
    5128:	fd5ff06f          	j	50fc <__divdf3+0x13c>
    512c:	0164eab3          	or	s5,s1,s6
    5130:	020a8263          	beqz	s5,5154 <__divdf3+0x194>
    5134:	00048a93          	mv	s5,s1
    5138:	7ff00a13          	li	s4,2047
    513c:	00300b13          	li	s6,3
    5140:	efdff06f          	j	503c <__divdf3+0x7c>
    5144:	00000413          	li	s0,0
    5148:	00000a13          	li	s4,0
    514c:	00100b13          	li	s6,1
    5150:	eedff06f          	j	503c <__divdf3+0x7c>
    5154:	00000413          	li	s0,0
    5158:	7ff00a13          	li	s4,2047
    515c:	00200b13          	li	s6,2
    5160:	eddff06f          	j	503c <__divdf3+0x7c>
    5164:	0174e8b3          	or	a7,s1,s7
    5168:	08088263          	beqz	a7,51ec <__divdf3+0x22c>
    516c:	04048263          	beqz	s1,51b0 <__divdf3+0x1f0>
    5170:	00048513          	mv	a0,s1
    5174:	00000097          	auipc	ra,0x0
    5178:	e00080e7          	jalr	-512(ra) # 4f74 <__clzsi2>
    517c:	ff550893          	addi	a7,a0,-11
    5180:	01c00793          	li	a5,28
    5184:	0517c063          	blt	a5,a7,51c4 <__divdf3+0x204>
    5188:	01d00793          	li	a5,29
    518c:	ff850813          	addi	a6,a0,-8
    5190:	411787b3          	sub	a5,a5,a7
    5194:	010494b3          	sll	s1,s1,a6
    5198:	00fbd7b3          	srl	a5,s7,a5
    519c:	0097e8b3          	or	a7,a5,s1
    51a0:	010b9833          	sll	a6,s7,a6
    51a4:	c0d00793          	li	a5,-1011
    51a8:	40a78533          	sub	a0,a5,a0
    51ac:	ed5ff06f          	j	5080 <__divdf3+0xc0>
    51b0:	000b8513          	mv	a0,s7
    51b4:	00000097          	auipc	ra,0x0
    51b8:	dc0080e7          	jalr	-576(ra) # 4f74 <__clzsi2>
    51bc:	02050513          	addi	a0,a0,32
    51c0:	fbdff06f          	j	517c <__divdf3+0x1bc>
    51c4:	fd850793          	addi	a5,a0,-40
    51c8:	00fb98b3          	sll	a7,s7,a5
    51cc:	00000813          	li	a6,0
    51d0:	fd5ff06f          	j	51a4 <__divdf3+0x1e4>
    51d4:	0174e8b3          	or	a7,s1,s7
    51d8:	02088263          	beqz	a7,51fc <__divdf3+0x23c>
    51dc:	00048893          	mv	a7,s1
    51e0:	7ff00513          	li	a0,2047
    51e4:	00300793          	li	a5,3
    51e8:	e9dff06f          	j	5084 <__divdf3+0xc4>
    51ec:	00000813          	li	a6,0
    51f0:	00000513          	li	a0,0
    51f4:	00100793          	li	a5,1
    51f8:	e8dff06f          	j	5084 <__divdf3+0xc4>
    51fc:	00000813          	li	a6,0
    5200:	7ff00513          	li	a0,2047
    5204:	00200793          	li	a5,2
    5208:	e7dff06f          	j	5084 <__divdf3+0xc4>
    520c:	0158e663          	bltu	a7,s5,5218 <__divdf3+0x258>
    5210:	371a9063          	bne	s5,a7,5570 <__divdf3+0x5b0>
    5214:	35046e63          	bltu	s0,a6,5570 <__divdf3+0x5b0>
    5218:	01fa9713          	slli	a4,s5,0x1f
    521c:	00145793          	srli	a5,s0,0x1
    5220:	01f41293          	slli	t0,s0,0x1f
    5224:	001ada93          	srli	s5,s5,0x1
    5228:	00f76433          	or	s0,a4,a5
    522c:	00889793          	slli	a5,a7,0x8
    5230:	01885893          	srli	a7,a6,0x18
    5234:	00f8e7b3          	or	a5,a7,a5
    5238:	0107de13          	srli	t3,a5,0x10
    523c:	00881593          	slli	a1,a6,0x8
    5240:	03cad833          	divu	a6,s5,t3
    5244:	01079313          	slli	t1,a5,0x10
    5248:	01035313          	srli	t1,t1,0x10
    524c:	01045713          	srli	a4,s0,0x10
    5250:	03caf4b3          	remu	s1,s5,t3
    5254:	00080f93          	mv	t6,a6
    5258:	030306b3          	mul	a3,t1,a6
    525c:	01049a93          	slli	s5,s1,0x10
    5260:	01576733          	or	a4,a4,s5
    5264:	00d77e63          	bgeu	a4,a3,5280 <__divdf3+0x2c0>
    5268:	00f70733          	add	a4,a4,a5
    526c:	fff80f93          	addi	t6,a6,-1 # 7fefffff <__trunctfdf2+0x7feec697>
    5270:	00f76863          	bltu	a4,a5,5280 <__divdf3+0x2c0>
    5274:	00d77663          	bgeu	a4,a3,5280 <__divdf3+0x2c0>
    5278:	ffe80f93          	addi	t6,a6,-2
    527c:	00f70733          	add	a4,a4,a5
    5280:	40d70733          	sub	a4,a4,a3
    5284:	03c758b3          	divu	a7,a4,t3
    5288:	01041413          	slli	s0,s0,0x10
    528c:	01045413          	srli	s0,s0,0x10
    5290:	03c77733          	remu	a4,a4,t3
    5294:	00088693          	mv	a3,a7
    5298:	03130833          	mul	a6,t1,a7
    529c:	01071713          	slli	a4,a4,0x10
    52a0:	00e46733          	or	a4,s0,a4
    52a4:	01077e63          	bgeu	a4,a6,52c0 <__divdf3+0x300>
    52a8:	00f70733          	add	a4,a4,a5
    52ac:	fff88693          	addi	a3,a7,-1 # 7fffff <__trunctfdf2+0x7ec697>
    52b0:	00f76863          	bltu	a4,a5,52c0 <__divdf3+0x300>
    52b4:	01077663          	bgeu	a4,a6,52c0 <__divdf3+0x300>
    52b8:	ffe88693          	addi	a3,a7,-2
    52bc:	00f70733          	add	a4,a4,a5
    52c0:	010f9f93          	slli	t6,t6,0x10
    52c4:	00dfefb3          	or	t6,t6,a3
    52c8:	000106b7          	lui	a3,0x10
    52cc:	fff68e93          	addi	t4,a3,-1 # ffff <_exit+0x1f>
    52d0:	41070433          	sub	s0,a4,a6
    52d4:	0105df13          	srli	t5,a1,0x10
    52d8:	010fd713          	srli	a4,t6,0x10
    52dc:	01dff833          	and	a6,t6,t4
    52e0:	01d5feb3          	and	t4,a1,t4
    52e4:	03d803b3          	mul	t2,a6,t4
    52e8:	03d704b3          	mul	s1,a4,t4
    52ec:	030f0833          	mul	a6,t5,a6
    52f0:	03e708b3          	mul	a7,a4,t5
    52f4:	00980733          	add	a4,a6,s1
    52f8:	0103d813          	srli	a6,t2,0x10
    52fc:	00e80833          	add	a6,a6,a4
    5300:	00987463          	bgeu	a6,s1,5308 <__divdf3+0x348>
    5304:	00d888b3          	add	a7,a7,a3
    5308:	01085713          	srli	a4,a6,0x10
    530c:	01170733          	add	a4,a4,a7
    5310:	000108b7          	lui	a7,0x10
    5314:	fff88893          	addi	a7,a7,-1 # ffff <_exit+0x1f>
    5318:	011876b3          	and	a3,a6,a7
    531c:	01069693          	slli	a3,a3,0x10
    5320:	0113f3b3          	and	t2,t2,a7
    5324:	007686b3          	add	a3,a3,t2
    5328:	00e46863          	bltu	s0,a4,5338 <__divdf3+0x378>
    532c:	000f8893          	mv	a7,t6
    5330:	04e41463          	bne	s0,a4,5378 <__divdf3+0x3b8>
    5334:	04d2f263          	bgeu	t0,a3,5378 <__divdf3+0x3b8>
    5338:	00b282b3          	add	t0,t0,a1
    533c:	00b2b833          	sltu	a6,t0,a1
    5340:	00f80833          	add	a6,a6,a5
    5344:	01040433          	add	s0,s0,a6
    5348:	ffff8893          	addi	a7,t6,-1
    534c:	0087e663          	bltu	a5,s0,5358 <__divdf3+0x398>
    5350:	02879463          	bne	a5,s0,5378 <__divdf3+0x3b8>
    5354:	02b2e263          	bltu	t0,a1,5378 <__divdf3+0x3b8>
    5358:	00e46663          	bltu	s0,a4,5364 <__divdf3+0x3a4>
    535c:	00871e63          	bne	a4,s0,5378 <__divdf3+0x3b8>
    5360:	00d2fc63          	bgeu	t0,a3,5378 <__divdf3+0x3b8>
    5364:	00b282b3          	add	t0,t0,a1
    5368:	00b2b833          	sltu	a6,t0,a1
    536c:	00f80833          	add	a6,a6,a5
    5370:	ffef8893          	addi	a7,t6,-2
    5374:	01040433          	add	s0,s0,a6
    5378:	40d286b3          	sub	a3,t0,a3
    537c:	40e40433          	sub	s0,s0,a4
    5380:	00d2b733          	sltu	a4,t0,a3
    5384:	40e40433          	sub	s0,s0,a4
    5388:	fff00813          	li	a6,-1
    538c:	12878463          	beq	a5,s0,54b4 <__divdf3+0x4f4>
    5390:	03c452b3          	divu	t0,s0,t3
    5394:	0106d713          	srli	a4,a3,0x10
    5398:	03c47433          	remu	s0,s0,t3
    539c:	00028813          	mv	a6,t0
    53a0:	02530fb3          	mul	t6,t1,t0
    53a4:	01041413          	slli	s0,s0,0x10
    53a8:	00876433          	or	s0,a4,s0
    53ac:	01f47e63          	bgeu	s0,t6,53c8 <__divdf3+0x408>
    53b0:	00f40433          	add	s0,s0,a5
    53b4:	fff28813          	addi	a6,t0,-1
    53b8:	00f46863          	bltu	s0,a5,53c8 <__divdf3+0x408>
    53bc:	01f47663          	bgeu	s0,t6,53c8 <__divdf3+0x408>
    53c0:	ffe28813          	addi	a6,t0,-2
    53c4:	00f40433          	add	s0,s0,a5
    53c8:	41f40433          	sub	s0,s0,t6
    53cc:	03c45fb3          	divu	t6,s0,t3
    53d0:	01069693          	slli	a3,a3,0x10
    53d4:	0106d693          	srli	a3,a3,0x10
    53d8:	03c47433          	remu	s0,s0,t3
    53dc:	000f8713          	mv	a4,t6
    53e0:	03f30333          	mul	t1,t1,t6
    53e4:	01041413          	slli	s0,s0,0x10
    53e8:	0086e433          	or	s0,a3,s0
    53ec:	00647e63          	bgeu	s0,t1,5408 <__divdf3+0x448>
    53f0:	00f40433          	add	s0,s0,a5
    53f4:	ffff8713          	addi	a4,t6,-1
    53f8:	00f46863          	bltu	s0,a5,5408 <__divdf3+0x448>
    53fc:	00647663          	bgeu	s0,t1,5408 <__divdf3+0x448>
    5400:	ffef8713          	addi	a4,t6,-2
    5404:	00f40433          	add	s0,s0,a5
    5408:	01081813          	slli	a6,a6,0x10
    540c:	00e86833          	or	a6,a6,a4
    5410:	01081693          	slli	a3,a6,0x10
    5414:	0106d693          	srli	a3,a3,0x10
    5418:	40640433          	sub	s0,s0,t1
    541c:	01085313          	srli	t1,a6,0x10
    5420:	03d68fb3          	mul	t6,a3,t4
    5424:	026f0e33          	mul	t3,t5,t1
    5428:	03d30eb3          	mul	t4,t1,t4
    542c:	02df0f33          	mul	t5,t5,a3
    5430:	010fd693          	srli	a3,t6,0x10
    5434:	01df0f33          	add	t5,t5,t4
    5438:	01e686b3          	add	a3,a3,t5
    543c:	01d6f663          	bgeu	a3,t4,5448 <__divdf3+0x488>
    5440:	00010737          	lui	a4,0x10
    5444:	00ee0e33          	add	t3,t3,a4
    5448:	0106d313          	srli	t1,a3,0x10
    544c:	01c30333          	add	t1,t1,t3
    5450:	00010e37          	lui	t3,0x10
    5454:	fffe0e13          	addi	t3,t3,-1 # ffff <_exit+0x1f>
    5458:	01c6f733          	and	a4,a3,t3
    545c:	01071713          	slli	a4,a4,0x10
    5460:	01cfffb3          	and	t6,t6,t3
    5464:	01f70733          	add	a4,a4,t6
    5468:	00646663          	bltu	s0,t1,5474 <__divdf3+0x4b4>
    546c:	24641463          	bne	s0,t1,56b4 <__divdf3+0x6f4>
    5470:	04070263          	beqz	a4,54b4 <__divdf3+0x4f4>
    5474:	00878433          	add	s0,a5,s0
    5478:	fff80693          	addi	a3,a6,-1
    547c:	02f46463          	bltu	s0,a5,54a4 <__divdf3+0x4e4>
    5480:	00646663          	bltu	s0,t1,548c <__divdf3+0x4cc>
    5484:	22641663          	bne	s0,t1,56b0 <__divdf3+0x6f0>
    5488:	02e5f063          	bgeu	a1,a4,54a8 <__divdf3+0x4e8>
    548c:	ffe80693          	addi	a3,a6,-2
    5490:	00159813          	slli	a6,a1,0x1
    5494:	00b835b3          	sltu	a1,a6,a1
    5498:	00f587b3          	add	a5,a1,a5
    549c:	00f40433          	add	s0,s0,a5
    54a0:	00080593          	mv	a1,a6
    54a4:	00641663          	bne	s0,t1,54b0 <__divdf3+0x4f0>
    54a8:	00068813          	mv	a6,a3
    54ac:	00b70463          	beq	a4,a1,54b4 <__divdf3+0x4f4>
    54b0:	0016e813          	ori	a6,a3,1
    54b4:	3ff50693          	addi	a3,a0,1023
    54b8:	10d05a63          	blez	a3,55cc <__divdf3+0x60c>
    54bc:	00787793          	andi	a5,a6,7
    54c0:	02078063          	beqz	a5,54e0 <__divdf3+0x520>
    54c4:	00f87793          	andi	a5,a6,15
    54c8:	00400713          	li	a4,4
    54cc:	00e78a63          	beq	a5,a4,54e0 <__divdf3+0x520>
    54d0:	00480793          	addi	a5,a6,4
    54d4:	0107b833          	sltu	a6,a5,a6
    54d8:	010888b3          	add	a7,a7,a6
    54dc:	00078813          	mv	a6,a5
    54e0:	00789793          	slli	a5,a7,0x7
    54e4:	0007da63          	bgez	a5,54f8 <__divdf3+0x538>
    54e8:	ff0007b7          	lui	a5,0xff000
    54ec:	fff78793          	addi	a5,a5,-1 # feffffff <__stack_top+0x7ef891af>
    54f0:	00f8f8b3          	and	a7,a7,a5
    54f4:	40050693          	addi	a3,a0,1024
    54f8:	7fe00793          	li	a5,2046
    54fc:	18d7ca63          	blt	a5,a3,5690 <__divdf3+0x6d0>
    5500:	00385813          	srli	a6,a6,0x3
    5504:	01d89713          	slli	a4,a7,0x1d
    5508:	01076733          	or	a4,a4,a6
    550c:	0038d793          	srli	a5,a7,0x3
    5510:	001005b7          	lui	a1,0x100
    5514:	fff58593          	addi	a1,a1,-1 # fffff <__trunctfdf2+0xec697>
    5518:	00b7f7b3          	and	a5,a5,a1
    551c:	801005b7          	lui	a1,0x80100
    5520:	fff58593          	addi	a1,a1,-1 # 800fffff <__stack_top+0x891af>
    5524:	7ff6f693          	andi	a3,a3,2047
    5528:	01469693          	slli	a3,a3,0x14
    552c:	00b7f7b3          	and	a5,a5,a1
    5530:	02c12083          	lw	ra,44(sp)
    5534:	02812403          	lw	s0,40(sp)
    5538:	01f61613          	slli	a2,a2,0x1f
    553c:	00d7e7b3          	or	a5,a5,a3
    5540:	00c7e6b3          	or	a3,a5,a2
    5544:	02412483          	lw	s1,36(sp)
    5548:	02012903          	lw	s2,32(sp)
    554c:	01c12983          	lw	s3,28(sp)
    5550:	01812a03          	lw	s4,24(sp)
    5554:	01412a83          	lw	s5,20(sp)
    5558:	01012b03          	lw	s6,16(sp)
    555c:	00c12b83          	lw	s7,12(sp)
    5560:	00070513          	mv	a0,a4
    5564:	00068593          	mv	a1,a3
    5568:	03010113          	addi	sp,sp,48
    556c:	00008067          	ret
    5570:	fff50513          	addi	a0,a0,-1
    5574:	00000293          	li	t0,0
    5578:	cb5ff06f          	j	522c <__divdf3+0x26c>
    557c:	00090613          	mv	a2,s2
    5580:	000a8893          	mv	a7,s5
    5584:	00040813          	mv	a6,s0
    5588:	000b0793          	mv	a5,s6
    558c:	00200713          	li	a4,2
    5590:	10e78063          	beq	a5,a4,5690 <__divdf3+0x6d0>
    5594:	00300713          	li	a4,3
    5598:	0ee78263          	beq	a5,a4,567c <__divdf3+0x6bc>
    559c:	00100713          	li	a4,1
    55a0:	f0e79ae3          	bne	a5,a4,54b4 <__divdf3+0x4f4>
    55a4:	00000793          	li	a5,0
    55a8:	00000713          	li	a4,0
    55ac:	0940006f          	j	5640 <__divdf3+0x680>
    55b0:	00098613          	mv	a2,s3
    55b4:	fd9ff06f          	j	558c <__divdf3+0x5cc>
    55b8:	000808b7          	lui	a7,0x80
    55bc:	00000813          	li	a6,0
    55c0:	00000613          	li	a2,0
    55c4:	00300793          	li	a5,3
    55c8:	fc5ff06f          	j	558c <__divdf3+0x5cc>
    55cc:	00100793          	li	a5,1
    55d0:	40d787b3          	sub	a5,a5,a3
    55d4:	03800713          	li	a4,56
    55d8:	fcf746e3          	blt	a4,a5,55a4 <__divdf3+0x5e4>
    55dc:	01f00713          	li	a4,31
    55e0:	06f74463          	blt	a4,a5,5648 <__divdf3+0x688>
    55e4:	41e50513          	addi	a0,a0,1054
    55e8:	00a89733          	sll	a4,a7,a0
    55ec:	00f856b3          	srl	a3,a6,a5
    55f0:	00a81533          	sll	a0,a6,a0
    55f4:	00d76733          	or	a4,a4,a3
    55f8:	00a03533          	snez	a0,a0
    55fc:	00a76733          	or	a4,a4,a0
    5600:	00f8d7b3          	srl	a5,a7,a5
    5604:	00777693          	andi	a3,a4,7
    5608:	02068063          	beqz	a3,5628 <__divdf3+0x668>
    560c:	00f77693          	andi	a3,a4,15
    5610:	00400593          	li	a1,4
    5614:	00b68a63          	beq	a3,a1,5628 <__divdf3+0x668>
    5618:	00470693          	addi	a3,a4,4 # 10004 <_exit+0x24>
    561c:	00e6b733          	sltu	a4,a3,a4
    5620:	00e787b3          	add	a5,a5,a4
    5624:	00068713          	mv	a4,a3
    5628:	00879693          	slli	a3,a5,0x8
    562c:	0606ca63          	bltz	a3,56a0 <__divdf3+0x6e0>
    5630:	01d79813          	slli	a6,a5,0x1d
    5634:	00375713          	srli	a4,a4,0x3
    5638:	00e86733          	or	a4,a6,a4
    563c:	0037d793          	srli	a5,a5,0x3
    5640:	00000693          	li	a3,0
    5644:	ecdff06f          	j	5510 <__divdf3+0x550>
    5648:	fe100713          	li	a4,-31
    564c:	40d70733          	sub	a4,a4,a3
    5650:	02000593          	li	a1,32
    5654:	00e8d733          	srl	a4,a7,a4
    5658:	00000693          	li	a3,0
    565c:	00b78663          	beq	a5,a1,5668 <__divdf3+0x6a8>
    5660:	43e50513          	addi	a0,a0,1086
    5664:	00a896b3          	sll	a3,a7,a0
    5668:	0106e6b3          	or	a3,a3,a6
    566c:	00d036b3          	snez	a3,a3
    5670:	00d76733          	or	a4,a4,a3
    5674:	00000793          	li	a5,0
    5678:	f8dff06f          	j	5604 <__divdf3+0x644>
    567c:	000807b7          	lui	a5,0x80
    5680:	00000713          	li	a4,0
    5684:	7ff00693          	li	a3,2047
    5688:	00000613          	li	a2,0
    568c:	e85ff06f          	j	5510 <__divdf3+0x550>
    5690:	00000793          	li	a5,0
    5694:	00000713          	li	a4,0
    5698:	7ff00693          	li	a3,2047
    569c:	e75ff06f          	j	5510 <__divdf3+0x550>
    56a0:	00000793          	li	a5,0
    56a4:	00000713          	li	a4,0
    56a8:	00100693          	li	a3,1
    56ac:	e65ff06f          	j	5510 <__divdf3+0x550>
    56b0:	00068813          	mv	a6,a3
    56b4:	00080693          	mv	a3,a6
    56b8:	df9ff06f          	j	54b0 <__divdf3+0x4f0>

000056bc <__muldf3>:
    56bc:	fd010113          	addi	sp,sp,-48
    56c0:	03212023          	sw	s2,32(sp)
    56c4:	01512a23          	sw	s5,20(sp)
    56c8:	00100937          	lui	s2,0x100
    56cc:	0145da93          	srli	s5,a1,0x14
    56d0:	01312e23          	sw	s3,28(sp)
    56d4:	01412c23          	sw	s4,24(sp)
    56d8:	01612823          	sw	s6,16(sp)
    56dc:	01712623          	sw	s7,12(sp)
    56e0:	fff90913          	addi	s2,s2,-1 # fffff <__trunctfdf2+0xec697>
    56e4:	02112623          	sw	ra,44(sp)
    56e8:	02812423          	sw	s0,40(sp)
    56ec:	02912223          	sw	s1,36(sp)
    56f0:	7ffafa93          	andi	s5,s5,2047
    56f4:	00050b13          	mv	s6,a0
    56f8:	00060b93          	mv	s7,a2
    56fc:	00068a13          	mv	s4,a3
    5700:	00b97933          	and	s2,s2,a1
    5704:	01f5d993          	srli	s3,a1,0x1f
    5708:	0a0a8863          	beqz	s5,57b8 <__muldf3+0xfc>
    570c:	7ff00793          	li	a5,2047
    5710:	10fa8a63          	beq	s5,a5,5824 <__muldf3+0x168>
    5714:	01d55413          	srli	s0,a0,0x1d
    5718:	00391913          	slli	s2,s2,0x3
    571c:	01246933          	or	s2,s0,s2
    5720:	00800437          	lui	s0,0x800
    5724:	00896433          	or	s0,s2,s0
    5728:	00351493          	slli	s1,a0,0x3
    572c:	c01a8a93          	addi	s5,s5,-1023 # 7ffc01 <__trunctfdf2+0x7ec299>
    5730:	00000b13          	li	s6,0
    5734:	014a5513          	srli	a0,s4,0x14
    5738:	00100937          	lui	s2,0x100
    573c:	fff90913          	addi	s2,s2,-1 # fffff <__trunctfdf2+0xec697>
    5740:	7ff57513          	andi	a0,a0,2047
    5744:	01497933          	and	s2,s2,s4
    5748:	000b8713          	mv	a4,s7
    574c:	01fa5a13          	srli	s4,s4,0x1f
    5750:	10050863          	beqz	a0,5860 <__muldf3+0x1a4>
    5754:	7ff00793          	li	a5,2047
    5758:	16f50c63          	beq	a0,a5,58d0 <__muldf3+0x214>
    575c:	01dbd793          	srli	a5,s7,0x1d
    5760:	00391913          	slli	s2,s2,0x3
    5764:	0127e933          	or	s2,a5,s2
    5768:	008007b7          	lui	a5,0x800
    576c:	00f967b3          	or	a5,s2,a5
    5770:	003b9713          	slli	a4,s7,0x3
    5774:	c0150513          	addi	a0,a0,-1023
    5778:	00000693          	li	a3,0
    577c:	002b1593          	slli	a1,s6,0x2
    5780:	00d5e5b3          	or	a1,a1,a3
    5784:	00aa8533          	add	a0,s5,a0
    5788:	fff58593          	addi	a1,a1,-1
    578c:	00e00893          	li	a7,14
    5790:	0149c633          	xor	a2,s3,s4
    5794:	00150813          	addi	a6,a0,1
    5798:	16b8e863          	bltu	a7,a1,5908 <__muldf3+0x24c>
    579c:	80046517          	auipc	a0,0x80046
    57a0:	fc450513          	addi	a0,a0,-60 # 8004b760 <__stack_top+0xfffd4910>
    57a4:	00259593          	slli	a1,a1,0x2
    57a8:	00a585b3          	add	a1,a1,a0
    57ac:	0005a583          	lw	a1,0(a1)
    57b0:	00a585b3          	add	a1,a1,a0
    57b4:	00058067          	jr	a1
    57b8:	00a96433          	or	s0,s2,a0
    57bc:	08040263          	beqz	s0,5840 <__muldf3+0x184>
    57c0:	04090263          	beqz	s2,5804 <__muldf3+0x148>
    57c4:	00090513          	mv	a0,s2
    57c8:	fffff097          	auipc	ra,0xfffff
    57cc:	7ac080e7          	jalr	1964(ra) # 4f74 <__clzsi2>
    57d0:	ff550793          	addi	a5,a0,-11
    57d4:	01c00713          	li	a4,28
    57d8:	02f74e63          	blt	a4,a5,5814 <__muldf3+0x158>
    57dc:	01d00413          	li	s0,29
    57e0:	ff850493          	addi	s1,a0,-8
    57e4:	40f40433          	sub	s0,s0,a5
    57e8:	00991933          	sll	s2,s2,s1
    57ec:	008b5433          	srl	s0,s6,s0
    57f0:	01246433          	or	s0,s0,s2
    57f4:	009b14b3          	sll	s1,s6,s1
    57f8:	c0d00a93          	li	s5,-1011
    57fc:	40aa8ab3          	sub	s5,s5,a0
    5800:	f31ff06f          	j	5730 <__muldf3+0x74>
    5804:	fffff097          	auipc	ra,0xfffff
    5808:	770080e7          	jalr	1904(ra) # 4f74 <__clzsi2>
    580c:	02050513          	addi	a0,a0,32
    5810:	fc1ff06f          	j	57d0 <__muldf3+0x114>
    5814:	fd850413          	addi	s0,a0,-40
    5818:	008b1433          	sll	s0,s6,s0
    581c:	00000493          	li	s1,0
    5820:	fd9ff06f          	j	57f8 <__muldf3+0x13c>
    5824:	00a96433          	or	s0,s2,a0
    5828:	02040463          	beqz	s0,5850 <__muldf3+0x194>
    582c:	00050493          	mv	s1,a0
    5830:	00090413          	mv	s0,s2
    5834:	7ff00a93          	li	s5,2047
    5838:	00300b13          	li	s6,3
    583c:	ef9ff06f          	j	5734 <__muldf3+0x78>
    5840:	00000493          	li	s1,0
    5844:	00000a93          	li	s5,0
    5848:	00100b13          	li	s6,1
    584c:	ee9ff06f          	j	5734 <__muldf3+0x78>
    5850:	00000493          	li	s1,0
    5854:	7ff00a93          	li	s5,2047
    5858:	00200b13          	li	s6,2
    585c:	ed9ff06f          	j	5734 <__muldf3+0x78>
    5860:	017967b3          	or	a5,s2,s7
    5864:	08078263          	beqz	a5,58e8 <__muldf3+0x22c>
    5868:	04090263          	beqz	s2,58ac <__muldf3+0x1f0>
    586c:	00090513          	mv	a0,s2
    5870:	fffff097          	auipc	ra,0xfffff
    5874:	704080e7          	jalr	1796(ra) # 4f74 <__clzsi2>
    5878:	ff550693          	addi	a3,a0,-11
    587c:	01c00793          	li	a5,28
    5880:	04d7c063          	blt	a5,a3,58c0 <__muldf3+0x204>
    5884:	01d00793          	li	a5,29
    5888:	ff850713          	addi	a4,a0,-8
    588c:	40d787b3          	sub	a5,a5,a3
    5890:	00e91933          	sll	s2,s2,a4
    5894:	00fbd7b3          	srl	a5,s7,a5
    5898:	0127e7b3          	or	a5,a5,s2
    589c:	00eb9733          	sll	a4,s7,a4
    58a0:	c0d00693          	li	a3,-1011
    58a4:	40a68533          	sub	a0,a3,a0
    58a8:	ed1ff06f          	j	5778 <__muldf3+0xbc>
    58ac:	000b8513          	mv	a0,s7
    58b0:	fffff097          	auipc	ra,0xfffff
    58b4:	6c4080e7          	jalr	1732(ra) # 4f74 <__clzsi2>
    58b8:	02050513          	addi	a0,a0,32
    58bc:	fbdff06f          	j	5878 <__muldf3+0x1bc>
    58c0:	fd850793          	addi	a5,a0,-40
    58c4:	00fb97b3          	sll	a5,s7,a5
    58c8:	00000713          	li	a4,0
    58cc:	fd5ff06f          	j	58a0 <__muldf3+0x1e4>
    58d0:	017967b3          	or	a5,s2,s7
    58d4:	02078263          	beqz	a5,58f8 <__muldf3+0x23c>
    58d8:	00090793          	mv	a5,s2
    58dc:	7ff00513          	li	a0,2047
    58e0:	00300693          	li	a3,3
    58e4:	e99ff06f          	j	577c <__muldf3+0xc0>
    58e8:	00000713          	li	a4,0
    58ec:	00000513          	li	a0,0
    58f0:	00100693          	li	a3,1
    58f4:	e89ff06f          	j	577c <__muldf3+0xc0>
    58f8:	00000713          	li	a4,0
    58fc:	7ff00513          	li	a0,2047
    5900:	00200693          	li	a3,2
    5904:	e79ff06f          	j	577c <__muldf3+0xc0>
    5908:	00010f37          	lui	t5,0x10
    590c:	ffff0393          	addi	t2,t5,-1 # ffff <_exit+0x1f>
    5910:	0104d693          	srli	a3,s1,0x10
    5914:	01075e13          	srli	t3,a4,0x10
    5918:	0074f4b3          	and	s1,s1,t2
    591c:	00777733          	and	a4,a4,t2
    5920:	029e0333          	mul	t1,t3,s1
    5924:	029705b3          	mul	a1,a4,s1
    5928:	02e68fb3          	mul	t6,a3,a4
    592c:	01f30eb3          	add	t4,t1,t6
    5930:	0105d313          	srli	t1,a1,0x10
    5934:	01d30333          	add	t1,t1,t4
    5938:	03c688b3          	mul	a7,a3,t3
    593c:	01f37463          	bgeu	t1,t6,5944 <__muldf3+0x288>
    5940:	01e888b3          	add	a7,a7,t5
    5944:	01035913          	srli	s2,t1,0x10
    5948:	00737333          	and	t1,t1,t2
    594c:	0075f5b3          	and	a1,a1,t2
    5950:	0107df93          	srli	t6,a5,0x10
    5954:	0077f3b3          	and	t2,a5,t2
    5958:	01031313          	slli	t1,t1,0x10
    595c:	00b30333          	add	t1,t1,a1
    5960:	027687b3          	mul	a5,a3,t2
    5964:	029385b3          	mul	a1,t2,s1
    5968:	029f84b3          	mul	s1,t6,s1
    596c:	00f48eb3          	add	t4,s1,a5
    5970:	0105d493          	srli	s1,a1,0x10
    5974:	01d484b3          	add	s1,s1,t4
    5978:	03f686b3          	mul	a3,a3,t6
    597c:	00f4f663          	bgeu	s1,a5,5988 <__muldf3+0x2cc>
    5980:	000107b7          	lui	a5,0x10
    5984:	00f686b3          	add	a3,a3,a5
    5988:	0104df13          	srli	t5,s1,0x10
    598c:	000109b7          	lui	s3,0x10
    5990:	00df0f33          	add	t5,t5,a3
    5994:	fff98693          	addi	a3,s3,-1 # ffff <_exit+0x1f>
    5998:	00d4f4b3          	and	s1,s1,a3
    599c:	00d5f5b3          	and	a1,a1,a3
    59a0:	01045793          	srli	a5,s0,0x10
    59a4:	01049493          	slli	s1,s1,0x10
    59a8:	00d47433          	and	s0,s0,a3
    59ac:	00b484b3          	add	s1,s1,a1
    59b0:	028706b3          	mul	a3,a4,s0
    59b4:	00990933          	add	s2,s2,s1
    59b8:	02e78eb3          	mul	t4,a5,a4
    59bc:	028e05b3          	mul	a1,t3,s0
    59c0:	02fe0733          	mul	a4,t3,a5
    59c4:	01d58e33          	add	t3,a1,t4
    59c8:	0106d593          	srli	a1,a3,0x10
    59cc:	01c585b3          	add	a1,a1,t3
    59d0:	01d5f463          	bgeu	a1,t4,59d8 <__muldf3+0x31c>
    59d4:	01370733          	add	a4,a4,s3
    59d8:	0105de13          	srli	t3,a1,0x10
    59dc:	000109b7          	lui	s3,0x10
    59e0:	00ee02b3          	add	t0,t3,a4
    59e4:	fff98713          	addi	a4,s3,-1 # ffff <_exit+0x1f>
    59e8:	00e5f5b3          	and	a1,a1,a4
    59ec:	00e6f6b3          	and	a3,a3,a4
    59f0:	02838e33          	mul	t3,t2,s0
    59f4:	01059593          	slli	a1,a1,0x10
    59f8:	00d585b3          	add	a1,a1,a3
    59fc:	02778733          	mul	a4,a5,t2
    5a00:	028f8433          	mul	s0,t6,s0
    5a04:	02ff8eb3          	mul	t4,t6,a5
    5a08:	00e40433          	add	s0,s0,a4
    5a0c:	010e5793          	srli	a5,t3,0x10
    5a10:	00878433          	add	s0,a5,s0
    5a14:	00e47463          	bgeu	s0,a4,5a1c <__muldf3+0x360>
    5a18:	013e8eb3          	add	t4,t4,s3
    5a1c:	000107b7          	lui	a5,0x10
    5a20:	fff78793          	addi	a5,a5,-1 # ffff <_exit+0x1f>
    5a24:	00f476b3          	and	a3,s0,a5
    5a28:	00fe7e33          	and	t3,t3,a5
    5a2c:	01069693          	slli	a3,a3,0x10
    5a30:	012888b3          	add	a7,a7,s2
    5a34:	01c686b3          	add	a3,a3,t3
    5a38:	0098b4b3          	sltu	s1,a7,s1
    5a3c:	01e686b3          	add	a3,a3,t5
    5a40:	009687b3          	add	a5,a3,s1
    5a44:	00b888b3          	add	a7,a7,a1
    5a48:	00b8b5b3          	sltu	a1,a7,a1
    5a4c:	00578e33          	add	t3,a5,t0
    5a50:	00be0fb3          	add	t6,t3,a1
    5a54:	01e6b6b3          	sltu	a3,a3,t5
    5a58:	0097b7b3          	sltu	a5,a5,s1
    5a5c:	00f6e7b3          	or	a5,a3,a5
    5a60:	01045413          	srli	s0,s0,0x10
    5a64:	005e3e33          	sltu	t3,t3,t0
    5a68:	00bfb5b3          	sltu	a1,t6,a1
    5a6c:	008787b3          	add	a5,a5,s0
    5a70:	00be65b3          	or	a1,t3,a1
    5a74:	00b787b3          	add	a5,a5,a1
    5a78:	01d787b3          	add	a5,a5,t4
    5a7c:	017fd713          	srli	a4,t6,0x17
    5a80:	00979793          	slli	a5,a5,0x9
    5a84:	00e7e7b3          	or	a5,a5,a4
    5a88:	00989713          	slli	a4,a7,0x9
    5a8c:	00676733          	or	a4,a4,t1
    5a90:	00e03733          	snez	a4,a4
    5a94:	0178d893          	srli	a7,a7,0x17
    5a98:	009f9693          	slli	a3,t6,0x9
    5a9c:	01176733          	or	a4,a4,a7
    5aa0:	00d76733          	or	a4,a4,a3
    5aa4:	00779693          	slli	a3,a5,0x7
    5aa8:	1006da63          	bgez	a3,5bbc <__muldf3+0x500>
    5aac:	00175693          	srli	a3,a4,0x1
    5ab0:	00177713          	andi	a4,a4,1
    5ab4:	00e6e733          	or	a4,a3,a4
    5ab8:	01f79693          	slli	a3,a5,0x1f
    5abc:	00d76733          	or	a4,a4,a3
    5ac0:	0017d793          	srli	a5,a5,0x1
    5ac4:	3ff80593          	addi	a1,a6,1023
    5ac8:	0eb05e63          	blez	a1,5bc4 <__muldf3+0x508>
    5acc:	00777693          	andi	a3,a4,7
    5ad0:	02068063          	beqz	a3,5af0 <__muldf3+0x434>
    5ad4:	00f77693          	andi	a3,a4,15
    5ad8:	00400513          	li	a0,4
    5adc:	00a68a63          	beq	a3,a0,5af0 <__muldf3+0x434>
    5ae0:	00470693          	addi	a3,a4,4
    5ae4:	00e6b733          	sltu	a4,a3,a4
    5ae8:	00e787b3          	add	a5,a5,a4
    5aec:	00068713          	mv	a4,a3
    5af0:	00779693          	slli	a3,a5,0x7
    5af4:	0006da63          	bgez	a3,5b08 <__muldf3+0x44c>
    5af8:	ff0006b7          	lui	a3,0xff000
    5afc:	fff68693          	addi	a3,a3,-1 # feffffff <__stack_top+0x7ef891af>
    5b00:	00d7f7b3          	and	a5,a5,a3
    5b04:	40080593          	addi	a1,a6,1024
    5b08:	7fe00693          	li	a3,2046
    5b0c:	16b6ce63          	blt	a3,a1,5c88 <__muldf3+0x5cc>
    5b10:	00375693          	srli	a3,a4,0x3
    5b14:	01d79713          	slli	a4,a5,0x1d
    5b18:	00d76733          	or	a4,a4,a3
    5b1c:	0037d793          	srli	a5,a5,0x3
    5b20:	001006b7          	lui	a3,0x100
    5b24:	fff68693          	addi	a3,a3,-1 # fffff <__trunctfdf2+0xec697>
    5b28:	00d7f7b3          	and	a5,a5,a3
    5b2c:	7ff5f693          	andi	a3,a1,2047
    5b30:	801005b7          	lui	a1,0x80100
    5b34:	fff58593          	addi	a1,a1,-1 # 800fffff <__stack_top+0x891af>
    5b38:	01469693          	slli	a3,a3,0x14
    5b3c:	00b7f7b3          	and	a5,a5,a1
    5b40:	02c12083          	lw	ra,44(sp)
    5b44:	02812403          	lw	s0,40(sp)
    5b48:	01f61613          	slli	a2,a2,0x1f
    5b4c:	00d7e7b3          	or	a5,a5,a3
    5b50:	00c7e6b3          	or	a3,a5,a2
    5b54:	02412483          	lw	s1,36(sp)
    5b58:	02012903          	lw	s2,32(sp)
    5b5c:	01c12983          	lw	s3,28(sp)
    5b60:	01812a03          	lw	s4,24(sp)
    5b64:	01412a83          	lw	s5,20(sp)
    5b68:	01012b03          	lw	s6,16(sp)
    5b6c:	00c12b83          	lw	s7,12(sp)
    5b70:	00070513          	mv	a0,a4
    5b74:	00068593          	mv	a1,a3
    5b78:	03010113          	addi	sp,sp,48
    5b7c:	00008067          	ret
    5b80:	00098613          	mv	a2,s3
    5b84:	00040793          	mv	a5,s0
    5b88:	00048713          	mv	a4,s1
    5b8c:	000b0693          	mv	a3,s6
    5b90:	00200593          	li	a1,2
    5b94:	0eb68a63          	beq	a3,a1,5c88 <__muldf3+0x5cc>
    5b98:	00300593          	li	a1,3
    5b9c:	0cb68c63          	beq	a3,a1,5c74 <__muldf3+0x5b8>
    5ba0:	00100593          	li	a1,1
    5ba4:	f2b690e3          	bne	a3,a1,5ac4 <__muldf3+0x408>
    5ba8:	00000793          	li	a5,0
    5bac:	00000713          	li	a4,0
    5bb0:	0880006f          	j	5c38 <__muldf3+0x57c>
    5bb4:	000a0613          	mv	a2,s4
    5bb8:	fd9ff06f          	j	5b90 <__muldf3+0x4d4>
    5bbc:	00050813          	mv	a6,a0
    5bc0:	f05ff06f          	j	5ac4 <__muldf3+0x408>
    5bc4:	00100513          	li	a0,1
    5bc8:	40b50533          	sub	a0,a0,a1
    5bcc:	03800693          	li	a3,56
    5bd0:	fca6cce3          	blt	a3,a0,5ba8 <__muldf3+0x4ec>
    5bd4:	01f00693          	li	a3,31
    5bd8:	06a6c463          	blt	a3,a0,5c40 <__muldf3+0x584>
    5bdc:	41e80813          	addi	a6,a6,1054
    5be0:	010796b3          	sll	a3,a5,a6
    5be4:	00a755b3          	srl	a1,a4,a0
    5be8:	01071733          	sll	a4,a4,a6
    5bec:	00b6e6b3          	or	a3,a3,a1
    5bf0:	00e03733          	snez	a4,a4
    5bf4:	00e6e733          	or	a4,a3,a4
    5bf8:	00a7d7b3          	srl	a5,a5,a0
    5bfc:	00777693          	andi	a3,a4,7
    5c00:	02068063          	beqz	a3,5c20 <__muldf3+0x564>
    5c04:	00f77693          	andi	a3,a4,15
    5c08:	00400593          	li	a1,4
    5c0c:	00b68a63          	beq	a3,a1,5c20 <__muldf3+0x564>
    5c10:	00470693          	addi	a3,a4,4
    5c14:	00e6b733          	sltu	a4,a3,a4
    5c18:	00e787b3          	add	a5,a5,a4
    5c1c:	00068713          	mv	a4,a3
    5c20:	00879693          	slli	a3,a5,0x8
    5c24:	0606ca63          	bltz	a3,5c98 <__muldf3+0x5dc>
    5c28:	01d79693          	slli	a3,a5,0x1d
    5c2c:	00375713          	srli	a4,a4,0x3
    5c30:	00e6e733          	or	a4,a3,a4
    5c34:	0037d793          	srli	a5,a5,0x3
    5c38:	00000593          	li	a1,0
    5c3c:	ee5ff06f          	j	5b20 <__muldf3+0x464>
    5c40:	fe100693          	li	a3,-31
    5c44:	40b686b3          	sub	a3,a3,a1
    5c48:	02000893          	li	a7,32
    5c4c:	00d7d6b3          	srl	a3,a5,a3
    5c50:	00000593          	li	a1,0
    5c54:	01150663          	beq	a0,a7,5c60 <__muldf3+0x5a4>
    5c58:	43e80813          	addi	a6,a6,1086
    5c5c:	010795b3          	sll	a1,a5,a6
    5c60:	00e5e733          	or	a4,a1,a4
    5c64:	00e03733          	snez	a4,a4
    5c68:	00e6e733          	or	a4,a3,a4
    5c6c:	00000793          	li	a5,0
    5c70:	f8dff06f          	j	5bfc <__muldf3+0x540>
    5c74:	000807b7          	lui	a5,0x80
    5c78:	00000713          	li	a4,0
    5c7c:	7ff00593          	li	a1,2047
    5c80:	00000613          	li	a2,0
    5c84:	e9dff06f          	j	5b20 <__muldf3+0x464>
    5c88:	00000793          	li	a5,0
    5c8c:	00000713          	li	a4,0
    5c90:	7ff00593          	li	a1,2047
    5c94:	e8dff06f          	j	5b20 <__muldf3+0x464>
    5c98:	00000793          	li	a5,0
    5c9c:	00000713          	li	a4,0
    5ca0:	00100593          	li	a1,1
    5ca4:	e7dff06f          	j	5b20 <__muldf3+0x464>

00005ca8 <abort>:
    5ca8:	ff010113          	addi	sp,sp,-16
    5cac:	00600513          	li	a0,6
    5cb0:	00112623          	sw	ra,12(sp)
    5cb4:	00001097          	auipc	ra,0x1
    5cb8:	6cc080e7          	jalr	1740(ra) # 7380 <raise>
    5cbc:	00100513          	li	a0,1
    5cc0:	0000a097          	auipc	ra,0xa
    5cc4:	320080e7          	jalr	800(ra) # ffe0 <_exit>

00005cc8 <__assert_func>:
    5cc8:	80047797          	auipc	a5,0x80047
    5ccc:	f9878793          	addi	a5,a5,-104 # 8004cc60 <__stack_top+0xfffd5e10>
    5cd0:	0007a783          	lw	a5,0(a5)
    5cd4:	ff010113          	addi	sp,sp,-16
    5cd8:	00060813          	mv	a6,a2
    5cdc:	00112623          	sw	ra,12(sp)
    5ce0:	00050893          	mv	a7,a0
    5ce4:	00058713          	mv	a4,a1
    5ce8:	00c7a503          	lw	a0,12(a5)
    5cec:	00068613          	mv	a2,a3
    5cf0:	80046797          	auipc	a5,0x80046
    5cf4:	bac78793          	addi	a5,a5,-1108 # 8004b89c <__stack_top+0xfffd4a4c>
    5cf8:	00081863          	bnez	a6,5d08 <__assert_func+0x40>
    5cfc:	80046797          	auipc	a5,0x80046
    5d00:	bac78793          	addi	a5,a5,-1108 # 8004b8a8 <__stack_top+0xfffd4a58>
    5d04:	00078813          	mv	a6,a5
    5d08:	00088693          	mv	a3,a7
    5d0c:	80046597          	auipc	a1,0x80046
    5d10:	ba058593          	addi	a1,a1,-1120 # 8004b8ac <__stack_top+0xfffd4a5c>
    5d14:	00000097          	auipc	ra,0x0
    5d18:	070080e7          	jalr	112(ra) # 5d84 <fiprintf>
    5d1c:	00000097          	auipc	ra,0x0
    5d20:	f8c080e7          	jalr	-116(ra) # 5ca8 <abort>

00005d24 <__assert>:
    5d24:	ff010113          	addi	sp,sp,-16
    5d28:	00060693          	mv	a3,a2
    5d2c:	00000613          	li	a2,0
    5d30:	00112623          	sw	ra,12(sp)
    5d34:	00000097          	auipc	ra,0x0
    5d38:	f94080e7          	jalr	-108(ra) # 5cc8 <__assert_func>

00005d3c <__errno>:
    5d3c:	80047797          	auipc	a5,0x80047
    5d40:	f2478793          	addi	a5,a5,-220 # 8004cc60 <__stack_top+0xfffd5e10>
    5d44:	0007a503          	lw	a0,0(a5)
    5d48:	00008067          	ret

00005d4c <_fiprintf_r>:
    5d4c:	fc010113          	addi	sp,sp,-64
    5d50:	02d12623          	sw	a3,44(sp)
    5d54:	02c10693          	addi	a3,sp,44
    5d58:	00112e23          	sw	ra,28(sp)
    5d5c:	02e12823          	sw	a4,48(sp)
    5d60:	02f12a23          	sw	a5,52(sp)
    5d64:	03012c23          	sw	a6,56(sp)
    5d68:	03112e23          	sw	a7,60(sp)
    5d6c:	00d12623          	sw	a3,12(sp)
    5d70:	00004097          	auipc	ra,0x4
    5d74:	b08080e7          	jalr	-1272(ra) # 9878 <_vfiprintf_r>
    5d78:	01c12083          	lw	ra,28(sp)
    5d7c:	04010113          	addi	sp,sp,64
    5d80:	00008067          	ret

00005d84 <fiprintf>:
    5d84:	fc010113          	addi	sp,sp,-64
    5d88:	02c12423          	sw	a2,40(sp)
    5d8c:	02d12623          	sw	a3,44(sp)
    5d90:	02f12a23          	sw	a5,52(sp)
    5d94:	02e12823          	sw	a4,48(sp)
    5d98:	03012c23          	sw	a6,56(sp)
    5d9c:	03112e23          	sw	a7,60(sp)
    5da0:	80047797          	auipc	a5,0x80047
    5da4:	ec078793          	addi	a5,a5,-320 # 8004cc60 <__stack_top+0xfffd5e10>
    5da8:	00058613          	mv	a2,a1
    5dac:	00050593          	mv	a1,a0
    5db0:	0007a503          	lw	a0,0(a5)
    5db4:	02810693          	addi	a3,sp,40
    5db8:	00112e23          	sw	ra,28(sp)
    5dbc:	00d12623          	sw	a3,12(sp)
    5dc0:	00004097          	auipc	ra,0x4
    5dc4:	ab8080e7          	jalr	-1352(ra) # 9878 <_vfiprintf_r>
    5dc8:	01c12083          	lw	ra,28(sp)
    5dcc:	04010113          	addi	sp,sp,64
    5dd0:	00008067          	ret

00005dd4 <__sfvwrite_r>:
    5dd4:	00862783          	lw	a5,8(a2)
    5dd8:	00079863          	bnez	a5,5de8 <__sfvwrite_r+0x14>
    5ddc:	00000793          	li	a5,0
    5de0:	00078513          	mv	a0,a5
    5de4:	00008067          	ret
    5de8:	00c5d783          	lhu	a5,12(a1)
    5dec:	fb010113          	addi	sp,sp,-80
    5df0:	04812423          	sw	s0,72(sp)
    5df4:	05212023          	sw	s2,64(sp)
    5df8:	03512a23          	sw	s5,52(sp)
    5dfc:	04112623          	sw	ra,76(sp)
    5e00:	04912223          	sw	s1,68(sp)
    5e04:	03312e23          	sw	s3,60(sp)
    5e08:	03412c23          	sw	s4,56(sp)
    5e0c:	03612823          	sw	s6,48(sp)
    5e10:	03712623          	sw	s7,44(sp)
    5e14:	03812423          	sw	s8,40(sp)
    5e18:	03912223          	sw	s9,36(sp)
    5e1c:	03a12023          	sw	s10,32(sp)
    5e20:	01b12e23          	sw	s11,28(sp)
    5e24:	0087f793          	andi	a5,a5,8
    5e28:	00060a93          	mv	s5,a2
    5e2c:	00058413          	mv	s0,a1
    5e30:	00050913          	mv	s2,a0
    5e34:	0e078a63          	beqz	a5,5f28 <__sfvwrite_r+0x154>
    5e38:	0105a783          	lw	a5,16(a1)
    5e3c:	0e078663          	beqz	a5,5f28 <__sfvwrite_r+0x154>
    5e40:	00c45783          	lhu	a5,12(s0) # 80000c <__trunctfdf2+0x7ec6a4>
    5e44:	000aaa03          	lw	s4,0(s5)
    5e48:	0027f713          	andi	a4,a5,2
    5e4c:	18071463          	bnez	a4,5fd4 <__sfvwrite_r+0x200>
    5e50:	0017f793          	andi	a5,a5,1
    5e54:	22078063          	beqz	a5,6074 <__sfvwrite_r+0x2a0>
    5e58:	00000b93          	li	s7,0
    5e5c:	00000513          	li	a0,0
    5e60:	00000b13          	li	s6,0
    5e64:	00000993          	li	s3,0
    5e68:	38098c63          	beqz	s3,6200 <__sfvwrite_r+0x42c>
    5e6c:	02051463          	bnez	a0,5e94 <__sfvwrite_r+0xc0>
    5e70:	00098613          	mv	a2,s3
    5e74:	00a00593          	li	a1,10
    5e78:	000b0513          	mv	a0,s6
    5e7c:	00001097          	auipc	ra,0x1
    5e80:	ac8080e7          	jalr	-1336(ra) # 6944 <memchr>
    5e84:	00198b93          	addi	s7,s3,1
    5e88:	00050663          	beqz	a0,5e94 <__sfvwrite_r+0xc0>
    5e8c:	00150513          	addi	a0,a0,1
    5e90:	41650bb3          	sub	s7,a0,s6
    5e94:	000b8c13          	mv	s8,s7
    5e98:	0179f463          	bgeu	s3,s7,5ea0 <__sfvwrite_r+0xcc>
    5e9c:	00098c13          	mv	s8,s3
    5ea0:	00042503          	lw	a0,0(s0)
    5ea4:	01042783          	lw	a5,16(s0)
    5ea8:	01442683          	lw	a3,20(s0)
    5eac:	36a7f463          	bgeu	a5,a0,6214 <__sfvwrite_r+0x440>
    5eb0:	00842483          	lw	s1,8(s0)
    5eb4:	009684b3          	add	s1,a3,s1
    5eb8:	3584de63          	bge	s1,s8,6214 <__sfvwrite_r+0x440>
    5ebc:	000b0593          	mv	a1,s6
    5ec0:	00048613          	mv	a2,s1
    5ec4:	00001097          	auipc	ra,0x1
    5ec8:	b7c080e7          	jalr	-1156(ra) # 6a40 <memmove>
    5ecc:	00042783          	lw	a5,0(s0)
    5ed0:	00040593          	mv	a1,s0
    5ed4:	00090513          	mv	a0,s2
    5ed8:	009787b3          	add	a5,a5,s1
    5edc:	00f42023          	sw	a5,0(s0)
    5ee0:	00005097          	auipc	ra,0x5
    5ee4:	d40080e7          	jalr	-704(ra) # ac20 <_fflush_r>
    5ee8:	16051c63          	bnez	a0,6060 <__sfvwrite_r+0x28c>
    5eec:	409b8bb3          	sub	s7,s7,s1
    5ef0:	00100513          	li	a0,1
    5ef4:	000b9c63          	bnez	s7,5f0c <__sfvwrite_r+0x138>
    5ef8:	00040593          	mv	a1,s0
    5efc:	00090513          	mv	a0,s2
    5f00:	00005097          	auipc	ra,0x5
    5f04:	d20080e7          	jalr	-736(ra) # ac20 <_fflush_r>
    5f08:	14051c63          	bnez	a0,6060 <__sfvwrite_r+0x28c>
    5f0c:	008aa783          	lw	a5,8(s5)
    5f10:	009b0b33          	add	s6,s6,s1
    5f14:	409989b3          	sub	s3,s3,s1
    5f18:	409784b3          	sub	s1,a5,s1
    5f1c:	009aa423          	sw	s1,8(s5)
    5f20:	f40494e3          	bnez	s1,5e68 <__sfvwrite_r+0x94>
    5f24:	06c0006f          	j	5f90 <__sfvwrite_r+0x1bc>
    5f28:	00040593          	mv	a1,s0
    5f2c:	00090513          	mv	a0,s2
    5f30:	00005097          	auipc	ra,0x5
    5f34:	99c080e7          	jalr	-1636(ra) # a8cc <__swsetup_r>
    5f38:	fff00793          	li	a5,-1
    5f3c:	f00502e3          	beqz	a0,5e40 <__sfvwrite_r+0x6c>
    5f40:	0540006f          	j	5f94 <__sfvwrite_r+0x1c0>
    5f44:	000a2983          	lw	s3,0(s4)
    5f48:	004a2483          	lw	s1,4(s4)
    5f4c:	008a0a13          	addi	s4,s4,8
    5f50:	fe048ae3          	beqz	s1,5f44 <__sfvwrite_r+0x170>
    5f54:	00048693          	mv	a3,s1
    5f58:	009b7463          	bgeu	s6,s1,5f60 <__sfvwrite_r+0x18c>
    5f5c:	000b0693          	mv	a3,s6
    5f60:	02442783          	lw	a5,36(s0)
    5f64:	01c42583          	lw	a1,28(s0)
    5f68:	00098613          	mv	a2,s3
    5f6c:	00090513          	mv	a0,s2
    5f70:	000780e7          	jalr	a5
    5f74:	0ea05663          	blez	a0,6060 <__sfvwrite_r+0x28c>
    5f78:	008aa783          	lw	a5,8(s5)
    5f7c:	00a989b3          	add	s3,s3,a0
    5f80:	40a484b3          	sub	s1,s1,a0
    5f84:	40a78533          	sub	a0,a5,a0
    5f88:	00aaa423          	sw	a0,8(s5)
    5f8c:	fc0512e3          	bnez	a0,5f50 <__sfvwrite_r+0x17c>
    5f90:	00000793          	li	a5,0
    5f94:	04c12083          	lw	ra,76(sp)
    5f98:	04812403          	lw	s0,72(sp)
    5f9c:	04412483          	lw	s1,68(sp)
    5fa0:	04012903          	lw	s2,64(sp)
    5fa4:	03c12983          	lw	s3,60(sp)
    5fa8:	03812a03          	lw	s4,56(sp)
    5fac:	03412a83          	lw	s5,52(sp)
    5fb0:	03012b03          	lw	s6,48(sp)
    5fb4:	02c12b83          	lw	s7,44(sp)
    5fb8:	02812c03          	lw	s8,40(sp)
    5fbc:	02412c83          	lw	s9,36(sp)
    5fc0:	02012d03          	lw	s10,32(sp)
    5fc4:	01c12d83          	lw	s11,28(sp)
    5fc8:	00078513          	mv	a0,a5
    5fcc:	05010113          	addi	sp,sp,80
    5fd0:	00008067          	ret
    5fd4:	80000b37          	lui	s6,0x80000
    5fd8:	00000993          	li	s3,0
    5fdc:	00000493          	li	s1,0
    5fe0:	c00b4b13          	xori	s6,s6,-1024
    5fe4:	f6dff06f          	j	5f50 <__sfvwrite_r+0x17c>
    5fe8:	000a2b03          	lw	s6,0(s4)
    5fec:	004a2483          	lw	s1,4(s4)
    5ff0:	008a0a13          	addi	s4,s4,8
    5ff4:	fe048ae3          	beqz	s1,5fe8 <__sfvwrite_r+0x214>
    5ff8:	00c45703          	lhu	a4,12(s0)
    5ffc:	00842783          	lw	a5,8(s0)
    6000:	00042503          	lw	a0,0(s0)
    6004:	20077693          	andi	a3,a4,512
    6008:	16068263          	beqz	a3,616c <__sfvwrite_r+0x398>
    600c:	0cf4e663          	bltu	s1,a5,60d8 <__sfvwrite_r+0x304>
    6010:	48077693          	andi	a3,a4,1152
    6014:	0c068263          	beqz	a3,60d8 <__sfvwrite_r+0x304>
    6018:	01442d83          	lw	s11,20(s0)
    601c:	01042583          	lw	a1,16(s0)
    6020:	03bc8db3          	mul	s11,s9,s11
    6024:	40b509b3          	sub	s3,a0,a1
    6028:	00198793          	addi	a5,s3,1
    602c:	009787b3          	add	a5,a5,s1
    6030:	03adcdb3          	div	s11,s11,s10
    6034:	00fdf463          	bgeu	s11,a5,603c <__sfvwrite_r+0x268>
    6038:	00078d93          	mv	s11,a5
    603c:	40077713          	andi	a4,a4,1024
    6040:	0e070a63          	beqz	a4,6134 <__sfvwrite_r+0x360>
    6044:	000d8593          	mv	a1,s11
    6048:	00090513          	mv	a0,s2
    604c:	00000097          	auipc	ra,0x0
    6050:	21c080e7          	jalr	540(ra) # 6268 <_malloc_r>
    6054:	04051063          	bnez	a0,6094 <__sfvwrite_r+0x2c0>
    6058:	00c00793          	li	a5,12
    605c:	00f92023          	sw	a5,0(s2)
    6060:	00c45783          	lhu	a5,12(s0)
    6064:	0407e793          	ori	a5,a5,64
    6068:	00f41623          	sh	a5,12(s0)
    606c:	fff00793          	li	a5,-1
    6070:	f25ff06f          	j	5f94 <__sfvwrite_r+0x1c0>
    6074:	80000bb7          	lui	s7,0x80000
    6078:	ffebcc13          	xori	s8,s7,-2
    607c:	00000b13          	li	s6,0
    6080:	00000493          	li	s1,0
    6084:	fffbcb93          	not	s7,s7
    6088:	00300c93          	li	s9,3
    608c:	00200d13          	li	s10,2
    6090:	f65ff06f          	j	5ff4 <__sfvwrite_r+0x220>
    6094:	01042583          	lw	a1,16(s0)
    6098:	00098613          	mv	a2,s3
    609c:	00a12623          	sw	a0,12(sp)
    60a0:	00001097          	auipc	ra,0x1
    60a4:	8c8080e7          	jalr	-1848(ra) # 6968 <memcpy>
    60a8:	00c45703          	lhu	a4,12(s0)
    60ac:	00c12783          	lw	a5,12(sp)
    60b0:	b7f77713          	andi	a4,a4,-1153
    60b4:	08076713          	ori	a4,a4,128
    60b8:	00e41623          	sh	a4,12(s0)
    60bc:	00f42823          	sw	a5,16(s0)
    60c0:	01b42a23          	sw	s11,20(s0)
    60c4:	013787b3          	add	a5,a5,s3
    60c8:	413d8db3          	sub	s11,s11,s3
    60cc:	00f42023          	sw	a5,0(s0)
    60d0:	01b42423          	sw	s11,8(s0)
    60d4:	00048793          	mv	a5,s1
    60d8:	00048993          	mv	s3,s1
    60dc:	00f4f463          	bgeu	s1,a5,60e4 <__sfvwrite_r+0x310>
    60e0:	00048793          	mv	a5,s1
    60e4:	00042503          	lw	a0,0(s0)
    60e8:	00078613          	mv	a2,a5
    60ec:	000b0593          	mv	a1,s6
    60f0:	00f12623          	sw	a5,12(sp)
    60f4:	00001097          	auipc	ra,0x1
    60f8:	94c080e7          	jalr	-1716(ra) # 6a40 <memmove>
    60fc:	00842703          	lw	a4,8(s0)
    6100:	00c12783          	lw	a5,12(sp)
    6104:	40f70733          	sub	a4,a4,a5
    6108:	00e42423          	sw	a4,8(s0)
    610c:	00042703          	lw	a4,0(s0)
    6110:	00f707b3          	add	a5,a4,a5
    6114:	00f42023          	sw	a5,0(s0)
    6118:	008aa783          	lw	a5,8(s5)
    611c:	013b0b33          	add	s6,s6,s3
    6120:	413484b3          	sub	s1,s1,s3
    6124:	413789b3          	sub	s3,a5,s3
    6128:	013aa423          	sw	s3,8(s5)
    612c:	ec0994e3          	bnez	s3,5ff4 <__sfvwrite_r+0x220>
    6130:	e61ff06f          	j	5f90 <__sfvwrite_r+0x1bc>
    6134:	000d8613          	mv	a2,s11
    6138:	00090513          	mv	a0,s2
    613c:	00001097          	auipc	ra,0x1
    6140:	a44080e7          	jalr	-1468(ra) # 6b80 <_realloc_r>
    6144:	00050793          	mv	a5,a0
    6148:	f6051ae3          	bnez	a0,60bc <__sfvwrite_r+0x2e8>
    614c:	01042583          	lw	a1,16(s0)
    6150:	00090513          	mv	a0,s2
    6154:	00005097          	auipc	ra,0x5
    6158:	15c080e7          	jalr	348(ra) # b2b0 <_free_r>
    615c:	00c45783          	lhu	a5,12(s0)
    6160:	f7f7f793          	andi	a5,a5,-129
    6164:	00f41623          	sh	a5,12(s0)
    6168:	ef1ff06f          	j	6058 <__sfvwrite_r+0x284>
    616c:	01042703          	lw	a4,16(s0)
    6170:	00a76663          	bltu	a4,a0,617c <__sfvwrite_r+0x3a8>
    6174:	01442683          	lw	a3,20(s0)
    6178:	04d4fa63          	bgeu	s1,a3,61cc <__sfvwrite_r+0x3f8>
    617c:	00078993          	mv	s3,a5
    6180:	00f4f463          	bgeu	s1,a5,6188 <__sfvwrite_r+0x3b4>
    6184:	00048993          	mv	s3,s1
    6188:	00098613          	mv	a2,s3
    618c:	000b0593          	mv	a1,s6
    6190:	00001097          	auipc	ra,0x1
    6194:	8b0080e7          	jalr	-1872(ra) # 6a40 <memmove>
    6198:	00842783          	lw	a5,8(s0)
    619c:	00042703          	lw	a4,0(s0)
    61a0:	413787b3          	sub	a5,a5,s3
    61a4:	01370733          	add	a4,a4,s3
    61a8:	00f42423          	sw	a5,8(s0)
    61ac:	00e42023          	sw	a4,0(s0)
    61b0:	f60794e3          	bnez	a5,6118 <__sfvwrite_r+0x344>
    61b4:	00040593          	mv	a1,s0
    61b8:	00090513          	mv	a0,s2
    61bc:	00005097          	auipc	ra,0x5
    61c0:	a64080e7          	jalr	-1436(ra) # ac20 <_fflush_r>
    61c4:	f4050ae3          	beqz	a0,6118 <__sfvwrite_r+0x344>
    61c8:	e99ff06f          	j	6060 <__sfvwrite_r+0x28c>
    61cc:	00048793          	mv	a5,s1
    61d0:	009c7463          	bgeu	s8,s1,61d8 <__sfvwrite_r+0x404>
    61d4:	000b8793          	mv	a5,s7
    61d8:	02d7c7b3          	div	a5,a5,a3
    61dc:	02442703          	lw	a4,36(s0)
    61e0:	01c42583          	lw	a1,28(s0)
    61e4:	000b0613          	mv	a2,s6
    61e8:	00090513          	mv	a0,s2
    61ec:	02d786b3          	mul	a3,a5,a3
    61f0:	000700e7          	jalr	a4
    61f4:	00050993          	mv	s3,a0
    61f8:	f2a040e3          	bgtz	a0,6118 <__sfvwrite_r+0x344>
    61fc:	e65ff06f          	j	6060 <__sfvwrite_r+0x28c>
    6200:	000a2b03          	lw	s6,0(s4)
    6204:	004a2983          	lw	s3,4(s4)
    6208:	00000513          	li	a0,0
    620c:	008a0a13          	addi	s4,s4,8
    6210:	c59ff06f          	j	5e68 <__sfvwrite_r+0x94>
    6214:	02dc4263          	blt	s8,a3,6238 <__sfvwrite_r+0x464>
    6218:	02442783          	lw	a5,36(s0)
    621c:	01c42583          	lw	a1,28(s0)
    6220:	000b0613          	mv	a2,s6
    6224:	00090513          	mv	a0,s2
    6228:	000780e7          	jalr	a5
    622c:	00050493          	mv	s1,a0
    6230:	caa04ee3          	bgtz	a0,5eec <__sfvwrite_r+0x118>
    6234:	e2dff06f          	j	6060 <__sfvwrite_r+0x28c>
    6238:	000c0613          	mv	a2,s8
    623c:	000b0593          	mv	a1,s6
    6240:	00001097          	auipc	ra,0x1
    6244:	800080e7          	jalr	-2048(ra) # 6a40 <memmove>
    6248:	00842783          	lw	a5,8(s0)
    624c:	000c0493          	mv	s1,s8
    6250:	418787b3          	sub	a5,a5,s8
    6254:	00f42423          	sw	a5,8(s0)
    6258:	00042783          	lw	a5,0(s0)
    625c:	018787b3          	add	a5,a5,s8
    6260:	00f42023          	sw	a5,0(s0)
    6264:	c89ff06f          	j	5eec <__sfvwrite_r+0x118>

00006268 <_malloc_r>:
    6268:	fd010113          	addi	sp,sp,-48
    626c:	02112623          	sw	ra,44(sp)
    6270:	02812423          	sw	s0,40(sp)
    6274:	02912223          	sw	s1,36(sp)
    6278:	03212023          	sw	s2,32(sp)
    627c:	01312e23          	sw	s3,28(sp)
    6280:	01412c23          	sw	s4,24(sp)
    6284:	01512a23          	sw	s5,20(sp)
    6288:	01612823          	sw	s6,16(sp)
    628c:	01712623          	sw	s7,12(sp)
    6290:	01812423          	sw	s8,8(sp)
    6294:	01912223          	sw	s9,4(sp)
    6298:	00b58793          	addi	a5,a1,11
    629c:	01600713          	li	a4,22
    62a0:	04f77663          	bgeu	a4,a5,62ec <_malloc_r+0x84>
    62a4:	ff87f493          	andi	s1,a5,-8
    62a8:	0404d463          	bgez	s1,62f0 <_malloc_r+0x88>
    62ac:	00c00793          	li	a5,12
    62b0:	00f52023          	sw	a5,0(a0)
    62b4:	00000513          	li	a0,0
    62b8:	02c12083          	lw	ra,44(sp)
    62bc:	02812403          	lw	s0,40(sp)
    62c0:	02412483          	lw	s1,36(sp)
    62c4:	02012903          	lw	s2,32(sp)
    62c8:	01c12983          	lw	s3,28(sp)
    62cc:	01812a03          	lw	s4,24(sp)
    62d0:	01412a83          	lw	s5,20(sp)
    62d4:	01012b03          	lw	s6,16(sp)
    62d8:	00c12b83          	lw	s7,12(sp)
    62dc:	00812c03          	lw	s8,8(sp)
    62e0:	00412c83          	lw	s9,4(sp)
    62e4:	03010113          	addi	sp,sp,48
    62e8:	00008067          	ret
    62ec:	01000493          	li	s1,16
    62f0:	fab4eee3          	bltu	s1,a1,62ac <_malloc_r+0x44>
    62f4:	00050913          	mv	s2,a0
    62f8:	00001097          	auipc	ra,0x1
    62fc:	880080e7          	jalr	-1920(ra) # 6b78 <__malloc_lock>
    6300:	1f700793          	li	a5,503
    6304:	80046997          	auipc	s3,0x80046
    6308:	3e498993          	addi	s3,s3,996 # 8004c6e8 <__stack_top+0xfffd5898>
    630c:	0497ea63          	bltu	a5,s1,6360 <_malloc_r+0xf8>
    6310:	00848713          	addi	a4,s1,8
    6314:	00e98733          	add	a4,s3,a4
    6318:	00472403          	lw	s0,4(a4)
    631c:	ff870693          	addi	a3,a4,-8
    6320:	0034d793          	srli	a5,s1,0x3
    6324:	00d41863          	bne	s0,a3,6334 <_malloc_r+0xcc>
    6328:	00c72403          	lw	s0,12(a4)
    632c:	00278793          	addi	a5,a5,2
    6330:	08870063          	beq	a4,s0,63b0 <_malloc_r+0x148>
    6334:	00442783          	lw	a5,4(s0)
    6338:	00c42703          	lw	a4,12(s0)
    633c:	00842683          	lw	a3,8(s0)
    6340:	ffc7f793          	andi	a5,a5,-4
    6344:	00f407b3          	add	a5,s0,a5
    6348:	00e6a623          	sw	a4,12(a3)
    634c:	00d72423          	sw	a3,8(a4)
    6350:	0047a703          	lw	a4,4(a5)
    6354:	00176713          	ori	a4,a4,1
    6358:	00e7a223          	sw	a4,4(a5)
    635c:	0ac0006f          	j	6408 <_malloc_r+0x1a0>
    6360:	0094d713          	srli	a4,s1,0x9
    6364:	03f00793          	li	a5,63
    6368:	00070a63          	beqz	a4,637c <_malloc_r+0x114>
    636c:	00400793          	li	a5,4
    6370:	0ae7e663          	bltu	a5,a4,641c <_malloc_r+0x1b4>
    6374:	0064d793          	srli	a5,s1,0x6
    6378:	03878793          	addi	a5,a5,56
    637c:	00178713          	addi	a4,a5,1
    6380:	00371713          	slli	a4,a4,0x3
    6384:	00e98733          	add	a4,s3,a4
    6388:	00472403          	lw	s0,4(a4)
    638c:	ff870593          	addi	a1,a4,-8
    6390:	00f00513          	li	a0,15
    6394:	00b40c63          	beq	s0,a1,63ac <_malloc_r+0x144>
    6398:	00442703          	lw	a4,4(s0)
    639c:	ffc77713          	andi	a4,a4,-4
    63a0:	40970633          	sub	a2,a4,s1
    63a4:	0cc55463          	bge	a0,a2,646c <_malloc_r+0x204>
    63a8:	fff78793          	addi	a5,a5,-1
    63ac:	00178793          	addi	a5,a5,1
    63b0:	0109a403          	lw	s0,16(s3)
    63b4:	80046597          	auipc	a1,0x80046
    63b8:	33c58593          	addi	a1,a1,828 # 8004c6f0 <__stack_top+0xfffd58a0>
    63bc:	14b40463          	beq	s0,a1,6504 <_malloc_r+0x29c>
    63c0:	00442703          	lw	a4,4(s0)
    63c4:	00f00693          	li	a3,15
    63c8:	ffc77713          	andi	a4,a4,-4
    63cc:	40970633          	sub	a2,a4,s1
    63d0:	0cc6d063          	bge	a3,a2,6490 <_malloc_r+0x228>
    63d4:	0014e793          	ori	a5,s1,1
    63d8:	00f42223          	sw	a5,4(s0)
    63dc:	009406b3          	add	a3,s0,s1
    63e0:	80046797          	auipc	a5,0x80046
    63e4:	30d7ae23          	sw	a3,796(a5) # 8004c6fc <__stack_top+0xfffd58ac>
    63e8:	80046797          	auipc	a5,0x80046
    63ec:	30d7a823          	sw	a3,784(a5) # 8004c6f8 <__stack_top+0xfffd58a8>
    63f0:	00166793          	ori	a5,a2,1
    63f4:	00b6a623          	sw	a1,12(a3)
    63f8:	00b6a423          	sw	a1,8(a3)
    63fc:	00f6a223          	sw	a5,4(a3)
    6400:	00e40733          	add	a4,s0,a4
    6404:	00c72023          	sw	a2,0(a4)
    6408:	00090513          	mv	a0,s2
    640c:	00000097          	auipc	ra,0x0
    6410:	770080e7          	jalr	1904(ra) # 6b7c <__malloc_unlock>
    6414:	00840513          	addi	a0,s0,8
    6418:	ea1ff06f          	j	62b8 <_malloc_r+0x50>
    641c:	01400793          	li	a5,20
    6420:	00e7e663          	bltu	a5,a4,642c <_malloc_r+0x1c4>
    6424:	05b70793          	addi	a5,a4,91
    6428:	f55ff06f          	j	637c <_malloc_r+0x114>
    642c:	05400793          	li	a5,84
    6430:	00e7e863          	bltu	a5,a4,6440 <_malloc_r+0x1d8>
    6434:	00c4d793          	srli	a5,s1,0xc
    6438:	06e78793          	addi	a5,a5,110
    643c:	f41ff06f          	j	637c <_malloc_r+0x114>
    6440:	15400793          	li	a5,340
    6444:	00e7e863          	bltu	a5,a4,6454 <_malloc_r+0x1ec>
    6448:	00f4d793          	srli	a5,s1,0xf
    644c:	07778793          	addi	a5,a5,119
    6450:	f2dff06f          	j	637c <_malloc_r+0x114>
    6454:	55400693          	li	a3,1364
    6458:	07e00793          	li	a5,126
    645c:	f2e6e0e3          	bltu	a3,a4,637c <_malloc_r+0x114>
    6460:	0124d793          	srli	a5,s1,0x12
    6464:	07c78793          	addi	a5,a5,124
    6468:	f15ff06f          	j	637c <_malloc_r+0x114>
    646c:	00c42683          	lw	a3,12(s0)
    6470:	00064c63          	bltz	a2,6488 <_malloc_r+0x220>
    6474:	00842783          	lw	a5,8(s0)
    6478:	00d7a623          	sw	a3,12(a5)
    647c:	00f6a423          	sw	a5,8(a3)
    6480:	00e407b3          	add	a5,s0,a4
    6484:	ecdff06f          	j	6350 <_malloc_r+0xe8>
    6488:	00068413          	mv	s0,a3
    648c:	f09ff06f          	j	6394 <_malloc_r+0x12c>
    6490:	80046697          	auipc	a3,0x80046
    6494:	26b6a623          	sw	a1,620(a3) # 8004c6fc <__stack_top+0xfffd58ac>
    6498:	80046697          	auipc	a3,0x80046
    649c:	26b6a023          	sw	a1,608(a3) # 8004c6f8 <__stack_top+0xfffd58a8>
    64a0:	00064c63          	bltz	a2,64b8 <_malloc_r+0x250>
    64a4:	00e40733          	add	a4,s0,a4
    64a8:	00472783          	lw	a5,4(a4)
    64ac:	0017e793          	ori	a5,a5,1
    64b0:	00f72223          	sw	a5,4(a4)
    64b4:	f55ff06f          	j	6408 <_malloc_r+0x1a0>
    64b8:	1ff00693          	li	a3,511
    64bc:	0049a803          	lw	a6,4(s3)
    64c0:	1ae6e463          	bltu	a3,a4,6668 <_malloc_r+0x400>
    64c4:	00375713          	srli	a4,a4,0x3
    64c8:	40275613          	srai	a2,a4,0x2
    64cc:	00100693          	li	a3,1
    64d0:	00170713          	addi	a4,a4,1
    64d4:	00c696b3          	sll	a3,a3,a2
    64d8:	00371713          	slli	a4,a4,0x3
    64dc:	00e98733          	add	a4,s3,a4
    64e0:	0106e6b3          	or	a3,a3,a6
    64e4:	80046617          	auipc	a2,0x80046
    64e8:	20d62423          	sw	a3,520(a2) # 8004c6ec <__stack_top+0xfffd589c>
    64ec:	00072683          	lw	a3,0(a4)
    64f0:	ff870613          	addi	a2,a4,-8
    64f4:	00c42623          	sw	a2,12(s0)
    64f8:	00d42423          	sw	a3,8(s0)
    64fc:	00872023          	sw	s0,0(a4)
    6500:	0086a623          	sw	s0,12(a3)
    6504:	4027d713          	srai	a4,a5,0x2
    6508:	00100313          	li	t1,1
    650c:	00e31333          	sll	t1,t1,a4
    6510:	0049a703          	lw	a4,4(s3)
    6514:	06676c63          	bltu	a4,t1,658c <_malloc_r+0x324>
    6518:	006776b3          	and	a3,a4,t1
    651c:	00069c63          	bnez	a3,6534 <_malloc_r+0x2cc>
    6520:	ffc7f793          	andi	a5,a5,-4
    6524:	00131313          	slli	t1,t1,0x1
    6528:	006776b3          	and	a3,a4,t1
    652c:	00478793          	addi	a5,a5,4
    6530:	fe068ae3          	beqz	a3,6524 <_malloc_r+0x2bc>
    6534:	00f00e13          	li	t3,15
    6538:	00379693          	slli	a3,a5,0x3
    653c:	00d986b3          	add	a3,s3,a3
    6540:	00068813          	mv	a6,a3
    6544:	00078513          	mv	a0,a5
    6548:	00c82403          	lw	s0,12(a6)
    654c:	1f041063          	bne	s0,a6,672c <_malloc_r+0x4c4>
    6550:	00150513          	addi	a0,a0,1
    6554:	00357713          	andi	a4,a0,3
    6558:	00880813          	addi	a6,a6,8
    655c:	fe0716e3          	bnez	a4,6548 <_malloc_r+0x2e0>
    6560:	0037f713          	andi	a4,a5,3
    6564:	24071663          	bnez	a4,67b0 <_malloc_r+0x548>
    6568:	0049a703          	lw	a4,4(s3)
    656c:	fff34793          	not	a5,t1
    6570:	00f777b3          	and	a5,a4,a5
    6574:	80046717          	auipc	a4,0x80046
    6578:	16f72c23          	sw	a5,376(a4) # 8004c6ec <__stack_top+0xfffd589c>
    657c:	0049a703          	lw	a4,4(s3)
    6580:	00131313          	slli	t1,t1,0x1
    6584:	00676463          	bltu	a4,t1,658c <_malloc_r+0x324>
    6588:	24031863          	bnez	t1,67d8 <_malloc_r+0x570>
    658c:	0089ab83          	lw	s7,8(s3)
    6590:	004ba403          	lw	s0,4(s7) # 80000004 <__stack_top+0xfff891b4>
    6594:	ffc47a93          	andi	s5,s0,-4
    6598:	009ae863          	bltu	s5,s1,65a8 <_malloc_r+0x340>
    659c:	409a8733          	sub	a4,s5,s1
    65a0:	00f00793          	li	a5,15
    65a4:	38e7c263          	blt	a5,a4,6928 <_malloc_r+0x6c0>
    65a8:	80046797          	auipc	a5,0x80046
    65ac:	6e078793          	addi	a5,a5,1760 # 8004cc88 <__stack_top+0xfffd5e38>
    65b0:	80046717          	auipc	a4,0x80046
    65b4:	6b470713          	addi	a4,a4,1716 # 8004cc64 <__stack_top+0xfffd5e14>
    65b8:	0007a403          	lw	s0,0(a5)
    65bc:	00072683          	lw	a3,0(a4)
    65c0:	fff00793          	li	a5,-1
    65c4:	015b8c33          	add	s8,s7,s5
    65c8:	00848433          	add	s0,s1,s0
    65cc:	00070a13          	mv	s4,a4
    65d0:	20f69863          	bne	a3,a5,67e0 <_malloc_r+0x578>
    65d4:	01040413          	addi	s0,s0,16
    65d8:	00040593          	mv	a1,s0
    65dc:	00090513          	mv	a0,s2
    65e0:	00001097          	auipc	ra,0x1
    65e4:	b20080e7          	jalr	-1248(ra) # 7100 <_sbrk_r>
    65e8:	fff00793          	li	a5,-1
    65ec:	00050b13          	mv	s6,a0
    65f0:	2af50c63          	beq	a0,a5,68a8 <_malloc_r+0x640>
    65f4:	01857463          	bgeu	a0,s8,65fc <_malloc_r+0x394>
    65f8:	2b3b9863          	bne	s7,s3,68a8 <_malloc_r+0x640>
    65fc:	80047c97          	auipc	s9,0x80047
    6600:	828c8c93          	addi	s9,s9,-2008 # 8004ce24 <__stack_top+0xfffd5fd4>
    6604:	000ca703          	lw	a4,0(s9)
    6608:	00e40733          	add	a4,s0,a4
    660c:	80047797          	auipc	a5,0x80047
    6610:	80e7ac23          	sw	a4,-2024(a5) # 8004ce24 <__stack_top+0xfffd5fd4>
    6614:	1f6c1263          	bne	s8,s6,67f8 <_malloc_r+0x590>
    6618:	014c1793          	slli	a5,s8,0x14
    661c:	1c079e63          	bnez	a5,67f8 <_malloc_r+0x590>
    6620:	0089a783          	lw	a5,8(s3)
    6624:	008a8433          	add	s0,s5,s0
    6628:	00146413          	ori	s0,s0,1
    662c:	0087a223          	sw	s0,4(a5)
    6630:	80046717          	auipc	a4,0x80046
    6634:	65470713          	addi	a4,a4,1620 # 8004cc84 <__stack_top+0xfffd5e34>
    6638:	000ca783          	lw	a5,0(s9)
    663c:	00072703          	lw	a4,0(a4)
    6640:	00f77663          	bgeu	a4,a5,664c <_malloc_r+0x3e4>
    6644:	80046717          	auipc	a4,0x80046
    6648:	64f72023          	sw	a5,1600(a4) # 8004cc84 <__stack_top+0xfffd5e34>
    664c:	80046717          	auipc	a4,0x80046
    6650:	63470713          	addi	a4,a4,1588 # 8004cc80 <__stack_top+0xfffd5e30>
    6654:	00072703          	lw	a4,0(a4)
    6658:	24f77863          	bgeu	a4,a5,68a8 <_malloc_r+0x640>
    665c:	80046717          	auipc	a4,0x80046
    6660:	62f72223          	sw	a5,1572(a4) # 8004cc80 <__stack_top+0xfffd5e30>
    6664:	2440006f          	j	68a8 <_malloc_r+0x640>
    6668:	00975613          	srli	a2,a4,0x9
    666c:	00400693          	li	a3,4
    6670:	04c6e863          	bltu	a3,a2,66c0 <_malloc_r+0x458>
    6674:	00675693          	srli	a3,a4,0x6
    6678:	03868693          	addi	a3,a3,56
    667c:	00168613          	addi	a2,a3,1
    6680:	00361613          	slli	a2,a2,0x3
    6684:	00c98633          	add	a2,s3,a2
    6688:	ff860513          	addi	a0,a2,-8
    668c:	00062603          	lw	a2,0(a2)
    6690:	08c51463          	bne	a0,a2,6718 <_malloc_r+0x4b0>
    6694:	00100713          	li	a4,1
    6698:	4026d693          	srai	a3,a3,0x2
    669c:	00d716b3          	sll	a3,a4,a3
    66a0:	0106e6b3          	or	a3,a3,a6
    66a4:	80046717          	auipc	a4,0x80046
    66a8:	04d72423          	sw	a3,72(a4) # 8004c6ec <__stack_top+0xfffd589c>
    66ac:	00a42623          	sw	a0,12(s0)
    66b0:	00c42423          	sw	a2,8(s0)
    66b4:	00852423          	sw	s0,8(a0)
    66b8:	00862623          	sw	s0,12(a2)
    66bc:	e49ff06f          	j	6504 <_malloc_r+0x29c>
    66c0:	01400693          	li	a3,20
    66c4:	00c6e663          	bltu	a3,a2,66d0 <_malloc_r+0x468>
    66c8:	05b60693          	addi	a3,a2,91
    66cc:	fb1ff06f          	j	667c <_malloc_r+0x414>
    66d0:	05400693          	li	a3,84
    66d4:	00c6e863          	bltu	a3,a2,66e4 <_malloc_r+0x47c>
    66d8:	00c75693          	srli	a3,a4,0xc
    66dc:	06e68693          	addi	a3,a3,110
    66e0:	f9dff06f          	j	667c <_malloc_r+0x414>
    66e4:	15400693          	li	a3,340
    66e8:	00c6e863          	bltu	a3,a2,66f8 <_malloc_r+0x490>
    66ec:	00f75693          	srli	a3,a4,0xf
    66f0:	07768693          	addi	a3,a3,119
    66f4:	f89ff06f          	j	667c <_malloc_r+0x414>
    66f8:	55400513          	li	a0,1364
    66fc:	07e00693          	li	a3,126
    6700:	f6c56ee3          	bltu	a0,a2,667c <_malloc_r+0x414>
    6704:	01275693          	srli	a3,a4,0x12
    6708:	07c68693          	addi	a3,a3,124
    670c:	f71ff06f          	j	667c <_malloc_r+0x414>
    6710:	00862603          	lw	a2,8(a2)
    6714:	00c50863          	beq	a0,a2,6724 <_malloc_r+0x4bc>
    6718:	00462683          	lw	a3,4(a2)
    671c:	ffc6f693          	andi	a3,a3,-4
    6720:	fed768e3          	bltu	a4,a3,6710 <_malloc_r+0x4a8>
    6724:	00c62503          	lw	a0,12(a2)
    6728:	f85ff06f          	j	66ac <_malloc_r+0x444>
    672c:	00442703          	lw	a4,4(s0)
    6730:	00c42603          	lw	a2,12(s0)
    6734:	ffc77713          	andi	a4,a4,-4
    6738:	409708b3          	sub	a7,a4,s1
    673c:	051e5463          	bge	t3,a7,6784 <_malloc_r+0x51c>
    6740:	0014e793          	ori	a5,s1,1
    6744:	00f42223          	sw	a5,4(s0)
    6748:	00842783          	lw	a5,8(s0)
    674c:	009406b3          	add	a3,s0,s1
    6750:	00e40733          	add	a4,s0,a4
    6754:	00c7a623          	sw	a2,12(a5)
    6758:	00f62423          	sw	a5,8(a2)
    675c:	80046797          	auipc	a5,0x80046
    6760:	fad7a023          	sw	a3,-96(a5) # 8004c6fc <__stack_top+0xfffd58ac>
    6764:	80046797          	auipc	a5,0x80046
    6768:	f8d7aa23          	sw	a3,-108(a5) # 8004c6f8 <__stack_top+0xfffd58a8>
    676c:	0018e793          	ori	a5,a7,1
    6770:	00b6a623          	sw	a1,12(a3)
    6774:	00b6a423          	sw	a1,8(a3)
    6778:	00f6a223          	sw	a5,4(a3)
    677c:	01172023          	sw	a7,0(a4)
    6780:	c89ff06f          	j	6408 <_malloc_r+0x1a0>
    6784:	0208c263          	bltz	a7,67a8 <_malloc_r+0x540>
    6788:	00e40733          	add	a4,s0,a4
    678c:	00472783          	lw	a5,4(a4)
    6790:	0017e793          	ori	a5,a5,1
    6794:	00f72223          	sw	a5,4(a4)
    6798:	00842783          	lw	a5,8(s0)
    679c:	00c7a623          	sw	a2,12(a5)
    67a0:	00f62423          	sw	a5,8(a2)
    67a4:	c65ff06f          	j	6408 <_malloc_r+0x1a0>
    67a8:	00060413          	mv	s0,a2
    67ac:	da1ff06f          	j	654c <_malloc_r+0x2e4>
    67b0:	ff868693          	addi	a3,a3,-8
    67b4:	0086a703          	lw	a4,8(a3)
    67b8:	fff78793          	addi	a5,a5,-1
    67bc:	dad702e3          	beq	a4,a3,6560 <_malloc_r+0x2f8>
    67c0:	dbdff06f          	j	657c <_malloc_r+0x314>
    67c4:	00478793          	addi	a5,a5,4
    67c8:	00131313          	slli	t1,t1,0x1
    67cc:	006776b3          	and	a3,a4,t1
    67d0:	fe068ae3          	beqz	a3,67c4 <_malloc_r+0x55c>
    67d4:	d65ff06f          	j	6538 <_malloc_r+0x2d0>
    67d8:	00050793          	mv	a5,a0
    67dc:	ff1ff06f          	j	67cc <_malloc_r+0x564>
    67e0:	00001737          	lui	a4,0x1
    67e4:	00f70713          	addi	a4,a4,15 # 100f <_ZN6tflite21MicroInterpreterGraph15ResetTensorDataEPKNS_6TensorEP16TfLiteEvalTensor+0x5f>
    67e8:	00e40433          	add	s0,s0,a4
    67ec:	fffff7b7          	lui	a5,0xfffff
    67f0:	00f47433          	and	s0,s0,a5
    67f4:	de5ff06f          	j	65d8 <_malloc_r+0x370>
    67f8:	000a2683          	lw	a3,0(s4)
    67fc:	fff00793          	li	a5,-1
    6800:	0cf69a63          	bne	a3,a5,68d4 <_malloc_r+0x66c>
    6804:	80046797          	auipc	a5,0x80046
    6808:	4767a023          	sw	s6,1120(a5) # 8004cc64 <__stack_top+0xfffd5e14>
    680c:	007b7c13          	andi	s8,s6,7
    6810:	00000793          	li	a5,0
    6814:	000c0863          	beqz	s8,6824 <_malloc_r+0x5bc>
    6818:	00800793          	li	a5,8
    681c:	418787b3          	sub	a5,a5,s8
    6820:	00fb0b33          	add	s6,s6,a5
    6824:	00001537          	lui	a0,0x1
    6828:	00a78a33          	add	s4,a5,a0
    682c:	008b0433          	add	s0,s6,s0
    6830:	fff50513          	addi	a0,a0,-1 # fff <_ZN6tflite21MicroInterpreterGraph15ResetTensorDataEPKNS_6TensorEP16TfLiteEvalTensor+0x4f>
    6834:	00a477b3          	and	a5,s0,a0
    6838:	40fa0a33          	sub	s4,s4,a5
    683c:	00aa7a33          	and	s4,s4,a0
    6840:	000a0593          	mv	a1,s4
    6844:	00090513          	mv	a0,s2
    6848:	00001097          	auipc	ra,0x1
    684c:	8b8080e7          	jalr	-1864(ra) # 7100 <_sbrk_r>
    6850:	fff00793          	li	a5,-1
    6854:	00f51c63          	bne	a0,a5,686c <_malloc_r+0x604>
    6858:	00040513          	mv	a0,s0
    685c:	000c0663          	beqz	s8,6868 <_malloc_r+0x600>
    6860:	ff8c0513          	addi	a0,s8,-8
    6864:	00a40533          	add	a0,s0,a0
    6868:	00000a13          	li	s4,0
    686c:	000ca783          	lw	a5,0(s9)
    6870:	41650533          	sub	a0,a0,s6
    6874:	014787b3          	add	a5,a5,s4
    6878:	01450a33          	add	s4,a0,s4
    687c:	80046717          	auipc	a4,0x80046
    6880:	5af72423          	sw	a5,1448(a4) # 8004ce24 <__stack_top+0xfffd5fd4>
    6884:	001a6a13          	ori	s4,s4,1
    6888:	80046797          	auipc	a5,0x80046
    688c:	e767a423          	sw	s6,-408(a5) # 8004c6f0 <__stack_top+0xfffd58a0>
    6890:	014b2223          	sw	s4,4(s6) # 80000004 <__stack_top+0xfff891b4>
    6894:	d93b8ee3          	beq	s7,s3,6630 <_malloc_r+0x3c8>
    6898:	00f00713          	li	a4,15
    689c:	05576663          	bltu	a4,s5,68e8 <_malloc_r+0x680>
    68a0:	00100793          	li	a5,1
    68a4:	00fb2223          	sw	a5,4(s6)
    68a8:	0089a783          	lw	a5,8(s3)
    68ac:	0047a783          	lw	a5,4(a5)
    68b0:	ffc7f793          	andi	a5,a5,-4
    68b4:	40978733          	sub	a4,a5,s1
    68b8:	0097e663          	bltu	a5,s1,68c4 <_malloc_r+0x65c>
    68bc:	00f00793          	li	a5,15
    68c0:	06e7c463          	blt	a5,a4,6928 <_malloc_r+0x6c0>
    68c4:	00090513          	mv	a0,s2
    68c8:	00000097          	auipc	ra,0x0
    68cc:	2b4080e7          	jalr	692(ra) # 6b7c <__malloc_unlock>
    68d0:	9e5ff06f          	j	62b4 <_malloc_r+0x4c>
    68d4:	418b07b3          	sub	a5,s6,s8
    68d8:	00e787b3          	add	a5,a5,a4
    68dc:	80046717          	auipc	a4,0x80046
    68e0:	54f72423          	sw	a5,1352(a4) # 8004ce24 <__stack_top+0xfffd5fd4>
    68e4:	f29ff06f          	j	680c <_malloc_r+0x5a4>
    68e8:	004ba783          	lw	a5,4(s7)
    68ec:	ff4a8413          	addi	s0,s5,-12
    68f0:	ff847413          	andi	s0,s0,-8
    68f4:	0017f793          	andi	a5,a5,1
    68f8:	0087e7b3          	or	a5,a5,s0
    68fc:	00fba223          	sw	a5,4(s7)
    6900:	00500693          	li	a3,5
    6904:	008b87b3          	add	a5,s7,s0
    6908:	00d7a223          	sw	a3,4(a5)
    690c:	00d7a423          	sw	a3,8(a5)
    6910:	d28770e3          	bgeu	a4,s0,6630 <_malloc_r+0x3c8>
    6914:	008b8593          	addi	a1,s7,8
    6918:	00090513          	mv	a0,s2
    691c:	00005097          	auipc	ra,0x5
    6920:	994080e7          	jalr	-1644(ra) # b2b0 <_free_r>
    6924:	d0dff06f          	j	6630 <_malloc_r+0x3c8>
    6928:	0089a403          	lw	s0,8(s3)
    692c:	0014e793          	ori	a5,s1,1
    6930:	00f42223          	sw	a5,4(s0)
    6934:	009407b3          	add	a5,s0,s1
    6938:	80046697          	auipc	a3,0x80046
    693c:	daf6ac23          	sw	a5,-584(a3) # 8004c6f0 <__stack_top+0xfffd58a0>
    6940:	a15ff06f          	j	6354 <_malloc_r+0xec>

00006944 <memchr>:
    6944:	0ff5f593          	zext.b	a1,a1
    6948:	00c50633          	add	a2,a0,a2
    694c:	00c51663          	bne	a0,a2,6958 <memchr+0x14>
    6950:	00000513          	li	a0,0
    6954:	00008067          	ret
    6958:	00054783          	lbu	a5,0(a0)
    695c:	feb78ce3          	beq	a5,a1,6954 <memchr+0x10>
    6960:	00150513          	addi	a0,a0,1
    6964:	fe9ff06f          	j	694c <memchr+0x8>

00006968 <memcpy>:
    6968:	00a5c7b3          	xor	a5,a1,a0
    696c:	0037f793          	andi	a5,a5,3
    6970:	00c50733          	add	a4,a0,a2
    6974:	00079663          	bnez	a5,6980 <memcpy+0x18>
    6978:	00300793          	li	a5,3
    697c:	02c7e263          	bltu	a5,a2,69a0 <memcpy+0x38>
    6980:	00050793          	mv	a5,a0
    6984:	0ae57c63          	bgeu	a0,a4,6a3c <memcpy+0xd4>
    6988:	0005c683          	lbu	a3,0(a1)
    698c:	00178793          	addi	a5,a5,1
    6990:	00158593          	addi	a1,a1,1
    6994:	fed78fa3          	sb	a3,-1(a5)
    6998:	fee7e8e3          	bltu	a5,a4,6988 <memcpy+0x20>
    699c:	00008067          	ret
    69a0:	00357693          	andi	a3,a0,3
    69a4:	00050793          	mv	a5,a0
    69a8:	00068e63          	beqz	a3,69c4 <memcpy+0x5c>
    69ac:	0005c683          	lbu	a3,0(a1)
    69b0:	00178793          	addi	a5,a5,1
    69b4:	00158593          	addi	a1,a1,1
    69b8:	fed78fa3          	sb	a3,-1(a5)
    69bc:	0037f693          	andi	a3,a5,3
    69c0:	fe9ff06f          	j	69a8 <memcpy+0x40>
    69c4:	ffc77693          	andi	a3,a4,-4
    69c8:	fe068613          	addi	a2,a3,-32
    69cc:	06c7f463          	bgeu	a5,a2,6a34 <memcpy+0xcc>
    69d0:	0005a383          	lw	t2,0(a1)
    69d4:	0045a283          	lw	t0,4(a1)
    69d8:	0085af83          	lw	t6,8(a1)
    69dc:	00c5af03          	lw	t5,12(a1)
    69e0:	0105ae83          	lw	t4,16(a1)
    69e4:	0145ae03          	lw	t3,20(a1)
    69e8:	0185a303          	lw	t1,24(a1)
    69ec:	01c5a883          	lw	a7,28(a1)
    69f0:	02458593          	addi	a1,a1,36
    69f4:	0077a023          	sw	t2,0(a5)
    69f8:	ffc5a803          	lw	a6,-4(a1)
    69fc:	0057a223          	sw	t0,4(a5)
    6a00:	01f7a423          	sw	t6,8(a5)
    6a04:	01e7a623          	sw	t5,12(a5)
    6a08:	01d7a823          	sw	t4,16(a5)
    6a0c:	01c7aa23          	sw	t3,20(a5)
    6a10:	0067ac23          	sw	t1,24(a5)
    6a14:	0117ae23          	sw	a7,28(a5)
    6a18:	02478793          	addi	a5,a5,36
    6a1c:	ff07ae23          	sw	a6,-4(a5)
    6a20:	fadff06f          	j	69cc <memcpy+0x64>
    6a24:	0005a603          	lw	a2,0(a1)
    6a28:	00478793          	addi	a5,a5,4
    6a2c:	00458593          	addi	a1,a1,4
    6a30:	fec7ae23          	sw	a2,-4(a5)
    6a34:	fed7e8e3          	bltu	a5,a3,6a24 <memcpy+0xbc>
    6a38:	f4e7e8e3          	bltu	a5,a4,6988 <memcpy+0x20>
    6a3c:	00008067          	ret

00006a40 <memmove>:
    6a40:	04a5fa63          	bgeu	a1,a0,6a94 <memmove+0x54>
    6a44:	00c586b3          	add	a3,a1,a2
    6a48:	04d57663          	bgeu	a0,a3,6a94 <memmove+0x54>
    6a4c:	fff64593          	not	a1,a2
    6a50:	00000793          	li	a5,0
    6a54:	fff78793          	addi	a5,a5,-1
    6a58:	00f59463          	bne	a1,a5,6a60 <memmove+0x20>
    6a5c:	00008067          	ret
    6a60:	00f68733          	add	a4,a3,a5
    6a64:	00074803          	lbu	a6,0(a4)
    6a68:	00c78733          	add	a4,a5,a2
    6a6c:	00e50733          	add	a4,a0,a4
    6a70:	01070023          	sb	a6,0(a4)
    6a74:	fe1ff06f          	j	6a54 <memmove+0x14>
    6a78:	00f58733          	add	a4,a1,a5
    6a7c:	00074683          	lbu	a3,0(a4)
    6a80:	00f50733          	add	a4,a0,a5
    6a84:	00178793          	addi	a5,a5,1
    6a88:	00d70023          	sb	a3,0(a4)
    6a8c:	fef616e3          	bne	a2,a5,6a78 <memmove+0x38>
    6a90:	00008067          	ret
    6a94:	00000793          	li	a5,0
    6a98:	ff5ff06f          	j	6a8c <memmove+0x4c>

00006a9c <memset>:
    6a9c:	00f00313          	li	t1,15
    6aa0:	00050713          	mv	a4,a0
    6aa4:	02c37e63          	bgeu	t1,a2,6ae0 <memset+0x44>
    6aa8:	00f77793          	andi	a5,a4,15
    6aac:	0a079063          	bnez	a5,6b4c <memset+0xb0>
    6ab0:	08059263          	bnez	a1,6b34 <memset+0x98>
    6ab4:	ff067693          	andi	a3,a2,-16
    6ab8:	00f67613          	andi	a2,a2,15
    6abc:	00e686b3          	add	a3,a3,a4
    6ac0:	00b72023          	sw	a1,0(a4)
    6ac4:	00b72223          	sw	a1,4(a4)
    6ac8:	00b72423          	sw	a1,8(a4)
    6acc:	00b72623          	sw	a1,12(a4)
    6ad0:	01070713          	addi	a4,a4,16
    6ad4:	fed766e3          	bltu	a4,a3,6ac0 <memset+0x24>
    6ad8:	00061463          	bnez	a2,6ae0 <memset+0x44>
    6adc:	00008067          	ret
    6ae0:	40c306b3          	sub	a3,t1,a2
    6ae4:	00269693          	slli	a3,a3,0x2
    6ae8:	00000297          	auipc	t0,0x0
    6aec:	005686b3          	add	a3,a3,t0
    6af0:	00c68067          	jr	12(a3)
    6af4:	00b70723          	sb	a1,14(a4)
    6af8:	00b706a3          	sb	a1,13(a4)
    6afc:	00b70623          	sb	a1,12(a4)
    6b00:	00b705a3          	sb	a1,11(a4)
    6b04:	00b70523          	sb	a1,10(a4)
    6b08:	00b704a3          	sb	a1,9(a4)
    6b0c:	00b70423          	sb	a1,8(a4)
    6b10:	00b703a3          	sb	a1,7(a4)
    6b14:	00b70323          	sb	a1,6(a4)
    6b18:	00b702a3          	sb	a1,5(a4)
    6b1c:	00b70223          	sb	a1,4(a4)
    6b20:	00b701a3          	sb	a1,3(a4)
    6b24:	00b70123          	sb	a1,2(a4)
    6b28:	00b700a3          	sb	a1,1(a4)
    6b2c:	00b70023          	sb	a1,0(a4)
    6b30:	00008067          	ret
    6b34:	0ff5f593          	zext.b	a1,a1
    6b38:	00859693          	slli	a3,a1,0x8
    6b3c:	00d5e5b3          	or	a1,a1,a3
    6b40:	01059693          	slli	a3,a1,0x10
    6b44:	00d5e5b3          	or	a1,a1,a3
    6b48:	f6dff06f          	j	6ab4 <memset+0x18>
    6b4c:	00279693          	slli	a3,a5,0x2
    6b50:	00000297          	auipc	t0,0x0
    6b54:	005686b3          	add	a3,a3,t0
    6b58:	00008293          	mv	t0,ra
    6b5c:	fa0680e7          	jalr	-96(a3)
    6b60:	00028093          	mv	ra,t0
    6b64:	ff078793          	addi	a5,a5,-16
    6b68:	40f70733          	sub	a4,a4,a5
    6b6c:	00f60633          	add	a2,a2,a5
    6b70:	f6c378e3          	bgeu	t1,a2,6ae0 <memset+0x44>
    6b74:	f3dff06f          	j	6ab0 <memset+0x14>

00006b78 <__malloc_lock>:
    6b78:	00008067          	ret

00006b7c <__malloc_unlock>:
    6b7c:	00008067          	ret

00006b80 <_realloc_r>:
    6b80:	fc010113          	addi	sp,sp,-64
    6b84:	02812c23          	sw	s0,56(sp)
    6b88:	02112e23          	sw	ra,60(sp)
    6b8c:	00058413          	mv	s0,a1
    6b90:	02912a23          	sw	s1,52(sp)
    6b94:	03212823          	sw	s2,48(sp)
    6b98:	03312623          	sw	s3,44(sp)
    6b9c:	03412423          	sw	s4,40(sp)
    6ba0:	03512223          	sw	s5,36(sp)
    6ba4:	03612023          	sw	s6,32(sp)
    6ba8:	01712e23          	sw	s7,28(sp)
    6bac:	00060593          	mv	a1,a2
    6bb0:	02041a63          	bnez	s0,6be4 <_realloc_r+0x64>
    6bb4:	03812403          	lw	s0,56(sp)
    6bb8:	03c12083          	lw	ra,60(sp)
    6bbc:	03412483          	lw	s1,52(sp)
    6bc0:	03012903          	lw	s2,48(sp)
    6bc4:	02c12983          	lw	s3,44(sp)
    6bc8:	02812a03          	lw	s4,40(sp)
    6bcc:	02412a83          	lw	s5,36(sp)
    6bd0:	02012b03          	lw	s6,32(sp)
    6bd4:	01c12b83          	lw	s7,28(sp)
    6bd8:	04010113          	addi	sp,sp,64
    6bdc:	fffff317          	auipc	t1,0xfffff
    6be0:	68c30067          	jr	1676(t1) # 6268 <_malloc_r>
    6be4:	00050a93          	mv	s5,a0
    6be8:	00c12623          	sw	a2,12(sp)
    6bec:	00000097          	auipc	ra,0x0
    6bf0:	f8c080e7          	jalr	-116(ra) # 6b78 <__malloc_lock>
    6bf4:	00c12583          	lw	a1,12(sp)
    6bf8:	01600793          	li	a5,22
    6bfc:	00b58993          	addi	s3,a1,11
    6c00:	0537f463          	bgeu	a5,s3,6c48 <_realloc_r+0xc8>
    6c04:	ff89fb13          	andi	s6,s3,-8
    6c08:	040b5263          	bgez	s6,6c4c <_realloc_r+0xcc>
    6c0c:	00c00793          	li	a5,12
    6c10:	00faa023          	sw	a5,0(s5)
    6c14:	00000a13          	li	s4,0
    6c18:	03c12083          	lw	ra,60(sp)
    6c1c:	03812403          	lw	s0,56(sp)
    6c20:	000a0513          	mv	a0,s4
    6c24:	03412483          	lw	s1,52(sp)
    6c28:	03012903          	lw	s2,48(sp)
    6c2c:	02c12983          	lw	s3,44(sp)
    6c30:	02812a03          	lw	s4,40(sp)
    6c34:	02412a83          	lw	s5,36(sp)
    6c38:	02012b03          	lw	s6,32(sp)
    6c3c:	01c12b83          	lw	s7,28(sp)
    6c40:	04010113          	addi	sp,sp,64
    6c44:	00008067          	ret
    6c48:	01000b13          	li	s6,16
    6c4c:	fcbb60e3          	bltu	s6,a1,6c0c <_realloc_r+0x8c>
    6c50:	ffc42683          	lw	a3,-4(s0)
    6c54:	ff840b93          	addi	s7,s0,-8
    6c58:	ffc6f913          	andi	s2,a3,-4
    6c5c:	49695263          	bge	s2,s6,70e0 <_realloc_r+0x560>
    6c60:	80046717          	auipc	a4,0x80046
    6c64:	a8870713          	addi	a4,a4,-1400 # 8004c6e8 <__stack_top+0xfffd5898>
    6c68:	00872603          	lw	a2,8(a4)
    6c6c:	012b87b3          	add	a5,s7,s2
    6c70:	0047a703          	lw	a4,4(a5)
    6c74:	00f60c63          	beq	a2,a5,6c8c <_realloc_r+0x10c>
    6c78:	ffe77513          	andi	a0,a4,-2
    6c7c:	00a78533          	add	a0,a5,a0
    6c80:	00452503          	lw	a0,4(a0)
    6c84:	00157513          	andi	a0,a0,1
    6c88:	06051863          	bnez	a0,6cf8 <_realloc_r+0x178>
    6c8c:	ffc77713          	andi	a4,a4,-4
    6c90:	00e909b3          	add	s3,s2,a4
    6c94:	04f61463          	bne	a2,a5,6cdc <_realloc_r+0x15c>
    6c98:	010b0513          	addi	a0,s6,16
    6c9c:	06a9c263          	blt	s3,a0,6d00 <_realloc_r+0x180>
    6ca0:	016b8bb3          	add	s7,s7,s6
    6ca4:	416989b3          	sub	s3,s3,s6
    6ca8:	80046797          	auipc	a5,0x80046
    6cac:	a577a423          	sw	s7,-1464(a5) # 8004c6f0 <__stack_top+0xfffd58a0>
    6cb0:	0019e993          	ori	s3,s3,1
    6cb4:	013ba223          	sw	s3,4(s7)
    6cb8:	ffc42983          	lw	s3,-4(s0)
    6cbc:	000a8513          	mv	a0,s5
    6cc0:	00040a13          	mv	s4,s0
    6cc4:	0019f993          	andi	s3,s3,1
    6cc8:	0169e9b3          	or	s3,s3,s6
    6ccc:	ff342e23          	sw	s3,-4(s0)
    6cd0:	00000097          	auipc	ra,0x0
    6cd4:	eac080e7          	jalr	-340(ra) # 6b7c <__malloc_unlock>
    6cd8:	f41ff06f          	j	6c18 <_realloc_r+0x98>
    6cdc:	0369c263          	blt	s3,s6,6d00 <_realloc_r+0x180>
    6ce0:	00c7a703          	lw	a4,12(a5)
    6ce4:	0087a783          	lw	a5,8(a5)
    6ce8:	00e7a623          	sw	a4,12(a5)
    6cec:	00f72423          	sw	a5,8(a4)
    6cf0:	000b8493          	mv	s1,s7
    6cf4:	19c0006f          	j	6e90 <_realloc_r+0x310>
    6cf8:	00000713          	li	a4,0
    6cfc:	00000793          	li	a5,0
    6d00:	0016f693          	andi	a3,a3,1
    6d04:	2e069663          	bnez	a3,6ff0 <_realloc_r+0x470>
    6d08:	ff842483          	lw	s1,-8(s0)
    6d0c:	409b84b3          	sub	s1,s7,s1
    6d10:	0044aa03          	lw	s4,4(s1)
    6d14:	ffca7a13          	andi	s4,s4,-4
    6d18:	012a0a33          	add	s4,s4,s2
    6d1c:	20078e63          	beqz	a5,6f38 <_realloc_r+0x3b8>
    6d20:	014709b3          	add	s3,a4,s4
    6d24:	0ef61c63          	bne	a2,a5,6e1c <_realloc_r+0x29c>
    6d28:	010b0793          	addi	a5,s6,16
    6d2c:	20f9c663          	blt	s3,a5,6f38 <_realloc_r+0x3b8>
    6d30:	0084a703          	lw	a4,8(s1)
    6d34:	00c4a783          	lw	a5,12(s1)
    6d38:	ffc90613          	addi	a2,s2,-4
    6d3c:	00848a13          	addi	s4,s1,8
    6d40:	00f72623          	sw	a5,12(a4)
    6d44:	00e7a423          	sw	a4,8(a5)
    6d48:	02400713          	li	a4,36
    6d4c:	0ac76e63          	bltu	a4,a2,6e08 <_realloc_r+0x288>
    6d50:	01300693          	li	a3,19
    6d54:	000a0793          	mv	a5,s4
    6d58:	02c6f263          	bgeu	a3,a2,6d7c <_realloc_r+0x1fc>
    6d5c:	00042783          	lw	a5,0(s0)
    6d60:	00f4a423          	sw	a5,8(s1)
    6d64:	00442783          	lw	a5,4(s0)
    6d68:	00f4a623          	sw	a5,12(s1)
    6d6c:	01b00793          	li	a5,27
    6d70:	04c7ee63          	bltu	a5,a2,6dcc <_realloc_r+0x24c>
    6d74:	00840413          	addi	s0,s0,8
    6d78:	01048793          	addi	a5,s1,16
    6d7c:	00042703          	lw	a4,0(s0)
    6d80:	00e7a023          	sw	a4,0(a5)
    6d84:	00442703          	lw	a4,4(s0)
    6d88:	00e7a223          	sw	a4,4(a5)
    6d8c:	00842703          	lw	a4,8(s0)
    6d90:	00e7a423          	sw	a4,8(a5)
    6d94:	016487b3          	add	a5,s1,s6
    6d98:	416989b3          	sub	s3,s3,s6
    6d9c:	80046717          	auipc	a4,0x80046
    6da0:	94f72a23          	sw	a5,-1708(a4) # 8004c6f0 <__stack_top+0xfffd58a0>
    6da4:	0019e993          	ori	s3,s3,1
    6da8:	0137a223          	sw	s3,4(a5)
    6dac:	0044a783          	lw	a5,4(s1)
    6db0:	0017f793          	andi	a5,a5,1
    6db4:	0167e9b3          	or	s3,a5,s6
    6db8:	0134a223          	sw	s3,4(s1)
    6dbc:	000a8513          	mv	a0,s5
    6dc0:	00000097          	auipc	ra,0x0
    6dc4:	dbc080e7          	jalr	-580(ra) # 6b7c <__malloc_unlock>
    6dc8:	e51ff06f          	j	6c18 <_realloc_r+0x98>
    6dcc:	00842783          	lw	a5,8(s0)
    6dd0:	00f4a823          	sw	a5,16(s1)
    6dd4:	00c42783          	lw	a5,12(s0)
    6dd8:	00f4aa23          	sw	a5,20(s1)
    6ddc:	00e60863          	beq	a2,a4,6dec <_realloc_r+0x26c>
    6de0:	01040413          	addi	s0,s0,16
    6de4:	01848793          	addi	a5,s1,24
    6de8:	f95ff06f          	j	6d7c <_realloc_r+0x1fc>
    6dec:	01042783          	lw	a5,16(s0)
    6df0:	01840413          	addi	s0,s0,24
    6df4:	00f4ac23          	sw	a5,24(s1)
    6df8:	ffc42703          	lw	a4,-4(s0)
    6dfc:	02048793          	addi	a5,s1,32
    6e00:	00e4ae23          	sw	a4,28(s1)
    6e04:	f79ff06f          	j	6d7c <_realloc_r+0x1fc>
    6e08:	00040593          	mv	a1,s0
    6e0c:	000a0513          	mv	a0,s4
    6e10:	00000097          	auipc	ra,0x0
    6e14:	c30080e7          	jalr	-976(ra) # 6a40 <memmove>
    6e18:	f7dff06f          	j	6d94 <_realloc_r+0x214>
    6e1c:	1169ce63          	blt	s3,s6,6f38 <_realloc_r+0x3b8>
    6e20:	00c7a703          	lw	a4,12(a5)
    6e24:	0087a783          	lw	a5,8(a5)
    6e28:	ffc90613          	addi	a2,s2,-4
    6e2c:	00848513          	addi	a0,s1,8
    6e30:	00e7a623          	sw	a4,12(a5)
    6e34:	00f72423          	sw	a5,8(a4)
    6e38:	0084a703          	lw	a4,8(s1)
    6e3c:	00c4a783          	lw	a5,12(s1)
    6e40:	00f72623          	sw	a5,12(a4)
    6e44:	00e7a423          	sw	a4,8(a5)
    6e48:	02400793          	li	a5,36
    6e4c:	0cc7ee63          	bltu	a5,a2,6f28 <_realloc_r+0x3a8>
    6e50:	01300713          	li	a4,19
    6e54:	02c77263          	bgeu	a4,a2,6e78 <_realloc_r+0x2f8>
    6e58:	00042703          	lw	a4,0(s0)
    6e5c:	00e4a423          	sw	a4,8(s1)
    6e60:	00442703          	lw	a4,4(s0)
    6e64:	00e4a623          	sw	a4,12(s1)
    6e68:	01b00713          	li	a4,27
    6e6c:	08c76063          	bltu	a4,a2,6eec <_realloc_r+0x36c>
    6e70:	00840413          	addi	s0,s0,8
    6e74:	01048513          	addi	a0,s1,16
    6e78:	00042783          	lw	a5,0(s0)
    6e7c:	00f52023          	sw	a5,0(a0)
    6e80:	00442783          	lw	a5,4(s0)
    6e84:	00f52223          	sw	a5,4(a0)
    6e88:	00842783          	lw	a5,8(s0)
    6e8c:	00f52423          	sw	a5,8(a0)
    6e90:	0044a703          	lw	a4,4(s1)
    6e94:	416986b3          	sub	a3,s3,s6
    6e98:	00f00613          	li	a2,15
    6e9c:	00177713          	andi	a4,a4,1
    6ea0:	013487b3          	add	a5,s1,s3
    6ea4:	24d67263          	bgeu	a2,a3,70e8 <_realloc_r+0x568>
    6ea8:	00eb69b3          	or	s3,s6,a4
    6eac:	0134a223          	sw	s3,4(s1)
    6eb0:	016485b3          	add	a1,s1,s6
    6eb4:	0016e693          	ori	a3,a3,1
    6eb8:	00d5a223          	sw	a3,4(a1)
    6ebc:	0047a703          	lw	a4,4(a5)
    6ec0:	00858593          	addi	a1,a1,8
    6ec4:	000a8513          	mv	a0,s5
    6ec8:	00176713          	ori	a4,a4,1
    6ecc:	00e7a223          	sw	a4,4(a5)
    6ed0:	00004097          	auipc	ra,0x4
    6ed4:	3e0080e7          	jalr	992(ra) # b2b0 <_free_r>
    6ed8:	000a8513          	mv	a0,s5
    6edc:	00000097          	auipc	ra,0x0
    6ee0:	ca0080e7          	jalr	-864(ra) # 6b7c <__malloc_unlock>
    6ee4:	00848a13          	addi	s4,s1,8
    6ee8:	d31ff06f          	j	6c18 <_realloc_r+0x98>
    6eec:	00842703          	lw	a4,8(s0)
    6ef0:	00e4a823          	sw	a4,16(s1)
    6ef4:	00c42703          	lw	a4,12(s0)
    6ef8:	00e4aa23          	sw	a4,20(s1)
    6efc:	00f60863          	beq	a2,a5,6f0c <_realloc_r+0x38c>
    6f00:	01040413          	addi	s0,s0,16
    6f04:	01848513          	addi	a0,s1,24
    6f08:	f71ff06f          	j	6e78 <_realloc_r+0x2f8>
    6f0c:	01042783          	lw	a5,16(s0)
    6f10:	02048513          	addi	a0,s1,32
    6f14:	01840413          	addi	s0,s0,24
    6f18:	00f4ac23          	sw	a5,24(s1)
    6f1c:	ffc42783          	lw	a5,-4(s0)
    6f20:	00f4ae23          	sw	a5,28(s1)
    6f24:	f55ff06f          	j	6e78 <_realloc_r+0x2f8>
    6f28:	00040593          	mv	a1,s0
    6f2c:	00000097          	auipc	ra,0x0
    6f30:	b14080e7          	jalr	-1260(ra) # 6a40 <memmove>
    6f34:	f5dff06f          	j	6e90 <_realloc_r+0x310>
    6f38:	0b6a4c63          	blt	s4,s6,6ff0 <_realloc_r+0x470>
    6f3c:	00c4a783          	lw	a5,12(s1)
    6f40:	0084a703          	lw	a4,8(s1)
    6f44:	ffc90613          	addi	a2,s2,-4
    6f48:	00848513          	addi	a0,s1,8
    6f4c:	00f72623          	sw	a5,12(a4)
    6f50:	00e7a423          	sw	a4,8(a5)
    6f54:	02400793          	li	a5,36
    6f58:	08c7e463          	bltu	a5,a2,6fe0 <_realloc_r+0x460>
    6f5c:	01300713          	li	a4,19
    6f60:	02c77263          	bgeu	a4,a2,6f84 <_realloc_r+0x404>
    6f64:	00042703          	lw	a4,0(s0)
    6f68:	00e4a423          	sw	a4,8(s1)
    6f6c:	00442703          	lw	a4,4(s0)
    6f70:	00e4a623          	sw	a4,12(s1)
    6f74:	01b00713          	li	a4,27
    6f78:	02c76663          	bltu	a4,a2,6fa4 <_realloc_r+0x424>
    6f7c:	00840413          	addi	s0,s0,8
    6f80:	01048513          	addi	a0,s1,16
    6f84:	00042783          	lw	a5,0(s0)
    6f88:	00f52023          	sw	a5,0(a0)
    6f8c:	00442783          	lw	a5,4(s0)
    6f90:	00f52223          	sw	a5,4(a0)
    6f94:	00842783          	lw	a5,8(s0)
    6f98:	00f52423          	sw	a5,8(a0)
    6f9c:	000a0993          	mv	s3,s4
    6fa0:	ef1ff06f          	j	6e90 <_realloc_r+0x310>
    6fa4:	00842703          	lw	a4,8(s0)
    6fa8:	00e4a823          	sw	a4,16(s1)
    6fac:	00c42703          	lw	a4,12(s0)
    6fb0:	00e4aa23          	sw	a4,20(s1)
    6fb4:	00f60863          	beq	a2,a5,6fc4 <_realloc_r+0x444>
    6fb8:	01040413          	addi	s0,s0,16
    6fbc:	01848513          	addi	a0,s1,24
    6fc0:	fc5ff06f          	j	6f84 <_realloc_r+0x404>
    6fc4:	01042783          	lw	a5,16(s0)
    6fc8:	02048513          	addi	a0,s1,32
    6fcc:	01840413          	addi	s0,s0,24
    6fd0:	00f4ac23          	sw	a5,24(s1)
    6fd4:	ffc42783          	lw	a5,-4(s0)
    6fd8:	00f4ae23          	sw	a5,28(s1)
    6fdc:	fa9ff06f          	j	6f84 <_realloc_r+0x404>
    6fe0:	00040593          	mv	a1,s0
    6fe4:	00000097          	auipc	ra,0x0
    6fe8:	a5c080e7          	jalr	-1444(ra) # 6a40 <memmove>
    6fec:	fb1ff06f          	j	6f9c <_realloc_r+0x41c>
    6ff0:	000a8513          	mv	a0,s5
    6ff4:	fffff097          	auipc	ra,0xfffff
    6ff8:	274080e7          	jalr	628(ra) # 6268 <_malloc_r>
    6ffc:	00050a13          	mv	s4,a0
    7000:	da050ee3          	beqz	a0,6dbc <_realloc_r+0x23c>
    7004:	ffc42783          	lw	a5,-4(s0)
    7008:	ff850713          	addi	a4,a0,-8
    700c:	ffe7f793          	andi	a5,a5,-2
    7010:	00fb87b3          	add	a5,s7,a5
    7014:	00e79a63          	bne	a5,a4,7028 <_realloc_r+0x4a8>
    7018:	ffc52983          	lw	s3,-4(a0)
    701c:	ffc9f993          	andi	s3,s3,-4
    7020:	012989b3          	add	s3,s3,s2
    7024:	ccdff06f          	j	6cf0 <_realloc_r+0x170>
    7028:	ffc90613          	addi	a2,s2,-4
    702c:	02400793          	li	a5,36
    7030:	0ac7e063          	bltu	a5,a2,70d0 <_realloc_r+0x550>
    7034:	01300713          	li	a4,19
    7038:	08c77663          	bgeu	a4,a2,70c4 <_realloc_r+0x544>
    703c:	00042703          	lw	a4,0(s0)
    7040:	00e52023          	sw	a4,0(a0)
    7044:	00442703          	lw	a4,4(s0)
    7048:	00e52223          	sw	a4,4(a0)
    704c:	01b00713          	li	a4,27
    7050:	02c76c63          	bltu	a4,a2,7088 <_realloc_r+0x508>
    7054:	00840713          	addi	a4,s0,8
    7058:	00850793          	addi	a5,a0,8
    705c:	00072683          	lw	a3,0(a4)
    7060:	00d7a023          	sw	a3,0(a5)
    7064:	00472683          	lw	a3,4(a4)
    7068:	00d7a223          	sw	a3,4(a5)
    706c:	00872703          	lw	a4,8(a4)
    7070:	00e7a423          	sw	a4,8(a5)
    7074:	00040593          	mv	a1,s0
    7078:	000a8513          	mv	a0,s5
    707c:	00004097          	auipc	ra,0x4
    7080:	234080e7          	jalr	564(ra) # b2b0 <_free_r>
    7084:	d39ff06f          	j	6dbc <_realloc_r+0x23c>
    7088:	00842703          	lw	a4,8(s0)
    708c:	00e52423          	sw	a4,8(a0)
    7090:	00c42703          	lw	a4,12(s0)
    7094:	00e52623          	sw	a4,12(a0)
    7098:	00f60863          	beq	a2,a5,70a8 <_realloc_r+0x528>
    709c:	01040713          	addi	a4,s0,16
    70a0:	01050793          	addi	a5,a0,16
    70a4:	fb9ff06f          	j	705c <_realloc_r+0x4dc>
    70a8:	01042783          	lw	a5,16(s0)
    70ac:	01840713          	addi	a4,s0,24
    70b0:	00f52823          	sw	a5,16(a0)
    70b4:	01442683          	lw	a3,20(s0)
    70b8:	01850793          	addi	a5,a0,24
    70bc:	00d52a23          	sw	a3,20(a0)
    70c0:	f9dff06f          	j	705c <_realloc_r+0x4dc>
    70c4:	00050793          	mv	a5,a0
    70c8:	00040713          	mv	a4,s0
    70cc:	f91ff06f          	j	705c <_realloc_r+0x4dc>
    70d0:	00040593          	mv	a1,s0
    70d4:	00000097          	auipc	ra,0x0
    70d8:	96c080e7          	jalr	-1684(ra) # 6a40 <memmove>
    70dc:	f99ff06f          	j	7074 <_realloc_r+0x4f4>
    70e0:	00090993          	mv	s3,s2
    70e4:	c0dff06f          	j	6cf0 <_realloc_r+0x170>
    70e8:	00e9e9b3          	or	s3,s3,a4
    70ec:	0134a223          	sw	s3,4(s1)
    70f0:	0047a703          	lw	a4,4(a5)
    70f4:	00176713          	ori	a4,a4,1
    70f8:	00e7a223          	sw	a4,4(a5)
    70fc:	dddff06f          	j	6ed8 <_realloc_r+0x358>

00007100 <_sbrk_r>:
    7100:	ff010113          	addi	sp,sp,-16
    7104:	00812423          	sw	s0,8(sp)
    7108:	00050413          	mv	s0,a0
    710c:	00058513          	mv	a0,a1
    7110:	80046797          	auipc	a5,0x80046
    7114:	d207ae23          	sw	zero,-708(a5) # 8004ce4c <__stack_top+0xfffd5ffc>
    7118:	00112623          	sw	ra,12(sp)
    711c:	00009097          	auipc	ra,0x9
    7120:	08c080e7          	jalr	140(ra) # 101a8 <_sbrk>
    7124:	fff00793          	li	a5,-1
    7128:	00f51c63          	bne	a0,a5,7140 <_sbrk_r+0x40>
    712c:	80046797          	auipc	a5,0x80046
    7130:	d2078793          	addi	a5,a5,-736 # 8004ce4c <__stack_top+0xfffd5ffc>
    7134:	0007a783          	lw	a5,0(a5)
    7138:	00078463          	beqz	a5,7140 <_sbrk_r+0x40>
    713c:	00f42023          	sw	a5,0(s0)
    7140:	00c12083          	lw	ra,12(sp)
    7144:	00812403          	lw	s0,8(sp)
    7148:	01010113          	addi	sp,sp,16
    714c:	00008067          	ret

00007150 <_init_signal_r>:
    7150:	2dc52703          	lw	a4,732(a0)
    7154:	04071a63          	bnez	a4,71a8 <_init_signal_r+0x58>
    7158:	ff010113          	addi	sp,sp,-16
    715c:	08000593          	li	a1,128
    7160:	00812423          	sw	s0,8(sp)
    7164:	00112623          	sw	ra,12(sp)
    7168:	00050413          	mv	s0,a0
    716c:	fffff097          	auipc	ra,0xfffff
    7170:	0fc080e7          	jalr	252(ra) # 6268 <_malloc_r>
    7174:	2ca42e23          	sw	a0,732(s0)
    7178:	fff00793          	li	a5,-1
    717c:	00050c63          	beqz	a0,7194 <_init_signal_r+0x44>
    7180:	08050793          	addi	a5,a0,128
    7184:	00052023          	sw	zero,0(a0)
    7188:	00450513          	addi	a0,a0,4
    718c:	fef51ce3          	bne	a0,a5,7184 <_init_signal_r+0x34>
    7190:	00000793          	li	a5,0
    7194:	00c12083          	lw	ra,12(sp)
    7198:	00812403          	lw	s0,8(sp)
    719c:	00078513          	mv	a0,a5
    71a0:	01010113          	addi	sp,sp,16
    71a4:	00008067          	ret
    71a8:	00000793          	li	a5,0
    71ac:	00078513          	mv	a0,a5
    71b0:	00008067          	ret

000071b4 <_signal_r>:
    71b4:	ff010113          	addi	sp,sp,-16
    71b8:	00912223          	sw	s1,4(sp)
    71bc:	00112623          	sw	ra,12(sp)
    71c0:	00812423          	sw	s0,8(sp)
    71c4:	01212023          	sw	s2,0(sp)
    71c8:	01f00713          	li	a4,31
    71cc:	00050493          	mv	s1,a0
    71d0:	00b77a63          	bgeu	a4,a1,71e4 <_signal_r+0x30>
    71d4:	01600713          	li	a4,22
    71d8:	00e52023          	sw	a4,0(a0)
    71dc:	fff00513          	li	a0,-1
    71e0:	0280006f          	j	7208 <_signal_r+0x54>
    71e4:	2dc52783          	lw	a5,732(a0)
    71e8:	00060913          	mv	s2,a2
    71ec:	00058413          	mv	s0,a1
    71f0:	02078863          	beqz	a5,7220 <_signal_r+0x6c>
    71f4:	00241593          	slli	a1,s0,0x2
    71f8:	2dc4a403          	lw	s0,732(s1)
    71fc:	00b405b3          	add	a1,s0,a1
    7200:	0005a503          	lw	a0,0(a1)
    7204:	0125a023          	sw	s2,0(a1)
    7208:	00c12083          	lw	ra,12(sp)
    720c:	00812403          	lw	s0,8(sp)
    7210:	00412483          	lw	s1,4(sp)
    7214:	00012903          	lw	s2,0(sp)
    7218:	01010113          	addi	sp,sp,16
    721c:	00008067          	ret
    7220:	00000097          	auipc	ra,0x0
    7224:	f30080e7          	jalr	-208(ra) # 7150 <_init_signal_r>
    7228:	fc0506e3          	beqz	a0,71f4 <_signal_r+0x40>
    722c:	fb1ff06f          	j	71dc <_signal_r+0x28>

00007230 <_raise_r>:
    7230:	01f00793          	li	a5,31
    7234:	00b7fa63          	bgeu	a5,a1,7248 <_raise_r+0x18>
    7238:	01600793          	li	a5,22
    723c:	00f52023          	sw	a5,0(a0)
    7240:	fff00513          	li	a0,-1
    7244:	00008067          	ret
    7248:	2dc52783          	lw	a5,732(a0)
    724c:	fe010113          	addi	sp,sp,-32
    7250:	00812c23          	sw	s0,24(sp)
    7254:	00112e23          	sw	ra,28(sp)
    7258:	00058613          	mv	a2,a1
    725c:	00050413          	mv	s0,a0
    7260:	00078a63          	beqz	a5,7274 <_raise_r+0x44>
    7264:	00259713          	slli	a4,a1,0x2
    7268:	00e787b3          	add	a5,a5,a4
    726c:	0007a703          	lw	a4,0(a5)
    7270:	02071a63          	bnez	a4,72a4 <_raise_r+0x74>
    7274:	00040513          	mv	a0,s0
    7278:	00c12623          	sw	a2,12(sp)
    727c:	00000097          	auipc	ra,0x0
    7280:	1b8080e7          	jalr	440(ra) # 7434 <_getpid_r>
    7284:	00050593          	mv	a1,a0
    7288:	00040513          	mv	a0,s0
    728c:	01812403          	lw	s0,24(sp)
    7290:	00c12603          	lw	a2,12(sp)
    7294:	01c12083          	lw	ra,28(sp)
    7298:	02010113          	addi	sp,sp,32
    729c:	00000317          	auipc	t1,0x0
    72a0:	14430067          	jr	324(t1) # 73e0 <_kill_r>
    72a4:	00100693          	li	a3,1
    72a8:	00000513          	li	a0,0
    72ac:	00d70c63          	beq	a4,a3,72c4 <_raise_r+0x94>
    72b0:	fff00693          	li	a3,-1
    72b4:	02d71063          	bne	a4,a3,72d4 <_raise_r+0xa4>
    72b8:	01600793          	li	a5,22
    72bc:	00f42023          	sw	a5,0(s0)
    72c0:	00100513          	li	a0,1
    72c4:	01c12083          	lw	ra,28(sp)
    72c8:	01812403          	lw	s0,24(sp)
    72cc:	02010113          	addi	sp,sp,32
    72d0:	00008067          	ret
    72d4:	00058513          	mv	a0,a1
    72d8:	0007a023          	sw	zero,0(a5)
    72dc:	000700e7          	jalr	a4
    72e0:	00000513          	li	a0,0
    72e4:	fe1ff06f          	j	72c4 <_raise_r+0x94>

000072e8 <__sigtramp_r>:
    72e8:	01f00793          	li	a5,31
    72ec:	00b7f663          	bgeu	a5,a1,72f8 <__sigtramp_r+0x10>
    72f0:	fff00513          	li	a0,-1
    72f4:	00008067          	ret
    72f8:	2dc52783          	lw	a5,732(a0)
    72fc:	ff010113          	addi	sp,sp,-16
    7300:	00812423          	sw	s0,8(sp)
    7304:	00912223          	sw	s1,4(sp)
    7308:	00112623          	sw	ra,12(sp)
    730c:	00050493          	mv	s1,a0
    7310:	00058413          	mv	s0,a1
    7314:	04078463          	beqz	a5,735c <__sigtramp_r+0x74>
    7318:	2dc4a783          	lw	a5,732(s1)
    731c:	00241713          	slli	a4,s0,0x2
    7320:	00100513          	li	a0,1
    7324:	00e78733          	add	a4,a5,a4
    7328:	00072783          	lw	a5,0(a4)
    732c:	04078063          	beqz	a5,736c <__sigtramp_r+0x84>
    7330:	fff00693          	li	a3,-1
    7334:	00200513          	li	a0,2
    7338:	02d78a63          	beq	a5,a3,736c <__sigtramp_r+0x84>
    733c:	00100693          	li	a3,1
    7340:	00300513          	li	a0,3
    7344:	02d78463          	beq	a5,a3,736c <__sigtramp_r+0x84>
    7348:	00040513          	mv	a0,s0
    734c:	00072023          	sw	zero,0(a4)
    7350:	000780e7          	jalr	a5
    7354:	00000513          	li	a0,0
    7358:	0140006f          	j	736c <__sigtramp_r+0x84>
    735c:	00000097          	auipc	ra,0x0
    7360:	df4080e7          	jalr	-524(ra) # 7150 <_init_signal_r>
    7364:	fa050ae3          	beqz	a0,7318 <__sigtramp_r+0x30>
    7368:	fff00513          	li	a0,-1
    736c:	00c12083          	lw	ra,12(sp)
    7370:	00812403          	lw	s0,8(sp)
    7374:	00412483          	lw	s1,4(sp)
    7378:	01010113          	addi	sp,sp,16
    737c:	00008067          	ret

00007380 <raise>:
    7380:	80046797          	auipc	a5,0x80046
    7384:	8e078793          	addi	a5,a5,-1824 # 8004cc60 <__stack_top+0xfffd5e10>
    7388:	00050593          	mv	a1,a0
    738c:	0007a503          	lw	a0,0(a5)
    7390:	00000317          	auipc	t1,0x0
    7394:	ea030067          	jr	-352(t1) # 7230 <_raise_r>

00007398 <signal>:
    7398:	80046797          	auipc	a5,0x80046
    739c:	8c878793          	addi	a5,a5,-1848 # 8004cc60 <__stack_top+0xfffd5e10>
    73a0:	00058613          	mv	a2,a1
    73a4:	00050593          	mv	a1,a0
    73a8:	0007a503          	lw	a0,0(a5)
    73ac:	00000317          	auipc	t1,0x0
    73b0:	e0830067          	jr	-504(t1) # 71b4 <_signal_r>

000073b4 <_init_signal>:
    73b4:	80046797          	auipc	a5,0x80046
    73b8:	8ac78793          	addi	a5,a5,-1876 # 8004cc60 <__stack_top+0xfffd5e10>
    73bc:	0007a503          	lw	a0,0(a5)
    73c0:	00000317          	auipc	t1,0x0
    73c4:	d9030067          	jr	-624(t1) # 7150 <_init_signal_r>

000073c8 <__sigtramp>:
    73c8:	80046797          	auipc	a5,0x80046
    73cc:	89878793          	addi	a5,a5,-1896 # 8004cc60 <__stack_top+0xfffd5e10>
    73d0:	00050593          	mv	a1,a0
    73d4:	0007a503          	lw	a0,0(a5)
    73d8:	00000317          	auipc	t1,0x0
    73dc:	f1030067          	jr	-240(t1) # 72e8 <__sigtramp_r>

000073e0 <_kill_r>:
    73e0:	ff010113          	addi	sp,sp,-16
    73e4:	00812423          	sw	s0,8(sp)
    73e8:	00050413          	mv	s0,a0
    73ec:	00058513          	mv	a0,a1
    73f0:	00060593          	mv	a1,a2
    73f4:	80046797          	auipc	a5,0x80046
    73f8:	a407ac23          	sw	zero,-1448(a5) # 8004ce4c <__stack_top+0xfffd5ffc>
    73fc:	00112623          	sw	ra,12(sp)
    7400:	00009097          	auipc	ra,0x9
    7404:	ce0080e7          	jalr	-800(ra) # 100e0 <_kill>
    7408:	fff00793          	li	a5,-1
    740c:	00f51c63          	bne	a0,a5,7424 <_kill_r+0x44>
    7410:	80046797          	auipc	a5,0x80046
    7414:	a3c78793          	addi	a5,a5,-1476 # 8004ce4c <__stack_top+0xfffd5ffc>
    7418:	0007a783          	lw	a5,0(a5)
    741c:	00078463          	beqz	a5,7424 <_kill_r+0x44>
    7420:	00f42023          	sw	a5,0(s0)
    7424:	00c12083          	lw	ra,12(sp)
    7428:	00812403          	lw	s0,8(sp)
    742c:	01010113          	addi	sp,sp,16
    7430:	00008067          	ret

00007434 <_getpid_r>:
    7434:	00009317          	auipc	t1,0x9
    7438:	c6830067          	jr	-920(t1) # 1009c <_getpid>

0000743c <_sprintf_r>:
    743c:	f6010113          	addi	sp,sp,-160
    7440:	08f12a23          	sw	a5,148(sp)
    7444:	800007b7          	lui	a5,0x80000
    7448:	fff7c793          	not	a5,a5
    744c:	00f12e23          	sw	a5,28(sp)
    7450:	00f12823          	sw	a5,16(sp)
    7454:	ffff07b7          	lui	a5,0xffff0
    7458:	08d12623          	sw	a3,140(sp)
    745c:	00b12423          	sw	a1,8(sp)
    7460:	00b12c23          	sw	a1,24(sp)
    7464:	20878793          	addi	a5,a5,520 # ffff0208 <__stack_top+0x7ff793b8>
    7468:	08c10693          	addi	a3,sp,140
    746c:	00810593          	addi	a1,sp,8
    7470:	06112e23          	sw	ra,124(sp)
    7474:	00f12a23          	sw	a5,20(sp)
    7478:	08e12823          	sw	a4,144(sp)
    747c:	09012c23          	sw	a6,152(sp)
    7480:	09112e23          	sw	a7,156(sp)
    7484:	00d12223          	sw	a3,4(sp)
    7488:	00000097          	auipc	ra,0x0
    748c:	288080e7          	jalr	648(ra) # 7710 <_svfprintf_r>
    7490:	00812783          	lw	a5,8(sp)
    7494:	00078023          	sb	zero,0(a5)
    7498:	07c12083          	lw	ra,124(sp)
    749c:	0a010113          	addi	sp,sp,160
    74a0:	00008067          	ret

000074a4 <sprintf>:
    74a4:	f6010113          	addi	sp,sp,-160
    74a8:	08f12a23          	sw	a5,148(sp)
    74ac:	800007b7          	lui	a5,0x80000
    74b0:	fff7c793          	not	a5,a5
    74b4:	00f12e23          	sw	a5,28(sp)
    74b8:	00f12823          	sw	a5,16(sp)
    74bc:	ffff07b7          	lui	a5,0xffff0
    74c0:	20878793          	addi	a5,a5,520 # ffff0208 <__stack_top+0x7ff793b8>
    74c4:	08c12423          	sw	a2,136(sp)
    74c8:	08d12623          	sw	a3,140(sp)
    74cc:	08e12823          	sw	a4,144(sp)
    74d0:	09012c23          	sw	a6,152(sp)
    74d4:	09112e23          	sw	a7,156(sp)
    74d8:	00f12a23          	sw	a5,20(sp)
    74dc:	80045797          	auipc	a5,0x80045
    74e0:	78478793          	addi	a5,a5,1924 # 8004cc60 <__stack_top+0xfffd5e10>
    74e4:	00a12423          	sw	a0,8(sp)
    74e8:	00a12c23          	sw	a0,24(sp)
    74ec:	0007a503          	lw	a0,0(a5)
    74f0:	08810693          	addi	a3,sp,136
    74f4:	00058613          	mv	a2,a1
    74f8:	00810593          	addi	a1,sp,8
    74fc:	06112e23          	sw	ra,124(sp)
    7500:	00d12223          	sw	a3,4(sp)
    7504:	00000097          	auipc	ra,0x0
    7508:	20c080e7          	jalr	524(ra) # 7710 <_svfprintf_r>
    750c:	00812783          	lw	a5,8(sp)
    7510:	00078023          	sb	zero,0(a5)
    7514:	07c12083          	lw	ra,124(sp)
    7518:	0a010113          	addi	sp,sp,160
    751c:	00008067          	ret

00007520 <strcmp>:
    7520:	00b56733          	or	a4,a0,a1
    7524:	fff00393          	li	t2,-1
    7528:	00377713          	andi	a4,a4,3
    752c:	10071063          	bnez	a4,762c <strcmp+0x10c>
    7530:	7f7f87b7          	lui	a5,0x7f7f8
    7534:	f7f78793          	addi	a5,a5,-129 # 7f7f7f7f <__trunctfdf2+0x7f7e4617>
    7538:	00052603          	lw	a2,0(a0)
    753c:	0005a683          	lw	a3,0(a1)
    7540:	00f672b3          	and	t0,a2,a5
    7544:	00f66333          	or	t1,a2,a5
    7548:	00f282b3          	add	t0,t0,a5
    754c:	0062e2b3          	or	t0,t0,t1
    7550:	10729263          	bne	t0,t2,7654 <strcmp+0x134>
    7554:	08d61663          	bne	a2,a3,75e0 <strcmp+0xc0>
    7558:	00452603          	lw	a2,4(a0)
    755c:	0045a683          	lw	a3,4(a1)
    7560:	00f672b3          	and	t0,a2,a5
    7564:	00f66333          	or	t1,a2,a5
    7568:	00f282b3          	add	t0,t0,a5
    756c:	0062e2b3          	or	t0,t0,t1
    7570:	0c729e63          	bne	t0,t2,764c <strcmp+0x12c>
    7574:	06d61663          	bne	a2,a3,75e0 <strcmp+0xc0>
    7578:	00852603          	lw	a2,8(a0)
    757c:	0085a683          	lw	a3,8(a1)
    7580:	00f672b3          	and	t0,a2,a5
    7584:	00f66333          	or	t1,a2,a5
    7588:	00f282b3          	add	t0,t0,a5
    758c:	0062e2b3          	or	t0,t0,t1
    7590:	0c729863          	bne	t0,t2,7660 <strcmp+0x140>
    7594:	04d61663          	bne	a2,a3,75e0 <strcmp+0xc0>
    7598:	00c52603          	lw	a2,12(a0)
    759c:	00c5a683          	lw	a3,12(a1)
    75a0:	00f672b3          	and	t0,a2,a5
    75a4:	00f66333          	or	t1,a2,a5
    75a8:	00f282b3          	add	t0,t0,a5
    75ac:	0062e2b3          	or	t0,t0,t1
    75b0:	0c729263          	bne	t0,t2,7674 <strcmp+0x154>
    75b4:	02d61663          	bne	a2,a3,75e0 <strcmp+0xc0>
    75b8:	01052603          	lw	a2,16(a0)
    75bc:	0105a683          	lw	a3,16(a1)
    75c0:	00f672b3          	and	t0,a2,a5
    75c4:	00f66333          	or	t1,a2,a5
    75c8:	00f282b3          	add	t0,t0,a5
    75cc:	0062e2b3          	or	t0,t0,t1
    75d0:	0a729c63          	bne	t0,t2,7688 <strcmp+0x168>
    75d4:	01450513          	addi	a0,a0,20
    75d8:	01458593          	addi	a1,a1,20
    75dc:	f4d60ee3          	beq	a2,a3,7538 <strcmp+0x18>
    75e0:	01061713          	slli	a4,a2,0x10
    75e4:	01069793          	slli	a5,a3,0x10
    75e8:	00f71e63          	bne	a4,a5,7604 <strcmp+0xe4>
    75ec:	01065713          	srli	a4,a2,0x10
    75f0:	0106d793          	srli	a5,a3,0x10
    75f4:	40f70533          	sub	a0,a4,a5
    75f8:	0ff57593          	zext.b	a1,a0
    75fc:	02059063          	bnez	a1,761c <strcmp+0xfc>
    7600:	00008067          	ret
    7604:	01075713          	srli	a4,a4,0x10
    7608:	0107d793          	srli	a5,a5,0x10
    760c:	40f70533          	sub	a0,a4,a5
    7610:	0ff57593          	zext.b	a1,a0
    7614:	00059463          	bnez	a1,761c <strcmp+0xfc>
    7618:	00008067          	ret
    761c:	0ff77713          	zext.b	a4,a4
    7620:	0ff7f793          	zext.b	a5,a5
    7624:	40f70533          	sub	a0,a4,a5
    7628:	00008067          	ret
    762c:	00054603          	lbu	a2,0(a0)
    7630:	0005c683          	lbu	a3,0(a1)
    7634:	00150513          	addi	a0,a0,1
    7638:	00158593          	addi	a1,a1,1
    763c:	00d61463          	bne	a2,a3,7644 <strcmp+0x124>
    7640:	fe0616e3          	bnez	a2,762c <strcmp+0x10c>
    7644:	40d60533          	sub	a0,a2,a3
    7648:	00008067          	ret
    764c:	00450513          	addi	a0,a0,4
    7650:	00458593          	addi	a1,a1,4
    7654:	fcd61ce3          	bne	a2,a3,762c <strcmp+0x10c>
    7658:	00000513          	li	a0,0
    765c:	00008067          	ret
    7660:	00850513          	addi	a0,a0,8
    7664:	00858593          	addi	a1,a1,8
    7668:	fcd612e3          	bne	a2,a3,762c <strcmp+0x10c>
    766c:	00000513          	li	a0,0
    7670:	00008067          	ret
    7674:	00c50513          	addi	a0,a0,12
    7678:	00c58593          	addi	a1,a1,12
    767c:	fad618e3          	bne	a2,a3,762c <strcmp+0x10c>
    7680:	00000513          	li	a0,0
    7684:	00008067          	ret
    7688:	01050513          	addi	a0,a0,16
    768c:	01058593          	addi	a1,a1,16
    7690:	f8d61ee3          	bne	a2,a3,762c <strcmp+0x10c>
    7694:	00000513          	li	a0,0
    7698:	00008067          	ret

0000769c <strcpy>:
    769c:	00050793          	mv	a5,a0
    76a0:	0005c703          	lbu	a4,0(a1)
    76a4:	00178793          	addi	a5,a5,1
    76a8:	00158593          	addi	a1,a1,1
    76ac:	fee78fa3          	sb	a4,-1(a5)
    76b0:	fe0718e3          	bnez	a4,76a0 <strcpy+0x4>
    76b4:	00008067          	ret

000076b8 <strlen>:
    76b8:	00050793          	mv	a5,a0
    76bc:	00178793          	addi	a5,a5,1
    76c0:	fff7c703          	lbu	a4,-1(a5)
    76c4:	fe071ce3          	bnez	a4,76bc <strlen+0x4>
    76c8:	40a78533          	sub	a0,a5,a0
    76cc:	fff50513          	addi	a0,a0,-1
    76d0:	00008067          	ret

000076d4 <strncmp>:
    76d4:	02060a63          	beqz	a2,7708 <strncmp+0x34>
    76d8:	fff60613          	addi	a2,a2,-1
    76dc:	00000713          	li	a4,0
    76e0:	00e507b3          	add	a5,a0,a4
    76e4:	00e586b3          	add	a3,a1,a4
    76e8:	0007c783          	lbu	a5,0(a5)
    76ec:	0006c683          	lbu	a3,0(a3)
    76f0:	00d79863          	bne	a5,a3,7700 <strncmp+0x2c>
    76f4:	00c70663          	beq	a4,a2,7700 <strncmp+0x2c>
    76f8:	00170713          	addi	a4,a4,1
    76fc:	fe0792e3          	bnez	a5,76e0 <strncmp+0xc>
    7700:	40d78533          	sub	a0,a5,a3
    7704:	00008067          	ret
    7708:	00000513          	li	a0,0
    770c:	00008067          	ret

00007710 <_svfprintf_r>:
    7710:	e3010113          	addi	sp,sp,-464
    7714:	1c112623          	sw	ra,460(sp)
    7718:	1c912223          	sw	s1,452(sp)
    771c:	1d212023          	sw	s2,448(sp)
    7720:	1b312e23          	sw	s3,444(sp)
    7724:	1b612823          	sw	s6,432(sp)
    7728:	00058993          	mv	s3,a1
    772c:	00060493          	mv	s1,a2
    7730:	00068b13          	mv	s6,a3
    7734:	1c812423          	sw	s0,456(sp)
    7738:	1b412c23          	sw	s4,440(sp)
    773c:	1b512a23          	sw	s5,436(sp)
    7740:	1b712623          	sw	s7,428(sp)
    7744:	1b812423          	sw	s8,424(sp)
    7748:	1b912223          	sw	s9,420(sp)
    774c:	1ba12023          	sw	s10,416(sp)
    7750:	19b12e23          	sw	s11,412(sp)
    7754:	00050913          	mv	s2,a0
    7758:	00006097          	auipc	ra,0x6
    775c:	190080e7          	jalr	400(ra) # d8e8 <_localeconv_r>
    7760:	00052783          	lw	a5,0(a0)
    7764:	00078513          	mv	a0,a5
    7768:	02f12423          	sw	a5,40(sp)
    776c:	00000097          	auipc	ra,0x0
    7770:	f4c080e7          	jalr	-180(ra) # 76b8 <strlen>
    7774:	00c9d783          	lhu	a5,12(s3)
    7778:	00a12a23          	sw	a0,20(sp)
    777c:	0c012823          	sw	zero,208(sp)
    7780:	0c012a23          	sw	zero,212(sp)
    7784:	0c012c23          	sw	zero,216(sp)
    7788:	0c012e23          	sw	zero,220(sp)
    778c:	0807f793          	andi	a5,a5,128
    7790:	04078263          	beqz	a5,77d4 <_svfprintf_r+0xc4>
    7794:	0109a783          	lw	a5,16(s3)
    7798:	02079e63          	bnez	a5,77d4 <_svfprintf_r+0xc4>
    779c:	04000593          	li	a1,64
    77a0:	00090513          	mv	a0,s2
    77a4:	fffff097          	auipc	ra,0xfffff
    77a8:	ac4080e7          	jalr	-1340(ra) # 6268 <_malloc_r>
    77ac:	00a9a023          	sw	a0,0(s3)
    77b0:	00a9a823          	sw	a0,16(s3)
    77b4:	00051c63          	bnez	a0,77cc <_svfprintf_r+0xbc>
    77b8:	00c00793          	li	a5,12
    77bc:	00f92023          	sw	a5,0(s2)
    77c0:	fff00793          	li	a5,-1
    77c4:	00f12c23          	sw	a5,24(sp)
    77c8:	7ec0006f          	j	7fb4 <_svfprintf_r+0x8a4>
    77cc:	04000793          	li	a5,64
    77d0:	00f9aa23          	sw	a5,20(s3)
    77d4:	0ec10793          	addi	a5,sp,236
    77d8:	0cf12223          	sw	a5,196(sp)
    77dc:	0c012623          	sw	zero,204(sp)
    77e0:	0c012423          	sw	zero,200(sp)
    77e4:	00000a13          	li	s4,0
    77e8:	00078c13          	mv	s8,a5
    77ec:	02012a23          	sw	zero,52(sp)
    77f0:	02012823          	sw	zero,48(sp)
    77f4:	00012223          	sw	zero,4(sp)
    77f8:	02012223          	sw	zero,36(sp)
    77fc:	02012623          	sw	zero,44(sp)
    7800:	00012c23          	sw	zero,24(sp)
    7804:	00048413          	mv	s0,s1
    7808:	02500713          	li	a4,37
    780c:	00044783          	lbu	a5,0(s0)
    7810:	00078463          	beqz	a5,7818 <_svfprintf_r+0x108>
    7814:	0ce79263          	bne	a5,a4,78d8 <_svfprintf_r+0x1c8>
    7818:	40940ab3          	sub	s5,s0,s1
    781c:	040a8c63          	beqz	s5,7874 <_svfprintf_r+0x164>
    7820:	0cc12783          	lw	a5,204(sp)
    7824:	009c2023          	sw	s1,0(s8)
    7828:	015c2223          	sw	s5,4(s8)
    782c:	015787b3          	add	a5,a5,s5
    7830:	0cf12623          	sw	a5,204(sp)
    7834:	0c812783          	lw	a5,200(sp)
    7838:	00700713          	li	a4,7
    783c:	008c0c13          	addi	s8,s8,8
    7840:	00178793          	addi	a5,a5,1
    7844:	0cf12423          	sw	a5,200(sp)
    7848:	02f75063          	bge	a4,a5,7868 <_svfprintf_r+0x158>
    784c:	0c410613          	addi	a2,sp,196
    7850:	00098593          	mv	a1,s3
    7854:	00090513          	mv	a0,s2
    7858:	00007097          	auipc	ra,0x7
    785c:	460080e7          	jalr	1120(ra) # ecb8 <__ssprint_r>
    7860:	74051463          	bnez	a0,7fa8 <_svfprintf_r+0x898>
    7864:	0ec10c13          	addi	s8,sp,236
    7868:	01812783          	lw	a5,24(sp)
    786c:	015787b3          	add	a5,a5,s5
    7870:	00f12c23          	sw	a5,24(sp)
    7874:	00044783          	lbu	a5,0(s0)
    7878:	00079463          	bnez	a5,7880 <_svfprintf_r+0x170>
    787c:	6b10106f          	j	972c <_svfprintf_r+0x201c>
    7880:	00140793          	addi	a5,s0,1
    7884:	0a0103a3          	sb	zero,167(sp)
    7888:	fff00d93          	li	s11,-1
    788c:	00012e23          	sw	zero,28(sp)
    7890:	00000413          	li	s0,0
    7894:	00a00b93          	li	s7,10
    7898:	00900d13          	li	s10,9
    789c:	02a00c93          	li	s9,42
    78a0:	0007ca83          	lbu	s5,0(a5)
    78a4:	00178713          	addi	a4,a5,1
    78a8:	00e12823          	sw	a4,16(sp)
    78ac:	05a00693          	li	a3,90
    78b0:	fe0a8793          	addi	a5,s5,-32
    78b4:	00f6f463          	bgeu	a3,a5,78bc <_svfprintf_r+0x1ac>
    78b8:	2f80106f          	j	8bb0 <_svfprintf_r+0x14a0>
    78bc:	80044717          	auipc	a4,0x80044
    78c0:	02070713          	addi	a4,a4,32 # 8004b8dc <__stack_top+0xfffd4a8c>
    78c4:	00279793          	slli	a5,a5,0x2
    78c8:	00e787b3          	add	a5,a5,a4
    78cc:	0007a783          	lw	a5,0(a5)
    78d0:	00e787b3          	add	a5,a5,a4
    78d4:	00078067          	jr	a5
    78d8:	00140413          	addi	s0,s0,1
    78dc:	f31ff06f          	j	780c <_svfprintf_r+0xfc>
    78e0:	00090513          	mv	a0,s2
    78e4:	00006097          	auipc	ra,0x6
    78e8:	004080e7          	jalr	4(ra) # d8e8 <_localeconv_r>
    78ec:	00452783          	lw	a5,4(a0)
    78f0:	00078513          	mv	a0,a5
    78f4:	02f12623          	sw	a5,44(sp)
    78f8:	00000097          	auipc	ra,0x0
    78fc:	dc0080e7          	jalr	-576(ra) # 76b8 <strlen>
    7900:	02a12223          	sw	a0,36(sp)
    7904:	00090513          	mv	a0,s2
    7908:	00006097          	auipc	ra,0x6
    790c:	fe0080e7          	jalr	-32(ra) # d8e8 <_localeconv_r>
    7910:	00852783          	lw	a5,8(a0)
    7914:	00f12223          	sw	a5,4(sp)
    7918:	02412783          	lw	a5,36(sp)
    791c:	00078c63          	beqz	a5,7934 <_svfprintf_r+0x224>
    7920:	00412783          	lw	a5,4(sp)
    7924:	00078863          	beqz	a5,7934 <_svfprintf_r+0x224>
    7928:	0007c783          	lbu	a5,0(a5)
    792c:	00078463          	beqz	a5,7934 <_svfprintf_r+0x224>
    7930:	40046413          	ori	s0,s0,1024
    7934:	01012783          	lw	a5,16(sp)
    7938:	f69ff06f          	j	78a0 <_svfprintf_r+0x190>
    793c:	0a714783          	lbu	a5,167(sp)
    7940:	fe079ae3          	bnez	a5,7934 <_svfprintf_r+0x224>
    7944:	02000793          	li	a5,32
    7948:	0af103a3          	sb	a5,167(sp)
    794c:	fe9ff06f          	j	7934 <_svfprintf_r+0x224>
    7950:	00146413          	ori	s0,s0,1
    7954:	fe1ff06f          	j	7934 <_svfprintf_r+0x224>
    7958:	000b2783          	lw	a5,0(s6)
    795c:	004b0b13          	addi	s6,s6,4
    7960:	00f12e23          	sw	a5,28(sp)
    7964:	fc07d8e3          	bgez	a5,7934 <_svfprintf_r+0x224>
    7968:	40f007b3          	neg	a5,a5
    796c:	00f12e23          	sw	a5,28(sp)
    7970:	00446413          	ori	s0,s0,4
    7974:	fc1ff06f          	j	7934 <_svfprintf_r+0x224>
    7978:	02b00793          	li	a5,43
    797c:	fcdff06f          	j	7948 <_svfprintf_r+0x238>
    7980:	01012703          	lw	a4,16(sp)
    7984:	01012783          	lw	a5,16(sp)
    7988:	00074a83          	lbu	s5,0(a4)
    798c:	00178793          	addi	a5,a5,1
    7990:	059a9063          	bne	s5,s9,79d0 <_svfprintf_r+0x2c0>
    7994:	000b2d83          	lw	s11,0(s6)
    7998:	004b0713          	addi	a4,s6,4
    799c:	000dd463          	bgez	s11,79a4 <_svfprintf_r+0x294>
    79a0:	fff00d93          	li	s11,-1
    79a4:	00070b13          	mv	s6,a4
    79a8:	00f12823          	sw	a5,16(sp)
    79ac:	f89ff06f          	j	7934 <_svfprintf_r+0x224>
    79b0:	037d8333          	mul	t1,s11,s7
    79b4:	00178793          	addi	a5,a5,1
    79b8:	fff7ca83          	lbu	s5,-1(a5)
    79bc:	00e30db3          	add	s11,t1,a4
    79c0:	fd0a8713          	addi	a4,s5,-48
    79c4:	feed76e3          	bgeu	s10,a4,79b0 <_svfprintf_r+0x2a0>
    79c8:	00f12823          	sw	a5,16(sp)
    79cc:	ee5ff06f          	j	78b0 <_svfprintf_r+0x1a0>
    79d0:	00000d93          	li	s11,0
    79d4:	fedff06f          	j	79c0 <_svfprintf_r+0x2b0>
    79d8:	08046413          	ori	s0,s0,128
    79dc:	f59ff06f          	j	7934 <_svfprintf_r+0x224>
    79e0:	01012783          	lw	a5,16(sp)
    79e4:	00012e23          	sw	zero,28(sp)
    79e8:	01c12703          	lw	a4,28(sp)
    79ec:	fd0a8a93          	addi	s5,s5,-48
    79f0:	00178793          	addi	a5,a5,1
    79f4:	03770733          	mul	a4,a4,s7
    79f8:	00ea8733          	add	a4,s5,a4
    79fc:	fff7ca83          	lbu	s5,-1(a5)
    7a00:	00e12e23          	sw	a4,28(sp)
    7a04:	fd0a8713          	addi	a4,s5,-48
    7a08:	feed70e3          	bgeu	s10,a4,79e8 <_svfprintf_r+0x2d8>
    7a0c:	fbdff06f          	j	79c8 <_svfprintf_r+0x2b8>
    7a10:	00846413          	ori	s0,s0,8
    7a14:	f21ff06f          	j	7934 <_svfprintf_r+0x224>
    7a18:	01012783          	lw	a5,16(sp)
    7a1c:	0007c703          	lbu	a4,0(a5)
    7a20:	06800793          	li	a5,104
    7a24:	00f71c63          	bne	a4,a5,7a3c <_svfprintf_r+0x32c>
    7a28:	01012783          	lw	a5,16(sp)
    7a2c:	20046413          	ori	s0,s0,512
    7a30:	00178793          	addi	a5,a5,1
    7a34:	00f12823          	sw	a5,16(sp)
    7a38:	efdff06f          	j	7934 <_svfprintf_r+0x224>
    7a3c:	04046413          	ori	s0,s0,64
    7a40:	ef5ff06f          	j	7934 <_svfprintf_r+0x224>
    7a44:	01012783          	lw	a5,16(sp)
    7a48:	0007c703          	lbu	a4,0(a5)
    7a4c:	06c00793          	li	a5,108
    7a50:	00f71c63          	bne	a4,a5,7a68 <_svfprintf_r+0x358>
    7a54:	01012783          	lw	a5,16(sp)
    7a58:	00178793          	addi	a5,a5,1
    7a5c:	00f12823          	sw	a5,16(sp)
    7a60:	02046413          	ori	s0,s0,32
    7a64:	ed1ff06f          	j	7934 <_svfprintf_r+0x224>
    7a68:	01046413          	ori	s0,s0,16
    7a6c:	ec9ff06f          	j	7934 <_svfprintf_r+0x224>
    7a70:	004b0793          	addi	a5,s6,4
    7a74:	00f12623          	sw	a5,12(sp)
    7a78:	000b2783          	lw	a5,0(s6)
    7a7c:	0a0103a3          	sb	zero,167(sp)
    7a80:	12f10623          	sb	a5,300(sp)
    7a84:	00000b13          	li	s6,0
    7a88:	00100d93          	li	s11,1
    7a8c:	00000d13          	li	s10,0
    7a90:	00012423          	sw	zero,8(sp)
    7a94:	00000b93          	li	s7,0
    7a98:	00000c93          	li	s9,0
    7a9c:	12c10493          	addi	s1,sp,300
    7aa0:	03a12023          	sw	s10,32(sp)
    7aa4:	01bd5463          	bge	s10,s11,7aac <_svfprintf_r+0x39c>
    7aa8:	03b12023          	sw	s11,32(sp)
    7aac:	0a714703          	lbu	a4,167(sp)
    7ab0:	00070863          	beqz	a4,7ac0 <_svfprintf_r+0x3b0>
    7ab4:	02012783          	lw	a5,32(sp)
    7ab8:	00178793          	addi	a5,a5,1
    7abc:	02f12023          	sw	a5,32(sp)
    7ac0:	00247793          	andi	a5,s0,2
    7ac4:	02f12c23          	sw	a5,56(sp)
    7ac8:	00078863          	beqz	a5,7ad8 <_svfprintf_r+0x3c8>
    7acc:	02012783          	lw	a5,32(sp)
    7ad0:	00278793          	addi	a5,a5,2
    7ad4:	02f12023          	sw	a5,32(sp)
    7ad8:	08447793          	andi	a5,s0,132
    7adc:	02f12e23          	sw	a5,60(sp)
    7ae0:	06079e63          	bnez	a5,7b5c <_svfprintf_r+0x44c>
    7ae4:	01c12783          	lw	a5,28(sp)
    7ae8:	02012703          	lw	a4,32(sp)
    7aec:	40e78733          	sub	a4,a5,a4
    7af0:	06e05663          	blez	a4,7b5c <_svfprintf_r+0x44c>
    7af4:	01000e93          	li	t4,16
    7af8:	80044e17          	auipc	t3,0x80044
    7afc:	f50e0e13          	addi	t3,t3,-176 # 8004ba48 <__stack_top+0xfffd4bf8>
    7b00:	00700f13          	li	t5,7
    7b04:	0c812683          	lw	a3,200(sp)
    7b08:	01cc2023          	sw	t3,0(s8)
    7b0c:	0cc12603          	lw	a2,204(sp)
    7b10:	00168693          	addi	a3,a3,1
    7b14:	008c0593          	addi	a1,s8,8
    7b18:	00eed463          	bge	t4,a4,7b20 <_svfprintf_r+0x410>
    7b1c:	0a80106f          	j	8bc4 <_svfprintf_r+0x14b4>
    7b20:	00ec2223          	sw	a4,4(s8)
    7b24:	00c70733          	add	a4,a4,a2
    7b28:	0ce12623          	sw	a4,204(sp)
    7b2c:	0cd12423          	sw	a3,200(sp)
    7b30:	00700713          	li	a4,7
    7b34:	00058c13          	mv	s8,a1
    7b38:	02d75263          	bge	a4,a3,7b5c <_svfprintf_r+0x44c>
    7b3c:	0c410613          	addi	a2,sp,196
    7b40:	00098593          	mv	a1,s3
    7b44:	00090513          	mv	a0,s2
    7b48:	00007097          	auipc	ra,0x7
    7b4c:	170080e7          	jalr	368(ra) # ecb8 <__ssprint_r>
    7b50:	00050463          	beqz	a0,7b58 <_svfprintf_r+0x448>
    7b54:	36d0106f          	j	96c0 <_svfprintf_r+0x1fb0>
    7b58:	0ec10c13          	addi	s8,sp,236
    7b5c:	0a714703          	lbu	a4,167(sp)
    7b60:	04070c63          	beqz	a4,7bb8 <_svfprintf_r+0x4a8>
    7b64:	0a710713          	addi	a4,sp,167
    7b68:	00ec2023          	sw	a4,0(s8)
    7b6c:	00100713          	li	a4,1
    7b70:	00ec2223          	sw	a4,4(s8)
    7b74:	0cc12703          	lw	a4,204(sp)
    7b78:	00700693          	li	a3,7
    7b7c:	008c0c13          	addi	s8,s8,8
    7b80:	00170713          	addi	a4,a4,1
    7b84:	0ce12623          	sw	a4,204(sp)
    7b88:	0c812703          	lw	a4,200(sp)
    7b8c:	00170713          	addi	a4,a4,1
    7b90:	0ce12423          	sw	a4,200(sp)
    7b94:	02e6d263          	bge	a3,a4,7bb8 <_svfprintf_r+0x4a8>
    7b98:	0c410613          	addi	a2,sp,196
    7b9c:	00098593          	mv	a1,s3
    7ba0:	00090513          	mv	a0,s2
    7ba4:	00007097          	auipc	ra,0x7
    7ba8:	114080e7          	jalr	276(ra) # ecb8 <__ssprint_r>
    7bac:	00050463          	beqz	a0,7bb4 <_svfprintf_r+0x4a4>
    7bb0:	3110106f          	j	96c0 <_svfprintf_r+0x1fb0>
    7bb4:	0ec10c13          	addi	s8,sp,236
    7bb8:	03812783          	lw	a5,56(sp)
    7bbc:	04078c63          	beqz	a5,7c14 <_svfprintf_r+0x504>
    7bc0:	0a810713          	addi	a4,sp,168
    7bc4:	00ec2023          	sw	a4,0(s8)
    7bc8:	00200713          	li	a4,2
    7bcc:	00ec2223          	sw	a4,4(s8)
    7bd0:	0cc12703          	lw	a4,204(sp)
    7bd4:	00700693          	li	a3,7
    7bd8:	008c0c13          	addi	s8,s8,8
    7bdc:	00270713          	addi	a4,a4,2
    7be0:	0ce12623          	sw	a4,204(sp)
    7be4:	0c812703          	lw	a4,200(sp)
    7be8:	00170713          	addi	a4,a4,1
    7bec:	0ce12423          	sw	a4,200(sp)
    7bf0:	02e6d263          	bge	a3,a4,7c14 <_svfprintf_r+0x504>
    7bf4:	0c410613          	addi	a2,sp,196
    7bf8:	00098593          	mv	a1,s3
    7bfc:	00090513          	mv	a0,s2
    7c00:	00007097          	auipc	ra,0x7
    7c04:	0b8080e7          	jalr	184(ra) # ecb8 <__ssprint_r>
    7c08:	00050463          	beqz	a0,7c10 <_svfprintf_r+0x500>
    7c0c:	2b50106f          	j	96c0 <_svfprintf_r+0x1fb0>
    7c10:	0ec10c13          	addi	s8,sp,236
    7c14:	03c12783          	lw	a5,60(sp)
    7c18:	08000713          	li	a4,128
    7c1c:	06e79c63          	bne	a5,a4,7c94 <_svfprintf_r+0x584>
    7c20:	01c12783          	lw	a5,28(sp)
    7c24:	02012703          	lw	a4,32(sp)
    7c28:	40e787b3          	sub	a5,a5,a4
    7c2c:	06f05463          	blez	a5,7c94 <_svfprintf_r+0x584>
    7c30:	01000813          	li	a6,16
    7c34:	00700e13          	li	t3,7
    7c38:	0c812703          	lw	a4,200(sp)
    7c3c:	80044597          	auipc	a1,0x80044
    7c40:	e1c58593          	addi	a1,a1,-484 # 8004ba58 <__stack_top+0xfffd4c08>
    7c44:	00bc2023          	sw	a1,0(s8)
    7c48:	0cc12683          	lw	a3,204(sp)
    7c4c:	00170713          	addi	a4,a4,1
    7c50:	008c0613          	addi	a2,s8,8
    7c54:	7cf842e3          	blt	a6,a5,8c18 <_svfprintf_r+0x1508>
    7c58:	00fc2223          	sw	a5,4(s8)
    7c5c:	00d787b3          	add	a5,a5,a3
    7c60:	0cf12623          	sw	a5,204(sp)
    7c64:	0ce12423          	sw	a4,200(sp)
    7c68:	00700693          	li	a3,7
    7c6c:	00060c13          	mv	s8,a2
    7c70:	02e6d263          	bge	a3,a4,7c94 <_svfprintf_r+0x584>
    7c74:	0c410613          	addi	a2,sp,196
    7c78:	00098593          	mv	a1,s3
    7c7c:	00090513          	mv	a0,s2
    7c80:	00007097          	auipc	ra,0x7
    7c84:	038080e7          	jalr	56(ra) # ecb8 <__ssprint_r>
    7c88:	00050463          	beqz	a0,7c90 <_svfprintf_r+0x580>
    7c8c:	2350106f          	j	96c0 <_svfprintf_r+0x1fb0>
    7c90:	0ec10c13          	addi	s8,sp,236
    7c94:	41bd0d33          	sub	s10,s10,s11
    7c98:	07a05463          	blez	s10,7d00 <_svfprintf_r+0x5f0>
    7c9c:	01000793          	li	a5,16
    7ca0:	00700813          	li	a6,7
    7ca4:	0c812703          	lw	a4,200(sp)
    7ca8:	0cc12683          	lw	a3,204(sp)
    7cac:	008c0613          	addi	a2,s8,8
    7cb0:	00170713          	addi	a4,a4,1
    7cb4:	7ba7c8e3          	blt	a5,s10,8c64 <_svfprintf_r+0x1554>
    7cb8:	01ac2223          	sw	s10,4(s8)
    7cbc:	80044797          	auipc	a5,0x80044
    7cc0:	d9c78793          	addi	a5,a5,-612 # 8004ba58 <__stack_top+0xfffd4c08>
    7cc4:	00dd0d33          	add	s10,s10,a3
    7cc8:	00fc2023          	sw	a5,0(s8)
    7ccc:	0da12623          	sw	s10,204(sp)
    7cd0:	0ce12423          	sw	a4,200(sp)
    7cd4:	00700693          	li	a3,7
    7cd8:	00060c13          	mv	s8,a2
    7cdc:	02e6d263          	bge	a3,a4,7d00 <_svfprintf_r+0x5f0>
    7ce0:	0c410613          	addi	a2,sp,196
    7ce4:	00098593          	mv	a1,s3
    7ce8:	00090513          	mv	a0,s2
    7cec:	00007097          	auipc	ra,0x7
    7cf0:	fcc080e7          	jalr	-52(ra) # ecb8 <__ssprint_r>
    7cf4:	00050463          	beqz	a0,7cfc <_svfprintf_r+0x5ec>
    7cf8:	1c90106f          	j	96c0 <_svfprintf_r+0x1fb0>
    7cfc:	0ec10c13          	addi	s8,sp,236
    7d00:	10047713          	andi	a4,s0,256
    7d04:	0cc12d03          	lw	s10,204(sp)
    7d08:	7a0716e3          	bnez	a4,8cb4 <_svfprintf_r+0x15a4>
    7d0c:	0c812783          	lw	a5,200(sp)
    7d10:	01ad8333          	add	t1,s11,s10
    7d14:	009c2023          	sw	s1,0(s8)
    7d18:	00178793          	addi	a5,a5,1
    7d1c:	01bc2223          	sw	s11,4(s8)
    7d20:	0c612623          	sw	t1,204(sp)
    7d24:	0cf12423          	sw	a5,200(sp)
    7d28:	00700713          	li	a4,7
    7d2c:	008c0c13          	addi	s8,s8,8
    7d30:	00f74463          	blt	a4,a5,7d38 <_svfprintf_r+0x628>
    7d34:	2640106f          	j	8f98 <_svfprintf_r+0x1888>
    7d38:	0c410613          	addi	a2,sp,196
    7d3c:	00098593          	mv	a1,s3
    7d40:	00090513          	mv	a0,s2
    7d44:	00007097          	auipc	ra,0x7
    7d48:	f74080e7          	jalr	-140(ra) # ecb8 <__ssprint_r>
    7d4c:	00050463          	beqz	a0,7d54 <_svfprintf_r+0x644>
    7d50:	1710106f          	j	96c0 <_svfprintf_r+0x1fb0>
    7d54:	0ec10c13          	addi	s8,sp,236
    7d58:	2400106f          	j	8f98 <_svfprintf_r+0x1888>
    7d5c:	01046413          	ori	s0,s0,16
    7d60:	02047793          	andi	a5,s0,32
    7d64:	06078463          	beqz	a5,7dcc <_svfprintf_r+0x6bc>
    7d68:	007b0b13          	addi	s6,s6,7
    7d6c:	ff8b7b13          	andi	s6,s6,-8
    7d70:	000b2d03          	lw	s10,0(s6)
    7d74:	004b2c83          	lw	s9,4(s6)
    7d78:	008b0793          	addi	a5,s6,8
    7d7c:	00f12623          	sw	a5,12(sp)
    7d80:	000cc463          	bltz	s9,7d88 <_svfprintf_r+0x678>
    7d84:	1cd0106f          	j	9750 <_svfprintf_r+0x2040>
    7d88:	41a00d33          	neg	s10,s10
    7d8c:	01a037b3          	snez	a5,s10
    7d90:	41900cb3          	neg	s9,s9
    7d94:	40fc8cb3          	sub	s9,s9,a5
    7d98:	02d00793          	li	a5,45
    7d9c:	0af103a3          	sb	a5,167(sp)
    7da0:	00100793          	li	a5,1
    7da4:	fff00713          	li	a4,-1
    7da8:	46ed88e3          	beq	s11,a4,8a18 <_svfprintf_r+0x1308>
    7dac:	00040713          	mv	a4,s0
    7db0:	019d66b3          	or	a3,s10,s9
    7db4:	f7f47413          	andi	s0,s0,-129
    7db8:	460690e3          	bnez	a3,8a18 <_svfprintf_r+0x1308>
    7dbc:	5c0d8ce3          	beqz	s11,8b94 <_svfprintf_r+0x1484>
    7dc0:	00100713          	li	a4,1
    7dc4:	44e79ee3          	bne	a5,a4,8a20 <_svfprintf_r+0x1310>
    7dc8:	19d0106f          	j	9764 <_svfprintf_r+0x2054>
    7dcc:	004b0793          	addi	a5,s6,4
    7dd0:	00f12623          	sw	a5,12(sp)
    7dd4:	01047793          	andi	a5,s0,16
    7dd8:	00078863          	beqz	a5,7de8 <_svfprintf_r+0x6d8>
    7ddc:	000b2d03          	lw	s10,0(s6)
    7de0:	41fd5c93          	srai	s9,s10,0x1f
    7de4:	f9dff06f          	j	7d80 <_svfprintf_r+0x670>
    7de8:	04047793          	andi	a5,s0,64
    7dec:	000b2d03          	lw	s10,0(s6)
    7df0:	00078863          	beqz	a5,7e00 <_svfprintf_r+0x6f0>
    7df4:	010d1d13          	slli	s10,s10,0x10
    7df8:	410d5d13          	srai	s10,s10,0x10
    7dfc:	fe5ff06f          	j	7de0 <_svfprintf_r+0x6d0>
    7e00:	20047793          	andi	a5,s0,512
    7e04:	fc078ee3          	beqz	a5,7de0 <_svfprintf_r+0x6d0>
    7e08:	018d1d13          	slli	s10,s10,0x18
    7e0c:	418d5d13          	srai	s10,s10,0x18
    7e10:	fd1ff06f          	j	7de0 <_svfprintf_r+0x6d0>
    7e14:	00847793          	andi	a5,s0,8
    7e18:	0c078063          	beqz	a5,7ed8 <_svfprintf_r+0x7c8>
    7e1c:	004b0793          	addi	a5,s6,4
    7e20:	00f12623          	sw	a5,12(sp)
    7e24:	000b2783          	lw	a5,0(s6)
    7e28:	0007a603          	lw	a2,0(a5)
    7e2c:	0047a683          	lw	a3,4(a5)
    7e30:	0087a703          	lw	a4,8(a5)
    7e34:	00c7a783          	lw	a5,12(a5)
    7e38:	0cc12823          	sw	a2,208(sp)
    7e3c:	0cd12a23          	sw	a3,212(sp)
    7e40:	0ce12c23          	sw	a4,216(sp)
    7e44:	0d010513          	addi	a0,sp,208
    7e48:	0cf12e23          	sw	a5,220(sp)
    7e4c:	00006097          	auipc	ra,0x6
    7e50:	a28080e7          	jalr	-1496(ra) # d874 <_ldcheck>
    7e54:	0aa12623          	sw	a0,172(sp)
    7e58:	00200793          	li	a5,2
    7e5c:	0cf51063          	bne	a0,a5,7f1c <_svfprintf_r+0x80c>
    7e60:	0d012783          	lw	a5,208(sp)
    7e64:	08010593          	addi	a1,sp,128
    7e68:	09010513          	addi	a0,sp,144
    7e6c:	08f12823          	sw	a5,144(sp)
    7e70:	0d412783          	lw	a5,212(sp)
    7e74:	08012023          	sw	zero,128(sp)
    7e78:	08012223          	sw	zero,132(sp)
    7e7c:	08f12a23          	sw	a5,148(sp)
    7e80:	0d812783          	lw	a5,216(sp)
    7e84:	08012423          	sw	zero,136(sp)
    7e88:	08012623          	sw	zero,140(sp)
    7e8c:	08f12c23          	sw	a5,152(sp)
    7e90:	0dc12783          	lw	a5,220(sp)
    7e94:	08f12e23          	sw	a5,156(sp)
    7e98:	00009097          	auipc	ra,0x9
    7e9c:	f1c080e7          	jalr	-228(ra) # 10db4 <__letf2>
    7ea0:	00055663          	bgez	a0,7eac <_svfprintf_r+0x79c>
    7ea4:	02d00793          	li	a5,45
    7ea8:	0af103a3          	sb	a5,167(sp)
    7eac:	04700793          	li	a5,71
    7eb0:	80044497          	auipc	s1,0x80044
    7eb4:	bb848493          	addi	s1,s1,-1096 # 8004ba68 <__stack_top+0xfffd4c18>
    7eb8:	0157d663          	bge	a5,s5,7ec4 <_svfprintf_r+0x7b4>
    7ebc:	80044497          	auipc	s1,0x80044
    7ec0:	bb048493          	addi	s1,s1,-1104 # 8004ba6c <__stack_top+0xfffd4c1c>
    7ec4:	f7f47413          	andi	s0,s0,-129
    7ec8:	00000b13          	li	s6,0
    7ecc:	00300d93          	li	s11,3
    7ed0:	00000d13          	li	s10,0
    7ed4:	3a90006f          	j	8a7c <_svfprintf_r+0x136c>
    7ed8:	007b0b13          	addi	s6,s6,7
    7edc:	ff8b7b13          	andi	s6,s6,-8
    7ee0:	000b2583          	lw	a1,0(s6)
    7ee4:	004b2603          	lw	a2,4(s6)
    7ee8:	008b0793          	addi	a5,s6,8
    7eec:	09010513          	addi	a0,sp,144
    7ef0:	00f12623          	sw	a5,12(sp)
    7ef4:	0000c097          	auipc	ra,0xc
    7ef8:	854080e7          	jalr	-1964(ra) # 13748 <__extenddftf2>
    7efc:	09012783          	lw	a5,144(sp)
    7f00:	0cf12823          	sw	a5,208(sp)
    7f04:	09412783          	lw	a5,148(sp)
    7f08:	0cf12a23          	sw	a5,212(sp)
    7f0c:	09812783          	lw	a5,152(sp)
    7f10:	0cf12c23          	sw	a5,216(sp)
    7f14:	09c12783          	lw	a5,156(sp)
    7f18:	f2dff06f          	j	7e44 <_svfprintf_r+0x734>
    7f1c:	00100793          	li	a5,1
    7f20:	02f51863          	bne	a0,a5,7f50 <_svfprintf_r+0x840>
    7f24:	0dc12783          	lw	a5,220(sp)
    7f28:	0007d663          	bgez	a5,7f34 <_svfprintf_r+0x824>
    7f2c:	02d00793          	li	a5,45
    7f30:	0af103a3          	sb	a5,167(sp)
    7f34:	04700793          	li	a5,71
    7f38:	80044497          	auipc	s1,0x80044
    7f3c:	b3848493          	addi	s1,s1,-1224 # 8004ba70 <__stack_top+0xfffd4c20>
    7f40:	f957d2e3          	bge	a5,s5,7ec4 <_svfprintf_r+0x7b4>
    7f44:	80044497          	auipc	s1,0x80044
    7f48:	b3048493          	addi	s1,s1,-1232 # 8004ba74 <__stack_top+0xfffd4c24>
    7f4c:	f79ff06f          	j	7ec4 <_svfprintf_r+0x7b4>
    7f50:	fdfafb93          	andi	s7,s5,-33
    7f54:	04100793          	li	a5,65
    7f58:	08fb9e63          	bne	s7,a5,7ff4 <_svfprintf_r+0x8e4>
    7f5c:	03000793          	li	a5,48
    7f60:	0af10423          	sb	a5,168(sp)
    7f64:	06100713          	li	a4,97
    7f68:	07800793          	li	a5,120
    7f6c:	00ea8463          	beq	s5,a4,7f74 <_svfprintf_r+0x864>
    7f70:	05800793          	li	a5,88
    7f74:	0af104a3          	sb	a5,169(sp)
    7f78:	06300793          	li	a5,99
    7f7c:	00246413          	ori	s0,s0,2
    7f80:	53b7d463          	bge	a5,s11,84a8 <_svfprintf_r+0xd98>
    7f84:	001d8593          	addi	a1,s11,1
    7f88:	00090513          	mv	a0,s2
    7f8c:	ffffe097          	auipc	ra,0xffffe
    7f90:	2dc080e7          	jalr	732(ra) # 6268 <_malloc_r>
    7f94:	00050493          	mv	s1,a0
    7f98:	50051e63          	bnez	a0,84b4 <_svfprintf_r+0xda4>
    7f9c:	00c9d783          	lhu	a5,12(s3)
    7fa0:	0407e793          	ori	a5,a5,64
    7fa4:	00f99623          	sh	a5,12(s3)
    7fa8:	00c9d783          	lhu	a5,12(s3)
    7fac:	0407f793          	andi	a5,a5,64
    7fb0:	800798e3          	bnez	a5,77c0 <_svfprintf_r+0xb0>
    7fb4:	1cc12083          	lw	ra,460(sp)
    7fb8:	1c812403          	lw	s0,456(sp)
    7fbc:	01812503          	lw	a0,24(sp)
    7fc0:	1c412483          	lw	s1,452(sp)
    7fc4:	1c012903          	lw	s2,448(sp)
    7fc8:	1bc12983          	lw	s3,444(sp)
    7fcc:	1b812a03          	lw	s4,440(sp)
    7fd0:	1b412a83          	lw	s5,436(sp)
    7fd4:	1b012b03          	lw	s6,432(sp)
    7fd8:	1ac12b83          	lw	s7,428(sp)
    7fdc:	1a812c03          	lw	s8,424(sp)
    7fe0:	1a412c83          	lw	s9,420(sp)
    7fe4:	1a012d03          	lw	s10,416(sp)
    7fe8:	19c12d83          	lw	s11,412(sp)
    7fec:	1d010113          	addi	sp,sp,464
    7ff0:	00008067          	ret
    7ff4:	fff00793          	li	a5,-1
    7ff8:	4cfd8263          	beq	s11,a5,84bc <_svfprintf_r+0xdac>
    7ffc:	04700793          	li	a5,71
    8000:	00000b13          	li	s6,0
    8004:	00fb9863          	bne	s7,a5,8014 <_svfprintf_r+0x904>
    8008:	000d9663          	bnez	s11,8014 <_svfprintf_r+0x904>
    800c:	000d8b13          	mv	s6,s11
    8010:	00100d93          	li	s11,1
    8014:	0dc12a03          	lw	s4,220(sp)
    8018:	10046793          	ori	a5,s0,256
    801c:	02f12023          	sw	a5,32(sp)
    8020:	02012c23          	sw	zero,56(sp)
    8024:	0d012e03          	lw	t3,208(sp)
    8028:	0d412883          	lw	a7,212(sp)
    802c:	0d812d03          	lw	s10,216(sp)
    8030:	000a5a63          	bgez	s4,8044 <_svfprintf_r+0x934>
    8034:	800007b7          	lui	a5,0x80000
    8038:	0147ca33          	xor	s4,a5,s4
    803c:	02d00793          	li	a5,45
    8040:	02f12c23          	sw	a5,56(sp)
    8044:	04100793          	li	a5,65
    8048:	4afb9e63          	bne	s7,a5,8504 <_svfprintf_r+0xdf4>
    804c:	09010513          	addi	a0,sp,144
    8050:	09c12823          	sw	t3,144(sp)
    8054:	09112a23          	sw	a7,148(sp)
    8058:	09a12c23          	sw	s10,152(sp)
    805c:	09412e23          	sw	s4,156(sp)
    8060:	0000c097          	auipc	ra,0xc
    8064:	908080e7          	jalr	-1784(ra) # 13968 <__trunctfdf2>
    8068:	0ac10613          	addi	a2,sp,172
    806c:	ffffd097          	auipc	ra,0xffffd
    8070:	e50080e7          	jalr	-432(ra) # 4ebc <frexp>
    8074:	00058613          	mv	a2,a1
    8078:	00050593          	mv	a1,a0
    807c:	09010513          	addi	a0,sp,144
    8080:	0000b097          	auipc	ra,0xb
    8084:	6c8080e7          	jalr	1736(ra) # 13748 <__extenddftf2>
    8088:	09012783          	lw	a5,144(sp)
    808c:	06010613          	addi	a2,sp,96
    8090:	07010593          	addi	a1,sp,112
    8094:	06f12823          	sw	a5,112(sp)
    8098:	09412783          	lw	a5,148(sp)
    809c:	08010513          	addi	a0,sp,128
    80a0:	06012023          	sw	zero,96(sp)
    80a4:	06f12a23          	sw	a5,116(sp)
    80a8:	09812783          	lw	a5,152(sp)
    80ac:	06012223          	sw	zero,100(sp)
    80b0:	06012423          	sw	zero,104(sp)
    80b4:	06f12c23          	sw	a5,120(sp)
    80b8:	09c12783          	lw	a5,156(sp)
    80bc:	06f12e23          	sw	a5,124(sp)
    80c0:	3ffc07b7          	lui	a5,0x3ffc0
    80c4:	06f12623          	sw	a5,108(sp)
    80c8:	00009097          	auipc	ra,0x9
    80cc:	e34080e7          	jalr	-460(ra) # 10efc <__multf3>
    80d0:	08012803          	lw	a6,128(sp)
    80d4:	08412603          	lw	a2,132(sp)
    80d8:	08812683          	lw	a3,136(sp)
    80dc:	08c12d03          	lw	s10,140(sp)
    80e0:	08010593          	addi	a1,sp,128
    80e4:	09010513          	addi	a0,sp,144
    80e8:	09012823          	sw	a6,144(sp)
    80ec:	05012023          	sw	a6,64(sp)
    80f0:	08c12a23          	sw	a2,148(sp)
    80f4:	02c12e23          	sw	a2,60(sp)
    80f8:	08d12c23          	sw	a3,152(sp)
    80fc:	00d12423          	sw	a3,8(sp)
    8100:	09a12e23          	sw	s10,156(sp)
    8104:	08012023          	sw	zero,128(sp)
    8108:	08012223          	sw	zero,132(sp)
    810c:	08012423          	sw	zero,136(sp)
    8110:	08012623          	sw	zero,140(sp)
    8114:	00009097          	auipc	ra,0x9
    8118:	a8c080e7          	jalr	-1396(ra) # 10ba0 <__eqtf2>
    811c:	00812683          	lw	a3,8(sp)
    8120:	03c12603          	lw	a2,60(sp)
    8124:	04012803          	lw	a6,64(sp)
    8128:	00051663          	bnez	a0,8134 <_svfprintf_r+0xa24>
    812c:	00100713          	li	a4,1
    8130:	0ae12623          	sw	a4,172(sp)
    8134:	80044797          	auipc	a5,0x80044
    8138:	94478793          	addi	a5,a5,-1724 # 8004ba78 <__stack_top+0xfffd4c28>
    813c:	06100713          	li	a4,97
    8140:	00f12423          	sw	a5,8(sp)
    8144:	00ea8863          	beq	s5,a4,8154 <_svfprintf_r+0xa44>
    8148:	7fff8797          	auipc	a5,0x7fff8
    814c:	eb878793          	addi	a5,a5,-328 # 80000000 <__trunctfdf2+0x7ffec698>
    8150:	00f12423          	sw	a5,8(sp)
    8154:	fffd8e13          	addi	t3,s11,-1
    8158:	00048c93          	mv	s9,s1
    815c:	400307b7          	lui	a5,0x40030
    8160:	08010593          	addi	a1,sp,128
    8164:	08c12223          	sw	a2,132(sp)
    8168:	09010513          	addi	a0,sp,144
    816c:	07010613          	addi	a2,sp,112
    8170:	05c12423          	sw	t3,72(sp)
    8174:	09012023          	sw	a6,128(sp)
    8178:	08d12423          	sw	a3,136(sp)
    817c:	09a12623          	sw	s10,140(sp)
    8180:	06f12e23          	sw	a5,124(sp)
    8184:	06012823          	sw	zero,112(sp)
    8188:	06012a23          	sw	zero,116(sp)
    818c:	06012c23          	sw	zero,120(sp)
    8190:	00009097          	auipc	ra,0x9
    8194:	d6c080e7          	jalr	-660(ra) # 10efc <__multf3>
    8198:	09012603          	lw	a2,144(sp)
    819c:	09412683          	lw	a3,148(sp)
    81a0:	09812783          	lw	a5,152(sp)
    81a4:	09010513          	addi	a0,sp,144
    81a8:	04c12223          	sw	a2,68(sp)
    81ac:	04d12023          	sw	a3,64(sp)
    81b0:	02f12e23          	sw	a5,60(sp)
    81b4:	0000b097          	auipc	ra,0xb
    81b8:	2ac080e7          	jalr	684(ra) # 13460 <__fixtfsi>
    81bc:	00050593          	mv	a1,a0
    81c0:	00050a13          	mv	s4,a0
    81c4:	09010513          	addi	a0,sp,144
    81c8:	09c12d03          	lw	s10,156(sp)
    81cc:	0000b097          	auipc	ra,0xb
    81d0:	3e4080e7          	jalr	996(ra) # 135b0 <__floatsitf>
    81d4:	03c12783          	lw	a5,60(sp)
    81d8:	04412603          	lw	a2,68(sp)
    81dc:	04012683          	lw	a3,64(sp)
    81e0:	06f12c23          	sw	a5,120(sp)
    81e4:	09012783          	lw	a5,144(sp)
    81e8:	06c12823          	sw	a2,112(sp)
    81ec:	07010593          	addi	a1,sp,112
    81f0:	06f12023          	sw	a5,96(sp)
    81f4:	09412783          	lw	a5,148(sp)
    81f8:	06010613          	addi	a2,sp,96
    81fc:	08010513          	addi	a0,sp,128
    8200:	06f12223          	sw	a5,100(sp)
    8204:	09812783          	lw	a5,152(sp)
    8208:	07a12e23          	sw	s10,124(sp)
    820c:	06d12a23          	sw	a3,116(sp)
    8210:	06f12423          	sw	a5,104(sp)
    8214:	09c12783          	lw	a5,156(sp)
    8218:	001c8c93          	addi	s9,s9,1
    821c:	06f12623          	sw	a5,108(sp)
    8220:	0000a097          	auipc	ra,0xa
    8224:	d10080e7          	jalr	-752(ra) # 11f30 <__subtf3>
    8228:	00812783          	lw	a5,8(sp)
    822c:	04812e03          	lw	t3,72(sp)
    8230:	08c12e83          	lw	t4,140(sp)
    8234:	014785b3          	add	a1,a5,s4
    8238:	0005c583          	lbu	a1,0(a1)
    823c:	08012283          	lw	t0,128(sp)
    8240:	08412f83          	lw	t6,132(sp)
    8244:	08812f03          	lw	t5,136(sp)
    8248:	03c12e23          	sw	t3,60(sp)
    824c:	febc8fa3          	sb	a1,-1(s9)
    8250:	fff00793          	li	a5,-1
    8254:	000e8d13          	mv	s10,t4
    8258:	06fe0e63          	beq	t3,a5,82d4 <_svfprintf_r+0xbc4>
    825c:	fffe0e13          	addi	t3,t3,-1
    8260:	08010593          	addi	a1,sp,128
    8264:	09010513          	addi	a0,sp,144
    8268:	05d12e23          	sw	t4,92(sp)
    826c:	05e12c23          	sw	t5,88(sp)
    8270:	05f12a23          	sw	t6,84(sp)
    8274:	04512823          	sw	t0,80(sp)
    8278:	05c12623          	sw	t3,76(sp)
    827c:	08512823          	sw	t0,144(sp)
    8280:	04512423          	sw	t0,72(sp)
    8284:	09f12a23          	sw	t6,148(sp)
    8288:	05f12223          	sw	t6,68(sp)
    828c:	09e12c23          	sw	t5,152(sp)
    8290:	05e12023          	sw	t5,64(sp)
    8294:	09d12e23          	sw	t4,156(sp)
    8298:	08012023          	sw	zero,128(sp)
    829c:	08012223          	sw	zero,132(sp)
    82a0:	08012423          	sw	zero,136(sp)
    82a4:	08012623          	sw	zero,140(sp)
    82a8:	00009097          	auipc	ra,0x9
    82ac:	8f8080e7          	jalr	-1800(ra) # 10ba0 <__eqtf2>
    82b0:	04012683          	lw	a3,64(sp)
    82b4:	04412603          	lw	a2,68(sp)
    82b8:	04812803          	lw	a6,72(sp)
    82bc:	04c12e03          	lw	t3,76(sp)
    82c0:	05012283          	lw	t0,80(sp)
    82c4:	05412f83          	lw	t6,84(sp)
    82c8:	05812f03          	lw	t5,88(sp)
    82cc:	05c12e83          	lw	t4,92(sp)
    82d0:	e80516e3          	bnez	a0,815c <_svfprintf_r+0xa4c>
    82d4:	3ffe0d37          	lui	s10,0x3ffe0
    82d8:	08010593          	addi	a1,sp,128
    82dc:	09010513          	addi	a0,sp,144
    82e0:	08512823          	sw	t0,144(sp)
    82e4:	04512623          	sw	t0,76(sp)
    82e8:	09f12a23          	sw	t6,148(sp)
    82ec:	05f12423          	sw	t6,72(sp)
    82f0:	09e12c23          	sw	t5,152(sp)
    82f4:	05e12223          	sw	t5,68(sp)
    82f8:	09d12e23          	sw	t4,156(sp)
    82fc:	05d12023          	sw	t4,64(sp)
    8300:	08012023          	sw	zero,128(sp)
    8304:	08012223          	sw	zero,132(sp)
    8308:	08012423          	sw	zero,136(sp)
    830c:	09a12623          	sw	s10,140(sp)
    8310:	00009097          	auipc	ra,0x9
    8314:	95c080e7          	jalr	-1700(ra) # 10c6c <__getf2>
    8318:	04a04863          	bgtz	a0,8368 <_svfprintf_r+0xc58>
    831c:	04c12283          	lw	t0,76(sp)
    8320:	04812f83          	lw	t6,72(sp)
    8324:	04412f03          	lw	t5,68(sp)
    8328:	04012e83          	lw	t4,64(sp)
    832c:	08010593          	addi	a1,sp,128
    8330:	09010513          	addi	a0,sp,144
    8334:	08512823          	sw	t0,144(sp)
    8338:	09f12a23          	sw	t6,148(sp)
    833c:	09e12c23          	sw	t5,152(sp)
    8340:	09d12e23          	sw	t4,156(sp)
    8344:	08012023          	sw	zero,128(sp)
    8348:	08012223          	sw	zero,132(sp)
    834c:	08012423          	sw	zero,136(sp)
    8350:	09a12623          	sw	s10,140(sp)
    8354:	00009097          	auipc	ra,0x9
    8358:	84c080e7          	jalr	-1972(ra) # 10ba0 <__eqtf2>
    835c:	18051a63          	bnez	a0,84f0 <_svfprintf_r+0xde0>
    8360:	001a7a13          	andi	s4,s4,1
    8364:	180a0663          	beqz	s4,84f0 <_svfprintf_r+0xde0>
    8368:	00812783          	lw	a5,8(sp)
    836c:	0b912e23          	sw	s9,188(sp)
    8370:	03000593          	li	a1,48
    8374:	00f7c603          	lbu	a2,15(a5) # 4003000f <__trunctfdf2+0x4001c6a7>
    8378:	0bc12683          	lw	a3,188(sp)
    837c:	fff68793          	addi	a5,a3,-1
    8380:	0af12e23          	sw	a5,188(sp)
    8384:	fff6c783          	lbu	a5,-1(a3)
    8388:	14c78063          	beq	a5,a2,84c8 <_svfprintf_r+0xdb8>
    838c:	03900613          	li	a2,57
    8390:	14c79063          	bne	a5,a2,84d0 <_svfprintf_r+0xdc0>
    8394:	00812783          	lw	a5,8(sp)
    8398:	00a7c783          	lbu	a5,10(a5)
    839c:	fef68fa3          	sb	a5,-1(a3)
    83a0:	000c8a13          	mv	s4,s9
    83a4:	04700713          	li	a4,71
    83a8:	409a0a33          	sub	s4,s4,s1
    83ac:	0ac12c83          	lw	s9,172(sp)
    83b0:	2aeb9863          	bne	s7,a4,8660 <_svfprintf_r+0xf50>
    83b4:	ffd00713          	li	a4,-3
    83b8:	00ecc463          	blt	s9,a4,83c0 <_svfprintf_r+0xcb0>
    83bc:	339dd263          	bge	s11,s9,86e0 <_svfprintf_r+0xfd0>
    83c0:	ffea8a93          	addi	s5,s5,-2
    83c4:	fffc8693          	addi	a3,s9,-1
    83c8:	0ad12623          	sw	a3,172(sp)
    83cc:	fdfaf613          	andi	a2,s5,-33
    83d0:	04100513          	li	a0,65
    83d4:	0ffaf713          	zext.b	a4,s5
    83d8:	00000593          	li	a1,0
    83dc:	00a61863          	bne	a2,a0,83ec <_svfprintf_r+0xcdc>
    83e0:	00f70713          	addi	a4,a4,15
    83e4:	0ff77713          	zext.b	a4,a4
    83e8:	00100593          	li	a1,1
    83ec:	0ae10a23          	sb	a4,180(sp)
    83f0:	02b00793          	li	a5,43
    83f4:	0006d863          	bgez	a3,8404 <_svfprintf_r+0xcf4>
    83f8:	00100693          	li	a3,1
    83fc:	419686b3          	sub	a3,a3,s9
    8400:	02d00793          	li	a5,45
    8404:	0af10aa3          	sb	a5,181(sp)
    8408:	00900793          	li	a5,9
    840c:	2ad7d063          	bge	a5,a3,86ac <_svfprintf_r+0xf9c>
    8410:	0c310713          	addi	a4,sp,195
    8414:	00070513          	mv	a0,a4
    8418:	00a00593          	li	a1,10
    841c:	06300813          	li	a6,99
    8420:	02b6e7b3          	rem	a5,a3,a1
    8424:	fff70613          	addi	a2,a4,-1
    8428:	03078793          	addi	a5,a5,48
    842c:	fef70fa3          	sb	a5,-1(a4)
    8430:	02b6c7b3          	div	a5,a3,a1
    8434:	24d84c63          	blt	a6,a3,868c <_svfprintf_r+0xf7c>
    8438:	03078793          	addi	a5,a5,48
    843c:	fef60fa3          	sb	a5,-1(a2)
    8440:	ffe70713          	addi	a4,a4,-2
    8444:	0b610613          	addi	a2,sp,182
    8448:	24a76863          	bltu	a4,a0,8698 <_svfprintf_r+0xf88>
    844c:	0b410793          	addi	a5,sp,180
    8450:	40f607b3          	sub	a5,a2,a5
    8454:	02f12823          	sw	a5,48(sp)
    8458:	01478db3          	add	s11,a5,s4
    845c:	00100793          	li	a5,1
    8460:	0147c663          	blt	a5,s4,846c <_svfprintf_r+0xd5c>
    8464:	00147793          	andi	a5,s0,1
    8468:	00078663          	beqz	a5,8474 <_svfprintf_r+0xd64>
    846c:	01412783          	lw	a5,20(sp)
    8470:	00fd8db3          	add	s11,s11,a5
    8474:	bff47413          	andi	s0,s0,-1025
    8478:	10046793          	ori	a5,s0,256
    847c:	02f12023          	sw	a5,32(sp)
    8480:	00012423          	sw	zero,8(sp)
    8484:	00000b93          	li	s7,0
    8488:	00000c93          	li	s9,0
    848c:	03812783          	lw	a5,56(sp)
    8490:	00078663          	beqz	a5,849c <_svfprintf_r+0xd8c>
    8494:	02d00713          	li	a4,45
    8498:	0ae103a3          	sb	a4,167(sp)
    849c:	02012403          	lw	s0,32(sp)
    84a0:	00000d13          	li	s10,0
    84a4:	dfcff06f          	j	7aa0 <_svfprintf_r+0x390>
    84a8:	00000b13          	li	s6,0
    84ac:	12c10493          	addi	s1,sp,300
    84b0:	b65ff06f          	j	8014 <_svfprintf_r+0x904>
    84b4:	00050b13          	mv	s6,a0
    84b8:	b5dff06f          	j	8014 <_svfprintf_r+0x904>
    84bc:	00000b13          	li	s6,0
    84c0:	00600d93          	li	s11,6
    84c4:	b51ff06f          	j	8014 <_svfprintf_r+0x904>
    84c8:	feb68fa3          	sb	a1,-1(a3)
    84cc:	eadff06f          	j	8378 <_svfprintf_r+0xc68>
    84d0:	00178793          	addi	a5,a5,1
    84d4:	0ff7f793          	zext.b	a5,a5
    84d8:	ec5ff06f          	j	839c <_svfprintf_r+0xc8c>
    84dc:	001a0a13          	addi	s4,s4,1
    84e0:	feea0fa3          	sb	a4,-1(s4)
    84e4:	414c87b3          	sub	a5,s9,s4
    84e8:	fe07dae3          	bgez	a5,84dc <_svfprintf_r+0xdcc>
    84ec:	eb9ff06f          	j	83a4 <_svfprintf_r+0xc94>
    84f0:	03c12783          	lw	a5,60(sp)
    84f4:	000c8a13          	mv	s4,s9
    84f8:	03000713          	li	a4,48
    84fc:	00fc8cb3          	add	s9,s9,a5
    8500:	fe5ff06f          	j	84e4 <_svfprintf_r+0xdd4>
    8504:	04600793          	li	a5,70
    8508:	00fb8e63          	beq	s7,a5,8524 <_svfprintf_r+0xe14>
    850c:	04500793          	li	a5,69
    8510:	001d8313          	addi	t1,s11,1
    8514:	00fb8463          	beq	s7,a5,851c <_svfprintf_r+0xe0c>
    8518:	000d8313          	mv	t1,s11
    851c:	00200613          	li	a2,2
    8520:	00c0006f          	j	852c <_svfprintf_r+0xe1c>
    8524:	000d8313          	mv	t1,s11
    8528:	00300613          	li	a2,3
    852c:	0b010793          	addi	a5,sp,176
    8530:	00030693          	mv	a3,t1
    8534:	0bc10813          	addi	a6,sp,188
    8538:	0ac10713          	addi	a4,sp,172
    853c:	09010593          	addi	a1,sp,144
    8540:	00090513          	mv	a0,s2
    8544:	09c12823          	sw	t3,144(sp)
    8548:	05c12023          	sw	t3,64(sp)
    854c:	09112a23          	sw	a7,148(sp)
    8550:	03112e23          	sw	a7,60(sp)
    8554:	00612423          	sw	t1,8(sp)
    8558:	09a12c23          	sw	s10,152(sp)
    855c:	09412e23          	sw	s4,156(sp)
    8560:	00004097          	auipc	ra,0x4
    8564:	5bc080e7          	jalr	1468(ra) # cb1c <_ldtoa_r>
    8568:	04700793          	li	a5,71
    856c:	00050493          	mv	s1,a0
    8570:	00812303          	lw	t1,8(sp)
    8574:	03c12883          	lw	a7,60(sp)
    8578:	04012e03          	lw	t3,64(sp)
    857c:	00fb9a63          	bne	s7,a5,8590 <_svfprintf_r+0xe80>
    8580:	00147793          	andi	a5,s0,1
    8584:	00079663          	bnez	a5,8590 <_svfprintf_r+0xe80>
    8588:	0bc12a03          	lw	s4,188(sp)
    858c:	e19ff06f          	j	83a4 <_svfprintf_r+0xc94>
    8590:	04600793          	li	a5,70
    8594:	00648cb3          	add	s9,s1,t1
    8598:	06fb9863          	bne	s7,a5,8608 <_svfprintf_r+0xef8>
    859c:	0004c703          	lbu	a4,0(s1)
    85a0:	03000793          	li	a5,48
    85a4:	04f71e63          	bne	a4,a5,8600 <_svfprintf_r+0xef0>
    85a8:	08010593          	addi	a1,sp,128
    85ac:	09010513          	addi	a0,sp,144
    85b0:	09c12823          	sw	t3,144(sp)
    85b4:	03c12e23          	sw	t3,60(sp)
    85b8:	09112a23          	sw	a7,148(sp)
    85bc:	01112423          	sw	a7,8(sp)
    85c0:	04612023          	sw	t1,64(sp)
    85c4:	09a12c23          	sw	s10,152(sp)
    85c8:	09412e23          	sw	s4,156(sp)
    85cc:	08012023          	sw	zero,128(sp)
    85d0:	08012223          	sw	zero,132(sp)
    85d4:	08012423          	sw	zero,136(sp)
    85d8:	08012623          	sw	zero,140(sp)
    85dc:	00008097          	auipc	ra,0x8
    85e0:	5c4080e7          	jalr	1476(ra) # 10ba0 <__eqtf2>
    85e4:	00812883          	lw	a7,8(sp)
    85e8:	03c12e03          	lw	t3,60(sp)
    85ec:	00050a63          	beqz	a0,8600 <_svfprintf_r+0xef0>
    85f0:	04012303          	lw	t1,64(sp)
    85f4:	00100793          	li	a5,1
    85f8:	406787b3          	sub	a5,a5,t1
    85fc:	0af12623          	sw	a5,172(sp)
    8600:	0ac12783          	lw	a5,172(sp)
    8604:	00fc8cb3          	add	s9,s9,a5
    8608:	08010593          	addi	a1,sp,128
    860c:	09010513          	addi	a0,sp,144
    8610:	09c12823          	sw	t3,144(sp)
    8614:	09112a23          	sw	a7,148(sp)
    8618:	09a12c23          	sw	s10,152(sp)
    861c:	09412e23          	sw	s4,156(sp)
    8620:	08012023          	sw	zero,128(sp)
    8624:	08012223          	sw	zero,132(sp)
    8628:	08012423          	sw	zero,136(sp)
    862c:	08012623          	sw	zero,140(sp)
    8630:	00008097          	auipc	ra,0x8
    8634:	570080e7          	jalr	1392(ra) # 10ba0 <__eqtf2>
    8638:	00051463          	bnez	a0,8640 <_svfprintf_r+0xf30>
    863c:	0b912e23          	sw	s9,188(sp)
    8640:	03000713          	li	a4,48
    8644:	0100006f          	j	8654 <_svfprintf_r+0xf44>
    8648:	00178693          	addi	a3,a5,1
    864c:	0ad12e23          	sw	a3,188(sp)
    8650:	00e78023          	sb	a4,0(a5)
    8654:	0bc12783          	lw	a5,188(sp)
    8658:	ff97e8e3          	bltu	a5,s9,8648 <_svfprintf_r+0xf38>
    865c:	f2dff06f          	j	8588 <_svfprintf_r+0xe78>
    8660:	04600713          	li	a4,70
    8664:	d6eb90e3          	bne	s7,a4,83c4 <_svfprintf_r+0xcb4>
    8668:	00147713          	andi	a4,s0,1
    866c:	01b76733          	or	a4,a4,s11
    8670:	07905063          	blez	s9,86d0 <_svfprintf_r+0xfc0>
    8674:	0c070063          	beqz	a4,8734 <_svfprintf_r+0x1024>
    8678:	01412783          	lw	a5,20(sp)
    867c:	00fc8733          	add	a4,s9,a5
    8680:	00ed8db3          	add	s11,s11,a4
    8684:	06600a93          	li	s5,102
    8688:	0900006f          	j	8718 <_svfprintf_r+0x1008>
    868c:	00060713          	mv	a4,a2
    8690:	00078693          	mv	a3,a5
    8694:	d8dff06f          	j	8420 <_svfprintf_r+0xd10>
    8698:	00170713          	addi	a4,a4,1
    869c:	fff74783          	lbu	a5,-1(a4)
    86a0:	00160613          	addi	a2,a2,1
    86a4:	fef60fa3          	sb	a5,-1(a2)
    86a8:	da1ff06f          	j	8448 <_svfprintf_r+0xd38>
    86ac:	0b610713          	addi	a4,sp,182
    86b0:	00059863          	bnez	a1,86c0 <_svfprintf_r+0xfb0>
    86b4:	03000793          	li	a5,48
    86b8:	0af10b23          	sb	a5,182(sp)
    86bc:	0b710713          	addi	a4,sp,183
    86c0:	03068793          	addi	a5,a3,48
    86c4:	00170613          	addi	a2,a4,1
    86c8:	00f70023          	sb	a5,0(a4)
    86cc:	d81ff06f          	j	844c <_svfprintf_r+0xd3c>
    86d0:	06070663          	beqz	a4,873c <_svfprintf_r+0x102c>
    86d4:	01412783          	lw	a5,20(sp)
    86d8:	00178713          	addi	a4,a5,1
    86dc:	fa5ff06f          	j	8680 <_svfprintf_r+0xf70>
    86e0:	034cc063          	blt	s9,s4,8700 <_svfprintf_r+0xff0>
    86e4:	00147713          	andi	a4,s0,1
    86e8:	000c8d93          	mv	s11,s9
    86ec:	00070663          	beqz	a4,86f8 <_svfprintf_r+0xfe8>
    86f0:	01412783          	lw	a5,20(sp)
    86f4:	00fc8db3          	add	s11,s9,a5
    86f8:	06700a93          	li	s5,103
    86fc:	01c0006f          	j	8718 <_svfprintf_r+0x1008>
    8700:	01412783          	lw	a5,20(sp)
    8704:	06700a93          	li	s5,103
    8708:	00fa0db3          	add	s11,s4,a5
    870c:	01904663          	bgtz	s9,8718 <_svfprintf_r+0x1008>
    8710:	419d8333          	sub	t1,s11,s9
    8714:	00130d93          	addi	s11,t1,1
    8718:	40047b93          	andi	s7,s0,1024
    871c:	00012423          	sw	zero,8(sp)
    8720:	d60b86e3          	beqz	s7,848c <_svfprintf_r+0xd7c>
    8724:	00000b93          	li	s7,0
    8728:	d79052e3          	blez	s9,848c <_svfprintf_r+0xd7c>
    872c:	0ff00693          	li	a3,255
    8730:	0380006f          	j	8768 <_svfprintf_r+0x1058>
    8734:	000c8d93          	mv	s11,s9
    8738:	f4dff06f          	j	8684 <_svfprintf_r+0xf74>
    873c:	06600a93          	li	s5,102
    8740:	00100d93          	li	s11,1
    8744:	fd5ff06f          	j	8718 <_svfprintf_r+0x1008>
    8748:	03975663          	bge	a4,s9,8774 <_svfprintf_r+0x1064>
    874c:	00412783          	lw	a5,4(sp)
    8750:	40ec8cb3          	sub	s9,s9,a4
    8754:	0017c703          	lbu	a4,1(a5)
    8758:	02070a63          	beqz	a4,878c <_svfprintf_r+0x107c>
    875c:	00178793          	addi	a5,a5,1
    8760:	001b8b93          	addi	s7,s7,1
    8764:	00f12223          	sw	a5,4(sp)
    8768:	00412783          	lw	a5,4(sp)
    876c:	0007c703          	lbu	a4,0(a5)
    8770:	fcd71ce3          	bne	a4,a3,8748 <_svfprintf_r+0x1038>
    8774:	00812783          	lw	a5,8(sp)
    8778:	00fb8733          	add	a4,s7,a5
    877c:	02412783          	lw	a5,36(sp)
    8780:	02f70733          	mul	a4,a4,a5
    8784:	01b70db3          	add	s11,a4,s11
    8788:	d05ff06f          	j	848c <_svfprintf_r+0xd7c>
    878c:	00812783          	lw	a5,8(sp)
    8790:	00178793          	addi	a5,a5,1
    8794:	00f12423          	sw	a5,8(sp)
    8798:	fd1ff06f          	j	8768 <_svfprintf_r+0x1058>
    879c:	004b0713          	addi	a4,s6,4
    87a0:	00e12623          	sw	a4,12(sp)
    87a4:	02047713          	andi	a4,s0,32
    87a8:	000b2783          	lw	a5,0(s6)
    87ac:	02070063          	beqz	a4,87cc <_svfprintf_r+0x10bc>
    87b0:	01812703          	lw	a4,24(sp)
    87b4:	00e7a023          	sw	a4,0(a5)
    87b8:	41f75713          	srai	a4,a4,0x1f
    87bc:	00e7a223          	sw	a4,4(a5)
    87c0:	00c12b03          	lw	s6,12(sp)
    87c4:	01012483          	lw	s1,16(sp)
    87c8:	83cff06f          	j	7804 <_svfprintf_r+0xf4>
    87cc:	01047713          	andi	a4,s0,16
    87d0:	00070863          	beqz	a4,87e0 <_svfprintf_r+0x10d0>
    87d4:	01812703          	lw	a4,24(sp)
    87d8:	00e7a023          	sw	a4,0(a5)
    87dc:	fe5ff06f          	j	87c0 <_svfprintf_r+0x10b0>
    87e0:	04047713          	andi	a4,s0,64
    87e4:	00070863          	beqz	a4,87f4 <_svfprintf_r+0x10e4>
    87e8:	01812703          	lw	a4,24(sp)
    87ec:	00e79023          	sh	a4,0(a5)
    87f0:	fd1ff06f          	j	87c0 <_svfprintf_r+0x10b0>
    87f4:	20047413          	andi	s0,s0,512
    87f8:	fc040ee3          	beqz	s0,87d4 <_svfprintf_r+0x10c4>
    87fc:	01812703          	lw	a4,24(sp)
    8800:	00e78023          	sb	a4,0(a5)
    8804:	fbdff06f          	j	87c0 <_svfprintf_r+0x10b0>
    8808:	01046413          	ori	s0,s0,16
    880c:	02047793          	andi	a5,s0,32
    8810:	02078663          	beqz	a5,883c <_svfprintf_r+0x112c>
    8814:	007b0b13          	addi	s6,s6,7
    8818:	ff8b7b13          	andi	s6,s6,-8
    881c:	000b2d03          	lw	s10,0(s6)
    8820:	004b2c83          	lw	s9,4(s6)
    8824:	008b0793          	addi	a5,s6,8
    8828:	00f12623          	sw	a5,12(sp)
    882c:	bff47413          	andi	s0,s0,-1025
    8830:	00000793          	li	a5,0
    8834:	0a0103a3          	sb	zero,167(sp)
    8838:	d6cff06f          	j	7da4 <_svfprintf_r+0x694>
    883c:	004b0793          	addi	a5,s6,4
    8840:	00f12623          	sw	a5,12(sp)
    8844:	01047793          	andi	a5,s0,16
    8848:	00078663          	beqz	a5,8854 <_svfprintf_r+0x1144>
    884c:	000b2d03          	lw	s10,0(s6)
    8850:	0100006f          	j	8860 <_svfprintf_r+0x1150>
    8854:	04047793          	andi	a5,s0,64
    8858:	00078863          	beqz	a5,8868 <_svfprintf_r+0x1158>
    885c:	000b5d03          	lhu	s10,0(s6)
    8860:	00000c93          	li	s9,0
    8864:	fc9ff06f          	j	882c <_svfprintf_r+0x111c>
    8868:	20047793          	andi	a5,s0,512
    886c:	fe0780e3          	beqz	a5,884c <_svfprintf_r+0x113c>
    8870:	000b4d03          	lbu	s10,0(s6)
    8874:	fedff06f          	j	8860 <_svfprintf_r+0x1150>
    8878:	004b0793          	addi	a5,s6,4
    887c:	00f12623          	sw	a5,12(sp)
    8880:	ffff87b7          	lui	a5,0xffff8
    8884:	8307c793          	xori	a5,a5,-2000
    8888:	0af11423          	sh	a5,168(sp)
    888c:	80043797          	auipc	a5,0x80043
    8890:	1ec78793          	addi	a5,a5,492 # 8004ba78 <__stack_top+0xfffd4c28>
    8894:	02f12a23          	sw	a5,52(sp)
    8898:	000b2d03          	lw	s10,0(s6)
    889c:	00000c93          	li	s9,0
    88a0:	00246413          	ori	s0,s0,2
    88a4:	00200793          	li	a5,2
    88a8:	07800a93          	li	s5,120
    88ac:	f89ff06f          	j	8834 <_svfprintf_r+0x1124>
    88b0:	004b0793          	addi	a5,s6,4
    88b4:	00f12623          	sw	a5,12(sp)
    88b8:	0a0103a3          	sb	zero,167(sp)
    88bc:	fff00793          	li	a5,-1
    88c0:	000b2483          	lw	s1,0(s6)
    88c4:	02fd8663          	beq	s11,a5,88f0 <_svfprintf_r+0x11e0>
    88c8:	000d8613          	mv	a2,s11
    88cc:	00000593          	li	a1,0
    88d0:	00048513          	mv	a0,s1
    88d4:	ffffe097          	auipc	ra,0xffffe
    88d8:	070080e7          	jalr	112(ra) # 6944 <memchr>
    88dc:	00050b13          	mv	s6,a0
    88e0:	de050863          	beqz	a0,7ed0 <_svfprintf_r+0x7c0>
    88e4:	40950db3          	sub	s11,a0,s1
    88e8:	00000b13          	li	s6,0
    88ec:	de4ff06f          	j	7ed0 <_svfprintf_r+0x7c0>
    88f0:	00048513          	mv	a0,s1
    88f4:	fffff097          	auipc	ra,0xfffff
    88f8:	dc4080e7          	jalr	-572(ra) # 76b8 <strlen>
    88fc:	00050d93          	mv	s11,a0
    8900:	fe9ff06f          	j	88e8 <_svfprintf_r+0x11d8>
    8904:	01046413          	ori	s0,s0,16
    8908:	02047793          	andi	a5,s0,32
    890c:	02078263          	beqz	a5,8930 <_svfprintf_r+0x1220>
    8910:	007b0b13          	addi	s6,s6,7
    8914:	ff8b7b13          	andi	s6,s6,-8
    8918:	000b2d03          	lw	s10,0(s6)
    891c:	004b2c83          	lw	s9,4(s6)
    8920:	008b0793          	addi	a5,s6,8
    8924:	00f12623          	sw	a5,12(sp)
    8928:	00100793          	li	a5,1
    892c:	f09ff06f          	j	8834 <_svfprintf_r+0x1124>
    8930:	004b0793          	addi	a5,s6,4
    8934:	00f12623          	sw	a5,12(sp)
    8938:	01047793          	andi	a5,s0,16
    893c:	00078663          	beqz	a5,8948 <_svfprintf_r+0x1238>
    8940:	000b2d03          	lw	s10,0(s6)
    8944:	0100006f          	j	8954 <_svfprintf_r+0x1244>
    8948:	04047793          	andi	a5,s0,64
    894c:	00078863          	beqz	a5,895c <_svfprintf_r+0x124c>
    8950:	000b5d03          	lhu	s10,0(s6)
    8954:	00000c93          	li	s9,0
    8958:	fd1ff06f          	j	8928 <_svfprintf_r+0x1218>
    895c:	20047793          	andi	a5,s0,512
    8960:	fe0780e3          	beqz	a5,8940 <_svfprintf_r+0x1230>
    8964:	000b4d03          	lbu	s10,0(s6)
    8968:	fedff06f          	j	8954 <_svfprintf_r+0x1244>
    896c:	7fff7797          	auipc	a5,0x7fff7
    8970:	69478793          	addi	a5,a5,1684 # 80000000 <__trunctfdf2+0x7ffec698>
    8974:	02f12a23          	sw	a5,52(sp)
    8978:	02047793          	andi	a5,s0,32
    897c:	04078a63          	beqz	a5,89d0 <_svfprintf_r+0x12c0>
    8980:	007b0b13          	addi	s6,s6,7
    8984:	ff8b7b13          	andi	s6,s6,-8
    8988:	000b2d03          	lw	s10,0(s6)
    898c:	004b2c83          	lw	s9,4(s6)
    8990:	008b0793          	addi	a5,s6,8
    8994:	00f12623          	sw	a5,12(sp)
    8998:	00147793          	andi	a5,s0,1
    899c:	00078e63          	beqz	a5,89b8 <_svfprintf_r+0x12a8>
    89a0:	019d67b3          	or	a5,s10,s9
    89a4:	00078a63          	beqz	a5,89b8 <_svfprintf_r+0x12a8>
    89a8:	03000793          	li	a5,48
    89ac:	0af10423          	sb	a5,168(sp)
    89b0:	0b5104a3          	sb	s5,169(sp)
    89b4:	00246413          	ori	s0,s0,2
    89b8:	bff47413          	andi	s0,s0,-1025
    89bc:	00200793          	li	a5,2
    89c0:	e75ff06f          	j	8834 <_svfprintf_r+0x1124>
    89c4:	80043797          	auipc	a5,0x80043
    89c8:	0b478793          	addi	a5,a5,180 # 8004ba78 <__stack_top+0xfffd4c28>
    89cc:	fa9ff06f          	j	8974 <_svfprintf_r+0x1264>
    89d0:	004b0793          	addi	a5,s6,4
    89d4:	00f12623          	sw	a5,12(sp)
    89d8:	01047793          	andi	a5,s0,16
    89dc:	00078663          	beqz	a5,89e8 <_svfprintf_r+0x12d8>
    89e0:	000b2d03          	lw	s10,0(s6)
    89e4:	0100006f          	j	89f4 <_svfprintf_r+0x12e4>
    89e8:	04047793          	andi	a5,s0,64
    89ec:	00078863          	beqz	a5,89fc <_svfprintf_r+0x12ec>
    89f0:	000b5d03          	lhu	s10,0(s6)
    89f4:	00000c93          	li	s9,0
    89f8:	fa1ff06f          	j	8998 <_svfprintf_r+0x1288>
    89fc:	20047793          	andi	a5,s0,512
    8a00:	fe0780e3          	beqz	a5,89e0 <_svfprintf_r+0x12d0>
    8a04:	000b4d03          	lbu	s10,0(s6)
    8a08:	fedff06f          	j	89f4 <_svfprintf_r+0x12e4>
    8a0c:	00040713          	mv	a4,s0
    8a10:	00100793          	li	a5,1
    8a14:	b9cff06f          	j	7db0 <_svfprintf_r+0x6a0>
    8a18:	00100713          	li	a4,1
    8a1c:	52e78ee3          	beq	a5,a4,9758 <_svfprintf_r+0x2048>
    8a20:	00200713          	li	a4,2
    8a24:	12e78c63          	beq	a5,a4,8b5c <_svfprintf_r+0x144c>
    8a28:	19010793          	addi	a5,sp,400
    8a2c:	01dc9693          	slli	a3,s9,0x1d
    8a30:	007d7713          	andi	a4,s10,7
    8a34:	003d5d13          	srli	s10,s10,0x3
    8a38:	03070713          	addi	a4,a4,48
    8a3c:	01a6ed33          	or	s10,a3,s10
    8a40:	003cdc93          	srli	s9,s9,0x3
    8a44:	fee78fa3          	sb	a4,-1(a5)
    8a48:	019d66b3          	or	a3,s10,s9
    8a4c:	fff78493          	addi	s1,a5,-1
    8a50:	02069e63          	bnez	a3,8a8c <_svfprintf_r+0x137c>
    8a54:	00147693          	andi	a3,s0,1
    8a58:	00068a63          	beqz	a3,8a6c <_svfprintf_r+0x135c>
    8a5c:	03000693          	li	a3,48
    8a60:	00d70663          	beq	a4,a3,8a6c <_svfprintf_r+0x135c>
    8a64:	fed48fa3          	sb	a3,-1(s1)
    8a68:	ffe78493          	addi	s1,a5,-2
    8a6c:	19010793          	addi	a5,sp,400
    8a70:	000d8d13          	mv	s10,s11
    8a74:	00000b13          	li	s6,0
    8a78:	40978db3          	sub	s11,a5,s1
    8a7c:	00012423          	sw	zero,8(sp)
    8a80:	00000b93          	li	s7,0
    8a84:	00000c93          	li	s9,0
    8a88:	818ff06f          	j	7aa0 <_svfprintf_r+0x390>
    8a8c:	00048793          	mv	a5,s1
    8a90:	f9dff06f          	j	8a2c <_svfprintf_r+0x131c>
    8a94:	00000a13          	li	s4,0
    8a98:	19010793          	addi	a5,sp,400
    8a9c:	40047b93          	andi	s7,s0,1024
    8aa0:	00900b13          	li	s6,9
    8aa4:	00a00613          	li	a2,10
    8aa8:	00000693          	li	a3,0
    8aac:	000d0513          	mv	a0,s10
    8ab0:	000c8593          	mv	a1,s9
    8ab4:	fff78493          	addi	s1,a5,-1
    8ab8:	00f12423          	sw	a5,8(sp)
    8abc:	00008097          	auipc	ra,0x8
    8ac0:	cd4080e7          	jalr	-812(ra) # 10790 <__umoddi3>
    8ac4:	00812783          	lw	a5,8(sp)
    8ac8:	03050513          	addi	a0,a0,48
    8acc:	001a0a13          	addi	s4,s4,1
    8ad0:	fea78fa3          	sb	a0,-1(a5)
    8ad4:	040b8c63          	beqz	s7,8b2c <_svfprintf_r+0x141c>
    8ad8:	00412783          	lw	a5,4(sp)
    8adc:	0007c783          	lbu	a5,0(a5)
    8ae0:	04fa1663          	bne	s4,a5,8b2c <_svfprintf_r+0x141c>
    8ae4:	0ff00793          	li	a5,255
    8ae8:	04fa0263          	beq	s4,a5,8b2c <_svfprintf_r+0x141c>
    8aec:	000c9463          	bnez	s9,8af4 <_svfprintf_r+0x13e4>
    8af0:	03ab7e63          	bgeu	s6,s10,8b2c <_svfprintf_r+0x141c>
    8af4:	02412783          	lw	a5,36(sp)
    8af8:	02c12583          	lw	a1,44(sp)
    8afc:	00000a13          	li	s4,0
    8b00:	40f484b3          	sub	s1,s1,a5
    8b04:	00078613          	mv	a2,a5
    8b08:	00048513          	mv	a0,s1
    8b0c:	00006097          	auipc	ra,0x6
    8b10:	174080e7          	jalr	372(ra) # ec80 <strncpy>
    8b14:	00412783          	lw	a5,4(sp)
    8b18:	0017c783          	lbu	a5,1(a5)
    8b1c:	00078863          	beqz	a5,8b2c <_svfprintf_r+0x141c>
    8b20:	00412783          	lw	a5,4(sp)
    8b24:	00178793          	addi	a5,a5,1
    8b28:	00f12223          	sw	a5,4(sp)
    8b2c:	00a00613          	li	a2,10
    8b30:	00000693          	li	a3,0
    8b34:	000d0513          	mv	a0,s10
    8b38:	000c8593          	mv	a1,s9
    8b3c:	00008097          	auipc	ra,0x8
    8b40:	820080e7          	jalr	-2016(ra) # 1035c <__udivdi3>
    8b44:	000c9463          	bnez	s9,8b4c <_svfprintf_r+0x143c>
    8b48:	f3ab72e3          	bgeu	s6,s10,8a6c <_svfprintf_r+0x135c>
    8b4c:	00050d13          	mv	s10,a0
    8b50:	00058c93          	mv	s9,a1
    8b54:	00048793          	mv	a5,s1
    8b58:	f4dff06f          	j	8aa4 <_svfprintf_r+0x1394>
    8b5c:	19010493          	addi	s1,sp,400
    8b60:	03412703          	lw	a4,52(sp)
    8b64:	00fd7793          	andi	a5,s10,15
    8b68:	fff48493          	addi	s1,s1,-1
    8b6c:	00f707b3          	add	a5,a4,a5
    8b70:	0007c783          	lbu	a5,0(a5)
    8b74:	004d5d13          	srli	s10,s10,0x4
    8b78:	00f48023          	sb	a5,0(s1)
    8b7c:	01cc9793          	slli	a5,s9,0x1c
    8b80:	01a7ed33          	or	s10,a5,s10
    8b84:	004cdc93          	srli	s9,s9,0x4
    8b88:	019d67b3          	or	a5,s10,s9
    8b8c:	fc079ae3          	bnez	a5,8b60 <_svfprintf_r+0x1450>
    8b90:	eddff06f          	j	8a6c <_svfprintf_r+0x135c>
    8b94:	19010493          	addi	s1,sp,400
    8b98:	ec079ae3          	bnez	a5,8a6c <_svfprintf_r+0x135c>
    8b9c:	00177713          	andi	a4,a4,1
    8ba0:	ec0706e3          	beqz	a4,8a6c <_svfprintf_r+0x135c>
    8ba4:	03000793          	li	a5,48
    8ba8:	18f107a3          	sb	a5,399(sp)
    8bac:	3c10006f          	j	976c <_svfprintf_r+0x205c>
    8bb0:	360a8ee3          	beqz	s5,972c <_svfprintf_r+0x201c>
    8bb4:	13510623          	sb	s5,300(sp)
    8bb8:	0a0103a3          	sb	zero,167(sp)
    8bbc:	01612623          	sw	s6,12(sp)
    8bc0:	ec5fe06f          	j	7a84 <_svfprintf_r+0x374>
    8bc4:	01060613          	addi	a2,a2,16
    8bc8:	01dc2223          	sw	t4,4(s8)
    8bcc:	0cc12623          	sw	a2,204(sp)
    8bd0:	0cd12423          	sw	a3,200(sp)
    8bd4:	02df5c63          	bge	t5,a3,8c0c <_svfprintf_r+0x14fc>
    8bd8:	0c410613          	addi	a2,sp,196
    8bdc:	00098593          	mv	a1,s3
    8be0:	00090513          	mv	a0,s2
    8be4:	04e12023          	sw	a4,64(sp)
    8be8:	00006097          	auipc	ra,0x6
    8bec:	0d0080e7          	jalr	208(ra) # ecb8 <__ssprint_r>
    8bf0:	2c0518e3          	bnez	a0,96c0 <_svfprintf_r+0x1fb0>
    8bf4:	04012703          	lw	a4,64(sp)
    8bf8:	0ec10593          	addi	a1,sp,236
    8bfc:	00700f13          	li	t5,7
    8c00:	80043e17          	auipc	t3,0x80043
    8c04:	e48e0e13          	addi	t3,t3,-440 # 8004ba48 <__stack_top+0xfffd4bf8>
    8c08:	01000e93          	li	t4,16
    8c0c:	ff070713          	addi	a4,a4,-16
    8c10:	00058c13          	mv	s8,a1
    8c14:	ef1fe06f          	j	7b04 <_svfprintf_r+0x3f4>
    8c18:	01068693          	addi	a3,a3,16
    8c1c:	010c2223          	sw	a6,4(s8)
    8c20:	0cd12623          	sw	a3,204(sp)
    8c24:	0ce12423          	sw	a4,200(sp)
    8c28:	02ee5863          	bge	t3,a4,8c58 <_svfprintf_r+0x1548>
    8c2c:	0c410613          	addi	a2,sp,196
    8c30:	00098593          	mv	a1,s3
    8c34:	00090513          	mv	a0,s2
    8c38:	02f12c23          	sw	a5,56(sp)
    8c3c:	00006097          	auipc	ra,0x6
    8c40:	07c080e7          	jalr	124(ra) # ecb8 <__ssprint_r>
    8c44:	26051ee3          	bnez	a0,96c0 <_svfprintf_r+0x1fb0>
    8c48:	03812783          	lw	a5,56(sp)
    8c4c:	0ec10613          	addi	a2,sp,236
    8c50:	00700e13          	li	t3,7
    8c54:	01000813          	li	a6,16
    8c58:	ff078793          	addi	a5,a5,-16
    8c5c:	00060c13          	mv	s8,a2
    8c60:	fd9fe06f          	j	7c38 <_svfprintf_r+0x528>
    8c64:	80043597          	auipc	a1,0x80043
    8c68:	df458593          	addi	a1,a1,-524 # 8004ba58 <__stack_top+0xfffd4c08>
    8c6c:	01068693          	addi	a3,a3,16
    8c70:	00bc2023          	sw	a1,0(s8)
    8c74:	00fc2223          	sw	a5,4(s8)
    8c78:	0cd12623          	sw	a3,204(sp)
    8c7c:	0ce12423          	sw	a4,200(sp)
    8c80:	02e85463          	bge	a6,a4,8ca8 <_svfprintf_r+0x1598>
    8c84:	0c410613          	addi	a2,sp,196
    8c88:	00098593          	mv	a1,s3
    8c8c:	00090513          	mv	a0,s2
    8c90:	00006097          	auipc	ra,0x6
    8c94:	028080e7          	jalr	40(ra) # ecb8 <__ssprint_r>
    8c98:	220514e3          	bnez	a0,96c0 <_svfprintf_r+0x1fb0>
    8c9c:	0ec10613          	addi	a2,sp,236
    8ca0:	00700813          	li	a6,7
    8ca4:	01000793          	li	a5,16
    8ca8:	ff0d0d13          	addi	s10,s10,-16 # 3ffdfff0 <__trunctfdf2+0x3ffcc688>
    8cac:	00060c13          	mv	s8,a2
    8cb0:	ff5fe06f          	j	7ca4 <_svfprintf_r+0x594>
    8cb4:	06500713          	li	a4,101
    8cb8:	79575463          	bge	a4,s5,9440 <_svfprintf_r+0x1d30>
    8cbc:	0d012703          	lw	a4,208(sp)
    8cc0:	08010593          	addi	a1,sp,128
    8cc4:	09010513          	addi	a0,sp,144
    8cc8:	08e12823          	sw	a4,144(sp)
    8ccc:	0d412703          	lw	a4,212(sp)
    8cd0:	08012023          	sw	zero,128(sp)
    8cd4:	08012223          	sw	zero,132(sp)
    8cd8:	08e12a23          	sw	a4,148(sp)
    8cdc:	0d812703          	lw	a4,216(sp)
    8ce0:	08012423          	sw	zero,136(sp)
    8ce4:	08012623          	sw	zero,140(sp)
    8ce8:	08e12c23          	sw	a4,152(sp)
    8cec:	0dc12703          	lw	a4,220(sp)
    8cf0:	08e12e23          	sw	a4,156(sp)
    8cf4:	00008097          	auipc	ra,0x8
    8cf8:	eac080e7          	jalr	-340(ra) # 10ba0 <__eqtf2>
    8cfc:	14051263          	bnez	a0,8e40 <_svfprintf_r+0x1730>
    8d00:	80043797          	auipc	a5,0x80043
    8d04:	d8c78793          	addi	a5,a5,-628 # 8004ba8c <__stack_top+0xfffd4c3c>
    8d08:	00fc2023          	sw	a5,0(s8)
    8d0c:	00100793          	li	a5,1
    8d10:	00fc2223          	sw	a5,4(s8)
    8d14:	0c812783          	lw	a5,200(sp)
    8d18:	001d0d13          	addi	s10,s10,1
    8d1c:	0da12623          	sw	s10,204(sp)
    8d20:	00178793          	addi	a5,a5,1
    8d24:	0cf12423          	sw	a5,200(sp)
    8d28:	00700713          	li	a4,7
    8d2c:	008c0c13          	addi	s8,s8,8
    8d30:	02f75063          	bge	a4,a5,8d50 <_svfprintf_r+0x1640>
    8d34:	0c410613          	addi	a2,sp,196
    8d38:	00098593          	mv	a1,s3
    8d3c:	00090513          	mv	a0,s2
    8d40:	00006097          	auipc	ra,0x6
    8d44:	f78080e7          	jalr	-136(ra) # ecb8 <__ssprint_r>
    8d48:	16051ce3          	bnez	a0,96c0 <_svfprintf_r+0x1fb0>
    8d4c:	0ec10c13          	addi	s8,sp,236
    8d50:	0ac12783          	lw	a5,172(sp)
    8d54:	0147c663          	blt	a5,s4,8d60 <_svfprintf_r+0x1650>
    8d58:	00147793          	andi	a5,s0,1
    8d5c:	22078e63          	beqz	a5,8f98 <_svfprintf_r+0x1888>
    8d60:	02812783          	lw	a5,40(sp)
    8d64:	01412703          	lw	a4,20(sp)
    8d68:	008c0c13          	addi	s8,s8,8
    8d6c:	fefc2c23          	sw	a5,-8(s8)
    8d70:	01412783          	lw	a5,20(sp)
    8d74:	fefc2e23          	sw	a5,-4(s8)
    8d78:	0cc12783          	lw	a5,204(sp)
    8d7c:	00e787b3          	add	a5,a5,a4
    8d80:	0cf12623          	sw	a5,204(sp)
    8d84:	0c812783          	lw	a5,200(sp)
    8d88:	00700713          	li	a4,7
    8d8c:	00178793          	addi	a5,a5,1
    8d90:	0cf12423          	sw	a5,200(sp)
    8d94:	02f75063          	bge	a4,a5,8db4 <_svfprintf_r+0x16a4>
    8d98:	0c410613          	addi	a2,sp,196
    8d9c:	00098593          	mv	a1,s3
    8da0:	00090513          	mv	a0,s2
    8da4:	00006097          	auipc	ra,0x6
    8da8:	f14080e7          	jalr	-236(ra) # ecb8 <__ssprint_r>
    8dac:	10051ae3          	bnez	a0,96c0 <_svfprintf_r+0x1fb0>
    8db0:	0ec10c13          	addi	s8,sp,236
    8db4:	fffa0493          	addi	s1,s4,-1
    8db8:	1e905063          	blez	s1,8f98 <_svfprintf_r+0x1888>
    8dbc:	01000a93          	li	s5,16
    8dc0:	00700b93          	li	s7,7
    8dc4:	0c812783          	lw	a5,200(sp)
    8dc8:	80043617          	auipc	a2,0x80043
    8dcc:	c9060613          	addi	a2,a2,-880 # 8004ba58 <__stack_top+0xfffd4c08>
    8dd0:	00cc2023          	sw	a2,0(s8)
    8dd4:	0cc12703          	lw	a4,204(sp)
    8dd8:	00178793          	addi	a5,a5,1
    8ddc:	008c0693          	addi	a3,s8,8
    8de0:	029ac263          	blt	s5,s1,8e04 <_svfprintf_r+0x16f4>
    8de4:	009c2223          	sw	s1,4(s8)
    8de8:	00e484b3          	add	s1,s1,a4
    8dec:	0c912623          	sw	s1,204(sp)
    8df0:	0cf12423          	sw	a5,200(sp)
    8df4:	00700713          	li	a4,7
    8df8:	00068c13          	mv	s8,a3
    8dfc:	18f75e63          	bge	a4,a5,8f98 <_svfprintf_r+0x1888>
    8e00:	f39fe06f          	j	7d38 <_svfprintf_r+0x628>
    8e04:	01070713          	addi	a4,a4,16
    8e08:	015c2223          	sw	s5,4(s8)
    8e0c:	0ce12623          	sw	a4,204(sp)
    8e10:	0cf12423          	sw	a5,200(sp)
    8e14:	02fbd063          	bge	s7,a5,8e34 <_svfprintf_r+0x1724>
    8e18:	0c410613          	addi	a2,sp,196
    8e1c:	00098593          	mv	a1,s3
    8e20:	00090513          	mv	a0,s2
    8e24:	00006097          	auipc	ra,0x6
    8e28:	e94080e7          	jalr	-364(ra) # ecb8 <__ssprint_r>
    8e2c:	08051ae3          	bnez	a0,96c0 <_svfprintf_r+0x1fb0>
    8e30:	0ec10693          	addi	a3,sp,236
    8e34:	ff048493          	addi	s1,s1,-16
    8e38:	00068c13          	mv	s8,a3
    8e3c:	f89ff06f          	j	8dc4 <_svfprintf_r+0x16b4>
    8e40:	0ac12703          	lw	a4,172(sp)
    8e44:	1ee04263          	bgtz	a4,9028 <_svfprintf_r+0x1918>
    8e48:	80043797          	auipc	a5,0x80043
    8e4c:	c4478793          	addi	a5,a5,-956 # 8004ba8c <__stack_top+0xfffd4c3c>
    8e50:	00fc2023          	sw	a5,0(s8)
    8e54:	00100793          	li	a5,1
    8e58:	00fc2223          	sw	a5,4(s8)
    8e5c:	0c812783          	lw	a5,200(sp)
    8e60:	001d0d13          	addi	s10,s10,1
    8e64:	0da12623          	sw	s10,204(sp)
    8e68:	00178793          	addi	a5,a5,1
    8e6c:	0cf12423          	sw	a5,200(sp)
    8e70:	00700713          	li	a4,7
    8e74:	008c0c13          	addi	s8,s8,8
    8e78:	02f75063          	bge	a4,a5,8e98 <_svfprintf_r+0x1788>
    8e7c:	0c410613          	addi	a2,sp,196
    8e80:	00098593          	mv	a1,s3
    8e84:	00090513          	mv	a0,s2
    8e88:	00006097          	auipc	ra,0x6
    8e8c:	e30080e7          	jalr	-464(ra) # ecb8 <__ssprint_r>
    8e90:	020518e3          	bnez	a0,96c0 <_svfprintf_r+0x1fb0>
    8e94:	0ec10c13          	addi	s8,sp,236
    8e98:	0ac12783          	lw	a5,172(sp)
    8e9c:	00147693          	andi	a3,s0,1
    8ea0:	0cc12703          	lw	a4,204(sp)
    8ea4:	00fa67b3          	or	a5,s4,a5
    8ea8:	00d7e7b3          	or	a5,a5,a3
    8eac:	0e078663          	beqz	a5,8f98 <_svfprintf_r+0x1888>
    8eb0:	02812783          	lw	a5,40(sp)
    8eb4:	008c0893          	addi	a7,s8,8
    8eb8:	00fc2023          	sw	a5,0(s8)
    8ebc:	01412783          	lw	a5,20(sp)
    8ec0:	00fc2223          	sw	a5,4(s8)
    8ec4:	00e787b3          	add	a5,a5,a4
    8ec8:	0cf12623          	sw	a5,204(sp)
    8ecc:	0c812783          	lw	a5,200(sp)
    8ed0:	00700713          	li	a4,7
    8ed4:	00178793          	addi	a5,a5,1
    8ed8:	0cf12423          	sw	a5,200(sp)
    8edc:	02f75063          	bge	a4,a5,8efc <_svfprintf_r+0x17ec>
    8ee0:	0c410613          	addi	a2,sp,196
    8ee4:	00098593          	mv	a1,s3
    8ee8:	00090513          	mv	a0,s2
    8eec:	00006097          	auipc	ra,0x6
    8ef0:	dcc080e7          	jalr	-564(ra) # ecb8 <__ssprint_r>
    8ef4:	7c051663          	bnez	a0,96c0 <_svfprintf_r+0x1fb0>
    8ef8:	0ec10893          	addi	a7,sp,236
    8efc:	0ac12a83          	lw	s5,172(sp)
    8f00:	060ad463          	bgez	s5,8f68 <_svfprintf_r+0x1858>
    8f04:	41500ab3          	neg	s5,s5
    8f08:	00088713          	mv	a4,a7
    8f0c:	01000b93          	li	s7,16
    8f10:	00700c13          	li	s8,7
    8f14:	0c812783          	lw	a5,200(sp)
    8f18:	80043617          	auipc	a2,0x80043
    8f1c:	b4060613          	addi	a2,a2,-1216 # 8004ba58 <__stack_top+0xfffd4c08>
    8f20:	00c72023          	sw	a2,0(a4)
    8f24:	0cc12683          	lw	a3,204(sp)
    8f28:	00178793          	addi	a5,a5,1
    8f2c:	00888893          	addi	a7,a7,8 # 80008 <__trunctfdf2+0x6c6a0>
    8f30:	0b5bce63          	blt	s7,s5,8fec <_svfprintf_r+0x18dc>
    8f34:	01572223          	sw	s5,4(a4)
    8f38:	00da8ab3          	add	s5,s5,a3
    8f3c:	0d512623          	sw	s5,204(sp)
    8f40:	0cf12423          	sw	a5,200(sp)
    8f44:	00700713          	li	a4,7
    8f48:	02f75063          	bge	a4,a5,8f68 <_svfprintf_r+0x1858>
    8f4c:	0c410613          	addi	a2,sp,196
    8f50:	00098593          	mv	a1,s3
    8f54:	00090513          	mv	a0,s2
    8f58:	00006097          	auipc	ra,0x6
    8f5c:	d60080e7          	jalr	-672(ra) # ecb8 <__ssprint_r>
    8f60:	76051063          	bnez	a0,96c0 <_svfprintf_r+0x1fb0>
    8f64:	0ec10893          	addi	a7,sp,236
    8f68:	0cc12783          	lw	a5,204(sp)
    8f6c:	0098a023          	sw	s1,0(a7)
    8f70:	0148a223          	sw	s4,4(a7)
    8f74:	014787b3          	add	a5,a5,s4
    8f78:	0cf12623          	sw	a5,204(sp)
    8f7c:	0c812783          	lw	a5,200(sp)
    8f80:	00700713          	li	a4,7
    8f84:	00888c13          	addi	s8,a7,8
    8f88:	00178793          	addi	a5,a5,1
    8f8c:	0cf12423          	sw	a5,200(sp)
    8f90:	00f75463          	bge	a4,a5,8f98 <_svfprintf_r+0x1888>
    8f94:	da5fe06f          	j	7d38 <_svfprintf_r+0x628>
    8f98:	00447413          	andi	s0,s0,4
    8f9c:	6c041063          	bnez	s0,965c <_svfprintf_r+0x1f4c>
    8fa0:	01c12a83          	lw	s5,28(sp)
    8fa4:	02012783          	lw	a5,32(sp)
    8fa8:	00fad463          	bge	s5,a5,8fb0 <_svfprintf_r+0x18a0>
    8fac:	00078a93          	mv	s5,a5
    8fb0:	01812783          	lw	a5,24(sp)
    8fb4:	015787b3          	add	a5,a5,s5
    8fb8:	00f12c23          	sw	a5,24(sp)
    8fbc:	0cc12783          	lw	a5,204(sp)
    8fc0:	00078e63          	beqz	a5,8fdc <_svfprintf_r+0x18cc>
    8fc4:	0c410613          	addi	a2,sp,196
    8fc8:	00098593          	mv	a1,s3
    8fcc:	00090513          	mv	a0,s2
    8fd0:	00006097          	auipc	ra,0x6
    8fd4:	ce8080e7          	jalr	-792(ra) # ecb8 <__ssprint_r>
    8fd8:	6e051463          	bnez	a0,96c0 <_svfprintf_r+0x1fb0>
    8fdc:	0c012423          	sw	zero,200(sp)
    8fe0:	720b1c63          	bnez	s6,9718 <_svfprintf_r+0x2008>
    8fe4:	0ec10c13          	addi	s8,sp,236
    8fe8:	fd8ff06f          	j	87c0 <_svfprintf_r+0x10b0>
    8fec:	01068693          	addi	a3,a3,16
    8ff0:	01772223          	sw	s7,4(a4)
    8ff4:	0cd12623          	sw	a3,204(sp)
    8ff8:	0cf12423          	sw	a5,200(sp)
    8ffc:	02fc5063          	bge	s8,a5,901c <_svfprintf_r+0x190c>
    9000:	0c410613          	addi	a2,sp,196
    9004:	00098593          	mv	a1,s3
    9008:	00090513          	mv	a0,s2
    900c:	00006097          	auipc	ra,0x6
    9010:	cac080e7          	jalr	-852(ra) # ecb8 <__ssprint_r>
    9014:	6a051663          	bnez	a0,96c0 <_svfprintf_r+0x1fb0>
    9018:	0ec10893          	addi	a7,sp,236
    901c:	ff0a8a93          	addi	s5,s5,-16
    9020:	00088713          	mv	a4,a7
    9024:	ef1ff06f          	j	8f14 <_svfprintf_r+0x1804>
    9028:	000c8a93          	mv	s5,s9
    902c:	019a5463          	bge	s4,s9,9034 <_svfprintf_r+0x1924>
    9030:	000a0a93          	mv	s5,s4
    9034:	05505463          	blez	s5,907c <_svfprintf_r+0x196c>
    9038:	0c812703          	lw	a4,200(sp)
    903c:	01aa8d33          	add	s10,s5,s10
    9040:	009c2023          	sw	s1,0(s8)
    9044:	00170713          	addi	a4,a4,1
    9048:	015c2223          	sw	s5,4(s8)
    904c:	0da12623          	sw	s10,204(sp)
    9050:	0ce12423          	sw	a4,200(sp)
    9054:	00700693          	li	a3,7
    9058:	008c0c13          	addi	s8,s8,8
    905c:	02e6d063          	bge	a3,a4,907c <_svfprintf_r+0x196c>
    9060:	0c410613          	addi	a2,sp,196
    9064:	00098593          	mv	a1,s3
    9068:	00090513          	mv	a0,s2
    906c:	00006097          	auipc	ra,0x6
    9070:	c4c080e7          	jalr	-948(ra) # ecb8 <__ssprint_r>
    9074:	64051663          	bnez	a0,96c0 <_svfprintf_r+0x1fb0>
    9078:	0ec10c13          	addi	s8,sp,236
    907c:	000ad463          	bgez	s5,9084 <_svfprintf_r+0x1974>
    9080:	00000a93          	li	s5,0
    9084:	415c8ab3          	sub	s5,s9,s5
    9088:	07505263          	blez	s5,90ec <_svfprintf_r+0x19dc>
    908c:	01000d13          	li	s10,16
    9090:	00700d93          	li	s11,7
    9094:	0c812703          	lw	a4,200(sp)
    9098:	80043797          	auipc	a5,0x80043
    909c:	9c078793          	addi	a5,a5,-1600 # 8004ba58 <__stack_top+0xfffd4c08>
    90a0:	00fc2023          	sw	a5,0(s8)
    90a4:	0cc12683          	lw	a3,204(sp)
    90a8:	00170713          	addi	a4,a4,1
    90ac:	008c0613          	addi	a2,s8,8
    90b0:	1b5d4863          	blt	s10,s5,9260 <_svfprintf_r+0x1b50>
    90b4:	015c2223          	sw	s5,4(s8)
    90b8:	00da8ab3          	add	s5,s5,a3
    90bc:	0d512623          	sw	s5,204(sp)
    90c0:	0ce12423          	sw	a4,200(sp)
    90c4:	00700693          	li	a3,7
    90c8:	00060c13          	mv	s8,a2
    90cc:	02e6d063          	bge	a3,a4,90ec <_svfprintf_r+0x19dc>
    90d0:	0c410613          	addi	a2,sp,196
    90d4:	00098593          	mv	a1,s3
    90d8:	00090513          	mv	a0,s2
    90dc:	00006097          	auipc	ra,0x6
    90e0:	bdc080e7          	jalr	-1060(ra) # ecb8 <__ssprint_r>
    90e4:	5c051e63          	bnez	a0,96c0 <_svfprintf_r+0x1fb0>
    90e8:	0ec10c13          	addi	s8,sp,236
    90ec:	40047793          	andi	a5,s0,1024
    90f0:	01948ab3          	add	s5,s1,s9
    90f4:	02078263          	beqz	a5,9118 <_svfprintf_r+0x1a08>
    90f8:	00700d13          	li	s10,7
    90fc:	01448db3          	add	s11,s1,s4
    9100:	00812783          	lw	a5,8(sp)
    9104:	180b9c63          	bnez	s7,929c <_svfprintf_r+0x1b8c>
    9108:	18079c63          	bnez	a5,92a0 <_svfprintf_r+0x1b90>
    910c:	014487b3          	add	a5,s1,s4
    9110:	0157f463          	bgeu	a5,s5,9118 <_svfprintf_r+0x1a08>
    9114:	00078a93          	mv	s5,a5
    9118:	0ac12783          	lw	a5,172(sp)
    911c:	0147c663          	blt	a5,s4,9128 <_svfprintf_r+0x1a18>
    9120:	00147793          	andi	a5,s0,1
    9124:	04078c63          	beqz	a5,917c <_svfprintf_r+0x1a6c>
    9128:	02812783          	lw	a5,40(sp)
    912c:	01412703          	lw	a4,20(sp)
    9130:	008c0c13          	addi	s8,s8,8
    9134:	fefc2c23          	sw	a5,-8(s8)
    9138:	01412783          	lw	a5,20(sp)
    913c:	fefc2e23          	sw	a5,-4(s8)
    9140:	0cc12783          	lw	a5,204(sp)
    9144:	00e787b3          	add	a5,a5,a4
    9148:	0cf12623          	sw	a5,204(sp)
    914c:	0c812783          	lw	a5,200(sp)
    9150:	00700713          	li	a4,7
    9154:	00178793          	addi	a5,a5,1
    9158:	0cf12423          	sw	a5,200(sp)
    915c:	02f75063          	bge	a4,a5,917c <_svfprintf_r+0x1a6c>
    9160:	0c410613          	addi	a2,sp,196
    9164:	00098593          	mv	a1,s3
    9168:	00090513          	mv	a0,s2
    916c:	00006097          	auipc	ra,0x6
    9170:	b4c080e7          	jalr	-1204(ra) # ecb8 <__ssprint_r>
    9174:	54051663          	bnez	a0,96c0 <_svfprintf_r+0x1fb0>
    9178:	0ec10c13          	addi	s8,sp,236
    917c:	014484b3          	add	s1,s1,s4
    9180:	415487b3          	sub	a5,s1,s5
    9184:	0ac12483          	lw	s1,172(sp)
    9188:	409a04b3          	sub	s1,s4,s1
    918c:	0097d463          	bge	a5,s1,9194 <_svfprintf_r+0x1a84>
    9190:	00078493          	mv	s1,a5
    9194:	04905663          	blez	s1,91e0 <_svfprintf_r+0x1ad0>
    9198:	0cc12783          	lw	a5,204(sp)
    919c:	015c2023          	sw	s5,0(s8)
    91a0:	009c2223          	sw	s1,4(s8)
    91a4:	00f487b3          	add	a5,s1,a5
    91a8:	0cf12623          	sw	a5,204(sp)
    91ac:	0c812783          	lw	a5,200(sp)
    91b0:	00700713          	li	a4,7
    91b4:	008c0c13          	addi	s8,s8,8
    91b8:	00178793          	addi	a5,a5,1
    91bc:	0cf12423          	sw	a5,200(sp)
    91c0:	02f75063          	bge	a4,a5,91e0 <_svfprintf_r+0x1ad0>
    91c4:	0c410613          	addi	a2,sp,196
    91c8:	00098593          	mv	a1,s3
    91cc:	00090513          	mv	a0,s2
    91d0:	00006097          	auipc	ra,0x6
    91d4:	ae8080e7          	jalr	-1304(ra) # ecb8 <__ssprint_r>
    91d8:	4e051463          	bnez	a0,96c0 <_svfprintf_r+0x1fb0>
    91dc:	0ec10c13          	addi	s8,sp,236
    91e0:	00048793          	mv	a5,s1
    91e4:	0004d463          	bgez	s1,91ec <_svfprintf_r+0x1adc>
    91e8:	00000793          	li	a5,0
    91ec:	0ac12483          	lw	s1,172(sp)
    91f0:	409a04b3          	sub	s1,s4,s1
    91f4:	40f484b3          	sub	s1,s1,a5
    91f8:	da9050e3          	blez	s1,8f98 <_svfprintf_r+0x1888>
    91fc:	01000a93          	li	s5,16
    9200:	00700b93          	li	s7,7
    9204:	0c812783          	lw	a5,200(sp)
    9208:	80043617          	auipc	a2,0x80043
    920c:	85060613          	addi	a2,a2,-1968 # 8004ba58 <__stack_top+0xfffd4c08>
    9210:	00cc2023          	sw	a2,0(s8)
    9214:	0cc12703          	lw	a4,204(sp)
    9218:	00178793          	addi	a5,a5,1
    921c:	008c0693          	addi	a3,s8,8
    9220:	bc9ad2e3          	bge	s5,s1,8de4 <_svfprintf_r+0x16d4>
    9224:	01070713          	addi	a4,a4,16
    9228:	015c2223          	sw	s5,4(s8)
    922c:	0ce12623          	sw	a4,204(sp)
    9230:	0cf12423          	sw	a5,200(sp)
    9234:	02fbd063          	bge	s7,a5,9254 <_svfprintf_r+0x1b44>
    9238:	0c410613          	addi	a2,sp,196
    923c:	00098593          	mv	a1,s3
    9240:	00090513          	mv	a0,s2
    9244:	00006097          	auipc	ra,0x6
    9248:	a74080e7          	jalr	-1420(ra) # ecb8 <__ssprint_r>
    924c:	46051a63          	bnez	a0,96c0 <_svfprintf_r+0x1fb0>
    9250:	0ec10693          	addi	a3,sp,236
    9254:	ff048493          	addi	s1,s1,-16
    9258:	00068c13          	mv	s8,a3
    925c:	fa9ff06f          	j	9204 <_svfprintf_r+0x1af4>
    9260:	01068693          	addi	a3,a3,16
    9264:	01ac2223          	sw	s10,4(s8)
    9268:	0cd12623          	sw	a3,204(sp)
    926c:	0ce12423          	sw	a4,200(sp)
    9270:	02edd063          	bge	s11,a4,9290 <_svfprintf_r+0x1b80>
    9274:	0c410613          	addi	a2,sp,196
    9278:	00098593          	mv	a1,s3
    927c:	00090513          	mv	a0,s2
    9280:	00006097          	auipc	ra,0x6
    9284:	a38080e7          	jalr	-1480(ra) # ecb8 <__ssprint_r>
    9288:	42051c63          	bnez	a0,96c0 <_svfprintf_r+0x1fb0>
    928c:	0ec10613          	addi	a2,sp,236
    9290:	ff0a8a93          	addi	s5,s5,-16
    9294:	00060c13          	mv	s8,a2
    9298:	dfdff06f          	j	9094 <_svfprintf_r+0x1984>
    929c:	0e078a63          	beqz	a5,9390 <_svfprintf_r+0x1c80>
    92a0:	00812783          	lw	a5,8(sp)
    92a4:	fff78793          	addi	a5,a5,-1
    92a8:	00f12423          	sw	a5,8(sp)
    92ac:	02c12783          	lw	a5,44(sp)
    92b0:	02412703          	lw	a4,36(sp)
    92b4:	008c0c13          	addi	s8,s8,8
    92b8:	fefc2c23          	sw	a5,-8(s8)
    92bc:	02412783          	lw	a5,36(sp)
    92c0:	fefc2e23          	sw	a5,-4(s8)
    92c4:	0cc12783          	lw	a5,204(sp)
    92c8:	00e787b3          	add	a5,a5,a4
    92cc:	0cf12623          	sw	a5,204(sp)
    92d0:	0c812783          	lw	a5,200(sp)
    92d4:	00178793          	addi	a5,a5,1
    92d8:	0cf12423          	sw	a5,200(sp)
    92dc:	02fd5063          	bge	s10,a5,92fc <_svfprintf_r+0x1bec>
    92e0:	0c410613          	addi	a2,sp,196
    92e4:	00098593          	mv	a1,s3
    92e8:	00090513          	mv	a0,s2
    92ec:	00006097          	auipc	ra,0x6
    92f0:	9cc080e7          	jalr	-1588(ra) # ecb8 <__ssprint_r>
    92f4:	3c051663          	bnez	a0,96c0 <_svfprintf_r+0x1fb0>
    92f8:	0ec10c13          	addi	s8,sp,236
    92fc:	00412783          	lw	a5,4(sp)
    9300:	415d8733          	sub	a4,s11,s5
    9304:	0007c783          	lbu	a5,0(a5)
    9308:	00f75463          	bge	a4,a5,9310 <_svfprintf_r+0x1c00>
    930c:	00070793          	mv	a5,a4
    9310:	04f05863          	blez	a5,9360 <_svfprintf_r+0x1c50>
    9314:	0cc12703          	lw	a4,204(sp)
    9318:	015c2023          	sw	s5,0(s8)
    931c:	00fc2223          	sw	a5,4(s8)
    9320:	00e78733          	add	a4,a5,a4
    9324:	0ce12623          	sw	a4,204(sp)
    9328:	0c812703          	lw	a4,200(sp)
    932c:	008c0c13          	addi	s8,s8,8
    9330:	00170713          	addi	a4,a4,1
    9334:	0ce12423          	sw	a4,200(sp)
    9338:	02ed5463          	bge	s10,a4,9360 <_svfprintf_r+0x1c50>
    933c:	0c410613          	addi	a2,sp,196
    9340:	00098593          	mv	a1,s3
    9344:	00090513          	mv	a0,s2
    9348:	02f12c23          	sw	a5,56(sp)
    934c:	00006097          	auipc	ra,0x6
    9350:	96c080e7          	jalr	-1684(ra) # ecb8 <__ssprint_r>
    9354:	36051663          	bnez	a0,96c0 <_svfprintf_r+0x1fb0>
    9358:	03812783          	lw	a5,56(sp)
    935c:	0ec10c13          	addi	s8,sp,236
    9360:	00078713          	mv	a4,a5
    9364:	0007d463          	bgez	a5,936c <_svfprintf_r+0x1c5c>
    9368:	00000713          	li	a4,0
    936c:	00412783          	lw	a5,4(sp)
    9370:	01000813          	li	a6,16
    9374:	0007c783          	lbu	a5,0(a5)
    9378:	40e787b3          	sub	a5,a5,a4
    937c:	06f04663          	bgtz	a5,93e8 <_svfprintf_r+0x1cd8>
    9380:	00412783          	lw	a5,4(sp)
    9384:	0007c783          	lbu	a5,0(a5)
    9388:	00fa8ab3          	add	s5,s5,a5
    938c:	d75ff06f          	j	9100 <_svfprintf_r+0x19f0>
    9390:	00412783          	lw	a5,4(sp)
    9394:	fffb8b93          	addi	s7,s7,-1
    9398:	fff78793          	addi	a5,a5,-1
    939c:	00f12223          	sw	a5,4(sp)
    93a0:	f0dff06f          	j	92ac <_svfprintf_r+0x1b9c>
    93a4:	01068693          	addi	a3,a3,16
    93a8:	010c2223          	sw	a6,4(s8)
    93ac:	0cd12623          	sw	a3,204(sp)
    93b0:	0ce12423          	sw	a4,200(sp)
    93b4:	02ed5663          	bge	s10,a4,93e0 <_svfprintf_r+0x1cd0>
    93b8:	0c410613          	addi	a2,sp,196
    93bc:	00098593          	mv	a1,s3
    93c0:	00090513          	mv	a0,s2
    93c4:	02f12c23          	sw	a5,56(sp)
    93c8:	00006097          	auipc	ra,0x6
    93cc:	8f0080e7          	jalr	-1808(ra) # ecb8 <__ssprint_r>
    93d0:	2e051863          	bnez	a0,96c0 <_svfprintf_r+0x1fb0>
    93d4:	03812783          	lw	a5,56(sp)
    93d8:	0ec10613          	addi	a2,sp,236
    93dc:	01000813          	li	a6,16
    93e0:	ff078793          	addi	a5,a5,-16
    93e4:	00060c13          	mv	s8,a2
    93e8:	0c812703          	lw	a4,200(sp)
    93ec:	80042597          	auipc	a1,0x80042
    93f0:	66c58593          	addi	a1,a1,1644 # 8004ba58 <__stack_top+0xfffd4c08>
    93f4:	00bc2023          	sw	a1,0(s8)
    93f8:	0cc12683          	lw	a3,204(sp)
    93fc:	00170713          	addi	a4,a4,1
    9400:	008c0613          	addi	a2,s8,8
    9404:	faf840e3          	blt	a6,a5,93a4 <_svfprintf_r+0x1c94>
    9408:	00fc2223          	sw	a5,4(s8)
    940c:	00d787b3          	add	a5,a5,a3
    9410:	0cf12623          	sw	a5,204(sp)
    9414:	0ce12423          	sw	a4,200(sp)
    9418:	00060c13          	mv	s8,a2
    941c:	f6ed52e3          	bge	s10,a4,9380 <_svfprintf_r+0x1c70>
    9420:	0c410613          	addi	a2,sp,196
    9424:	00098593          	mv	a1,s3
    9428:	00090513          	mv	a0,s2
    942c:	00006097          	auipc	ra,0x6
    9430:	88c080e7          	jalr	-1908(ra) # ecb8 <__ssprint_r>
    9434:	28051663          	bnez	a0,96c0 <_svfprintf_r+0x1fb0>
    9438:	0ec10c13          	addi	s8,sp,236
    943c:	f45ff06f          	j	9380 <_svfprintf_r+0x1c70>
    9440:	0c812783          	lw	a5,200(sp)
    9444:	00100713          	li	a4,1
    9448:	009c2023          	sw	s1,0(s8)
    944c:	001d0d13          	addi	s10,s10,1
    9450:	00178793          	addi	a5,a5,1
    9454:	008c0b93          	addi	s7,s8,8
    9458:	01474663          	blt	a4,s4,9464 <_svfprintf_r+0x1d54>
    945c:	00147693          	andi	a3,s0,1
    9460:	1e068263          	beqz	a3,9644 <_svfprintf_r+0x1f34>
    9464:	00100713          	li	a4,1
    9468:	00ec2223          	sw	a4,4(s8)
    946c:	0da12623          	sw	s10,204(sp)
    9470:	0cf12423          	sw	a5,200(sp)
    9474:	00700713          	li	a4,7
    9478:	02f75063          	bge	a4,a5,9498 <_svfprintf_r+0x1d88>
    947c:	0c410613          	addi	a2,sp,196
    9480:	00098593          	mv	a1,s3
    9484:	00090513          	mv	a0,s2
    9488:	00006097          	auipc	ra,0x6
    948c:	830080e7          	jalr	-2000(ra) # ecb8 <__ssprint_r>
    9490:	22051863          	bnez	a0,96c0 <_svfprintf_r+0x1fb0>
    9494:	0ec10b93          	addi	s7,sp,236
    9498:	02812783          	lw	a5,40(sp)
    949c:	01412703          	lw	a4,20(sp)
    94a0:	008b8b93          	addi	s7,s7,8
    94a4:	fefbac23          	sw	a5,-8(s7)
    94a8:	01412783          	lw	a5,20(sp)
    94ac:	fefbae23          	sw	a5,-4(s7)
    94b0:	0cc12783          	lw	a5,204(sp)
    94b4:	00e787b3          	add	a5,a5,a4
    94b8:	0cf12623          	sw	a5,204(sp)
    94bc:	0c812783          	lw	a5,200(sp)
    94c0:	00700713          	li	a4,7
    94c4:	00178793          	addi	a5,a5,1
    94c8:	0cf12423          	sw	a5,200(sp)
    94cc:	02f75063          	bge	a4,a5,94ec <_svfprintf_r+0x1ddc>
    94d0:	0c410613          	addi	a2,sp,196
    94d4:	00098593          	mv	a1,s3
    94d8:	00090513          	mv	a0,s2
    94dc:	00005097          	auipc	ra,0x5
    94e0:	7dc080e7          	jalr	2012(ra) # ecb8 <__ssprint_r>
    94e4:	1c051e63          	bnez	a0,96c0 <_svfprintf_r+0x1fb0>
    94e8:	0ec10b93          	addi	s7,sp,236
    94ec:	0d012783          	lw	a5,208(sp)
    94f0:	08010593          	addi	a1,sp,128
    94f4:	09010513          	addi	a0,sp,144
    94f8:	08f12823          	sw	a5,144(sp)
    94fc:	0d412783          	lw	a5,212(sp)
    9500:	fffa0a93          	addi	s5,s4,-1
    9504:	08012023          	sw	zero,128(sp)
    9508:	08f12a23          	sw	a5,148(sp)
    950c:	0d812783          	lw	a5,216(sp)
    9510:	08012223          	sw	zero,132(sp)
    9514:	08012423          	sw	zero,136(sp)
    9518:	08f12c23          	sw	a5,152(sp)
    951c:	0dc12783          	lw	a5,220(sp)
    9520:	08012623          	sw	zero,140(sp)
    9524:	08f12e23          	sw	a5,156(sp)
    9528:	00007097          	auipc	ra,0x7
    952c:	678080e7          	jalr	1656(ra) # 10ba0 <__eqtf2>
    9530:	08050863          	beqz	a0,95c0 <_svfprintf_r+0x1eb0>
    9534:	0cc12783          	lw	a5,204(sp)
    9538:	0c812703          	lw	a4,200(sp)
    953c:	00148493          	addi	s1,s1,1
    9540:	fff78793          	addi	a5,a5,-1
    9544:	014787b3          	add	a5,a5,s4
    9548:	00170713          	addi	a4,a4,1
    954c:	009ba023          	sw	s1,0(s7)
    9550:	015ba223          	sw	s5,4(s7)
    9554:	0cf12623          	sw	a5,204(sp)
    9558:	0ce12423          	sw	a4,200(sp)
    955c:	00700793          	li	a5,7
    9560:	008b8b93          	addi	s7,s7,8
    9564:	02e7d063          	bge	a5,a4,9584 <_svfprintf_r+0x1e74>
    9568:	0c410613          	addi	a2,sp,196
    956c:	00098593          	mv	a1,s3
    9570:	00090513          	mv	a0,s2
    9574:	00005097          	auipc	ra,0x5
    9578:	744080e7          	jalr	1860(ra) # ecb8 <__ssprint_r>
    957c:	14051263          	bnez	a0,96c0 <_svfprintf_r+0x1fb0>
    9580:	0ec10b93          	addi	s7,sp,236
    9584:	0b410793          	addi	a5,sp,180
    9588:	00fba023          	sw	a5,0(s7)
    958c:	03012783          	lw	a5,48(sp)
    9590:	03012703          	lw	a4,48(sp)
    9594:	008b8c13          	addi	s8,s7,8
    9598:	00fba223          	sw	a5,4(s7)
    959c:	0cc12783          	lw	a5,204(sp)
    95a0:	00e787b3          	add	a5,a5,a4
    95a4:	0cf12623          	sw	a5,204(sp)
    95a8:	0c812783          	lw	a5,200(sp)
    95ac:	00700713          	li	a4,7
    95b0:	00178793          	addi	a5,a5,1
    95b4:	0cf12423          	sw	a5,200(sp)
    95b8:	9ef750e3          	bge	a4,a5,8f98 <_svfprintf_r+0x1888>
    95bc:	f7cfe06f          	j	7d38 <_svfprintf_r+0x628>
    95c0:	fd5052e3          	blez	s5,9584 <_svfprintf_r+0x1e74>
    95c4:	01000493          	li	s1,16
    95c8:	00700c13          	li	s8,7
    95cc:	0c812703          	lw	a4,200(sp)
    95d0:	80042617          	auipc	a2,0x80042
    95d4:	48860613          	addi	a2,a2,1160 # 8004ba58 <__stack_top+0xfffd4c08>
    95d8:	00cba023          	sw	a2,0(s7)
    95dc:	0cc12783          	lw	a5,204(sp)
    95e0:	00170713          	addi	a4,a4,1
    95e4:	008b8693          	addi	a3,s7,8
    95e8:	0354c063          	blt	s1,s5,9608 <_svfprintf_r+0x1ef8>
    95ec:	00fa87b3          	add	a5,s5,a5
    95f0:	015ba223          	sw	s5,4(s7)
    95f4:	0cf12623          	sw	a5,204(sp)
    95f8:	0ce12423          	sw	a4,200(sp)
    95fc:	00700793          	li	a5,7
    9600:	00068b93          	mv	s7,a3
    9604:	f61ff06f          	j	9564 <_svfprintf_r+0x1e54>
    9608:	01078793          	addi	a5,a5,16
    960c:	009ba223          	sw	s1,4(s7)
    9610:	0cf12623          	sw	a5,204(sp)
    9614:	0ce12423          	sw	a4,200(sp)
    9618:	02ec5063          	bge	s8,a4,9638 <_svfprintf_r+0x1f28>
    961c:	0c410613          	addi	a2,sp,196
    9620:	00098593          	mv	a1,s3
    9624:	00090513          	mv	a0,s2
    9628:	00005097          	auipc	ra,0x5
    962c:	690080e7          	jalr	1680(ra) # ecb8 <__ssprint_r>
    9630:	08051863          	bnez	a0,96c0 <_svfprintf_r+0x1fb0>
    9634:	0ec10693          	addi	a3,sp,236
    9638:	ff0a8a93          	addi	s5,s5,-16
    963c:	00068b93          	mv	s7,a3
    9640:	f8dff06f          	j	95cc <_svfprintf_r+0x1ebc>
    9644:	00ec2223          	sw	a4,4(s8)
    9648:	0da12623          	sw	s10,204(sp)
    964c:	0cf12423          	sw	a5,200(sp)
    9650:	00700713          	li	a4,7
    9654:	f2f758e3          	bge	a4,a5,9584 <_svfprintf_r+0x1e74>
    9658:	f11ff06f          	j	9568 <_svfprintf_r+0x1e58>
    965c:	01c12783          	lw	a5,28(sp)
    9660:	02012703          	lw	a4,32(sp)
    9664:	40e78433          	sub	s0,a5,a4
    9668:	92805ce3          	blez	s0,8fa0 <_svfprintf_r+0x1890>
    966c:	01000a93          	li	s5,16
    9670:	80042497          	auipc	s1,0x80042
    9674:	3d848493          	addi	s1,s1,984 # 8004ba48 <__stack_top+0xfffd4bf8>
    9678:	00700b93          	li	s7,7
    967c:	0c812783          	lw	a5,200(sp)
    9680:	009c2023          	sw	s1,0(s8)
    9684:	0cc12703          	lw	a4,204(sp)
    9688:	00178793          	addi	a5,a5,1
    968c:	048ac863          	blt	s5,s0,96dc <_svfprintf_r+0x1fcc>
    9690:	008c2223          	sw	s0,4(s8)
    9694:	00e40433          	add	s0,s0,a4
    9698:	0c812623          	sw	s0,204(sp)
    969c:	0cf12423          	sw	a5,200(sp)
    96a0:	00700713          	li	a4,7
    96a4:	8ef75ee3          	bge	a4,a5,8fa0 <_svfprintf_r+0x1890>
    96a8:	0c410613          	addi	a2,sp,196
    96ac:	00098593          	mv	a1,s3
    96b0:	00090513          	mv	a0,s2
    96b4:	00005097          	auipc	ra,0x5
    96b8:	604080e7          	jalr	1540(ra) # ecb8 <__ssprint_r>
    96bc:	8e0502e3          	beqz	a0,8fa0 <_svfprintf_r+0x1890>
    96c0:	000b1463          	bnez	s6,96c8 <_svfprintf_r+0x1fb8>
    96c4:	8e5fe06f          	j	7fa8 <_svfprintf_r+0x898>
    96c8:	000b0593          	mv	a1,s6
    96cc:	00090513          	mv	a0,s2
    96d0:	00002097          	auipc	ra,0x2
    96d4:	be0080e7          	jalr	-1056(ra) # b2b0 <_free_r>
    96d8:	8d1fe06f          	j	7fa8 <_svfprintf_r+0x898>
    96dc:	01070713          	addi	a4,a4,16
    96e0:	015c2223          	sw	s5,4(s8)
    96e4:	0ce12623          	sw	a4,204(sp)
    96e8:	0cf12423          	sw	a5,200(sp)
    96ec:	008c0c13          	addi	s8,s8,8
    96f0:	02fbd063          	bge	s7,a5,9710 <_svfprintf_r+0x2000>
    96f4:	0c410613          	addi	a2,sp,196
    96f8:	00098593          	mv	a1,s3
    96fc:	00090513          	mv	a0,s2
    9700:	00005097          	auipc	ra,0x5
    9704:	5b8080e7          	jalr	1464(ra) # ecb8 <__ssprint_r>
    9708:	fa051ce3          	bnez	a0,96c0 <_svfprintf_r+0x1fb0>
    970c:	0ec10c13          	addi	s8,sp,236
    9710:	ff040413          	addi	s0,s0,-16
    9714:	f69ff06f          	j	967c <_svfprintf_r+0x1f6c>
    9718:	000b0593          	mv	a1,s6
    971c:	00090513          	mv	a0,s2
    9720:	00002097          	auipc	ra,0x2
    9724:	b90080e7          	jalr	-1136(ra) # b2b0 <_free_r>
    9728:	8bdff06f          	j	8fe4 <_svfprintf_r+0x18d4>
    972c:	0cc12783          	lw	a5,204(sp)
    9730:	00079463          	bnez	a5,9738 <_svfprintf_r+0x2028>
    9734:	875fe06f          	j	7fa8 <_svfprintf_r+0x898>
    9738:	0c410613          	addi	a2,sp,196
    973c:	00098593          	mv	a1,s3
    9740:	00090513          	mv	a0,s2
    9744:	00005097          	auipc	ra,0x5
    9748:	574080e7          	jalr	1396(ra) # ecb8 <__ssprint_r>
    974c:	85dfe06f          	j	7fa8 <_svfprintf_r+0x898>
    9750:	fff00793          	li	a5,-1
    9754:	aafd9c63          	bne	s11,a5,8a0c <_svfprintf_r+0x12fc>
    9758:	b20c9e63          	bnez	s9,8a94 <_svfprintf_r+0x1384>
    975c:	00900793          	li	a5,9
    9760:	b3a7ea63          	bltu	a5,s10,8a94 <_svfprintf_r+0x1384>
    9764:	030d0d13          	addi	s10,s10,48
    9768:	19a107a3          	sb	s10,399(sp)
    976c:	18f10493          	addi	s1,sp,399
    9770:	afcff06f          	j	8a6c <_svfprintf_r+0x135c>

00009774 <__sprint_r>:
    9774:	00862783          	lw	a5,8(a2)
    9778:	fd010113          	addi	sp,sp,-48
    977c:	02812423          	sw	s0,40(sp)
    9780:	02112623          	sw	ra,44(sp)
    9784:	02912223          	sw	s1,36(sp)
    9788:	03212023          	sw	s2,32(sp)
    978c:	01312e23          	sw	s3,28(sp)
    9790:	01412c23          	sw	s4,24(sp)
    9794:	01512a23          	sw	s5,20(sp)
    9798:	01612823          	sw	s6,16(sp)
    979c:	01712623          	sw	s7,12(sp)
    97a0:	01812423          	sw	s8,8(sp)
    97a4:	00060413          	mv	s0,a2
    97a8:	02079e63          	bnez	a5,97e4 <__sprint_r+0x70>
    97ac:	00062223          	sw	zero,4(a2)
    97b0:	00000513          	li	a0,0
    97b4:	02c12083          	lw	ra,44(sp)
    97b8:	02812403          	lw	s0,40(sp)
    97bc:	02412483          	lw	s1,36(sp)
    97c0:	02012903          	lw	s2,32(sp)
    97c4:	01c12983          	lw	s3,28(sp)
    97c8:	01812a03          	lw	s4,24(sp)
    97cc:	01412a83          	lw	s5,20(sp)
    97d0:	01012b03          	lw	s6,16(sp)
    97d4:	00c12b83          	lw	s7,12(sp)
    97d8:	00812c03          	lw	s8,8(sp)
    97dc:	03010113          	addi	sp,sp,48
    97e0:	00008067          	ret
    97e4:	0645a783          	lw	a5,100(a1)
    97e8:	00058993          	mv	s3,a1
    97ec:	01279713          	slli	a4,a5,0x12
    97f0:	06075a63          	bgez	a4,9864 <__sprint_r+0xf0>
    97f4:	00062483          	lw	s1,0(a2)
    97f8:	00050a93          	mv	s5,a0
    97fc:	fff00b13          	li	s6,-1
    9800:	0044a903          	lw	s2,4(s1)
    9804:	0004ac03          	lw	s8,0(s1)
    9808:	00000a13          	li	s4,0
    980c:	00295b93          	srli	s7,s2,0x2
    9810:	037a4663          	blt	s4,s7,983c <__sprint_r+0xc8>
    9814:	00842783          	lw	a5,8(s0)
    9818:	ffc97913          	andi	s2,s2,-4
    981c:	00848493          	addi	s1,s1,8
    9820:	412787b3          	sub	a5,a5,s2
    9824:	00f42423          	sw	a5,8(s0)
    9828:	fc079ce3          	bnez	a5,9800 <__sprint_r+0x8c>
    982c:	00000513          	li	a0,0
    9830:	00042423          	sw	zero,8(s0)
    9834:	00042223          	sw	zero,4(s0)
    9838:	f7dff06f          	j	97b4 <__sprint_r+0x40>
    983c:	002a1793          	slli	a5,s4,0x2
    9840:	00fc07b3          	add	a5,s8,a5
    9844:	0007a583          	lw	a1,0(a5)
    9848:	00098613          	mv	a2,s3
    984c:	000a8513          	mv	a0,s5
    9850:	00002097          	auipc	ra,0x2
    9854:	890080e7          	jalr	-1904(ra) # b0e0 <_fputwc_r>
    9858:	01650c63          	beq	a0,s6,9870 <__sprint_r+0xfc>
    985c:	001a0a13          	addi	s4,s4,1
    9860:	fb1ff06f          	j	9810 <__sprint_r+0x9c>
    9864:	ffffc097          	auipc	ra,0xffffc
    9868:	570080e7          	jalr	1392(ra) # 5dd4 <__sfvwrite_r>
    986c:	fc5ff06f          	j	9830 <__sprint_r+0xbc>
    9870:	fff00513          	li	a0,-1
    9874:	fbdff06f          	j	9830 <__sprint_r+0xbc>

00009878 <_vfiprintf_r>:
    9878:	ee010113          	addi	sp,sp,-288
    987c:	10812c23          	sw	s0,280(sp)
    9880:	11212823          	sw	s2,272(sp)
    9884:	11312623          	sw	s3,268(sp)
    9888:	11512223          	sw	s5,260(sp)
    988c:	10112e23          	sw	ra,284(sp)
    9890:	10912a23          	sw	s1,276(sp)
    9894:	11412423          	sw	s4,264(sp)
    9898:	11612023          	sw	s6,256(sp)
    989c:	0f712e23          	sw	s7,252(sp)
    98a0:	0f812c23          	sw	s8,248(sp)
    98a4:	0f912a23          	sw	s9,244(sp)
    98a8:	0fa12823          	sw	s10,240(sp)
    98ac:	0fb12623          	sw	s11,236(sp)
    98b0:	00050993          	mv	s3,a0
    98b4:	00058413          	mv	s0,a1
    98b8:	00060a93          	mv	s5,a2
    98bc:	00068913          	mv	s2,a3
    98c0:	00050a63          	beqz	a0,98d4 <_vfiprintf_r+0x5c>
    98c4:	03852783          	lw	a5,56(a0)
    98c8:	00079663          	bnez	a5,98d4 <_vfiprintf_r+0x5c>
    98cc:	00001097          	auipc	ra,0x1
    98d0:	520080e7          	jalr	1312(ra) # adec <__sinit>
    98d4:	00c41783          	lh	a5,12(s0)
    98d8:	01279713          	slli	a4,a5,0x12
    98dc:	02074263          	bltz	a4,9900 <_vfiprintf_r+0x88>
    98e0:	000026b7          	lui	a3,0x2
    98e4:	06442703          	lw	a4,100(s0)
    98e8:	00d7e7b3          	or	a5,a5,a3
    98ec:	00f41623          	sh	a5,12(s0)
    98f0:	ffffe7b7          	lui	a5,0xffffe
    98f4:	fff78793          	addi	a5,a5,-1 # ffffdfff <__stack_top+0x7ff871af>
    98f8:	00f777b3          	and	a5,a4,a5
    98fc:	06f42223          	sw	a5,100(s0)
    9900:	00c45783          	lhu	a5,12(s0)
    9904:	0087f793          	andi	a5,a5,8
    9908:	04078263          	beqz	a5,994c <_vfiprintf_r+0xd4>
    990c:	01042783          	lw	a5,16(s0)
    9910:	02078e63          	beqz	a5,994c <_vfiprintf_r+0xd4>
    9914:	00c45783          	lhu	a5,12(s0)
    9918:	00a00713          	li	a4,10
    991c:	01a7f793          	andi	a5,a5,26
    9920:	08e79263          	bne	a5,a4,99a4 <_vfiprintf_r+0x12c>
    9924:	00e41783          	lh	a5,14(s0)
    9928:	0607ce63          	bltz	a5,99a4 <_vfiprintf_r+0x12c>
    992c:	00090693          	mv	a3,s2
    9930:	000a8613          	mv	a2,s5
    9934:	00040593          	mv	a1,s0
    9938:	00098513          	mv	a0,s3
    993c:	00001097          	auipc	ra,0x1
    9940:	c58080e7          	jalr	-936(ra) # a594 <__sbprintf>
    9944:	00050b93          	mv	s7,a0
    9948:	01c0006f          	j	9964 <_vfiprintf_r+0xec>
    994c:	00040593          	mv	a1,s0
    9950:	00098513          	mv	a0,s3
    9954:	00001097          	auipc	ra,0x1
    9958:	f78080e7          	jalr	-136(ra) # a8cc <__swsetup_r>
    995c:	fa050ce3          	beqz	a0,9914 <_vfiprintf_r+0x9c>
    9960:	fff00b93          	li	s7,-1
    9964:	11c12083          	lw	ra,284(sp)
    9968:	11812403          	lw	s0,280(sp)
    996c:	000b8513          	mv	a0,s7
    9970:	11412483          	lw	s1,276(sp)
    9974:	11012903          	lw	s2,272(sp)
    9978:	10c12983          	lw	s3,268(sp)
    997c:	10812a03          	lw	s4,264(sp)
    9980:	10412a83          	lw	s5,260(sp)
    9984:	10012b03          	lw	s6,256(sp)
    9988:	0fc12b83          	lw	s7,252(sp)
    998c:	0f812c03          	lw	s8,248(sp)
    9990:	0f412c83          	lw	s9,244(sp)
    9994:	0f012d03          	lw	s10,240(sp)
    9998:	0ec12d83          	lw	s11,236(sp)
    999c:	12010113          	addi	sp,sp,288
    99a0:	00008067          	ret
    99a4:	03c10b13          	addi	s6,sp,60
    99a8:	03612823          	sw	s6,48(sp)
    99ac:	02012c23          	sw	zero,56(sp)
    99b0:	02012a23          	sw	zero,52(sp)
    99b4:	000b0713          	mv	a4,s6
    99b8:	00012423          	sw	zero,8(sp)
    99bc:	00012223          	sw	zero,4(sp)
    99c0:	00012623          	sw	zero,12(sp)
    99c4:	00012823          	sw	zero,16(sp)
    99c8:	00000b93          	li	s7,0
    99cc:	000a8493          	mv	s1,s5
    99d0:	02500693          	li	a3,37
    99d4:	0004c783          	lbu	a5,0(s1)
    99d8:	00078463          	beqz	a5,99e0 <_vfiprintf_r+0x168>
    99dc:	0ad79663          	bne	a5,a3,9a88 <_vfiprintf_r+0x210>
    99e0:	41548a33          	sub	s4,s1,s5
    99e4:	040a0863          	beqz	s4,9a34 <_vfiprintf_r+0x1bc>
    99e8:	03812783          	lw	a5,56(sp)
    99ec:	01572023          	sw	s5,0(a4)
    99f0:	01472223          	sw	s4,4(a4)
    99f4:	014787b3          	add	a5,a5,s4
    99f8:	02f12c23          	sw	a5,56(sp)
    99fc:	03412783          	lw	a5,52(sp)
    9a00:	00700693          	li	a3,7
    9a04:	00870713          	addi	a4,a4,8
    9a08:	00178793          	addi	a5,a5,1
    9a0c:	02f12a23          	sw	a5,52(sp)
    9a10:	02f6d063          	bge	a3,a5,9a30 <_vfiprintf_r+0x1b8>
    9a14:	03010613          	addi	a2,sp,48
    9a18:	00040593          	mv	a1,s0
    9a1c:	00098513          	mv	a0,s3
    9a20:	00000097          	auipc	ra,0x0
    9a24:	d54080e7          	jalr	-684(ra) # 9774 <__sprint_r>
    9a28:	2a051ee3          	bnez	a0,a4e4 <_vfiprintf_r+0xc6c>
    9a2c:	000b0713          	mv	a4,s6
    9a30:	014b8bb3          	add	s7,s7,s4
    9a34:	0004c783          	lbu	a5,0(s1)
    9a38:	2e078ce3          	beqz	a5,a530 <_vfiprintf_r+0xcb8>
    9a3c:	00148693          	addi	a3,s1,1
    9a40:	020105a3          	sb	zero,43(sp)
    9a44:	fff00493          	li	s1,-1
    9a48:	00000a13          	li	s4,0
    9a4c:	00000d13          	li	s10,0
    9a50:	00900c13          	li	s8,9
    9a54:	02a00c93          	li	s9,42
    9a58:	0006c603          	lbu	a2,0(a3) # 2000 <_ZN6tflite8internal40InitializeTfLiteEvalTensorFromFlatbufferERKNS_6TensorEPKN11flatbuffers6VectorINS4_6OffsetINS_6BufferEEEmEEP16TfLiteEvalTensor+0xa0>
    9a5c:	00168a93          	addi	s5,a3,1
    9a60:	05a00513          	li	a0,90
    9a64:	fe060693          	addi	a3,a2,-32
    9a68:	12d562e3          	bltu	a0,a3,a38c <_vfiprintf_r+0xb14>
    9a6c:	80042797          	auipc	a5,0x80042
    9a70:	02478793          	addi	a5,a5,36 # 8004ba90 <__stack_top+0xfffd4c40>
    9a74:	00269693          	slli	a3,a3,0x2
    9a78:	00f686b3          	add	a3,a3,a5
    9a7c:	0006a683          	lw	a3,0(a3)
    9a80:	00f686b3          	add	a3,a3,a5
    9a84:	00068067          	jr	a3
    9a88:	00148493          	addi	s1,s1,1
    9a8c:	f49ff06f          	j	99d4 <_vfiprintf_r+0x15c>
    9a90:	80042797          	auipc	a5,0x80042
    9a94:	fe878793          	addi	a5,a5,-24 # 8004ba78 <__stack_top+0xfffd4c28>
    9a98:	00f12423          	sw	a5,8(sp)
    9a9c:	020d7693          	andi	a3,s10,32
    9aa0:	6e068863          	beqz	a3,a190 <_vfiprintf_r+0x918>
    9aa4:	00790913          	addi	s2,s2,7
    9aa8:	ff897913          	andi	s2,s2,-8
    9aac:	00092d83          	lw	s11,0(s2)
    9ab0:	00492c83          	lw	s9,4(s2)
    9ab4:	00890c13          	addi	s8,s2,8
    9ab8:	001d7693          	andi	a3,s10,1
    9abc:	00068e63          	beqz	a3,9ad8 <_vfiprintf_r+0x260>
    9ac0:	019de6b3          	or	a3,s11,s9
    9ac4:	00068a63          	beqz	a3,9ad8 <_vfiprintf_r+0x260>
    9ac8:	03000693          	li	a3,48
    9acc:	02d10623          	sb	a3,44(sp)
    9ad0:	02c106a3          	sb	a2,45(sp)
    9ad4:	002d6d13          	ori	s10,s10,2
    9ad8:	bffd7d13          	andi	s10,s10,-1025
    9adc:	3200006f          	j	9dfc <_vfiprintf_r+0x584>
    9ae0:	00098513          	mv	a0,s3
    9ae4:	00e12023          	sw	a4,0(sp)
    9ae8:	00004097          	auipc	ra,0x4
    9aec:	e00080e7          	jalr	-512(ra) # d8e8 <_localeconv_r>
    9af0:	00452783          	lw	a5,4(a0)
    9af4:	00078513          	mv	a0,a5
    9af8:	00f12823          	sw	a5,16(sp)
    9afc:	ffffe097          	auipc	ra,0xffffe
    9b00:	bbc080e7          	jalr	-1092(ra) # 76b8 <strlen>
    9b04:	00a12623          	sw	a0,12(sp)
    9b08:	00098513          	mv	a0,s3
    9b0c:	00004097          	auipc	ra,0x4
    9b10:	ddc080e7          	jalr	-548(ra) # d8e8 <_localeconv_r>
    9b14:	00852783          	lw	a5,8(a0)
    9b18:	00012703          	lw	a4,0(sp)
    9b1c:	00f12223          	sw	a5,4(sp)
    9b20:	00c12783          	lw	a5,12(sp)
    9b24:	00078c63          	beqz	a5,9b3c <_vfiprintf_r+0x2c4>
    9b28:	00412783          	lw	a5,4(sp)
    9b2c:	00078863          	beqz	a5,9b3c <_vfiprintf_r+0x2c4>
    9b30:	0007c683          	lbu	a3,0(a5)
    9b34:	00068463          	beqz	a3,9b3c <_vfiprintf_r+0x2c4>
    9b38:	400d6d13          	ori	s10,s10,1024
    9b3c:	000a8693          	mv	a3,s5
    9b40:	f19ff06f          	j	9a58 <_vfiprintf_r+0x1e0>
    9b44:	02b14683          	lbu	a3,43(sp)
    9b48:	fe069ae3          	bnez	a3,9b3c <_vfiprintf_r+0x2c4>
    9b4c:	02000693          	li	a3,32
    9b50:	02d105a3          	sb	a3,43(sp)
    9b54:	fe9ff06f          	j	9b3c <_vfiprintf_r+0x2c4>
    9b58:	001d6d13          	ori	s10,s10,1
    9b5c:	fe1ff06f          	j	9b3c <_vfiprintf_r+0x2c4>
    9b60:	00092a03          	lw	s4,0(s2)
    9b64:	00490913          	addi	s2,s2,4
    9b68:	fc0a5ae3          	bgez	s4,9b3c <_vfiprintf_r+0x2c4>
    9b6c:	41400a33          	neg	s4,s4
    9b70:	004d6d13          	ori	s10,s10,4
    9b74:	fc9ff06f          	j	9b3c <_vfiprintf_r+0x2c4>
    9b78:	02b00693          	li	a3,43
    9b7c:	fd5ff06f          	j	9b50 <_vfiprintf_r+0x2d8>
    9b80:	000ac603          	lbu	a2,0(s5)
    9b84:	001a8693          	addi	a3,s5,1
    9b88:	05961263          	bne	a2,s9,9bcc <_vfiprintf_r+0x354>
    9b8c:	00092483          	lw	s1,0(s2)
    9b90:	00490613          	addi	a2,s2,4
    9b94:	0004d463          	bgez	s1,9b9c <_vfiprintf_r+0x324>
    9b98:	fff00493          	li	s1,-1
    9b9c:	00060913          	mv	s2,a2
    9ba0:	00068a93          	mv	s5,a3
    9ba4:	f99ff06f          	j	9b3c <_vfiprintf_r+0x2c4>
    9ba8:	00a00793          	li	a5,10
    9bac:	02f484b3          	mul	s1,s1,a5
    9bb0:	00168693          	addi	a3,a3,1
    9bb4:	fff6c603          	lbu	a2,-1(a3)
    9bb8:	00b484b3          	add	s1,s1,a1
    9bbc:	fd060593          	addi	a1,a2,-48
    9bc0:	febc74e3          	bgeu	s8,a1,9ba8 <_vfiprintf_r+0x330>
    9bc4:	00068a93          	mv	s5,a3
    9bc8:	e9dff06f          	j	9a64 <_vfiprintf_r+0x1ec>
    9bcc:	00000493          	li	s1,0
    9bd0:	fedff06f          	j	9bbc <_vfiprintf_r+0x344>
    9bd4:	080d6d13          	ori	s10,s10,128
    9bd8:	f65ff06f          	j	9b3c <_vfiprintf_r+0x2c4>
    9bdc:	000a8693          	mv	a3,s5
    9be0:	00000a13          	li	s4,0
    9be4:	00a00793          	li	a5,10
    9be8:	02fa0a33          	mul	s4,s4,a5
    9bec:	fd060613          	addi	a2,a2,-48
    9bf0:	00168693          	addi	a3,a3,1
    9bf4:	01460a33          	add	s4,a2,s4
    9bf8:	fff6c603          	lbu	a2,-1(a3)
    9bfc:	fd060593          	addi	a1,a2,-48
    9c00:	febc72e3          	bgeu	s8,a1,9be4 <_vfiprintf_r+0x36c>
    9c04:	fc1ff06f          	j	9bc4 <_vfiprintf_r+0x34c>
    9c08:	000ac603          	lbu	a2,0(s5)
    9c0c:	06800693          	li	a3,104
    9c10:	00d61863          	bne	a2,a3,9c20 <_vfiprintf_r+0x3a8>
    9c14:	001a8a93          	addi	s5,s5,1
    9c18:	200d6d13          	ori	s10,s10,512
    9c1c:	f21ff06f          	j	9b3c <_vfiprintf_r+0x2c4>
    9c20:	040d6d13          	ori	s10,s10,64
    9c24:	f19ff06f          	j	9b3c <_vfiprintf_r+0x2c4>
    9c28:	000ac603          	lbu	a2,0(s5)
    9c2c:	06c00693          	li	a3,108
    9c30:	00d61863          	bne	a2,a3,9c40 <_vfiprintf_r+0x3c8>
    9c34:	001a8a93          	addi	s5,s5,1
    9c38:	020d6d13          	ori	s10,s10,32
    9c3c:	f01ff06f          	j	9b3c <_vfiprintf_r+0x2c4>
    9c40:	010d6d13          	ori	s10,s10,16
    9c44:	ef9ff06f          	j	9b3c <_vfiprintf_r+0x2c4>
    9c48:	00092683          	lw	a3,0(s2)
    9c4c:	00490c13          	addi	s8,s2,4
    9c50:	020105a3          	sb	zero,43(sp)
    9c54:	06d10e23          	sb	a3,124(sp)
    9c58:	00100493          	li	s1,1
    9c5c:	00000c93          	li	s9,0
    9c60:	07c10913          	addi	s2,sp,124
    9c64:	1dc0006f          	j	9e40 <_vfiprintf_r+0x5c8>
    9c68:	010d6d13          	ori	s10,s10,16
    9c6c:	020d7693          	andi	a3,s10,32
    9c70:	06068263          	beqz	a3,9cd4 <_vfiprintf_r+0x45c>
    9c74:	00790913          	addi	s2,s2,7
    9c78:	ff897913          	andi	s2,s2,-8
    9c7c:	00092d83          	lw	s11,0(s2)
    9c80:	00492c83          	lw	s9,4(s2)
    9c84:	00890c13          	addi	s8,s2,8
    9c88:	0c0cd4e3          	bgez	s9,a550 <_vfiprintf_r+0xcd8>
    9c8c:	41b00333          	neg	t1,s11
    9c90:	006036b3          	snez	a3,t1
    9c94:	41900833          	neg	a6,s9
    9c98:	40d80cb3          	sub	s9,a6,a3
    9c9c:	02d00693          	li	a3,45
    9ca0:	02d105a3          	sb	a3,43(sp)
    9ca4:	00030d93          	mv	s11,t1
    9ca8:	00100693          	li	a3,1
    9cac:	fff00613          	li	a2,-1
    9cb0:	52c48263          	beq	s1,a2,a1d4 <_vfiprintf_r+0x95c>
    9cb4:	000d0613          	mv	a2,s10
    9cb8:	019de5b3          	or	a1,s11,s9
    9cbc:	f7fd7d13          	andi	s10,s10,-129
    9cc0:	50059a63          	bnez	a1,a1d4 <_vfiprintf_r+0x95c>
    9cc4:	6a048663          	beqz	s1,a370 <_vfiprintf_r+0xaf8>
    9cc8:	00100613          	li	a2,1
    9ccc:	50c69863          	bne	a3,a2,a1dc <_vfiprintf_r+0x964>
    9cd0:	0950006f          	j	a564 <_vfiprintf_r+0xcec>
    9cd4:	010d7693          	andi	a3,s10,16
    9cd8:	00490c13          	addi	s8,s2,4
    9cdc:	00068863          	beqz	a3,9cec <_vfiprintf_r+0x474>
    9ce0:	00092d83          	lw	s11,0(s2)
    9ce4:	41fddc93          	srai	s9,s11,0x1f
    9ce8:	fa1ff06f          	j	9c88 <_vfiprintf_r+0x410>
    9cec:	040d7693          	andi	a3,s10,64
    9cf0:	00092303          	lw	t1,0(s2)
    9cf4:	00068863          	beqz	a3,9d04 <_vfiprintf_r+0x48c>
    9cf8:	01031d93          	slli	s11,t1,0x10
    9cfc:	410ddd93          	srai	s11,s11,0x10
    9d00:	fe5ff06f          	j	9ce4 <_vfiprintf_r+0x46c>
    9d04:	200d7693          	andi	a3,s10,512
    9d08:	00030d93          	mv	s11,t1
    9d0c:	fc068ce3          	beqz	a3,9ce4 <_vfiprintf_r+0x46c>
    9d10:	01831d93          	slli	s11,t1,0x18
    9d14:	418ddd93          	srai	s11,s11,0x18
    9d18:	fcdff06f          	j	9ce4 <_vfiprintf_r+0x46c>
    9d1c:	020d7613          	andi	a2,s10,32
    9d20:	00092683          	lw	a3,0(s2)
    9d24:	00490913          	addi	s2,s2,4
    9d28:	00060a63          	beqz	a2,9d3c <_vfiprintf_r+0x4c4>
    9d2c:	41fbd793          	srai	a5,s7,0x1f
    9d30:	0176a023          	sw	s7,0(a3)
    9d34:	00f6a223          	sw	a5,4(a3)
    9d38:	c95ff06f          	j	99cc <_vfiprintf_r+0x154>
    9d3c:	010d7613          	andi	a2,s10,16
    9d40:	00060663          	beqz	a2,9d4c <_vfiprintf_r+0x4d4>
    9d44:	0176a023          	sw	s7,0(a3)
    9d48:	c85ff06f          	j	99cc <_vfiprintf_r+0x154>
    9d4c:	040d7613          	andi	a2,s10,64
    9d50:	00060663          	beqz	a2,9d5c <_vfiprintf_r+0x4e4>
    9d54:	01769023          	sh	s7,0(a3)
    9d58:	c75ff06f          	j	99cc <_vfiprintf_r+0x154>
    9d5c:	200d7793          	andi	a5,s10,512
    9d60:	fe0782e3          	beqz	a5,9d44 <_vfiprintf_r+0x4cc>
    9d64:	01768023          	sb	s7,0(a3)
    9d68:	c65ff06f          	j	99cc <_vfiprintf_r+0x154>
    9d6c:	010d6d13          	ori	s10,s10,16
    9d70:	020d7693          	andi	a3,s10,32
    9d74:	02068463          	beqz	a3,9d9c <_vfiprintf_r+0x524>
    9d78:	00790913          	addi	s2,s2,7
    9d7c:	ff897913          	andi	s2,s2,-8
    9d80:	00092d83          	lw	s11,0(s2)
    9d84:	00492c83          	lw	s9,4(s2)
    9d88:	00890c13          	addi	s8,s2,8
    9d8c:	bffd7d13          	andi	s10,s10,-1025
    9d90:	00000693          	li	a3,0
    9d94:	020105a3          	sb	zero,43(sp)
    9d98:	f15ff06f          	j	9cac <_vfiprintf_r+0x434>
    9d9c:	010d7693          	andi	a3,s10,16
    9da0:	00490c13          	addi	s8,s2,4
    9da4:	00068663          	beqz	a3,9db0 <_vfiprintf_r+0x538>
    9da8:	00092d83          	lw	s11,0(s2)
    9dac:	0100006f          	j	9dbc <_vfiprintf_r+0x544>
    9db0:	040d7693          	andi	a3,s10,64
    9db4:	00068863          	beqz	a3,9dc4 <_vfiprintf_r+0x54c>
    9db8:	00095d83          	lhu	s11,0(s2)
    9dbc:	00000c93          	li	s9,0
    9dc0:	fcdff06f          	j	9d8c <_vfiprintf_r+0x514>
    9dc4:	200d7693          	andi	a3,s10,512
    9dc8:	fe0680e3          	beqz	a3,9da8 <_vfiprintf_r+0x530>
    9dcc:	00094d83          	lbu	s11,0(s2)
    9dd0:	fedff06f          	j	9dbc <_vfiprintf_r+0x544>
    9dd4:	ffff86b7          	lui	a3,0xffff8
    9dd8:	00092d83          	lw	s11,0(s2)
    9ddc:	8306c693          	xori	a3,a3,-2000
    9de0:	80042797          	auipc	a5,0x80042
    9de4:	c9878793          	addi	a5,a5,-872 # 8004ba78 <__stack_top+0xfffd4c28>
    9de8:	00490c13          	addi	s8,s2,4
    9dec:	00000c93          	li	s9,0
    9df0:	002d6d13          	ori	s10,s10,2
    9df4:	02d11623          	sh	a3,44(sp)
    9df8:	00f12423          	sw	a5,8(sp)
    9dfc:	00200693          	li	a3,2
    9e00:	f95ff06f          	j	9d94 <_vfiprintf_r+0x51c>
    9e04:	020105a3          	sb	zero,43(sp)
    9e08:	fff00693          	li	a3,-1
    9e0c:	00e12023          	sw	a4,0(sp)
    9e10:	00490c13          	addi	s8,s2,4
    9e14:	00092903          	lw	s2,0(s2)
    9e18:	2ed48863          	beq	s1,a3,a108 <_vfiprintf_r+0x890>
    9e1c:	00048613          	mv	a2,s1
    9e20:	00000593          	li	a1,0
    9e24:	00090513          	mv	a0,s2
    9e28:	ffffd097          	auipc	ra,0xffffd
    9e2c:	b1c080e7          	jalr	-1252(ra) # 6944 <memchr>
    9e30:	00000c93          	li	s9,0
    9e34:	00012703          	lw	a4,0(sp)
    9e38:	00050463          	beqz	a0,9e40 <_vfiprintf_r+0x5c8>
    9e3c:	412504b3          	sub	s1,a0,s2
    9e40:	01912023          	sw	s9,0(sp)
    9e44:	009cd463          	bge	s9,s1,9e4c <_vfiprintf_r+0x5d4>
    9e48:	00912023          	sw	s1,0(sp)
    9e4c:	02b14683          	lbu	a3,43(sp)
    9e50:	00068863          	beqz	a3,9e60 <_vfiprintf_r+0x5e8>
    9e54:	00012783          	lw	a5,0(sp)
    9e58:	00178793          	addi	a5,a5,1
    9e5c:	00f12023          	sw	a5,0(sp)
    9e60:	002d7d93          	andi	s11,s10,2
    9e64:	000d8863          	beqz	s11,9e74 <_vfiprintf_r+0x5fc>
    9e68:	00012783          	lw	a5,0(sp)
    9e6c:	00278793          	addi	a5,a5,2
    9e70:	00f12023          	sw	a5,0(sp)
    9e74:	084d7793          	andi	a5,s10,132
    9e78:	00f12a23          	sw	a5,20(sp)
    9e7c:	06079863          	bnez	a5,9eec <_vfiprintf_r+0x674>
    9e80:	00012783          	lw	a5,0(sp)
    9e84:	40fa06b3          	sub	a3,s4,a5
    9e88:	06d05263          	blez	a3,9eec <_vfiprintf_r+0x674>
    9e8c:	01000893          	li	a7,16
    9e90:	80042817          	auipc	a6,0x80042
    9e94:	d6c80813          	addi	a6,a6,-660 # 8004bbfc <__stack_top+0xfffd4dac>
    9e98:	00700313          	li	t1,7
    9e9c:	03412603          	lw	a2,52(sp)
    9ea0:	01072023          	sw	a6,0(a4)
    9ea4:	03812583          	lw	a1,56(sp)
    9ea8:	00160613          	addi	a2,a2,1
    9eac:	00870513          	addi	a0,a4,8
    9eb0:	4ed8c863          	blt	a7,a3,a3a0 <_vfiprintf_r+0xb28>
    9eb4:	00d72223          	sw	a3,4(a4)
    9eb8:	00b686b3          	add	a3,a3,a1
    9ebc:	02d12c23          	sw	a3,56(sp)
    9ec0:	02c12a23          	sw	a2,52(sp)
    9ec4:	00700693          	li	a3,7
    9ec8:	00050713          	mv	a4,a0
    9ecc:	02c6d063          	bge	a3,a2,9eec <_vfiprintf_r+0x674>
    9ed0:	03010613          	addi	a2,sp,48
    9ed4:	00040593          	mv	a1,s0
    9ed8:	00098513          	mv	a0,s3
    9edc:	00000097          	auipc	ra,0x0
    9ee0:	898080e7          	jalr	-1896(ra) # 9774 <__sprint_r>
    9ee4:	60051063          	bnez	a0,a4e4 <_vfiprintf_r+0xc6c>
    9ee8:	000b0713          	mv	a4,s6
    9eec:	02b14683          	lbu	a3,43(sp)
    9ef0:	04068a63          	beqz	a3,9f44 <_vfiprintf_r+0x6cc>
    9ef4:	02b10613          	addi	a2,sp,43
    9ef8:	00c72023          	sw	a2,0(a4)
    9efc:	00100613          	li	a2,1
    9f00:	03412683          	lw	a3,52(sp)
    9f04:	00c72223          	sw	a2,4(a4)
    9f08:	03812603          	lw	a2,56(sp)
    9f0c:	00168693          	addi	a3,a3,1 # ffff8001 <__stack_top+0x7ff811b1>
    9f10:	02d12a23          	sw	a3,52(sp)
    9f14:	00160613          	addi	a2,a2,1
    9f18:	02c12c23          	sw	a2,56(sp)
    9f1c:	00700613          	li	a2,7
    9f20:	00870713          	addi	a4,a4,8
    9f24:	02d65063          	bge	a2,a3,9f44 <_vfiprintf_r+0x6cc>
    9f28:	03010613          	addi	a2,sp,48
    9f2c:	00040593          	mv	a1,s0
    9f30:	00098513          	mv	a0,s3
    9f34:	00000097          	auipc	ra,0x0
    9f38:	840080e7          	jalr	-1984(ra) # 9774 <__sprint_r>
    9f3c:	5a051463          	bnez	a0,a4e4 <_vfiprintf_r+0xc6c>
    9f40:	000b0713          	mv	a4,s6
    9f44:	040d8a63          	beqz	s11,9f98 <_vfiprintf_r+0x720>
    9f48:	02c10613          	addi	a2,sp,44
    9f4c:	00c72023          	sw	a2,0(a4)
    9f50:	00200613          	li	a2,2
    9f54:	03412683          	lw	a3,52(sp)
    9f58:	00c72223          	sw	a2,4(a4)
    9f5c:	03812603          	lw	a2,56(sp)
    9f60:	00168693          	addi	a3,a3,1
    9f64:	02d12a23          	sw	a3,52(sp)
    9f68:	00260613          	addi	a2,a2,2
    9f6c:	02c12c23          	sw	a2,56(sp)
    9f70:	00700613          	li	a2,7
    9f74:	00870713          	addi	a4,a4,8
    9f78:	02d65063          	bge	a2,a3,9f98 <_vfiprintf_r+0x720>
    9f7c:	03010613          	addi	a2,sp,48
    9f80:	00040593          	mv	a1,s0
    9f84:	00098513          	mv	a0,s3
    9f88:	fffff097          	auipc	ra,0xfffff
    9f8c:	7ec080e7          	jalr	2028(ra) # 9774 <__sprint_r>
    9f90:	54051a63          	bnez	a0,a4e4 <_vfiprintf_r+0xc6c>
    9f94:	000b0713          	mv	a4,s6
    9f98:	01412783          	lw	a5,20(sp)
    9f9c:	08000693          	li	a3,128
    9fa0:	06d79863          	bne	a5,a3,a010 <_vfiprintf_r+0x798>
    9fa4:	00012783          	lw	a5,0(sp)
    9fa8:	40fa0db3          	sub	s11,s4,a5
    9fac:	07b05263          	blez	s11,a010 <_vfiprintf_r+0x798>
    9fb0:	01000893          	li	a7,16
    9fb4:	80042817          	auipc	a6,0x80042
    9fb8:	c5880813          	addi	a6,a6,-936 # 8004bc0c <__stack_top+0xfffd4dbc>
    9fbc:	00700313          	li	t1,7
    9fc0:	03412683          	lw	a3,52(sp)
    9fc4:	01072023          	sw	a6,0(a4)
    9fc8:	03812603          	lw	a2,56(sp)
    9fcc:	00168693          	addi	a3,a3,1
    9fd0:	00870593          	addi	a1,a4,8
    9fd4:	43b8c063          	blt	a7,s11,a3f4 <_vfiprintf_r+0xb7c>
    9fd8:	01b72223          	sw	s11,4(a4)
    9fdc:	00cd8db3          	add	s11,s11,a2
    9fe0:	03b12c23          	sw	s11,56(sp)
    9fe4:	02d12a23          	sw	a3,52(sp)
    9fe8:	00700613          	li	a2,7
    9fec:	00058713          	mv	a4,a1
    9ff0:	02d65063          	bge	a2,a3,a010 <_vfiprintf_r+0x798>
    9ff4:	03010613          	addi	a2,sp,48
    9ff8:	00040593          	mv	a1,s0
    9ffc:	00098513          	mv	a0,s3
    a000:	fffff097          	auipc	ra,0xfffff
    a004:	774080e7          	jalr	1908(ra) # 9774 <__sprint_r>
    a008:	4c051e63          	bnez	a0,a4e4 <_vfiprintf_r+0xc6c>
    a00c:	000b0713          	mv	a4,s6
    a010:	409c8cb3          	sub	s9,s9,s1
    a014:	07905263          	blez	s9,a078 <_vfiprintf_r+0x800>
    a018:	01000813          	li	a6,16
    a01c:	80042d97          	auipc	s11,0x80042
    a020:	bf0d8d93          	addi	s11,s11,-1040 # 8004bc0c <__stack_top+0xfffd4dbc>
    a024:	00700893          	li	a7,7
    a028:	03412683          	lw	a3,52(sp)
    a02c:	01b72023          	sw	s11,0(a4)
    a030:	03812603          	lw	a2,56(sp)
    a034:	00168693          	addi	a3,a3,1
    a038:	00870593          	addi	a1,a4,8
    a03c:	41984263          	blt	a6,s9,a440 <_vfiprintf_r+0xbc8>
    a040:	01972223          	sw	s9,4(a4)
    a044:	00cc8cb3          	add	s9,s9,a2
    a048:	03912c23          	sw	s9,56(sp)
    a04c:	02d12a23          	sw	a3,52(sp)
    a050:	00700613          	li	a2,7
    a054:	00058713          	mv	a4,a1
    a058:	02d65063          	bge	a2,a3,a078 <_vfiprintf_r+0x800>
    a05c:	03010613          	addi	a2,sp,48
    a060:	00040593          	mv	a1,s0
    a064:	00098513          	mv	a0,s3
    a068:	fffff097          	auipc	ra,0xfffff
    a06c:	70c080e7          	jalr	1804(ra) # 9774 <__sprint_r>
    a070:	46051a63          	bnez	a0,a4e4 <_vfiprintf_r+0xc6c>
    a074:	000b0713          	mv	a4,s6
    a078:	03812683          	lw	a3,56(sp)
    a07c:	00972223          	sw	s1,4(a4)
    a080:	01272023          	sw	s2,0(a4)
    a084:	009684b3          	add	s1,a3,s1
    a088:	03412683          	lw	a3,52(sp)
    a08c:	02912c23          	sw	s1,56(sp)
    a090:	00700613          	li	a2,7
    a094:	00168693          	addi	a3,a3,1
    a098:	02d12a23          	sw	a3,52(sp)
    a09c:	00870713          	addi	a4,a4,8
    a0a0:	02d65063          	bge	a2,a3,a0c0 <_vfiprintf_r+0x848>
    a0a4:	03010613          	addi	a2,sp,48
    a0a8:	00040593          	mv	a1,s0
    a0ac:	00098513          	mv	a0,s3
    a0b0:	fffff097          	auipc	ra,0xfffff
    a0b4:	6c4080e7          	jalr	1732(ra) # 9774 <__sprint_r>
    a0b8:	42051663          	bnez	a0,a4e4 <_vfiprintf_r+0xc6c>
    a0bc:	000b0713          	mv	a4,s6
    a0c0:	004d7793          	andi	a5,s10,4
    a0c4:	3c079063          	bnez	a5,a484 <_vfiprintf_r+0xc0c>
    a0c8:	00012783          	lw	a5,0(sp)
    a0cc:	00fa5463          	bge	s4,a5,a0d4 <_vfiprintf_r+0x85c>
    a0d0:	00078a13          	mv	s4,a5
    a0d4:	03812783          	lw	a5,56(sp)
    a0d8:	014b8bb3          	add	s7,s7,s4
    a0dc:	00078e63          	beqz	a5,a0f8 <_vfiprintf_r+0x880>
    a0e0:	03010613          	addi	a2,sp,48
    a0e4:	00040593          	mv	a1,s0
    a0e8:	00098513          	mv	a0,s3
    a0ec:	fffff097          	auipc	ra,0xfffff
    a0f0:	688080e7          	jalr	1672(ra) # 9774 <__sprint_r>
    a0f4:	3e051863          	bnez	a0,a4e4 <_vfiprintf_r+0xc6c>
    a0f8:	02012a23          	sw	zero,52(sp)
    a0fc:	000c0913          	mv	s2,s8
    a100:	000b0713          	mv	a4,s6
    a104:	8c9ff06f          	j	99cc <_vfiprintf_r+0x154>
    a108:	00090513          	mv	a0,s2
    a10c:	ffffd097          	auipc	ra,0xffffd
    a110:	5ac080e7          	jalr	1452(ra) # 76b8 <strlen>
    a114:	00050493          	mv	s1,a0
    a118:	00000c93          	li	s9,0
    a11c:	00012703          	lw	a4,0(sp)
    a120:	d21ff06f          	j	9e40 <_vfiprintf_r+0x5c8>
    a124:	010d6d13          	ori	s10,s10,16
    a128:	020d7693          	andi	a3,s10,32
    a12c:	02068063          	beqz	a3,a14c <_vfiprintf_r+0x8d4>
    a130:	00790913          	addi	s2,s2,7
    a134:	ff897913          	andi	s2,s2,-8
    a138:	00092d83          	lw	s11,0(s2)
    a13c:	00492c83          	lw	s9,4(s2)
    a140:	00890c13          	addi	s8,s2,8
    a144:	00100693          	li	a3,1
    a148:	c4dff06f          	j	9d94 <_vfiprintf_r+0x51c>
    a14c:	010d7693          	andi	a3,s10,16
    a150:	00490c13          	addi	s8,s2,4
    a154:	00068663          	beqz	a3,a160 <_vfiprintf_r+0x8e8>
    a158:	00092d83          	lw	s11,0(s2)
    a15c:	0100006f          	j	a16c <_vfiprintf_r+0x8f4>
    a160:	040d7693          	andi	a3,s10,64
    a164:	00068863          	beqz	a3,a174 <_vfiprintf_r+0x8fc>
    a168:	00095d83          	lhu	s11,0(s2)
    a16c:	00000c93          	li	s9,0
    a170:	fd5ff06f          	j	a144 <_vfiprintf_r+0x8cc>
    a174:	200d7693          	andi	a3,s10,512
    a178:	fe0680e3          	beqz	a3,a158 <_vfiprintf_r+0x8e0>
    a17c:	00094d83          	lbu	s11,0(s2)
    a180:	fedff06f          	j	a16c <_vfiprintf_r+0x8f4>
    a184:	7fff6797          	auipc	a5,0x7fff6
    a188:	e7c78793          	addi	a5,a5,-388 # 80000000 <__trunctfdf2+0x7ffec698>
    a18c:	90dff06f          	j	9a98 <_vfiprintf_r+0x220>
    a190:	010d7693          	andi	a3,s10,16
    a194:	00490c13          	addi	s8,s2,4
    a198:	00068663          	beqz	a3,a1a4 <_vfiprintf_r+0x92c>
    a19c:	00092d83          	lw	s11,0(s2)
    a1a0:	0100006f          	j	a1b0 <_vfiprintf_r+0x938>
    a1a4:	040d7693          	andi	a3,s10,64
    a1a8:	00068863          	beqz	a3,a1b8 <_vfiprintf_r+0x940>
    a1ac:	00095d83          	lhu	s11,0(s2)
    a1b0:	00000c93          	li	s9,0
    a1b4:	905ff06f          	j	9ab8 <_vfiprintf_r+0x240>
    a1b8:	200d7693          	andi	a3,s10,512
    a1bc:	fe0680e3          	beqz	a3,a19c <_vfiprintf_r+0x924>
    a1c0:	00094d83          	lbu	s11,0(s2)
    a1c4:	fedff06f          	j	a1b0 <_vfiprintf_r+0x938>
    a1c8:	000d0613          	mv	a2,s10
    a1cc:	00100693          	li	a3,1
    a1d0:	ae9ff06f          	j	9cb8 <_vfiprintf_r+0x440>
    a1d4:	00100613          	li	a2,1
    a1d8:	38c68063          	beq	a3,a2,a558 <_vfiprintf_r+0xce0>
    a1dc:	00200613          	li	a2,2
    a1e0:	14c68c63          	beq	a3,a2,a338 <_vfiprintf_r+0xac0>
    a1e4:	0e010693          	addi	a3,sp,224
    a1e8:	01dc9593          	slli	a1,s9,0x1d
    a1ec:	007df613          	andi	a2,s11,7
    a1f0:	003dd313          	srli	t1,s11,0x3
    a1f4:	03060613          	addi	a2,a2,48
    a1f8:	0065edb3          	or	s11,a1,t1
    a1fc:	003cdc93          	srli	s9,s9,0x3
    a200:	fec68fa3          	sb	a2,-1(a3)
    a204:	019de5b3          	or	a1,s11,s9
    a208:	fff68913          	addi	s2,a3,-1
    a20c:	02059663          	bnez	a1,a238 <_vfiprintf_r+0x9c0>
    a210:	001d7593          	andi	a1,s10,1
    a214:	00058a63          	beqz	a1,a228 <_vfiprintf_r+0x9b0>
    a218:	03000593          	li	a1,48
    a21c:	00b60663          	beq	a2,a1,a228 <_vfiprintf_r+0x9b0>
    a220:	feb90fa3          	sb	a1,-1(s2)
    a224:	ffe68913          	addi	s2,a3,-2
    a228:	0e010793          	addi	a5,sp,224
    a22c:	00048c93          	mv	s9,s1
    a230:	412784b3          	sub	s1,a5,s2
    a234:	c0dff06f          	j	9e40 <_vfiprintf_r+0x5c8>
    a238:	00090693          	mv	a3,s2
    a23c:	fadff06f          	j	a1e8 <_vfiprintf_r+0x970>
    a240:	400d7793          	andi	a5,s10,1024
    a244:	00000893          	li	a7,0
    a248:	0e010e13          	addi	t3,sp,224
    a24c:	00f12023          	sw	a5,0(sp)
    a250:	00a00613          	li	a2,10
    a254:	00000693          	li	a3,0
    a258:	000d8513          	mv	a0,s11
    a25c:	000c8593          	mv	a1,s9
    a260:	01112e23          	sw	a7,28(sp)
    a264:	00e12c23          	sw	a4,24(sp)
    a268:	fffe0913          	addi	s2,t3,-1
    a26c:	01c12a23          	sw	t3,20(sp)
    a270:	00006097          	auipc	ra,0x6
    a274:	520080e7          	jalr	1312(ra) # 10790 <__umoddi3>
    a278:	01412e03          	lw	t3,20(sp)
    a27c:	01c12883          	lw	a7,28(sp)
    a280:	00012783          	lw	a5,0(sp)
    a284:	03050513          	addi	a0,a0,48
    a288:	feae0fa3          	sb	a0,-1(t3)
    a28c:	00188893          	addi	a7,a7,1
    a290:	01812703          	lw	a4,24(sp)
    a294:	06078063          	beqz	a5,a2f4 <_vfiprintf_r+0xa7c>
    a298:	00412783          	lw	a5,4(sp)
    a29c:	0007c683          	lbu	a3,0(a5)
    a2a0:	05169a63          	bne	a3,a7,a2f4 <_vfiprintf_r+0xa7c>
    a2a4:	0ff00793          	li	a5,255
    a2a8:	04f88663          	beq	a7,a5,a2f4 <_vfiprintf_r+0xa7c>
    a2ac:	000c9663          	bnez	s9,a2b8 <_vfiprintf_r+0xa40>
    a2b0:	00900793          	li	a5,9
    a2b4:	05b7f063          	bgeu	a5,s11,a2f4 <_vfiprintf_r+0xa7c>
    a2b8:	00c12783          	lw	a5,12(sp)
    a2bc:	01012583          	lw	a1,16(sp)
    a2c0:	00e12a23          	sw	a4,20(sp)
    a2c4:	40f90933          	sub	s2,s2,a5
    a2c8:	00078613          	mv	a2,a5
    a2cc:	00090513          	mv	a0,s2
    a2d0:	00005097          	auipc	ra,0x5
    a2d4:	9b0080e7          	jalr	-1616(ra) # ec80 <strncpy>
    a2d8:	00412783          	lw	a5,4(sp)
    a2dc:	00000893          	li	a7,0
    a2e0:	01412703          	lw	a4,20(sp)
    a2e4:	0017c683          	lbu	a3,1(a5)
    a2e8:	00068663          	beqz	a3,a2f4 <_vfiprintf_r+0xa7c>
    a2ec:	00178793          	addi	a5,a5,1
    a2f0:	00f12223          	sw	a5,4(sp)
    a2f4:	00a00613          	li	a2,10
    a2f8:	00000693          	li	a3,0
    a2fc:	000d8513          	mv	a0,s11
    a300:	000c8593          	mv	a1,s9
    a304:	01112c23          	sw	a7,24(sp)
    a308:	00e12a23          	sw	a4,20(sp)
    a30c:	00006097          	auipc	ra,0x6
    a310:	050080e7          	jalr	80(ra) # 1035c <__udivdi3>
    a314:	01412703          	lw	a4,20(sp)
    a318:	01812883          	lw	a7,24(sp)
    a31c:	000c9663          	bnez	s9,a328 <_vfiprintf_r+0xab0>
    a320:	00900793          	li	a5,9
    a324:	f1b7f2e3          	bgeu	a5,s11,a228 <_vfiprintf_r+0x9b0>
    a328:	00050d93          	mv	s11,a0
    a32c:	00058c93          	mv	s9,a1
    a330:	00090e13          	mv	t3,s2
    a334:	f1dff06f          	j	a250 <_vfiprintf_r+0x9d8>
    a338:	0e010913          	addi	s2,sp,224
    a33c:	00812783          	lw	a5,8(sp)
    a340:	00fdf693          	andi	a3,s11,15
    a344:	fff90913          	addi	s2,s2,-1
    a348:	00d786b3          	add	a3,a5,a3
    a34c:	0006c683          	lbu	a3,0(a3)
    a350:	004dd313          	srli	t1,s11,0x4
    a354:	00d90023          	sb	a3,0(s2)
    a358:	01cc9693          	slli	a3,s9,0x1c
    a35c:	0066edb3          	or	s11,a3,t1
    a360:	004cdc93          	srli	s9,s9,0x4
    a364:	019de6b3          	or	a3,s11,s9
    a368:	fc069ae3          	bnez	a3,a33c <_vfiprintf_r+0xac4>
    a36c:	ebdff06f          	j	a228 <_vfiprintf_r+0x9b0>
    a370:	0e010913          	addi	s2,sp,224
    a374:	ea069ae3          	bnez	a3,a228 <_vfiprintf_r+0x9b0>
    a378:	00167613          	andi	a2,a2,1
    a37c:	ea0606e3          	beqz	a2,a228 <_vfiprintf_r+0x9b0>
    a380:	03000693          	li	a3,48
    a384:	0cd10fa3          	sb	a3,223(sp)
    a388:	1e40006f          	j	a56c <_vfiprintf_r+0xcf4>
    a38c:	1a060263          	beqz	a2,a530 <_vfiprintf_r+0xcb8>
    a390:	06c10e23          	sb	a2,124(sp)
    a394:	020105a3          	sb	zero,43(sp)
    a398:	00090c13          	mv	s8,s2
    a39c:	8bdff06f          	j	9c58 <_vfiprintf_r+0x3e0>
    a3a0:	01058593          	addi	a1,a1,16
    a3a4:	01172223          	sw	a7,4(a4)
    a3a8:	02b12c23          	sw	a1,56(sp)
    a3ac:	02c12a23          	sw	a2,52(sp)
    a3b0:	02c35c63          	bge	t1,a2,a3e8 <_vfiprintf_r+0xb70>
    a3b4:	03010613          	addi	a2,sp,48
    a3b8:	00040593          	mv	a1,s0
    a3bc:	00098513          	mv	a0,s3
    a3c0:	00d12c23          	sw	a3,24(sp)
    a3c4:	fffff097          	auipc	ra,0xfffff
    a3c8:	3b0080e7          	jalr	944(ra) # 9774 <__sprint_r>
    a3cc:	10051c63          	bnez	a0,a4e4 <_vfiprintf_r+0xc6c>
    a3d0:	01812683          	lw	a3,24(sp)
    a3d4:	000b0513          	mv	a0,s6
    a3d8:	00700313          	li	t1,7
    a3dc:	80042817          	auipc	a6,0x80042
    a3e0:	82080813          	addi	a6,a6,-2016 # 8004bbfc <__stack_top+0xfffd4dac>
    a3e4:	01000893          	li	a7,16
    a3e8:	ff068693          	addi	a3,a3,-16
    a3ec:	00050713          	mv	a4,a0
    a3f0:	aadff06f          	j	9e9c <_vfiprintf_r+0x624>
    a3f4:	01060613          	addi	a2,a2,16
    a3f8:	01172223          	sw	a7,4(a4)
    a3fc:	02c12c23          	sw	a2,56(sp)
    a400:	02d12a23          	sw	a3,52(sp)
    a404:	02d35863          	bge	t1,a3,a434 <_vfiprintf_r+0xbbc>
    a408:	03010613          	addi	a2,sp,48
    a40c:	00040593          	mv	a1,s0
    a410:	00098513          	mv	a0,s3
    a414:	fffff097          	auipc	ra,0xfffff
    a418:	360080e7          	jalr	864(ra) # 9774 <__sprint_r>
    a41c:	0c051463          	bnez	a0,a4e4 <_vfiprintf_r+0xc6c>
    a420:	000b0593          	mv	a1,s6
    a424:	00700313          	li	t1,7
    a428:	80041817          	auipc	a6,0x80041
    a42c:	7e480813          	addi	a6,a6,2020 # 8004bc0c <__stack_top+0xfffd4dbc>
    a430:	01000893          	li	a7,16
    a434:	ff0d8d93          	addi	s11,s11,-16
    a438:	00058713          	mv	a4,a1
    a43c:	b85ff06f          	j	9fc0 <_vfiprintf_r+0x748>
    a440:	01060613          	addi	a2,a2,16
    a444:	01072223          	sw	a6,4(a4)
    a448:	02c12c23          	sw	a2,56(sp)
    a44c:	02d12a23          	sw	a3,52(sp)
    a450:	02d8d463          	bge	a7,a3,a478 <_vfiprintf_r+0xc00>
    a454:	03010613          	addi	a2,sp,48
    a458:	00040593          	mv	a1,s0
    a45c:	00098513          	mv	a0,s3
    a460:	fffff097          	auipc	ra,0xfffff
    a464:	314080e7          	jalr	788(ra) # 9774 <__sprint_r>
    a468:	06051e63          	bnez	a0,a4e4 <_vfiprintf_r+0xc6c>
    a46c:	000b0593          	mv	a1,s6
    a470:	00700893          	li	a7,7
    a474:	01000813          	li	a6,16
    a478:	ff0c8c93          	addi	s9,s9,-16
    a47c:	00058713          	mv	a4,a1
    a480:	ba9ff06f          	j	a028 <_vfiprintf_r+0x7b0>
    a484:	00012783          	lw	a5,0(sp)
    a488:	40fa04b3          	sub	s1,s4,a5
    a48c:	c2905ee3          	blez	s1,a0c8 <_vfiprintf_r+0x850>
    a490:	01000c93          	li	s9,16
    a494:	80041917          	auipc	s2,0x80041
    a498:	76890913          	addi	s2,s2,1896 # 8004bbfc <__stack_top+0xfffd4dac>
    a49c:	00700d93          	li	s11,7
    a4a0:	03412783          	lw	a5,52(sp)
    a4a4:	01272023          	sw	s2,0(a4)
    a4a8:	03812683          	lw	a3,56(sp)
    a4ac:	00178793          	addi	a5,a5,1
    a4b0:	049cc263          	blt	s9,s1,a4f4 <_vfiprintf_r+0xc7c>
    a4b4:	00972223          	sw	s1,4(a4)
    a4b8:	00d484b3          	add	s1,s1,a3
    a4bc:	02912c23          	sw	s1,56(sp)
    a4c0:	02f12a23          	sw	a5,52(sp)
    a4c4:	00700713          	li	a4,7
    a4c8:	c0f750e3          	bge	a4,a5,a0c8 <_vfiprintf_r+0x850>
    a4cc:	03010613          	addi	a2,sp,48
    a4d0:	00040593          	mv	a1,s0
    a4d4:	00098513          	mv	a0,s3
    a4d8:	fffff097          	auipc	ra,0xfffff
    a4dc:	29c080e7          	jalr	668(ra) # 9774 <__sprint_r>
    a4e0:	be0504e3          	beqz	a0,a0c8 <_vfiprintf_r+0x850>
    a4e4:	00c45783          	lhu	a5,12(s0)
    a4e8:	0407f793          	andi	a5,a5,64
    a4ec:	c6078c63          	beqz	a5,9964 <_vfiprintf_r+0xec>
    a4f0:	c70ff06f          	j	9960 <_vfiprintf_r+0xe8>
    a4f4:	01068693          	addi	a3,a3,16
    a4f8:	01972223          	sw	s9,4(a4)
    a4fc:	02d12c23          	sw	a3,56(sp)
    a500:	02f12a23          	sw	a5,52(sp)
    a504:	00870713          	addi	a4,a4,8
    a508:	02fdd063          	bge	s11,a5,a528 <_vfiprintf_r+0xcb0>
    a50c:	03010613          	addi	a2,sp,48
    a510:	00040593          	mv	a1,s0
    a514:	00098513          	mv	a0,s3
    a518:	fffff097          	auipc	ra,0xfffff
    a51c:	25c080e7          	jalr	604(ra) # 9774 <__sprint_r>
    a520:	fc0512e3          	bnez	a0,a4e4 <_vfiprintf_r+0xc6c>
    a524:	000b0713          	mv	a4,s6
    a528:	ff048493          	addi	s1,s1,-16
    a52c:	f75ff06f          	j	a4a0 <_vfiprintf_r+0xc28>
    a530:	03812783          	lw	a5,56(sp)
    a534:	fa0788e3          	beqz	a5,a4e4 <_vfiprintf_r+0xc6c>
    a538:	03010613          	addi	a2,sp,48
    a53c:	00040593          	mv	a1,s0
    a540:	00098513          	mv	a0,s3
    a544:	fffff097          	auipc	ra,0xfffff
    a548:	230080e7          	jalr	560(ra) # 9774 <__sprint_r>
    a54c:	f99ff06f          	j	a4e4 <_vfiprintf_r+0xc6c>
    a550:	fff00693          	li	a3,-1
    a554:	c6d49ae3          	bne	s1,a3,a1c8 <_vfiprintf_r+0x950>
    a558:	ce0c94e3          	bnez	s9,a240 <_vfiprintf_r+0x9c8>
    a55c:	00900693          	li	a3,9
    a560:	cfb6e0e3          	bltu	a3,s11,a240 <_vfiprintf_r+0x9c8>
    a564:	030d8313          	addi	t1,s11,48
    a568:	0c610fa3          	sb	t1,223(sp)
    a56c:	0df10913          	addi	s2,sp,223
    a570:	cb9ff06f          	j	a228 <_vfiprintf_r+0x9b0>

0000a574 <vfiprintf>:
    a574:	80042797          	auipc	a5,0x80042
    a578:	6ec78793          	addi	a5,a5,1772 # 8004cc60 <__stack_top+0xfffd5e10>
    a57c:	00060693          	mv	a3,a2
    a580:	00058613          	mv	a2,a1
    a584:	00050593          	mv	a1,a0
    a588:	0007a503          	lw	a0,0(a5)
    a58c:	fffff317          	auipc	t1,0xfffff
    a590:	2ec30067          	jr	748(t1) # 9878 <_vfiprintf_r>

0000a594 <__sbprintf>:
    a594:	00c5d783          	lhu	a5,12(a1)
    a598:	b8010113          	addi	sp,sp,-1152
    a59c:	46812c23          	sw	s0,1144(sp)
    a5a0:	ffd7f793          	andi	a5,a5,-3
    a5a4:	00f11a23          	sh	a5,20(sp)
    a5a8:	0645a783          	lw	a5,100(a1)
    a5ac:	00058413          	mv	s0,a1
    a5b0:	46912a23          	sw	s1,1140(sp)
    a5b4:	06f12623          	sw	a5,108(sp)
    a5b8:	00e5d783          	lhu	a5,14(a1)
    a5bc:	47212823          	sw	s2,1136(sp)
    a5c0:	46112e23          	sw	ra,1148(sp)
    a5c4:	00f11b23          	sh	a5,22(sp)
    a5c8:	01c5a783          	lw	a5,28(a1)
    a5cc:	00050913          	mv	s2,a0
    a5d0:	02012023          	sw	zero,32(sp)
    a5d4:	02f12223          	sw	a5,36(sp)
    a5d8:	0245a783          	lw	a5,36(a1)
    a5dc:	00810593          	addi	a1,sp,8
    a5e0:	02f12623          	sw	a5,44(sp)
    a5e4:	07010793          	addi	a5,sp,112
    a5e8:	00f12423          	sw	a5,8(sp)
    a5ec:	00f12c23          	sw	a5,24(sp)
    a5f0:	40000793          	li	a5,1024
    a5f4:	00f12823          	sw	a5,16(sp)
    a5f8:	00f12e23          	sw	a5,28(sp)
    a5fc:	fffff097          	auipc	ra,0xfffff
    a600:	27c080e7          	jalr	636(ra) # 9878 <_vfiprintf_r>
    a604:	00050493          	mv	s1,a0
    a608:	00054e63          	bltz	a0,a624 <__sbprintf+0x90>
    a60c:	00810593          	addi	a1,sp,8
    a610:	00090513          	mv	a0,s2
    a614:	00000097          	auipc	ra,0x0
    a618:	60c080e7          	jalr	1548(ra) # ac20 <_fflush_r>
    a61c:	00050463          	beqz	a0,a624 <__sbprintf+0x90>
    a620:	fff00493          	li	s1,-1
    a624:	01415783          	lhu	a5,20(sp)
    a628:	0407f793          	andi	a5,a5,64
    a62c:	00078863          	beqz	a5,a63c <__sbprintf+0xa8>
    a630:	00c45783          	lhu	a5,12(s0)
    a634:	0407e793          	ori	a5,a5,64
    a638:	00f41623          	sh	a5,12(s0)
    a63c:	47c12083          	lw	ra,1148(sp)
    a640:	47812403          	lw	s0,1144(sp)
    a644:	00048513          	mv	a0,s1
    a648:	47012903          	lw	s2,1136(sp)
    a64c:	47412483          	lw	s1,1140(sp)
    a650:	48010113          	addi	sp,sp,1152
    a654:	00008067          	ret

0000a658 <_vsnprintf_r>:
    a658:	f8010113          	addi	sp,sp,-128
    a65c:	06812c23          	sw	s0,120(sp)
    a660:	06112e23          	sw	ra,124(sp)
    a664:	06912a23          	sw	s1,116(sp)
    a668:	00060413          	mv	s0,a2
    a66c:	02065263          	bgez	a2,a690 <_vsnprintf_r+0x38>
    a670:	08b00793          	li	a5,139
    a674:	00f52023          	sw	a5,0(a0)
    a678:	fff00513          	li	a0,-1
    a67c:	07c12083          	lw	ra,124(sp)
    a680:	07812403          	lw	s0,120(sp)
    a684:	07412483          	lw	s1,116(sp)
    a688:	08010113          	addi	sp,sp,128
    a68c:	00008067          	ret
    a690:	00068613          	mv	a2,a3
    a694:	20800693          	li	a3,520
    a698:	00b12423          	sw	a1,8(sp)
    a69c:	00b12c23          	sw	a1,24(sp)
    a6a0:	00d11a23          	sh	a3,20(sp)
    a6a4:	00000593          	li	a1,0
    a6a8:	00040463          	beqz	s0,a6b0 <_vsnprintf_r+0x58>
    a6ac:	fff40593          	addi	a1,s0,-1
    a6b0:	fff00793          	li	a5,-1
    a6b4:	00b12823          	sw	a1,16(sp)
    a6b8:	00b12e23          	sw	a1,28(sp)
    a6bc:	00070693          	mv	a3,a4
    a6c0:	00810593          	addi	a1,sp,8
    a6c4:	00f11b23          	sh	a5,22(sp)
    a6c8:	00050493          	mv	s1,a0
    a6cc:	ffffd097          	auipc	ra,0xffffd
    a6d0:	044080e7          	jalr	68(ra) # 7710 <_svfprintf_r>
    a6d4:	fff00793          	li	a5,-1
    a6d8:	00f55663          	bge	a0,a5,a6e4 <_vsnprintf_r+0x8c>
    a6dc:	08b00793          	li	a5,139
    a6e0:	00f4a023          	sw	a5,0(s1)
    a6e4:	f8040ce3          	beqz	s0,a67c <_vsnprintf_r+0x24>
    a6e8:	00812783          	lw	a5,8(sp)
    a6ec:	00078023          	sb	zero,0(a5)
    a6f0:	f8dff06f          	j	a67c <_vsnprintf_r+0x24>

0000a6f4 <vsnprintf>:
    a6f4:	80042797          	auipc	a5,0x80042
    a6f8:	56c78793          	addi	a5,a5,1388 # 8004cc60 <__stack_top+0xfffd5e10>
    a6fc:	00068713          	mv	a4,a3
    a700:	00060693          	mv	a3,a2
    a704:	00058613          	mv	a2,a1
    a708:	00050593          	mv	a1,a0
    a70c:	0007a503          	lw	a0,0(a5)
    a710:	00000317          	auipc	t1,0x0
    a714:	f4830067          	jr	-184(t1) # a658 <_vsnprintf_r>

0000a718 <__swbuf_r>:
    a718:	fe010113          	addi	sp,sp,-32
    a71c:	00812c23          	sw	s0,24(sp)
    a720:	00912a23          	sw	s1,20(sp)
    a724:	01212823          	sw	s2,16(sp)
    a728:	00112e23          	sw	ra,28(sp)
    a72c:	01312623          	sw	s3,12(sp)
    a730:	00050913          	mv	s2,a0
    a734:	00058493          	mv	s1,a1
    a738:	00060413          	mv	s0,a2
    a73c:	00050a63          	beqz	a0,a750 <__swbuf_r+0x38>
    a740:	03852783          	lw	a5,56(a0)
    a744:	00079663          	bnez	a5,a750 <__swbuf_r+0x38>
    a748:	00000097          	auipc	ra,0x0
    a74c:	6a4080e7          	jalr	1700(ra) # adec <__sinit>
    a750:	01842783          	lw	a5,24(s0)
    a754:	00f42423          	sw	a5,8(s0)
    a758:	00c45783          	lhu	a5,12(s0)
    a75c:	0087f793          	andi	a5,a5,8
    a760:	0a078c63          	beqz	a5,a818 <__swbuf_r+0x100>
    a764:	01042783          	lw	a5,16(s0)
    a768:	0a078863          	beqz	a5,a818 <__swbuf_r+0x100>
    a76c:	00c41783          	lh	a5,12(s0)
    a770:	0ff4f993          	zext.b	s3,s1
    a774:	0ff4f493          	zext.b	s1,s1
    a778:	01279713          	slli	a4,a5,0x12
    a77c:	0a075c63          	bgez	a4,a834 <__swbuf_r+0x11c>
    a780:	01042783          	lw	a5,16(s0)
    a784:	00042503          	lw	a0,0(s0)
    a788:	40f50533          	sub	a0,a0,a5
    a78c:	01442783          	lw	a5,20(s0)
    a790:	00f54c63          	blt	a0,a5,a7a8 <__swbuf_r+0x90>
    a794:	00040593          	mv	a1,s0
    a798:	00090513          	mv	a0,s2
    a79c:	00000097          	auipc	ra,0x0
    a7a0:	484080e7          	jalr	1156(ra) # ac20 <_fflush_r>
    a7a4:	08051463          	bnez	a0,a82c <__swbuf_r+0x114>
    a7a8:	00842783          	lw	a5,8(s0)
    a7ac:	00150513          	addi	a0,a0,1
    a7b0:	fff78793          	addi	a5,a5,-1
    a7b4:	00f42423          	sw	a5,8(s0)
    a7b8:	00042783          	lw	a5,0(s0)
    a7bc:	00178713          	addi	a4,a5,1
    a7c0:	00e42023          	sw	a4,0(s0)
    a7c4:	01378023          	sb	s3,0(a5)
    a7c8:	01442783          	lw	a5,20(s0)
    a7cc:	00a78c63          	beq	a5,a0,a7e4 <__swbuf_r+0xcc>
    a7d0:	00c45783          	lhu	a5,12(s0)
    a7d4:	0017f793          	andi	a5,a5,1
    a7d8:	02078063          	beqz	a5,a7f8 <__swbuf_r+0xe0>
    a7dc:	00a00793          	li	a5,10
    a7e0:	00f49c63          	bne	s1,a5,a7f8 <__swbuf_r+0xe0>
    a7e4:	00040593          	mv	a1,s0
    a7e8:	00090513          	mv	a0,s2
    a7ec:	00000097          	auipc	ra,0x0
    a7f0:	434080e7          	jalr	1076(ra) # ac20 <_fflush_r>
    a7f4:	02051c63          	bnez	a0,a82c <__swbuf_r+0x114>
    a7f8:	01c12083          	lw	ra,28(sp)
    a7fc:	01812403          	lw	s0,24(sp)
    a800:	00048513          	mv	a0,s1
    a804:	01012903          	lw	s2,16(sp)
    a808:	01412483          	lw	s1,20(sp)
    a80c:	00c12983          	lw	s3,12(sp)
    a810:	02010113          	addi	sp,sp,32
    a814:	00008067          	ret
    a818:	00040593          	mv	a1,s0
    a81c:	00090513          	mv	a0,s2
    a820:	00000097          	auipc	ra,0x0
    a824:	0ac080e7          	jalr	172(ra) # a8cc <__swsetup_r>
    a828:	f40502e3          	beqz	a0,a76c <__swbuf_r+0x54>
    a82c:	fff00493          	li	s1,-1
    a830:	fc9ff06f          	j	a7f8 <__swbuf_r+0xe0>
    a834:	00002737          	lui	a4,0x2
    a838:	00e7e7b3          	or	a5,a5,a4
    a83c:	00f41623          	sh	a5,12(s0)
    a840:	06442783          	lw	a5,100(s0)
    a844:	ffffe737          	lui	a4,0xffffe
    a848:	fff70713          	addi	a4,a4,-1 # ffffdfff <__stack_top+0x7ff871af>
    a84c:	00e7f7b3          	and	a5,a5,a4
    a850:	06f42223          	sw	a5,100(s0)
    a854:	f2dff06f          	j	a780 <__swbuf_r+0x68>

0000a858 <__swbuf>:
    a858:	80042797          	auipc	a5,0x80042
    a85c:	40878793          	addi	a5,a5,1032 # 8004cc60 <__stack_top+0xfffd5e10>
    a860:	00058613          	mv	a2,a1
    a864:	00050593          	mv	a1,a0
    a868:	0007a503          	lw	a0,0(a5)
    a86c:	00000317          	auipc	t1,0x0
    a870:	eac30067          	jr	-340(t1) # a718 <__swbuf_r>

0000a874 <_write_r>:
    a874:	ff010113          	addi	sp,sp,-16
    a878:	00812423          	sw	s0,8(sp)
    a87c:	00050413          	mv	s0,a0
    a880:	00058513          	mv	a0,a1
    a884:	00060593          	mv	a1,a2
    a888:	00068613          	mv	a2,a3
    a88c:	80042797          	auipc	a5,0x80042
    a890:	5c07a023          	sw	zero,1472(a5) # 8004ce4c <__stack_top+0xfffd5ffc>
    a894:	00112623          	sw	ra,12(sp)
    a898:	00006097          	auipc	ra,0x6
    a89c:	9f0080e7          	jalr	-1552(ra) # 10288 <_write>
    a8a0:	fff00793          	li	a5,-1
    a8a4:	00f51c63          	bne	a0,a5,a8bc <_write_r+0x48>
    a8a8:	80042797          	auipc	a5,0x80042
    a8ac:	5a478793          	addi	a5,a5,1444 # 8004ce4c <__stack_top+0xfffd5ffc>
    a8b0:	0007a783          	lw	a5,0(a5)
    a8b4:	00078463          	beqz	a5,a8bc <_write_r+0x48>
    a8b8:	00f42023          	sw	a5,0(s0)
    a8bc:	00c12083          	lw	ra,12(sp)
    a8c0:	00812403          	lw	s0,8(sp)
    a8c4:	01010113          	addi	sp,sp,16
    a8c8:	00008067          	ret

0000a8cc <__swsetup_r>:
    a8cc:	ff010113          	addi	sp,sp,-16
    a8d0:	80042797          	auipc	a5,0x80042
    a8d4:	39078793          	addi	a5,a5,912 # 8004cc60 <__stack_top+0xfffd5e10>
    a8d8:	00912223          	sw	s1,4(sp)
    a8dc:	00050493          	mv	s1,a0
    a8e0:	0007a503          	lw	a0,0(a5)
    a8e4:	00812423          	sw	s0,8(sp)
    a8e8:	00112623          	sw	ra,12(sp)
    a8ec:	00058413          	mv	s0,a1
    a8f0:	00050a63          	beqz	a0,a904 <__swsetup_r+0x38>
    a8f4:	03852783          	lw	a5,56(a0)
    a8f8:	00079663          	bnez	a5,a904 <__swsetup_r+0x38>
    a8fc:	00000097          	auipc	ra,0x0
    a900:	4f0080e7          	jalr	1264(ra) # adec <__sinit>
    a904:	00c41703          	lh	a4,12(s0)
    a908:	01071793          	slli	a5,a4,0x10
    a90c:	0107d793          	srli	a5,a5,0x10
    a910:	0087f693          	andi	a3,a5,8
    a914:	08069063          	bnez	a3,a994 <__swsetup_r+0xc8>
    a918:	0107f693          	andi	a3,a5,16
    a91c:	02069663          	bnez	a3,a948 <__swsetup_r+0x7c>
    a920:	00900793          	li	a5,9
    a924:	00f4a023          	sw	a5,0(s1)
    a928:	04076713          	ori	a4,a4,64
    a92c:	00e41623          	sh	a4,12(s0)
    a930:	fff00513          	li	a0,-1
    a934:	00c12083          	lw	ra,12(sp)
    a938:	00812403          	lw	s0,8(sp)
    a93c:	00412483          	lw	s1,4(sp)
    a940:	01010113          	addi	sp,sp,16
    a944:	00008067          	ret
    a948:	0047f793          	andi	a5,a5,4
    a94c:	02078e63          	beqz	a5,a988 <__swsetup_r+0xbc>
    a950:	03042583          	lw	a1,48(s0)
    a954:	00058e63          	beqz	a1,a970 <__swsetup_r+0xa4>
    a958:	04040793          	addi	a5,s0,64
    a95c:	00f58863          	beq	a1,a5,a96c <__swsetup_r+0xa0>
    a960:	00048513          	mv	a0,s1
    a964:	00001097          	auipc	ra,0x1
    a968:	94c080e7          	jalr	-1716(ra) # b2b0 <_free_r>
    a96c:	02042823          	sw	zero,48(s0)
    a970:	00c45783          	lhu	a5,12(s0)
    a974:	00042223          	sw	zero,4(s0)
    a978:	fdb7f793          	andi	a5,a5,-37
    a97c:	00f41623          	sh	a5,12(s0)
    a980:	01042783          	lw	a5,16(s0)
    a984:	00f42023          	sw	a5,0(s0)
    a988:	00c45783          	lhu	a5,12(s0)
    a98c:	0087e793          	ori	a5,a5,8
    a990:	00f41623          	sh	a5,12(s0)
    a994:	01042783          	lw	a5,16(s0)
    a998:	02079263          	bnez	a5,a9bc <__swsetup_r+0xf0>
    a99c:	00c45783          	lhu	a5,12(s0)
    a9a0:	20000713          	li	a4,512
    a9a4:	2807f793          	andi	a5,a5,640
    a9a8:	00e78a63          	beq	a5,a4,a9bc <__swsetup_r+0xf0>
    a9ac:	00040593          	mv	a1,s0
    a9b0:	00048513          	mv	a0,s1
    a9b4:	00003097          	auipc	ra,0x3
    a9b8:	110080e7          	jalr	272(ra) # dac4 <__smakebuf_r>
    a9bc:	00c45783          	lhu	a5,12(s0)
    a9c0:	0017f713          	andi	a4,a5,1
    a9c4:	02070c63          	beqz	a4,a9fc <__swsetup_r+0x130>
    a9c8:	01442783          	lw	a5,20(s0)
    a9cc:	00042423          	sw	zero,8(s0)
    a9d0:	40f007b3          	neg	a5,a5
    a9d4:	00f42c23          	sw	a5,24(s0)
    a9d8:	01042783          	lw	a5,16(s0)
    a9dc:	00000513          	li	a0,0
    a9e0:	f4079ae3          	bnez	a5,a934 <__swsetup_r+0x68>
    a9e4:	00c41783          	lh	a5,12(s0)
    a9e8:	0807f713          	andi	a4,a5,128
    a9ec:	f40704e3          	beqz	a4,a934 <__swsetup_r+0x68>
    a9f0:	0407e793          	ori	a5,a5,64
    a9f4:	00f41623          	sh	a5,12(s0)
    a9f8:	f39ff06f          	j	a930 <__swsetup_r+0x64>
    a9fc:	0027f793          	andi	a5,a5,2
    aa00:	00000713          	li	a4,0
    aa04:	00079463          	bnez	a5,aa0c <__swsetup_r+0x140>
    aa08:	01442703          	lw	a4,20(s0)
    aa0c:	00e42423          	sw	a4,8(s0)
    aa10:	fc9ff06f          	j	a9d8 <__swsetup_r+0x10c>

0000aa14 <__sflush_r>:
    aa14:	00c59783          	lh	a5,12(a1)
    aa18:	fe010113          	addi	sp,sp,-32
    aa1c:	00812c23          	sw	s0,24(sp)
    aa20:	01079713          	slli	a4,a5,0x10
    aa24:	01075713          	srli	a4,a4,0x10
    aa28:	00912a23          	sw	s1,20(sp)
    aa2c:	00112e23          	sw	ra,28(sp)
    aa30:	01212823          	sw	s2,16(sp)
    aa34:	01312623          	sw	s3,12(sp)
    aa38:	00877693          	andi	a3,a4,8
    aa3c:	00050493          	mv	s1,a0
    aa40:	00058413          	mv	s0,a1
    aa44:	16069e63          	bnez	a3,abc0 <__sflush_r+0x1ac>
    aa48:	00001737          	lui	a4,0x1
    aa4c:	80070713          	addi	a4,a4,-2048 # 800 <_ZN6tflite23MicroInterpreterContextC1EPNS_14MicroAllocatorEPKNS_5ModelEPNS_21MicroInterpreterGraphE+0x14>
    aa50:	00e7e7b3          	or	a5,a5,a4
    aa54:	0045a703          	lw	a4,4(a1)
    aa58:	00f59623          	sh	a5,12(a1)
    aa5c:	02e04663          	bgtz	a4,aa88 <__sflush_r+0x74>
    aa60:	03c5a703          	lw	a4,60(a1)
    aa64:	02e04263          	bgtz	a4,aa88 <__sflush_r+0x74>
    aa68:	00000513          	li	a0,0
    aa6c:	01c12083          	lw	ra,28(sp)
    aa70:	01812403          	lw	s0,24(sp)
    aa74:	01412483          	lw	s1,20(sp)
    aa78:	01012903          	lw	s2,16(sp)
    aa7c:	00c12983          	lw	s3,12(sp)
    aa80:	02010113          	addi	sp,sp,32
    aa84:	00008067          	ret
    aa88:	02842703          	lw	a4,40(s0)
    aa8c:	fc070ee3          	beqz	a4,aa68 <__sflush_r+0x54>
    aa90:	0004a903          	lw	s2,0(s1)
    aa94:	01379693          	slli	a3,a5,0x13
    aa98:	0004a023          	sw	zero,0(s1)
    aa9c:	0c06da63          	bgez	a3,ab70 <__sflush_r+0x15c>
    aaa0:	05042603          	lw	a2,80(s0)
    aaa4:	00c45783          	lhu	a5,12(s0)
    aaa8:	0047f793          	andi	a5,a5,4
    aaac:	00078e63          	beqz	a5,aac8 <__sflush_r+0xb4>
    aab0:	00442783          	lw	a5,4(s0)
    aab4:	40f60633          	sub	a2,a2,a5
    aab8:	03042783          	lw	a5,48(s0)
    aabc:	00078663          	beqz	a5,aac8 <__sflush_r+0xb4>
    aac0:	03c42783          	lw	a5,60(s0)
    aac4:	40f60633          	sub	a2,a2,a5
    aac8:	02842783          	lw	a5,40(s0)
    aacc:	01c42583          	lw	a1,28(s0)
    aad0:	00000693          	li	a3,0
    aad4:	00048513          	mv	a0,s1
    aad8:	000780e7          	jalr	a5
    aadc:	fff00793          	li	a5,-1
    aae0:	00c45683          	lhu	a3,12(s0)
    aae4:	02f51263          	bne	a0,a5,ab08 <__sflush_r+0xf4>
    aae8:	0004a783          	lw	a5,0(s1)
    aaec:	01d00713          	li	a4,29
    aaf0:	0cf76063          	bltu	a4,a5,abb0 <__sflush_r+0x19c>
    aaf4:	20400737          	lui	a4,0x20400
    aaf8:	00170713          	addi	a4,a4,1 # 20400001 <__trunctfdf2+0x203ec699>
    aafc:	00f75733          	srl	a4,a4,a5
    ab00:	00177713          	andi	a4,a4,1
    ab04:	0a070663          	beqz	a4,abb0 <__sflush_r+0x19c>
    ab08:	fffff7b7          	lui	a5,0xfffff
    ab0c:	7ff78793          	addi	a5,a5,2047 # fffff7ff <__stack_top+0x7ff889af>
    ab10:	01042703          	lw	a4,16(s0)
    ab14:	00d7f7b3          	and	a5,a5,a3
    ab18:	01079793          	slli	a5,a5,0x10
    ab1c:	4107d793          	srai	a5,a5,0x10
    ab20:	00e42023          	sw	a4,0(s0)
    ab24:	00f41623          	sh	a5,12(s0)
    ab28:	00042223          	sw	zero,4(s0)
    ab2c:	01379713          	slli	a4,a5,0x13
    ab30:	00075c63          	bgez	a4,ab48 <__sflush_r+0x134>
    ab34:	fff00793          	li	a5,-1
    ab38:	00f51663          	bne	a0,a5,ab44 <__sflush_r+0x130>
    ab3c:	0004a783          	lw	a5,0(s1)
    ab40:	00079463          	bnez	a5,ab48 <__sflush_r+0x134>
    ab44:	04a42823          	sw	a0,80(s0)
    ab48:	03042583          	lw	a1,48(s0)
    ab4c:	0124a023          	sw	s2,0(s1)
    ab50:	f0058ce3          	beqz	a1,aa68 <__sflush_r+0x54>
    ab54:	04040793          	addi	a5,s0,64
    ab58:	00f58863          	beq	a1,a5,ab68 <__sflush_r+0x154>
    ab5c:	00048513          	mv	a0,s1
    ab60:	00000097          	auipc	ra,0x0
    ab64:	750080e7          	jalr	1872(ra) # b2b0 <_free_r>
    ab68:	02042823          	sw	zero,48(s0)
    ab6c:	efdff06f          	j	aa68 <__sflush_r+0x54>
    ab70:	01c42583          	lw	a1,28(s0)
    ab74:	00000613          	li	a2,0
    ab78:	00100693          	li	a3,1
    ab7c:	00048513          	mv	a0,s1
    ab80:	000700e7          	jalr	a4
    ab84:	fff00793          	li	a5,-1
    ab88:	00050613          	mv	a2,a0
    ab8c:	f0f51ce3          	bne	a0,a5,aaa4 <__sflush_r+0x90>
    ab90:	0004a783          	lw	a5,0(s1)
    ab94:	f00788e3          	beqz	a5,aaa4 <__sflush_r+0x90>
    ab98:	01d00713          	li	a4,29
    ab9c:	00e78663          	beq	a5,a4,aba8 <__sflush_r+0x194>
    aba0:	01600713          	li	a4,22
    aba4:	06e79263          	bne	a5,a4,ac08 <__sflush_r+0x1f4>
    aba8:	0124a023          	sw	s2,0(s1)
    abac:	ebdff06f          	j	aa68 <__sflush_r+0x54>
    abb0:	0406e793          	ori	a5,a3,64
    abb4:	00f41623          	sh	a5,12(s0)
    abb8:	fff00513          	li	a0,-1
    abbc:	eb1ff06f          	j	aa6c <__sflush_r+0x58>
    abc0:	0105a983          	lw	s3,16(a1)
    abc4:	ea0982e3          	beqz	s3,aa68 <__sflush_r+0x54>
    abc8:	0005a903          	lw	s2,0(a1)
    abcc:	00377713          	andi	a4,a4,3
    abd0:	0135a023          	sw	s3,0(a1)
    abd4:	41390933          	sub	s2,s2,s3
    abd8:	00000793          	li	a5,0
    abdc:	00071463          	bnez	a4,abe4 <__sflush_r+0x1d0>
    abe0:	0145a783          	lw	a5,20(a1)
    abe4:	00f42423          	sw	a5,8(s0)
    abe8:	e92050e3          	blez	s2,aa68 <__sflush_r+0x54>
    abec:	02442783          	lw	a5,36(s0)
    abf0:	01c42583          	lw	a1,28(s0)
    abf4:	00090693          	mv	a3,s2
    abf8:	00098613          	mv	a2,s3
    abfc:	00048513          	mv	a0,s1
    ac00:	000780e7          	jalr	a5
    ac04:	00a04863          	bgtz	a0,ac14 <__sflush_r+0x200>
    ac08:	00c45783          	lhu	a5,12(s0)
    ac0c:	0407e793          	ori	a5,a5,64
    ac10:	fa5ff06f          	j	abb4 <__sflush_r+0x1a0>
    ac14:	00a989b3          	add	s3,s3,a0
    ac18:	40a90933          	sub	s2,s2,a0
    ac1c:	fcdff06f          	j	abe8 <__sflush_r+0x1d4>

0000ac20 <_fflush_r>:
    ac20:	fe010113          	addi	sp,sp,-32
    ac24:	00812c23          	sw	s0,24(sp)
    ac28:	00112e23          	sw	ra,28(sp)
    ac2c:	00050413          	mv	s0,a0
    ac30:	00050e63          	beqz	a0,ac4c <_fflush_r+0x2c>
    ac34:	03852783          	lw	a5,56(a0)
    ac38:	00079a63          	bnez	a5,ac4c <_fflush_r+0x2c>
    ac3c:	00b12623          	sw	a1,12(sp)
    ac40:	00000097          	auipc	ra,0x0
    ac44:	1ac080e7          	jalr	428(ra) # adec <__sinit>
    ac48:	00c12583          	lw	a1,12(sp)
    ac4c:	00c59783          	lh	a5,12(a1)
    ac50:	00078e63          	beqz	a5,ac6c <_fflush_r+0x4c>
    ac54:	00040513          	mv	a0,s0
    ac58:	01812403          	lw	s0,24(sp)
    ac5c:	01c12083          	lw	ra,28(sp)
    ac60:	02010113          	addi	sp,sp,32
    ac64:	00000317          	auipc	t1,0x0
    ac68:	db030067          	jr	-592(t1) # aa14 <__sflush_r>
    ac6c:	01c12083          	lw	ra,28(sp)
    ac70:	01812403          	lw	s0,24(sp)
    ac74:	00000513          	li	a0,0
    ac78:	02010113          	addi	sp,sp,32
    ac7c:	00008067          	ret

0000ac80 <fflush>:
    ac80:	00050593          	mv	a1,a0
    ac84:	02051063          	bnez	a0,aca4 <fflush+0x24>
    ac88:	80041797          	auipc	a5,0x80041
    ac8c:	62078793          	addi	a5,a5,1568 # 8004c2a8 <__stack_top+0xfffd5458>
    ac90:	0007a503          	lw	a0,0(a5)
    ac94:	00000597          	auipc	a1,0x0
    ac98:	f8c58593          	addi	a1,a1,-116 # ac20 <_fflush_r>
    ac9c:	00001317          	auipc	t1,0x1
    aca0:	93c30067          	jr	-1732(t1) # b5d8 <_fwalk_reent>
    aca4:	80042797          	auipc	a5,0x80042
    aca8:	fbc78793          	addi	a5,a5,-68 # 8004cc60 <__stack_top+0xfffd5e10>
    acac:	0007a503          	lw	a0,0(a5)
    acb0:	00000317          	auipc	t1,0x0
    acb4:	f7030067          	jr	-144(t1) # ac20 <_fflush_r>

0000acb8 <__fp_lock>:
    acb8:	00000513          	li	a0,0
    acbc:	00008067          	ret

0000acc0 <std>:
    acc0:	ff010113          	addi	sp,sp,-16
    acc4:	00812423          	sw	s0,8(sp)
    acc8:	00112623          	sw	ra,12(sp)
    accc:	00050413          	mv	s0,a0
    acd0:	00b51623          	sh	a1,12(a0)
    acd4:	00c51723          	sh	a2,14(a0)
    acd8:	00052023          	sw	zero,0(a0)
    acdc:	00052223          	sw	zero,4(a0)
    ace0:	00052423          	sw	zero,8(a0)
    ace4:	06052223          	sw	zero,100(a0)
    ace8:	00052823          	sw	zero,16(a0)
    acec:	00052a23          	sw	zero,20(a0)
    acf0:	00052c23          	sw	zero,24(a0)
    acf4:	00800613          	li	a2,8
    acf8:	00000593          	li	a1,0
    acfc:	05c50513          	addi	a0,a0,92
    ad00:	ffffc097          	auipc	ra,0xffffc
    ad04:	d9c080e7          	jalr	-612(ra) # 6a9c <memset>
    ad08:	00004797          	auipc	a5,0x4
    ad0c:	e2878793          	addi	a5,a5,-472 # eb30 <__sread>
    ad10:	02f42023          	sw	a5,32(s0)
    ad14:	00004797          	auipc	a5,0x4
    ad18:	e7878793          	addi	a5,a5,-392 # eb8c <__swrite>
    ad1c:	02f42223          	sw	a5,36(s0)
    ad20:	00004797          	auipc	a5,0x4
    ad24:	ef878793          	addi	a5,a5,-264 # ec18 <__sseek>
    ad28:	02f42423          	sw	a5,40(s0)
    ad2c:	00004797          	auipc	a5,0x4
    ad30:	f4878793          	addi	a5,a5,-184 # ec74 <__sclose>
    ad34:	00842e23          	sw	s0,28(s0)
    ad38:	02f42623          	sw	a5,44(s0)
    ad3c:	00c12083          	lw	ra,12(sp)
    ad40:	00812403          	lw	s0,8(sp)
    ad44:	01010113          	addi	sp,sp,16
    ad48:	00008067          	ret

0000ad4c <_cleanup_r>:
    ad4c:	00005597          	auipc	a1,0x5
    ad50:	fd858593          	addi	a1,a1,-40 # fd24 <_fclose_r>
    ad54:	00001317          	auipc	t1,0x1
    ad58:	88430067          	jr	-1916(t1) # b5d8 <_fwalk_reent>

0000ad5c <__fp_unlock>:
    ad5c:	00000513          	li	a0,0
    ad60:	00008067          	ret

0000ad64 <__sfmoreglue>:
    ad64:	ff010113          	addi	sp,sp,-16
    ad68:	00912223          	sw	s1,4(sp)
    ad6c:	06800613          	li	a2,104
    ad70:	fff58493          	addi	s1,a1,-1
    ad74:	02c484b3          	mul	s1,s1,a2
    ad78:	01212023          	sw	s2,0(sp)
    ad7c:	00058913          	mv	s2,a1
    ad80:	00812423          	sw	s0,8(sp)
    ad84:	00112623          	sw	ra,12(sp)
    ad88:	07448593          	addi	a1,s1,116
    ad8c:	ffffb097          	auipc	ra,0xffffb
    ad90:	4dc080e7          	jalr	1244(ra) # 6268 <_malloc_r>
    ad94:	00050413          	mv	s0,a0
    ad98:	02050263          	beqz	a0,adbc <__sfmoreglue+0x58>
    ad9c:	00052023          	sw	zero,0(a0)
    ada0:	01252223          	sw	s2,4(a0)
    ada4:	00c50513          	addi	a0,a0,12
    ada8:	00a42423          	sw	a0,8(s0)
    adac:	06848613          	addi	a2,s1,104
    adb0:	00000593          	li	a1,0
    adb4:	ffffc097          	auipc	ra,0xffffc
    adb8:	ce8080e7          	jalr	-792(ra) # 6a9c <memset>
    adbc:	00040513          	mv	a0,s0
    adc0:	00c12083          	lw	ra,12(sp)
    adc4:	00812403          	lw	s0,8(sp)
    adc8:	00412483          	lw	s1,4(sp)
    adcc:	00012903          	lw	s2,0(sp)
    add0:	01010113          	addi	sp,sp,16
    add4:	00008067          	ret

0000add8 <_cleanup>:
    add8:	80041797          	auipc	a5,0x80041
    addc:	4d078793          	addi	a5,a5,1232 # 8004c2a8 <__stack_top+0xfffd5458>
    ade0:	0007a503          	lw	a0,0(a5)
    ade4:	00000317          	auipc	t1,0x0
    ade8:	f6830067          	jr	-152(t1) # ad4c <_cleanup_r>

0000adec <__sinit>:
    adec:	03852783          	lw	a5,56(a0)
    adf0:	08079463          	bnez	a5,ae78 <__sinit+0x8c>
    adf4:	ff010113          	addi	sp,sp,-16
    adf8:	00112623          	sw	ra,12(sp)
    adfc:	00812423          	sw	s0,8(sp)
    ae00:	00000797          	auipc	a5,0x0
    ae04:	f4c78793          	addi	a5,a5,-180 # ad4c <_cleanup_r>
    ae08:	02f52e23          	sw	a5,60(a0)
    ae0c:	00300793          	li	a5,3
    ae10:	2ef52223          	sw	a5,740(a0)
    ae14:	2ec50793          	addi	a5,a0,748
    ae18:	00050413          	mv	s0,a0
    ae1c:	2ef52423          	sw	a5,744(a0)
    ae20:	2e052023          	sw	zero,736(a0)
    ae24:	00452503          	lw	a0,4(a0)
    ae28:	00000613          	li	a2,0
    ae2c:	00400593          	li	a1,4
    ae30:	00000097          	auipc	ra,0x0
    ae34:	e90080e7          	jalr	-368(ra) # acc0 <std>
    ae38:	00842503          	lw	a0,8(s0)
    ae3c:	00100613          	li	a2,1
    ae40:	00900593          	li	a1,9
    ae44:	00000097          	auipc	ra,0x0
    ae48:	e7c080e7          	jalr	-388(ra) # acc0 <std>
    ae4c:	00c42503          	lw	a0,12(s0)
    ae50:	00200613          	li	a2,2
    ae54:	01200593          	li	a1,18
    ae58:	00000097          	auipc	ra,0x0
    ae5c:	e68080e7          	jalr	-408(ra) # acc0 <std>
    ae60:	00100793          	li	a5,1
    ae64:	02f42c23          	sw	a5,56(s0)
    ae68:	00c12083          	lw	ra,12(sp)
    ae6c:	00812403          	lw	s0,8(sp)
    ae70:	01010113          	addi	sp,sp,16
    ae74:	00008067          	ret
    ae78:	00008067          	ret

0000ae7c <__sfp>:
    ae7c:	ff010113          	addi	sp,sp,-16
    ae80:	80041797          	auipc	a5,0x80041
    ae84:	42878793          	addi	a5,a5,1064 # 8004c2a8 <__stack_top+0xfffd5458>
    ae88:	00912223          	sw	s1,4(sp)
    ae8c:	0007a483          	lw	s1,0(a5)
    ae90:	01212023          	sw	s2,0(sp)
    ae94:	00112623          	sw	ra,12(sp)
    ae98:	0384a783          	lw	a5,56(s1)
    ae9c:	00812423          	sw	s0,8(sp)
    aea0:	00050913          	mv	s2,a0
    aea4:	00079863          	bnez	a5,aeb4 <__sfp+0x38>
    aea8:	00048513          	mv	a0,s1
    aeac:	00000097          	auipc	ra,0x0
    aeb0:	f40080e7          	jalr	-192(ra) # adec <__sinit>
    aeb4:	2e048493          	addi	s1,s1,736
    aeb8:	0084a403          	lw	s0,8(s1)
    aebc:	0044a783          	lw	a5,4(s1)
    aec0:	fff78793          	addi	a5,a5,-1
    aec4:	0007da63          	bgez	a5,aed8 <__sfp+0x5c>
    aec8:	0004a783          	lw	a5,0(s1)
    aecc:	08078263          	beqz	a5,af50 <__sfp+0xd4>
    aed0:	0004a483          	lw	s1,0(s1)
    aed4:	fe5ff06f          	j	aeb8 <__sfp+0x3c>
    aed8:	00c41703          	lh	a4,12(s0)
    aedc:	06071663          	bnez	a4,af48 <__sfp+0xcc>
    aee0:	ffff07b7          	lui	a5,0xffff0
    aee4:	00178793          	addi	a5,a5,1 # ffff0001 <__stack_top+0x7ff791b1>
    aee8:	06042223          	sw	zero,100(s0)
    aeec:	00042023          	sw	zero,0(s0)
    aef0:	00042223          	sw	zero,4(s0)
    aef4:	00042423          	sw	zero,8(s0)
    aef8:	00f42623          	sw	a5,12(s0)
    aefc:	00042823          	sw	zero,16(s0)
    af00:	00042a23          	sw	zero,20(s0)
    af04:	00042c23          	sw	zero,24(s0)
    af08:	00800613          	li	a2,8
    af0c:	00000593          	li	a1,0
    af10:	05c40513          	addi	a0,s0,92
    af14:	ffffc097          	auipc	ra,0xffffc
    af18:	b88080e7          	jalr	-1144(ra) # 6a9c <memset>
    af1c:	02042823          	sw	zero,48(s0)
    af20:	02042a23          	sw	zero,52(s0)
    af24:	04042223          	sw	zero,68(s0)
    af28:	04042423          	sw	zero,72(s0)
    af2c:	00040513          	mv	a0,s0
    af30:	00c12083          	lw	ra,12(sp)
    af34:	00812403          	lw	s0,8(sp)
    af38:	00412483          	lw	s1,4(sp)
    af3c:	00012903          	lw	s2,0(sp)
    af40:	01010113          	addi	sp,sp,16
    af44:	00008067          	ret
    af48:	06840413          	addi	s0,s0,104
    af4c:	f75ff06f          	j	aec0 <__sfp+0x44>
    af50:	00400593          	li	a1,4
    af54:	00090513          	mv	a0,s2
    af58:	00000097          	auipc	ra,0x0
    af5c:	e0c080e7          	jalr	-500(ra) # ad64 <__sfmoreglue>
    af60:	00a4a023          	sw	a0,0(s1)
    af64:	f60516e3          	bnez	a0,aed0 <__sfp+0x54>
    af68:	00c00793          	li	a5,12
    af6c:	00f92023          	sw	a5,0(s2)
    af70:	00000413          	li	s0,0
    af74:	fb9ff06f          	j	af2c <__sfp+0xb0>

0000af78 <__sfp_lock_acquire>:
    af78:	00008067          	ret

0000af7c <__sfp_lock_release>:
    af7c:	00008067          	ret

0000af80 <__sinit_lock_acquire>:
    af80:	00008067          	ret

0000af84 <__sinit_lock_release>:
    af84:	00008067          	ret

0000af88 <__fp_lock_all>:
    af88:	80042797          	auipc	a5,0x80042
    af8c:	cd878793          	addi	a5,a5,-808 # 8004cc60 <__stack_top+0xfffd5e10>
    af90:	0007a503          	lw	a0,0(a5)
    af94:	00000597          	auipc	a1,0x0
    af98:	d2458593          	addi	a1,a1,-732 # acb8 <__fp_lock>
    af9c:	00000317          	auipc	t1,0x0
    afa0:	59c30067          	jr	1436(t1) # b538 <_fwalk>

0000afa4 <__fp_unlock_all>:
    afa4:	80042797          	auipc	a5,0x80042
    afa8:	cbc78793          	addi	a5,a5,-836 # 8004cc60 <__stack_top+0xfffd5e10>
    afac:	0007a503          	lw	a0,0(a5)
    afb0:	00000597          	auipc	a1,0x0
    afb4:	dac58593          	addi	a1,a1,-596 # ad5c <__fp_unlock>
    afb8:	00000317          	auipc	t1,0x0
    afbc:	58030067          	jr	1408(t1) # b538 <_fwalk>

0000afc0 <__fputwc>:
    afc0:	fd010113          	addi	sp,sp,-48
    afc4:	02812423          	sw	s0,40(sp)
    afc8:	02912223          	sw	s1,36(sp)
    afcc:	01412c23          	sw	s4,24(sp)
    afd0:	02112623          	sw	ra,44(sp)
    afd4:	03212023          	sw	s2,32(sp)
    afd8:	01312e23          	sw	s3,28(sp)
    afdc:	01512a23          	sw	s5,20(sp)
    afe0:	01612823          	sw	s6,16(sp)
    afe4:	00050a13          	mv	s4,a0
    afe8:	00058493          	mv	s1,a1
    afec:	00060413          	mv	s0,a2
    aff0:	00003097          	auipc	ra,0x3
    aff4:	9c8080e7          	jalr	-1592(ra) # d9b8 <__locale_mb_cur_max>
    aff8:	00100793          	li	a5,1
    affc:	04f51a63          	bne	a0,a5,b050 <__fputwc+0x90>
    b000:	fff48793          	addi	a5,s1,-1
    b004:	0fe00713          	li	a4,254
    b008:	04f76463          	bltu	a4,a5,b050 <__fputwc+0x90>
    b00c:	00910623          	sb	s1,12(sp)
    b010:	00100993          	li	s3,1
    b014:	00000913          	li	s2,0
    b018:	fff00a93          	li	s5,-1
    b01c:	00a00b13          	li	s6,10
    b020:	07391463          	bne	s2,s3,b088 <__fputwc+0xc8>
    b024:	00048513          	mv	a0,s1
    b028:	02c12083          	lw	ra,44(sp)
    b02c:	02812403          	lw	s0,40(sp)
    b030:	02412483          	lw	s1,36(sp)
    b034:	02012903          	lw	s2,32(sp)
    b038:	01c12983          	lw	s3,28(sp)
    b03c:	01812a03          	lw	s4,24(sp)
    b040:	01412a83          	lw	s5,20(sp)
    b044:	01012b03          	lw	s6,16(sp)
    b048:	03010113          	addi	sp,sp,48
    b04c:	00008067          	ret
    b050:	05c40693          	addi	a3,s0,92
    b054:	00048613          	mv	a2,s1
    b058:	00c10593          	addi	a1,sp,12
    b05c:	000a0513          	mv	a0,s4
    b060:	00005097          	auipc	ra,0x5
    b064:	acc080e7          	jalr	-1332(ra) # fb2c <_wcrtomb_r>
    b068:	fff00793          	li	a5,-1
    b06c:	00050993          	mv	s3,a0
    b070:	faf512e3          	bne	a0,a5,b014 <__fputwc+0x54>
    b074:	00c45783          	lhu	a5,12(s0)
    b078:	0407e793          	ori	a5,a5,64
    b07c:	00f41623          	sh	a5,12(s0)
    b080:	fff00513          	li	a0,-1
    b084:	fa5ff06f          	j	b028 <__fputwc+0x68>
    b088:	00c10793          	addi	a5,sp,12
    b08c:	012787b3          	add	a5,a5,s2
    b090:	0007c583          	lbu	a1,0(a5)
    b094:	00842783          	lw	a5,8(s0)
    b098:	fff78793          	addi	a5,a5,-1
    b09c:	00f42423          	sw	a5,8(s0)
    b0a0:	0007d863          	bgez	a5,b0b0 <__fputwc+0xf0>
    b0a4:	01842703          	lw	a4,24(s0)
    b0a8:	02e7c063          	blt	a5,a4,b0c8 <__fputwc+0x108>
    b0ac:	01658e63          	beq	a1,s6,b0c8 <__fputwc+0x108>
    b0b0:	00042783          	lw	a5,0(s0)
    b0b4:	00178713          	addi	a4,a5,1
    b0b8:	00e42023          	sw	a4,0(s0)
    b0bc:	00b78023          	sb	a1,0(a5)
    b0c0:	00190913          	addi	s2,s2,1
    b0c4:	f5dff06f          	j	b020 <__fputwc+0x60>
    b0c8:	00040613          	mv	a2,s0
    b0cc:	000a0513          	mv	a0,s4
    b0d0:	fffff097          	auipc	ra,0xfffff
    b0d4:	648080e7          	jalr	1608(ra) # a718 <__swbuf_r>
    b0d8:	ff5514e3          	bne	a0,s5,b0c0 <__fputwc+0x100>
    b0dc:	fa5ff06f          	j	b080 <__fputwc+0xc0>

0000b0e0 <_fputwc_r>:
    b0e0:	00c61783          	lh	a5,12(a2)
    b0e4:	01279713          	slli	a4,a5,0x12
    b0e8:	02074063          	bltz	a4,b108 <_fputwc_r+0x28>
    b0ec:	06462703          	lw	a4,100(a2)
    b0f0:	000026b7          	lui	a3,0x2
    b0f4:	00d7e7b3          	or	a5,a5,a3
    b0f8:	00f61623          	sh	a5,12(a2)
    b0fc:	000027b7          	lui	a5,0x2
    b100:	00f767b3          	or	a5,a4,a5
    b104:	06f62223          	sw	a5,100(a2)
    b108:	00000317          	auipc	t1,0x0
    b10c:	eb830067          	jr	-328(t1) # afc0 <__fputwc>

0000b110 <fputwc>:
    b110:	fe010113          	addi	sp,sp,-32
    b114:	80042797          	auipc	a5,0x80042
    b118:	b4c78793          	addi	a5,a5,-1204 # 8004cc60 <__stack_top+0xfffd5e10>
    b11c:	00812c23          	sw	s0,24(sp)
    b120:	0007a403          	lw	s0,0(a5)
    b124:	00912a23          	sw	s1,20(sp)
    b128:	00112e23          	sw	ra,28(sp)
    b12c:	00050493          	mv	s1,a0
    b130:	00058613          	mv	a2,a1
    b134:	02040063          	beqz	s0,b154 <fputwc+0x44>
    b138:	03842783          	lw	a5,56(s0)
    b13c:	00079c63          	bnez	a5,b154 <fputwc+0x44>
    b140:	00040513          	mv	a0,s0
    b144:	00b12623          	sw	a1,12(sp)
    b148:	00000097          	auipc	ra,0x0
    b14c:	ca4080e7          	jalr	-860(ra) # adec <__sinit>
    b150:	00c12603          	lw	a2,12(sp)
    b154:	00040513          	mv	a0,s0
    b158:	01812403          	lw	s0,24(sp)
    b15c:	01c12083          	lw	ra,28(sp)
    b160:	00048593          	mv	a1,s1
    b164:	01412483          	lw	s1,20(sp)
    b168:	02010113          	addi	sp,sp,32
    b16c:	00000317          	auipc	t1,0x0
    b170:	f7430067          	jr	-140(t1) # b0e0 <_fputwc_r>

0000b174 <_malloc_trim_r>:
    b174:	fe010113          	addi	sp,sp,-32
    b178:	00812c23          	sw	s0,24(sp)
    b17c:	00912a23          	sw	s1,20(sp)
    b180:	01212823          	sw	s2,16(sp)
    b184:	01312623          	sw	s3,12(sp)
    b188:	00058413          	mv	s0,a1
    b18c:	00112e23          	sw	ra,28(sp)
    b190:	00050913          	mv	s2,a0
    b194:	80041997          	auipc	s3,0x80041
    b198:	55498993          	addi	s3,s3,1364 # 8004c6e8 <__stack_top+0xfffd5898>
    b19c:	ffffc097          	auipc	ra,0xffffc
    b1a0:	9dc080e7          	jalr	-1572(ra) # 6b78 <__malloc_lock>
    b1a4:	0089a783          	lw	a5,8(s3)
    b1a8:	00001737          	lui	a4,0x1
    b1ac:	0047a483          	lw	s1,4(a5)
    b1b0:	fef70793          	addi	a5,a4,-17 # fef <_ZN6tflite21MicroInterpreterGraph15ResetTensorDataEPKNS_6TensorEP16TfLiteEvalTensor+0x3f>
    b1b4:	40878433          	sub	s0,a5,s0
    b1b8:	ffc4f493          	andi	s1,s1,-4
    b1bc:	00940433          	add	s0,s0,s1
    b1c0:	00c45413          	srli	s0,s0,0xc
    b1c4:	fff40413          	addi	s0,s0,-1
    b1c8:	00c41413          	slli	s0,s0,0xc
    b1cc:	02e45863          	bge	s0,a4,b1fc <_malloc_trim_r+0x88>
    b1d0:	00090513          	mv	a0,s2
    b1d4:	ffffc097          	auipc	ra,0xffffc
    b1d8:	9a8080e7          	jalr	-1624(ra) # 6b7c <__malloc_unlock>
    b1dc:	00000513          	li	a0,0
    b1e0:	01c12083          	lw	ra,28(sp)
    b1e4:	01812403          	lw	s0,24(sp)
    b1e8:	01412483          	lw	s1,20(sp)
    b1ec:	01012903          	lw	s2,16(sp)
    b1f0:	00c12983          	lw	s3,12(sp)
    b1f4:	02010113          	addi	sp,sp,32
    b1f8:	00008067          	ret
    b1fc:	00000593          	li	a1,0
    b200:	00090513          	mv	a0,s2
    b204:	ffffc097          	auipc	ra,0xffffc
    b208:	efc080e7          	jalr	-260(ra) # 7100 <_sbrk_r>
    b20c:	0089a783          	lw	a5,8(s3)
    b210:	009787b3          	add	a5,a5,s1
    b214:	faf51ee3          	bne	a0,a5,b1d0 <_malloc_trim_r+0x5c>
    b218:	408005b3          	neg	a1,s0
    b21c:	00090513          	mv	a0,s2
    b220:	ffffc097          	auipc	ra,0xffffc
    b224:	ee0080e7          	jalr	-288(ra) # 7100 <_sbrk_r>
    b228:	fff00793          	li	a5,-1
    b22c:	04f51463          	bne	a0,a5,b274 <_malloc_trim_r+0x100>
    b230:	00000593          	li	a1,0
    b234:	00090513          	mv	a0,s2
    b238:	ffffc097          	auipc	ra,0xffffc
    b23c:	ec8080e7          	jalr	-312(ra) # 7100 <_sbrk_r>
    b240:	0089a703          	lw	a4,8(s3)
    b244:	00f00693          	li	a3,15
    b248:	40e507b3          	sub	a5,a0,a4
    b24c:	f8f6d2e3          	bge	a3,a5,b1d0 <_malloc_trim_r+0x5c>
    b250:	80042697          	auipc	a3,0x80042
    b254:	a1468693          	addi	a3,a3,-1516 # 8004cc64 <__stack_top+0xfffd5e14>
    b258:	0006a683          	lw	a3,0(a3)
    b25c:	0017e793          	ori	a5,a5,1
    b260:	00f72223          	sw	a5,4(a4)
    b264:	40d50533          	sub	a0,a0,a3
    b268:	80042697          	auipc	a3,0x80042
    b26c:	baa6ae23          	sw	a0,-1092(a3) # 8004ce24 <__stack_top+0xfffd5fd4>
    b270:	f61ff06f          	j	b1d0 <_malloc_trim_r+0x5c>
    b274:	0089a783          	lw	a5,8(s3)
    b278:	408484b3          	sub	s1,s1,s0
    b27c:	0014e493          	ori	s1,s1,1
    b280:	0097a223          	sw	s1,4(a5)
    b284:	80042797          	auipc	a5,0x80042
    b288:	ba078793          	addi	a5,a5,-1120 # 8004ce24 <__stack_top+0xfffd5fd4>
    b28c:	0007a783          	lw	a5,0(a5)
    b290:	00090513          	mv	a0,s2
    b294:	40878433          	sub	s0,a5,s0
    b298:	80042797          	auipc	a5,0x80042
    b29c:	b887a623          	sw	s0,-1140(a5) # 8004ce24 <__stack_top+0xfffd5fd4>
    b2a0:	ffffc097          	auipc	ra,0xffffc
    b2a4:	8dc080e7          	jalr	-1828(ra) # 6b7c <__malloc_unlock>
    b2a8:	00100513          	li	a0,1
    b2ac:	f35ff06f          	j	b1e0 <_malloc_trim_r+0x6c>

0000b2b0 <_free_r>:
    b2b0:	28058263          	beqz	a1,b534 <_free_r+0x284>
    b2b4:	ff010113          	addi	sp,sp,-16
    b2b8:	00812423          	sw	s0,8(sp)
    b2bc:	00912223          	sw	s1,4(sp)
    b2c0:	00050413          	mv	s0,a0
    b2c4:	00058493          	mv	s1,a1
    b2c8:	00112623          	sw	ra,12(sp)
    b2cc:	ffffc097          	auipc	ra,0xffffc
    b2d0:	8ac080e7          	jalr	-1876(ra) # 6b78 <__malloc_lock>
    b2d4:	ffc4a583          	lw	a1,-4(s1)
    b2d8:	ff848693          	addi	a3,s1,-8
    b2dc:	80041517          	auipc	a0,0x80041
    b2e0:	40c50513          	addi	a0,a0,1036 # 8004c6e8 <__stack_top+0xfffd5898>
    b2e4:	ffe5f793          	andi	a5,a1,-2
    b2e8:	00f68633          	add	a2,a3,a5
    b2ec:	00462703          	lw	a4,4(a2)
    b2f0:	00852803          	lw	a6,8(a0)
    b2f4:	0015f593          	andi	a1,a1,1
    b2f8:	ffc77713          	andi	a4,a4,-4
    b2fc:	06c81e63          	bne	a6,a2,b378 <_free_r+0xc8>
    b300:	00e787b3          	add	a5,a5,a4
    b304:	02059063          	bnez	a1,b324 <_free_r+0x74>
    b308:	ff84a703          	lw	a4,-8(s1)
    b30c:	40e686b3          	sub	a3,a3,a4
    b310:	0086a603          	lw	a2,8(a3)
    b314:	00e787b3          	add	a5,a5,a4
    b318:	00c6a703          	lw	a4,12(a3)
    b31c:	00e62623          	sw	a4,12(a2)
    b320:	00c72423          	sw	a2,8(a4)
    b324:	0017e713          	ori	a4,a5,1
    b328:	00e6a223          	sw	a4,4(a3)
    b32c:	80041717          	auipc	a4,0x80041
    b330:	3cd72223          	sw	a3,964(a4) # 8004c6f0 <__stack_top+0xfffd58a0>
    b334:	80042717          	auipc	a4,0x80042
    b338:	93470713          	addi	a4,a4,-1740 # 8004cc68 <__stack_top+0xfffd5e18>
    b33c:	00072703          	lw	a4,0(a4)
    b340:	00e7ee63          	bltu	a5,a4,b35c <_free_r+0xac>
    b344:	80042797          	auipc	a5,0x80042
    b348:	94478793          	addi	a5,a5,-1724 # 8004cc88 <__stack_top+0xfffd5e38>
    b34c:	0007a583          	lw	a1,0(a5)
    b350:	00040513          	mv	a0,s0
    b354:	00000097          	auipc	ra,0x0
    b358:	e20080e7          	jalr	-480(ra) # b174 <_malloc_trim_r>
    b35c:	00040513          	mv	a0,s0
    b360:	00812403          	lw	s0,8(sp)
    b364:	00c12083          	lw	ra,12(sp)
    b368:	00412483          	lw	s1,4(sp)
    b36c:	01010113          	addi	sp,sp,16
    b370:	ffffc317          	auipc	t1,0xffffc
    b374:	80c30067          	jr	-2036(t1) # 6b7c <__malloc_unlock>
    b378:	00e62223          	sw	a4,4(a2)
    b37c:	00000813          	li	a6,0
    b380:	02059663          	bnez	a1,b3ac <_free_r+0xfc>
    b384:	ff84a583          	lw	a1,-8(s1)
    b388:	80041897          	auipc	a7,0x80041
    b38c:	36888893          	addi	a7,a7,872 # 8004c6f0 <__stack_top+0xfffd58a0>
    b390:	40b686b3          	sub	a3,a3,a1
    b394:	00b787b3          	add	a5,a5,a1
    b398:	0086a583          	lw	a1,8(a3)
    b39c:	0b158c63          	beq	a1,a7,b454 <_free_r+0x1a4>
    b3a0:	00c6a883          	lw	a7,12(a3)
    b3a4:	0115a623          	sw	a7,12(a1)
    b3a8:	00b8a423          	sw	a1,8(a7)
    b3ac:	00e605b3          	add	a1,a2,a4
    b3b0:	0045a583          	lw	a1,4(a1)
    b3b4:	0015f593          	andi	a1,a1,1
    b3b8:	02059c63          	bnez	a1,b3f0 <_free_r+0x140>
    b3bc:	00e787b3          	add	a5,a5,a4
    b3c0:	00862703          	lw	a4,8(a2)
    b3c4:	08081c63          	bnez	a6,b45c <_free_r+0x1ac>
    b3c8:	80041597          	auipc	a1,0x80041
    b3cc:	32858593          	addi	a1,a1,808 # 8004c6f0 <__stack_top+0xfffd58a0>
    b3d0:	08b71663          	bne	a4,a1,b45c <_free_r+0x1ac>
    b3d4:	80041617          	auipc	a2,0x80041
    b3d8:	32d62423          	sw	a3,808(a2) # 8004c6fc <__stack_top+0xfffd58ac>
    b3dc:	80041617          	auipc	a2,0x80041
    b3e0:	30d62e23          	sw	a3,796(a2) # 8004c6f8 <__stack_top+0xfffd58a8>
    b3e4:	00e6a623          	sw	a4,12(a3)
    b3e8:	00e6a423          	sw	a4,8(a3)
    b3ec:	00100813          	li	a6,1
    b3f0:	0017e713          	ori	a4,a5,1
    b3f4:	00e6a223          	sw	a4,4(a3)
    b3f8:	00f68733          	add	a4,a3,a5
    b3fc:	00f72023          	sw	a5,0(a4)
    b400:	f4081ee3          	bnez	a6,b35c <_free_r+0xac>
    b404:	1ff00713          	li	a4,511
    b408:	06f76263          	bltu	a4,a5,b46c <_free_r+0x1bc>
    b40c:	0037d793          	srli	a5,a5,0x3
    b410:	4027d613          	srai	a2,a5,0x2
    b414:	00100713          	li	a4,1
    b418:	00c71733          	sll	a4,a4,a2
    b41c:	00452603          	lw	a2,4(a0)
    b420:	00178793          	addi	a5,a5,1
    b424:	00379793          	slli	a5,a5,0x3
    b428:	00c76733          	or	a4,a4,a2
    b42c:	00f507b3          	add	a5,a0,a5
    b430:	80041617          	auipc	a2,0x80041
    b434:	2ae62e23          	sw	a4,700(a2) # 8004c6ec <__stack_top+0xfffd589c>
    b438:	0007a703          	lw	a4,0(a5)
    b43c:	ff878613          	addi	a2,a5,-8
    b440:	00c6a623          	sw	a2,12(a3)
    b444:	00e6a423          	sw	a4,8(a3)
    b448:	00d7a023          	sw	a3,0(a5)
    b44c:	00d72623          	sw	a3,12(a4)
    b450:	f0dff06f          	j	b35c <_free_r+0xac>
    b454:	00100813          	li	a6,1
    b458:	f55ff06f          	j	b3ac <_free_r+0xfc>
    b45c:	00c62603          	lw	a2,12(a2)
    b460:	00c72623          	sw	a2,12(a4)
    b464:	00e62423          	sw	a4,8(a2)
    b468:	f89ff06f          	j	b3f0 <_free_r+0x140>
    b46c:	0097d613          	srli	a2,a5,0x9
    b470:	00400713          	li	a4,4
    b474:	04c76a63          	bltu	a4,a2,b4c8 <_free_r+0x218>
    b478:	0067d713          	srli	a4,a5,0x6
    b47c:	03870713          	addi	a4,a4,56
    b480:	00170613          	addi	a2,a4,1
    b484:	00361613          	slli	a2,a2,0x3
    b488:	00c50633          	add	a2,a0,a2
    b48c:	ff860593          	addi	a1,a2,-8
    b490:	00062603          	lw	a2,0(a2)
    b494:	08c59663          	bne	a1,a2,b520 <_free_r+0x270>
    b498:	00100793          	li	a5,1
    b49c:	40275713          	srai	a4,a4,0x2
    b4a0:	00e79733          	sll	a4,a5,a4
    b4a4:	00452783          	lw	a5,4(a0)
    b4a8:	00f76733          	or	a4,a4,a5
    b4ac:	80041797          	auipc	a5,0x80041
    b4b0:	24e7a023          	sw	a4,576(a5) # 8004c6ec <__stack_top+0xfffd589c>
    b4b4:	00b6a623          	sw	a1,12(a3)
    b4b8:	00c6a423          	sw	a2,8(a3)
    b4bc:	00d5a423          	sw	a3,8(a1)
    b4c0:	00d62623          	sw	a3,12(a2)
    b4c4:	e99ff06f          	j	b35c <_free_r+0xac>
    b4c8:	01400713          	li	a4,20
    b4cc:	00c76663          	bltu	a4,a2,b4d8 <_free_r+0x228>
    b4d0:	05b60713          	addi	a4,a2,91
    b4d4:	fadff06f          	j	b480 <_free_r+0x1d0>
    b4d8:	05400713          	li	a4,84
    b4dc:	00c76863          	bltu	a4,a2,b4ec <_free_r+0x23c>
    b4e0:	00c7d713          	srli	a4,a5,0xc
    b4e4:	06e70713          	addi	a4,a4,110
    b4e8:	f99ff06f          	j	b480 <_free_r+0x1d0>
    b4ec:	15400713          	li	a4,340
    b4f0:	00c76863          	bltu	a4,a2,b500 <_free_r+0x250>
    b4f4:	00f7d713          	srli	a4,a5,0xf
    b4f8:	07770713          	addi	a4,a4,119
    b4fc:	f85ff06f          	j	b480 <_free_r+0x1d0>
    b500:	55400593          	li	a1,1364
    b504:	07e00713          	li	a4,126
    b508:	f6c5ece3          	bltu	a1,a2,b480 <_free_r+0x1d0>
    b50c:	0127d713          	srli	a4,a5,0x12
    b510:	07c70713          	addi	a4,a4,124
    b514:	f6dff06f          	j	b480 <_free_r+0x1d0>
    b518:	00862603          	lw	a2,8(a2)
    b51c:	00c58863          	beq	a1,a2,b52c <_free_r+0x27c>
    b520:	00462703          	lw	a4,4(a2)
    b524:	ffc77713          	andi	a4,a4,-4
    b528:	fee7e8e3          	bltu	a5,a4,b518 <_free_r+0x268>
    b52c:	00c62583          	lw	a1,12(a2)
    b530:	f85ff06f          	j	b4b4 <_free_r+0x204>
    b534:	00008067          	ret

0000b538 <_fwalk>:
    b538:	fd010113          	addi	sp,sp,-48
    b53c:	02812423          	sw	s0,40(sp)
    b540:	03212023          	sw	s2,32(sp)
    b544:	01412c23          	sw	s4,24(sp)
    b548:	01512a23          	sw	s5,20(sp)
    b54c:	02112623          	sw	ra,44(sp)
    b550:	02912223          	sw	s1,36(sp)
    b554:	01312e23          	sw	s3,28(sp)
    b558:	2e050413          	addi	s0,a0,736
    b55c:	00000913          	li	s2,0
    b560:	00100a13          	li	s4,1
    b564:	fff00a93          	li	s5,-1
    b568:	02041663          	bnez	s0,b594 <_fwalk+0x5c>
    b56c:	02c12083          	lw	ra,44(sp)
    b570:	02812403          	lw	s0,40(sp)
    b574:	00090513          	mv	a0,s2
    b578:	02412483          	lw	s1,36(sp)
    b57c:	02012903          	lw	s2,32(sp)
    b580:	01c12983          	lw	s3,28(sp)
    b584:	01812a03          	lw	s4,24(sp)
    b588:	01412a83          	lw	s5,20(sp)
    b58c:	03010113          	addi	sp,sp,48
    b590:	00008067          	ret
    b594:	00842483          	lw	s1,8(s0)
    b598:	00442983          	lw	s3,4(s0)
    b59c:	fff98993          	addi	s3,s3,-1
    b5a0:	0009d663          	bgez	s3,b5ac <_fwalk+0x74>
    b5a4:	00042403          	lw	s0,0(s0)
    b5a8:	fc1ff06f          	j	b568 <_fwalk+0x30>
    b5ac:	00c4d783          	lhu	a5,12(s1)
    b5b0:	02fa7063          	bgeu	s4,a5,b5d0 <_fwalk+0x98>
    b5b4:	00e49783          	lh	a5,14(s1)
    b5b8:	01578c63          	beq	a5,s5,b5d0 <_fwalk+0x98>
    b5bc:	00048513          	mv	a0,s1
    b5c0:	00b12623          	sw	a1,12(sp)
    b5c4:	000580e7          	jalr	a1
    b5c8:	00c12583          	lw	a1,12(sp)
    b5cc:	00a96933          	or	s2,s2,a0
    b5d0:	06848493          	addi	s1,s1,104
    b5d4:	fc9ff06f          	j	b59c <_fwalk+0x64>

0000b5d8 <_fwalk_reent>:
    b5d8:	fd010113          	addi	sp,sp,-48
    b5dc:	02812423          	sw	s0,40(sp)
    b5e0:	03212023          	sw	s2,32(sp)
    b5e4:	01412c23          	sw	s4,24(sp)
    b5e8:	01512a23          	sw	s5,20(sp)
    b5ec:	01612823          	sw	s6,16(sp)
    b5f0:	01712623          	sw	s7,12(sp)
    b5f4:	02112623          	sw	ra,44(sp)
    b5f8:	02912223          	sw	s1,36(sp)
    b5fc:	01312e23          	sw	s3,28(sp)
    b600:	00050a13          	mv	s4,a0
    b604:	00058a93          	mv	s5,a1
    b608:	2e050413          	addi	s0,a0,736
    b60c:	00000913          	li	s2,0
    b610:	00100b13          	li	s6,1
    b614:	fff00b93          	li	s7,-1
    b618:	02041a63          	bnez	s0,b64c <_fwalk_reent+0x74>
    b61c:	02c12083          	lw	ra,44(sp)
    b620:	02812403          	lw	s0,40(sp)
    b624:	00090513          	mv	a0,s2
    b628:	02412483          	lw	s1,36(sp)
    b62c:	02012903          	lw	s2,32(sp)
    b630:	01c12983          	lw	s3,28(sp)
    b634:	01812a03          	lw	s4,24(sp)
    b638:	01412a83          	lw	s5,20(sp)
    b63c:	01012b03          	lw	s6,16(sp)
    b640:	00c12b83          	lw	s7,12(sp)
    b644:	03010113          	addi	sp,sp,48
    b648:	00008067          	ret
    b64c:	00842483          	lw	s1,8(s0)
    b650:	00442983          	lw	s3,4(s0)
    b654:	fff98993          	addi	s3,s3,-1
    b658:	0009d663          	bgez	s3,b664 <_fwalk_reent+0x8c>
    b65c:	00042403          	lw	s0,0(s0)
    b660:	fb9ff06f          	j	b618 <_fwalk_reent+0x40>
    b664:	00c4d783          	lhu	a5,12(s1)
    b668:	00fb7e63          	bgeu	s6,a5,b684 <_fwalk_reent+0xac>
    b66c:	00e49783          	lh	a5,14(s1)
    b670:	01778a63          	beq	a5,s7,b684 <_fwalk_reent+0xac>
    b674:	00048593          	mv	a1,s1
    b678:	000a0513          	mv	a0,s4
    b67c:	000a80e7          	jalr	s5
    b680:	00a96933          	or	s2,s2,a0
    b684:	06848493          	addi	s1,s1,104
    b688:	fcdff06f          	j	b654 <_fwalk_reent+0x7c>

0000b68c <eclear>:
    b68c:	01450793          	addi	a5,a0,20
    b690:	00250513          	addi	a0,a0,2
    b694:	fe051f23          	sh	zero,-2(a0)
    b698:	fef51ce3          	bne	a0,a5,b690 <eclear+0x4>
    b69c:	00008067          	ret

0000b6a0 <emov>:
    b6a0:	00000793          	li	a5,0
    b6a4:	01400713          	li	a4,20
    b6a8:	00f506b3          	add	a3,a0,a5
    b6ac:	0006d603          	lhu	a2,0(a3)
    b6b0:	00f586b3          	add	a3,a1,a5
    b6b4:	00278793          	addi	a5,a5,2
    b6b8:	00c69023          	sh	a2,0(a3)
    b6bc:	fee796e3          	bne	a5,a4,b6a8 <emov+0x8>
    b6c0:	00008067          	ret

0000b6c4 <ecleaz>:
    b6c4:	01a50793          	addi	a5,a0,26
    b6c8:	00250513          	addi	a0,a0,2
    b6cc:	fe051f23          	sh	zero,-2(a0)
    b6d0:	fef51ce3          	bne	a0,a5,b6c8 <ecleaz+0x4>
    b6d4:	00008067          	ret

0000b6d8 <emovz>:
    b6d8:	00000793          	li	a5,0
    b6dc:	01800713          	li	a4,24
    b6e0:	00f506b3          	add	a3,a0,a5
    b6e4:	0006d603          	lhu	a2,0(a3)
    b6e8:	00f586b3          	add	a3,a1,a5
    b6ec:	00278793          	addi	a5,a5,2
    b6f0:	00c69023          	sh	a2,0(a3)
    b6f4:	fee796e3          	bne	a5,a4,b6e0 <emovz+0x8>
    b6f8:	00059c23          	sh	zero,24(a1)
    b6fc:	00008067          	ret

0000b700 <ecmpm>:
    b700:	00400793          	li	a5,4
    b704:	01a00613          	li	a2,26
    b708:	00f50733          	add	a4,a0,a5
    b70c:	00075683          	lhu	a3,0(a4)
    b710:	00f58733          	add	a4,a1,a5
    b714:	00075703          	lhu	a4,0(a4)
    b718:	00e68a63          	beq	a3,a4,b72c <ecmpm+0x2c>
    b71c:	00100513          	li	a0,1
    b720:	00d76c63          	bltu	a4,a3,b738 <ecmpm+0x38>
    b724:	fff00513          	li	a0,-1
    b728:	00008067          	ret
    b72c:	00278793          	addi	a5,a5,2
    b730:	fcc79ce3          	bne	a5,a2,b708 <ecmpm+0x8>
    b734:	00000513          	li	a0,0
    b738:	00008067          	ret

0000b73c <eshdn1>:
    b73c:	00450693          	addi	a3,a0,4
    b740:	00000793          	li	a5,0
    b744:	01a50513          	addi	a0,a0,26
    b748:	ffff8637          	lui	a2,0xffff8
    b74c:	0006d703          	lhu	a4,0(a3)
    b750:	00177593          	andi	a1,a4,1
    b754:	00058463          	beqz	a1,b75c <eshdn1+0x20>
    b758:	0017e793          	ori	a5,a5,1
    b75c:	0027f593          	andi	a1,a5,2
    b760:	00175713          	srli	a4,a4,0x1
    b764:	02059063          	bnez	a1,b784 <eshdn1+0x48>
    b768:	00179793          	slli	a5,a5,0x1
    b76c:	00e69023          	sh	a4,0(a3)
    b770:	01079793          	slli	a5,a5,0x10
    b774:	00268693          	addi	a3,a3,2
    b778:	0107d793          	srli	a5,a5,0x10
    b77c:	fcd518e3          	bne	a0,a3,b74c <eshdn1+0x10>
    b780:	00008067          	ret
    b784:	00c76733          	or	a4,a4,a2
    b788:	fe1ff06f          	j	b768 <eshdn1+0x2c>

0000b78c <eshup1>:
    b78c:	01650693          	addi	a3,a0,22
    b790:	00000713          	li	a4,0
    b794:	0026d783          	lhu	a5,2(a3)
    b798:	01079613          	slli	a2,a5,0x10
    b79c:	41065613          	srai	a2,a2,0x10
    b7a0:	00065463          	bgez	a2,b7a8 <eshup1+0x1c>
    b7a4:	00176713          	ori	a4,a4,1
    b7a8:	00179793          	slli	a5,a5,0x1
    b7ac:	01079793          	slli	a5,a5,0x10
    b7b0:	00277613          	andi	a2,a4,2
    b7b4:	0107d793          	srli	a5,a5,0x10
    b7b8:	02061063          	bnez	a2,b7d8 <eshup1+0x4c>
    b7bc:	00171713          	slli	a4,a4,0x1
    b7c0:	00f69123          	sh	a5,2(a3)
    b7c4:	01071713          	slli	a4,a4,0x10
    b7c8:	ffe68693          	addi	a3,a3,-2
    b7cc:	01075713          	srli	a4,a4,0x10
    b7d0:	fcd512e3          	bne	a0,a3,b794 <eshup1+0x8>
    b7d4:	00008067          	ret
    b7d8:	0017e793          	ori	a5,a5,1
    b7dc:	fe1ff06f          	j	b7bc <eshup1+0x30>

0000b7e0 <eshdn8>:
    b7e0:	00450793          	addi	a5,a0,4
    b7e4:	00000713          	li	a4,0
    b7e8:	01a50513          	addi	a0,a0,26
    b7ec:	0007d683          	lhu	a3,0(a5)
    b7f0:	00278793          	addi	a5,a5,2
    b7f4:	0086d613          	srli	a2,a3,0x8
    b7f8:	00c76733          	or	a4,a4,a2
    b7fc:	fee79f23          	sh	a4,-2(a5)
    b800:	00869713          	slli	a4,a3,0x8
    b804:	01071713          	slli	a4,a4,0x10
    b808:	01075713          	srli	a4,a4,0x10
    b80c:	fef510e3          	bne	a0,a5,b7ec <eshdn8+0xc>
    b810:	00008067          	ret

0000b814 <eshup8>:
    b814:	01650793          	addi	a5,a0,22
    b818:	00000713          	li	a4,0
    b81c:	0027d683          	lhu	a3,2(a5)
    b820:	ffe78793          	addi	a5,a5,-2
    b824:	00869613          	slli	a2,a3,0x8
    b828:	00c76733          	or	a4,a4,a2
    b82c:	00e79223          	sh	a4,4(a5)
    b830:	0086d713          	srli	a4,a3,0x8
    b834:	fef514e3          	bne	a0,a5,b81c <eshup8+0x8>
    b838:	00008067          	ret

0000b83c <eshup6>:
    b83c:	00450793          	addi	a5,a0,4
    b840:	01850713          	addi	a4,a0,24
    b844:	00278793          	addi	a5,a5,2
    b848:	0007d683          	lhu	a3,0(a5)
    b84c:	fed79f23          	sh	a3,-2(a5)
    b850:	fef71ae3          	bne	a4,a5,b844 <eshup6+0x8>
    b854:	00051c23          	sh	zero,24(a0)
    b858:	00008067          	ret

0000b85c <eshdn6>:
    b85c:	01850793          	addi	a5,a0,24
    b860:	00450713          	addi	a4,a0,4
    b864:	ffe78793          	addi	a5,a5,-2
    b868:	0007d683          	lhu	a3,0(a5)
    b86c:	00d79123          	sh	a3,2(a5)
    b870:	fef71ae3          	bne	a4,a5,b864 <eshdn6+0x8>
    b874:	00051223          	sh	zero,4(a0)
    b878:	00008067          	ret

0000b87c <eaddm>:
    b87c:	01858593          	addi	a1,a1,24
    b880:	01650713          	addi	a4,a0,22
    b884:	00000693          	li	a3,0
    b888:	00275783          	lhu	a5,2(a4)
    b88c:	0005d603          	lhu	a2,0(a1)
    b890:	ffe70713          	addi	a4,a4,-2
    b894:	ffe58593          	addi	a1,a1,-2
    b898:	00c787b3          	add	a5,a5,a2
    b89c:	00d787b3          	add	a5,a5,a3
    b8a0:	00f59123          	sh	a5,2(a1)
    b8a4:	0107d793          	srli	a5,a5,0x10
    b8a8:	0017f693          	andi	a3,a5,1
    b8ac:	fce51ee3          	bne	a0,a4,b888 <eaddm+0xc>
    b8b0:	00008067          	ret

0000b8b4 <esubm>:
    b8b4:	01858593          	addi	a1,a1,24
    b8b8:	01650713          	addi	a4,a0,22
    b8bc:	00000693          	li	a3,0
    b8c0:	0005d783          	lhu	a5,0(a1)
    b8c4:	ffe70713          	addi	a4,a4,-2
    b8c8:	ffe58593          	addi	a1,a1,-2
    b8cc:	40d787b3          	sub	a5,a5,a3
    b8d0:	00475683          	lhu	a3,4(a4)
    b8d4:	40d787b3          	sub	a5,a5,a3
    b8d8:	00f59123          	sh	a5,2(a1)
    b8dc:	0107d793          	srli	a5,a5,0x10
    b8e0:	0017f693          	andi	a3,a5,1
    b8e4:	fce51ee3          	bne	a0,a4,b8c0 <esubm+0xc>
    b8e8:	00008067          	ret

0000b8ec <m16m>:
    b8ec:	fe010113          	addi	sp,sp,-32
    b8f0:	00010337          	lui	t1,0x10
    b8f4:	01858893          	addi	a7,a1,24
    b8f8:	00011d23          	sh	zero,26(sp)
    b8fc:	00011e23          	sh	zero,28(sp)
    b900:	00458593          	addi	a1,a1,4
    b904:	01c10693          	addi	a3,sp,28
    b908:	fff30313          	addi	t1,t1,-1 # ffff <_exit+0x1f>
    b90c:	0008d703          	lhu	a4,0(a7)
    b910:	ffe68693          	addi	a3,a3,-2
    b914:	ffe88893          	addi	a7,a7,-2
    b918:	02071c63          	bnez	a4,b950 <m16m+0x64>
    b91c:	fe069f23          	sh	zero,-2(a3)
    b920:	ff1596e3          	bne	a1,a7,b90c <m16m+0x20>
    b924:	00400793          	li	a5,4
    b928:	01a00713          	li	a4,26
    b92c:	00410593          	addi	a1,sp,4
    b930:	00f585b3          	add	a1,a1,a5
    b934:	0005d583          	lhu	a1,0(a1)
    b938:	00f606b3          	add	a3,a2,a5
    b93c:	00278793          	addi	a5,a5,2
    b940:	00b69023          	sh	a1,0(a3)
    b944:	fee794e3          	bne	a5,a4,b92c <m16m+0x40>
    b948:	02010113          	addi	sp,sp,32
    b94c:	00008067          	ret
    b950:	02a70733          	mul	a4,a4,a0
    b954:	0026d803          	lhu	a6,2(a3)
    b958:	006777b3          	and	a5,a4,t1
    b95c:	010787b3          	add	a5,a5,a6
    b960:	0107d813          	srli	a6,a5,0x10
    b964:	00f69123          	sh	a5,2(a3)
    b968:	01075793          	srli	a5,a4,0x10
    b96c:	0006d703          	lhu	a4,0(a3)
    b970:	00e787b3          	add	a5,a5,a4
    b974:	010787b3          	add	a5,a5,a6
    b978:	00f69023          	sh	a5,0(a3)
    b97c:	0107d793          	srli	a5,a5,0x10
    b980:	fef69f23          	sh	a5,-2(a3)
    b984:	f9dff06f          	j	b920 <m16m+0x34>

0000b988 <eisnan>:
    b988:	01255783          	lhu	a5,18(a0)
    b98c:	fff7c793          	not	a5,a5
    b990:	01179713          	slli	a4,a5,0x11
    b994:	00071c63          	bnez	a4,b9ac <eisnan+0x24>
    b998:	01250793          	addi	a5,a0,18
    b99c:	00250513          	addi	a0,a0,2
    b9a0:	ffe55703          	lhu	a4,-2(a0)
    b9a4:	00071863          	bnez	a4,b9b4 <eisnan+0x2c>
    b9a8:	fea79ae3          	bne	a5,a0,b99c <eisnan+0x14>
    b9ac:	00000513          	li	a0,0
    b9b0:	00008067          	ret
    b9b4:	00100513          	li	a0,1
    b9b8:	00008067          	ret

0000b9bc <eisneg>:
    b9bc:	ff010113          	addi	sp,sp,-16
    b9c0:	00812423          	sw	s0,8(sp)
    b9c4:	00112623          	sw	ra,12(sp)
    b9c8:	00050413          	mv	s0,a0
    b9cc:	00000097          	auipc	ra,0x0
    b9d0:	fbc080e7          	jalr	-68(ra) # b988 <eisnan>
    b9d4:	00051e63          	bnez	a0,b9f0 <eisneg+0x34>
    b9d8:	01241503          	lh	a0,18(s0)
    b9dc:	01f55513          	srli	a0,a0,0x1f
    b9e0:	00c12083          	lw	ra,12(sp)
    b9e4:	00812403          	lw	s0,8(sp)
    b9e8:	01010113          	addi	sp,sp,16
    b9ec:	00008067          	ret
    b9f0:	00000513          	li	a0,0
    b9f4:	fedff06f          	j	b9e0 <eisneg+0x24>

0000b9f8 <emovi>:
    b9f8:	01251783          	lh	a5,18(a0)
    b9fc:	ff010113          	addi	sp,sp,-16
    ba00:	00112623          	sw	ra,12(sp)
    ba04:	00812423          	sw	s0,8(sp)
    ba08:	00912223          	sw	s1,4(sp)
    ba0c:	01212023          	sw	s2,0(sp)
    ba10:	0607da63          	bgez	a5,ba84 <emovi+0x8c>
    ba14:	fff00793          	li	a5,-1
    ba18:	00f59023          	sh	a5,0(a1)
    ba1c:	01255703          	lhu	a4,18(a0)
    ba20:	000087b7          	lui	a5,0x8
    ba24:	fff78793          	addi	a5,a5,-1 # 7fff <_svfprintf_r+0x8ef>
    ba28:	00e7f733          	and	a4,a5,a4
    ba2c:	00e59123          	sh	a4,2(a1)
    ba30:	01050913          	addi	s2,a0,16
    ba34:	06f71863          	bne	a4,a5,baa4 <emovi+0xac>
    ba38:	00058413          	mv	s0,a1
    ba3c:	00050493          	mv	s1,a0
    ba40:	00000097          	auipc	ra,0x0
    ba44:	f48080e7          	jalr	-184(ra) # b988 <eisnan>
    ba48:	04050263          	beqz	a0,ba8c <emovi+0x94>
    ba4c:	00640793          	addi	a5,s0,6
    ba50:	00041223          	sh	zero,4(s0)
    ba54:	ffc48513          	addi	a0,s1,-4
    ba58:	ffe90913          	addi	s2,s2,-2
    ba5c:	00295703          	lhu	a4,2(s2)
    ba60:	00278793          	addi	a5,a5,2
    ba64:	fee79f23          	sh	a4,-2(a5)
    ba68:	fea918e3          	bne	s2,a0,ba58 <emovi+0x60>
    ba6c:	00c12083          	lw	ra,12(sp)
    ba70:	00812403          	lw	s0,8(sp)
    ba74:	00412483          	lw	s1,4(sp)
    ba78:	00012903          	lw	s2,0(sp)
    ba7c:	01010113          	addi	sp,sp,16
    ba80:	00008067          	ret
    ba84:	00059023          	sh	zero,0(a1)
    ba88:	f95ff06f          	j	ba1c <emovi+0x24>
    ba8c:	00440793          	addi	a5,s0,4
    ba90:	01a40593          	addi	a1,s0,26
    ba94:	00278793          	addi	a5,a5,2
    ba98:	fe079f23          	sh	zero,-2(a5)
    ba9c:	feb79ce3          	bne	a5,a1,ba94 <emovi+0x9c>
    baa0:	fcdff06f          	j	ba6c <emovi+0x74>
    baa4:	00658793          	addi	a5,a1,6
    baa8:	00059223          	sh	zero,4(a1)
    baac:	ffe50513          	addi	a0,a0,-2
    bab0:	ffe90913          	addi	s2,s2,-2
    bab4:	00295703          	lhu	a4,2(s2)
    bab8:	00278793          	addi	a5,a5,2
    babc:	fee79f23          	sh	a4,-2(a5)
    bac0:	fea918e3          	bne	s2,a0,bab0 <emovi+0xb8>
    bac4:	00059c23          	sh	zero,24(a1)
    bac8:	fa5ff06f          	j	ba6c <emovi+0x74>

0000bacc <ecmp>:
    bacc:	fb010113          	addi	sp,sp,-80
    bad0:	04912223          	sw	s1,68(sp)
    bad4:	05212023          	sw	s2,64(sp)
    bad8:	04112623          	sw	ra,76(sp)
    badc:	04812423          	sw	s0,72(sp)
    bae0:	00050913          	mv	s2,a0
    bae4:	00058493          	mv	s1,a1
    bae8:	00000097          	auipc	ra,0x0
    baec:	ea0080e7          	jalr	-352(ra) # b988 <eisnan>
    baf0:	0e051663          	bnez	a0,bbdc <ecmp+0x110>
    baf4:	00048513          	mv	a0,s1
    baf8:	00000097          	auipc	ra,0x0
    bafc:	e90080e7          	jalr	-368(ra) # b988 <eisnan>
    bb00:	00050413          	mv	s0,a0
    bb04:	0c051c63          	bnez	a0,bbdc <ecmp+0x110>
    bb08:	00810593          	addi	a1,sp,8
    bb0c:	00090513          	mv	a0,s2
    bb10:	00000097          	auipc	ra,0x0
    bb14:	ee8080e7          	jalr	-280(ra) # b9f8 <emovi>
    bb18:	02410593          	addi	a1,sp,36
    bb1c:	00048513          	mv	a0,s1
    bb20:	00000097          	auipc	ra,0x0
    bb24:	ed8080e7          	jalr	-296(ra) # b9f8 <emovi>
    bb28:	00815703          	lhu	a4,8(sp)
    bb2c:	02415783          	lhu	a5,36(sp)
    bb30:	06e78063          	beq	a5,a4,bb90 <ecmp+0xc4>
    bb34:	00200793          	li	a5,2
    bb38:	01800693          	li	a3,24
    bb3c:	00810613          	addi	a2,sp,8
    bb40:	00f60633          	add	a2,a2,a5
    bb44:	00065603          	lhu	a2,0(a2) # ffff8000 <__stack_top+0x7ff811b0>
    bb48:	02061c63          	bnez	a2,bb80 <ecmp+0xb4>
    bb4c:	02410613          	addi	a2,sp,36
    bb50:	00f60633          	add	a2,a2,a5
    bb54:	00065603          	lhu	a2,0(a2)
    bb58:	02061463          	bnez	a2,bb80 <ecmp+0xb4>
    bb5c:	00278793          	addi	a5,a5,2
    bb60:	fcd79ee3          	bne	a5,a3,bb3c <ecmp+0x70>
    bb64:	00040513          	mv	a0,s0
    bb68:	04c12083          	lw	ra,76(sp)
    bb6c:	04812403          	lw	s0,72(sp)
    bb70:	04412483          	lw	s1,68(sp)
    bb74:	04012903          	lw	s2,64(sp)
    bb78:	05010113          	addi	sp,sp,80
    bb7c:	00008067          	ret
    bb80:	00100413          	li	s0,1
    bb84:	fe0700e3          	beqz	a4,bb64 <ecmp+0x98>
    bb88:	fff00413          	li	s0,-1
    bb8c:	fd9ff06f          	j	bb64 <ecmp+0x98>
    bb90:	00100713          	li	a4,1
    bb94:	00078463          	beqz	a5,bb9c <ecmp+0xd0>
    bb98:	fff00713          	li	a4,-1
    bb9c:	00000793          	li	a5,0
    bba0:	01800593          	li	a1,24
    bba4:	00810693          	addi	a3,sp,8
    bba8:	00f686b3          	add	a3,a3,a5
    bbac:	0006d603          	lhu	a2,0(a3)
    bbb0:	02410693          	addi	a3,sp,36
    bbb4:	00f686b3          	add	a3,a3,a5
    bbb8:	0006d683          	lhu	a3,0(a3)
    bbbc:	00d60a63          	beq	a2,a3,bbd0 <ecmp+0x104>
    bbc0:	00070413          	mv	s0,a4
    bbc4:	fac6e0e3          	bltu	a3,a2,bb64 <ecmp+0x98>
    bbc8:	40e00433          	neg	s0,a4
    bbcc:	f99ff06f          	j	bb64 <ecmp+0x98>
    bbd0:	00278793          	addi	a5,a5,2
    bbd4:	fcb798e3          	bne	a5,a1,bba4 <ecmp+0xd8>
    bbd8:	f8dff06f          	j	bb64 <ecmp+0x98>
    bbdc:	ffe00413          	li	s0,-2
    bbe0:	f85ff06f          	j	bb64 <ecmp+0x98>

0000bbe4 <eisinf>:
    bbe4:	01255783          	lhu	a5,18(a0)
    bbe8:	fff7c793          	not	a5,a5
    bbec:	01179713          	slli	a4,a5,0x11
    bbf0:	02071263          	bnez	a4,bc14 <eisinf+0x30>
    bbf4:	ff010113          	addi	sp,sp,-16
    bbf8:	00112623          	sw	ra,12(sp)
    bbfc:	00000097          	auipc	ra,0x0
    bc00:	d8c080e7          	jalr	-628(ra) # b988 <eisnan>
    bc04:	00c12083          	lw	ra,12(sp)
    bc08:	00153513          	seqz	a0,a0
    bc0c:	01010113          	addi	sp,sp,16
    bc10:	00008067          	ret
    bc14:	00000513          	li	a0,0
    bc18:	00008067          	ret

0000bc1c <einfin.isra.2>:
    bc1c:	01250713          	addi	a4,a0,18
    bc20:	00050793          	mv	a5,a0
    bc24:	00278793          	addi	a5,a5,2
    bc28:	fe079f23          	sh	zero,-2(a5)
    bc2c:	fee79ce3          	bne	a5,a4,bc24 <einfin.isra.2+0x8>
    bc30:	01255783          	lhu	a5,18(a0)
    bc34:	00008737          	lui	a4,0x8
    bc38:	fff70713          	addi	a4,a4,-1 # 7fff <_svfprintf_r+0x8ef>
    bc3c:	00e7e7b3          	or	a5,a5,a4
    bc40:	00f51923          	sh	a5,18(a0)
    bc44:	00008067          	ret

0000bc48 <eshift.part.3>:
    bc48:	fe010113          	addi	sp,sp,-32
    bc4c:	00812c23          	sw	s0,24(sp)
    bc50:	01312623          	sw	s3,12(sp)
    bc54:	00112e23          	sw	ra,28(sp)
    bc58:	00912a23          	sw	s1,20(sp)
    bc5c:	01212823          	sw	s2,16(sp)
    bc60:	01412423          	sw	s4,8(sp)
    bc64:	01512223          	sw	s5,4(sp)
    bc68:	00050993          	mv	s3,a0
    bc6c:	00058413          	mv	s0,a1
    bc70:	1005da63          	bgez	a1,bd84 <eshift.part.3+0x13c>
    bc74:	40b00933          	neg	s2,a1
    bc78:	00090a13          	mv	s4,s2
    bc7c:	00000493          	li	s1,0
    bc80:	00f00a93          	li	s5,15
    bc84:	034ace63          	blt	s5,s4,bcc0 <eshift.part.3+0x78>
    bc88:	00495913          	srli	s2,s2,0x4
    bc8c:	ff000593          	li	a1,-16
    bc90:	02b905b3          	mul	a1,s2,a1
    bc94:	00700a13          	li	s4,7
    bc98:	40858433          	sub	s0,a1,s0
    bc9c:	00040913          	mv	s2,s0
    bca0:	032a4e63          	blt	s4,s2,bcdc <eshift.part.3+0x94>
    bca4:	00345593          	srli	a1,s0,0x3
    bca8:	ff800793          	li	a5,-8
    bcac:	02f585b3          	mul	a1,a1,a5
    bcb0:	00858433          	add	s0,a1,s0
    bcb4:	04041263          	bnez	s0,bcf8 <eshift.part.3+0xb0>
    bcb8:	00903533          	snez	a0,s1
    bcbc:	0a40006f          	j	bd60 <eshift.part.3+0x118>
    bcc0:	0189d783          	lhu	a5,24(s3)
    bcc4:	00098513          	mv	a0,s3
    bcc8:	ff0a0a13          	addi	s4,s4,-16
    bccc:	00f4e4b3          	or	s1,s1,a5
    bcd0:	00000097          	auipc	ra,0x0
    bcd4:	b8c080e7          	jalr	-1140(ra) # b85c <eshdn6>
    bcd8:	fadff06f          	j	bc84 <eshift.part.3+0x3c>
    bcdc:	0189c783          	lbu	a5,24(s3)
    bce0:	00098513          	mv	a0,s3
    bce4:	ff890913          	addi	s2,s2,-8
    bce8:	0097e4b3          	or	s1,a5,s1
    bcec:	00000097          	auipc	ra,0x0
    bcf0:	af4080e7          	jalr	-1292(ra) # b7e0 <eshdn8>
    bcf4:	fadff06f          	j	bca0 <eshift.part.3+0x58>
    bcf8:	0189d783          	lhu	a5,24(s3)
    bcfc:	00098513          	mv	a0,s3
    bd00:	fff40413          	addi	s0,s0,-1
    bd04:	0017f793          	andi	a5,a5,1
    bd08:	0097e4b3          	or	s1,a5,s1
    bd0c:	00000097          	auipc	ra,0x0
    bd10:	a30080e7          	jalr	-1488(ra) # b73c <eshdn1>
    bd14:	fa1ff06f          	j	bcb4 <eshift.part.3+0x6c>
    bd18:	00098513          	mv	a0,s3
    bd1c:	00000097          	auipc	ra,0x0
    bd20:	b20080e7          	jalr	-1248(ra) # b83c <eshup6>
    bd24:	ff048493          	addi	s1,s1,-16
    bd28:	fe9948e3          	blt	s2,s1,bd18 <eshift.part.3+0xd0>
    bd2c:	00445593          	srli	a1,s0,0x4
    bd30:	ff000793          	li	a5,-16
    bd34:	02f585b3          	mul	a1,a1,a5
    bd38:	00700913          	li	s2,7
    bd3c:	00b40433          	add	s0,s0,a1
    bd40:	00040493          	mv	s1,s0
    bd44:	04994663          	blt	s2,s1,bd90 <eshift.part.3+0x148>
    bd48:	00345593          	srli	a1,s0,0x3
    bd4c:	ff800793          	li	a5,-8
    bd50:	02f585b3          	mul	a1,a1,a5
    bd54:	00b40433          	add	s0,s0,a1
    bd58:	04041663          	bnez	s0,bda4 <eshift.part.3+0x15c>
    bd5c:	00000513          	li	a0,0
    bd60:	01c12083          	lw	ra,28(sp)
    bd64:	01812403          	lw	s0,24(sp)
    bd68:	01412483          	lw	s1,20(sp)
    bd6c:	01012903          	lw	s2,16(sp)
    bd70:	00c12983          	lw	s3,12(sp)
    bd74:	00812a03          	lw	s4,8(sp)
    bd78:	00412a83          	lw	s5,4(sp)
    bd7c:	02010113          	addi	sp,sp,32
    bd80:	00008067          	ret
    bd84:	00058493          	mv	s1,a1
    bd88:	00f00913          	li	s2,15
    bd8c:	f9dff06f          	j	bd28 <eshift.part.3+0xe0>
    bd90:	00098513          	mv	a0,s3
    bd94:	00000097          	auipc	ra,0x0
    bd98:	a80080e7          	jalr	-1408(ra) # b814 <eshup8>
    bd9c:	ff848493          	addi	s1,s1,-8
    bda0:	fa5ff06f          	j	bd44 <eshift.part.3+0xfc>
    bda4:	00098513          	mv	a0,s3
    bda8:	00000097          	auipc	ra,0x0
    bdac:	9e4080e7          	jalr	-1564(ra) # b78c <eshup1>
    bdb0:	fff40413          	addi	s0,s0,-1
    bdb4:	fa5ff06f          	j	bd58 <eshift.part.3+0x110>

0000bdb8 <enormlz>:
    bdb8:	00455783          	lhu	a5,4(a0)
    bdbc:	ff010113          	addi	sp,sp,-16
    bdc0:	00912223          	sw	s1,4(sp)
    bdc4:	00112623          	sw	ra,12(sp)
    bdc8:	00812423          	sw	s0,8(sp)
    bdcc:	01212023          	sw	s2,0(sp)
    bdd0:	00050493          	mv	s1,a0
    bdd4:	02078263          	beqz	a5,bdf8 <enormlz+0x40>
    bdd8:	f007f793          	andi	a5,a5,-256
    bddc:	00000413          	li	s0,0
    bde0:	00078863          	beqz	a5,bdf0 <enormlz+0x38>
    bde4:	00000097          	auipc	ra,0x0
    bde8:	9fc080e7          	jalr	-1540(ra) # b7e0 <eshdn8>
    bdec:	ff800413          	li	s0,-8
    bdf0:	f6f00913          	li	s2,-145
    bdf4:	0a40006f          	j	be98 <enormlz+0xe0>
    bdf8:	00651783          	lh	a5,6(a0)
    bdfc:	00000413          	li	s0,0
    be00:	0a000913          	li	s2,160
    be04:	0207da63          	bgez	a5,be38 <enormlz+0x80>
    be08:	00040513          	mv	a0,s0
    be0c:	00c12083          	lw	ra,12(sp)
    be10:	00812403          	lw	s0,8(sp)
    be14:	00412483          	lw	s1,4(sp)
    be18:	00012903          	lw	s2,0(sp)
    be1c:	01010113          	addi	sp,sp,16
    be20:	00008067          	ret
    be24:	00048513          	mv	a0,s1
    be28:	01040413          	addi	s0,s0,16
    be2c:	00000097          	auipc	ra,0x0
    be30:	a10080e7          	jalr	-1520(ra) # b83c <eshup6>
    be34:	fd240ae3          	beq	s0,s2,be08 <enormlz+0x50>
    be38:	0064d783          	lhu	a5,6(s1)
    be3c:	fe0784e3          	beqz	a5,be24 <enormlz+0x6c>
    be40:	0064d783          	lhu	a5,6(s1)
    be44:	f007f793          	andi	a5,a5,-256
    be48:	02078463          	beqz	a5,be70 <enormlz+0xb8>
    be4c:	0a000913          	li	s2,160
    be50:	00649783          	lh	a5,6(s1)
    be54:	fa07cae3          	bltz	a5,be08 <enormlz+0x50>
    be58:	00048513          	mv	a0,s1
    be5c:	00140413          	addi	s0,s0,1
    be60:	00000097          	auipc	ra,0x0
    be64:	92c080e7          	jalr	-1748(ra) # b78c <eshup1>
    be68:	fe8954e3          	bge	s2,s0,be50 <enormlz+0x98>
    be6c:	f9dff06f          	j	be08 <enormlz+0x50>
    be70:	00048513          	mv	a0,s1
    be74:	00000097          	auipc	ra,0x0
    be78:	9a0080e7          	jalr	-1632(ra) # b814 <eshup8>
    be7c:	00840413          	addi	s0,s0,8
    be80:	fc1ff06f          	j	be40 <enormlz+0x88>
    be84:	00048513          	mv	a0,s1
    be88:	fff40413          	addi	s0,s0,-1
    be8c:	00000097          	auipc	ra,0x0
    be90:	8b0080e7          	jalr	-1872(ra) # b73c <eshdn1>
    be94:	f7240ae3          	beq	s0,s2,be08 <enormlz+0x50>
    be98:	0044d783          	lhu	a5,4(s1)
    be9c:	fe0794e3          	bnez	a5,be84 <enormlz+0xcc>
    bea0:	f69ff06f          	j	be08 <enormlz+0x50>

0000bea4 <enan.constprop.12>:
    bea4:	01050713          	addi	a4,a0,16
    bea8:	00050793          	mv	a5,a0
    beac:	00278793          	addi	a5,a5,2
    beb0:	fe079f23          	sh	zero,-2(a5)
    beb4:	fee79ce3          	bne	a5,a4,beac <enan.constprop.12+0x8>
    beb8:	7fffc7b7          	lui	a5,0x7fffc
    bebc:	00f52823          	sw	a5,16(a0)
    bec0:	00008067          	ret

0000bec4 <emovo.isra.6>:
    bec4:	00050713          	mv	a4,a0
    bec8:	00075683          	lhu	a3,0(a4)
    becc:	00058513          	mv	a0,a1
    bed0:	00275783          	lhu	a5,2(a4)
    bed4:	00068663          	beqz	a3,bee0 <emovo.isra.6+0x1c>
    bed8:	ffff86b7          	lui	a3,0xffff8
    bedc:	00d7e7b3          	or	a5,a5,a3
    bee0:	00f51923          	sh	a5,18(a0)
    bee4:	00275603          	lhu	a2,2(a4)
    bee8:	000086b7          	lui	a3,0x8
    beec:	fff68693          	addi	a3,a3,-1 # 7fff <_svfprintf_r+0x8ef>
    bef0:	00670793          	addi	a5,a4,6
    bef4:	02d61063          	bne	a2,a3,bf14 <emovo.isra.6+0x50>
    bef8:	01a70713          	addi	a4,a4,26
    befc:	0007d683          	lhu	a3,0(a5) # 7fffc000 <__trunctfdf2+0x7ffe8698>
    bf00:	02069a63          	bnez	a3,bf34 <emovo.isra.6+0x70>
    bf04:	00278793          	addi	a5,a5,2
    bf08:	fee79ae3          	bne	a5,a4,befc <emovo.isra.6+0x38>
    bf0c:	00000317          	auipc	t1,0x0
    bf10:	d1030067          	jr	-752(t1) # bc1c <einfin.isra.2>
    bf14:	01050513          	addi	a0,a0,16
    bf18:	01870713          	addi	a4,a4,24
    bf1c:	00278793          	addi	a5,a5,2
    bf20:	ffe7d683          	lhu	a3,-2(a5)
    bf24:	ffe50513          	addi	a0,a0,-2
    bf28:	00d51123          	sh	a3,2(a0)
    bf2c:	fee798e3          	bne	a5,a4,bf1c <emovo.isra.6+0x58>
    bf30:	00008067          	ret
    bf34:	00000317          	auipc	t1,0x0
    bf38:	f7030067          	jr	-144(t1) # bea4 <enan.constprop.12>

0000bf3c <e113toe.isra.8>:
    bf3c:	fd010113          	addi	sp,sp,-48
    bf40:	02912223          	sw	s1,36(sp)
    bf44:	00050493          	mv	s1,a0
    bf48:	00410513          	addi	a0,sp,4
    bf4c:	02812423          	sw	s0,40(sp)
    bf50:	02112623          	sw	ra,44(sp)
    bf54:	00058413          	mv	s0,a1
    bf58:	fffff097          	auipc	ra,0xfffff
    bf5c:	76c080e7          	jalr	1900(ra) # b6c4 <ecleaz>
    bf60:	00e4d703          	lhu	a4,14(s1)
    bf64:	01071793          	slli	a5,a4,0x10
    bf68:	4107d793          	srai	a5,a5,0x10
    bf6c:	0407c463          	bltz	a5,bfb4 <e113toe.isra.8+0x78>
    bf70:	00011223          	sh	zero,4(sp)
    bf74:	000086b7          	lui	a3,0x8
    bf78:	fff68693          	addi	a3,a3,-1 # 7fff <_svfprintf_r+0x8ef>
    bf7c:	00d77733          	and	a4,a4,a3
    bf80:	00e48793          	addi	a5,s1,14
    bf84:	08d71463          	bne	a4,a3,c00c <e113toe.isra.8+0xd0>
    bf88:	00048713          	mv	a4,s1
    bf8c:	00075683          	lhu	a3,0(a4)
    bf90:	02068863          	beqz	a3,bfc0 <e113toe.isra.8+0x84>
    bf94:	00040513          	mv	a0,s0
    bf98:	00000097          	auipc	ra,0x0
    bf9c:	f0c080e7          	jalr	-244(ra) # bea4 <enan.constprop.12>
    bfa0:	02c12083          	lw	ra,44(sp)
    bfa4:	02812403          	lw	s0,40(sp)
    bfa8:	02412483          	lw	s1,36(sp)
    bfac:	03010113          	addi	sp,sp,48
    bfb0:	00008067          	ret
    bfb4:	fff00793          	li	a5,-1
    bfb8:	00f11223          	sh	a5,4(sp)
    bfbc:	fb9ff06f          	j	bf74 <e113toe.isra.8+0x38>
    bfc0:	00270713          	addi	a4,a4,2
    bfc4:	fce794e3          	bne	a5,a4,bf8c <e113toe.isra.8+0x50>
    bfc8:	00040513          	mv	a0,s0
    bfcc:	fffff097          	auipc	ra,0xfffff
    bfd0:	6c0080e7          	jalr	1728(ra) # b68c <eclear>
    bfd4:	00040513          	mv	a0,s0
    bfd8:	00000097          	auipc	ra,0x0
    bfdc:	c44080e7          	jalr	-956(ra) # bc1c <einfin.isra.2>
    bfe0:	00e49783          	lh	a5,14(s1)
    bfe4:	fa07dee3          	bgez	a5,bfa0 <e113toe.isra.8+0x64>
    bfe8:	00040513          	mv	a0,s0
    bfec:	00000097          	auipc	ra,0x0
    bff0:	99c080e7          	jalr	-1636(ra) # b988 <eisnan>
    bff4:	fa0516e3          	bnez	a0,bfa0 <e113toe.isra.8+0x64>
    bff8:	01245783          	lhu	a5,18(s0)
    bffc:	ffff8737          	lui	a4,0xffff8
    c000:	00e7c7b3          	xor	a5,a5,a4
    c004:	00f41923          	sh	a5,18(s0)
    c008:	f99ff06f          	j	bfa0 <e113toe.isra.8+0x64>
    c00c:	00e11323          	sh	a4,6(sp)
    c010:	00410693          	addi	a3,sp,4
    c014:	ffe78793          	addi	a5,a5,-2
    c018:	0007d603          	lhu	a2,0(a5)
    c01c:	00268693          	addi	a3,a3,2
    c020:	00c69223          	sh	a2,4(a3)
    c024:	fef498e3          	bne	s1,a5,c014 <e113toe.isra.8+0xd8>
    c028:	00071e63          	bnez	a4,c044 <e113toe.isra.8+0x108>
    c02c:	00011423          	sh	zero,8(sp)
    c030:	00040593          	mv	a1,s0
    c034:	00410513          	addi	a0,sp,4
    c038:	00000097          	auipc	ra,0x0
    c03c:	e8c080e7          	jalr	-372(ra) # bec4 <emovo.isra.6>
    c040:	f61ff06f          	j	bfa0 <e113toe.isra.8+0x64>
    c044:	00100793          	li	a5,1
    c048:	fff00593          	li	a1,-1
    c04c:	00410513          	addi	a0,sp,4
    c050:	00f11423          	sh	a5,8(sp)
    c054:	00000097          	auipc	ra,0x0
    c058:	bf4080e7          	jalr	-1036(ra) # bc48 <eshift.part.3>
    c05c:	fd5ff06f          	j	c030 <e113toe.isra.8+0xf4>

0000c060 <emdnorm>:
    c060:	fe010113          	addi	sp,sp,-32
    c064:	00812c23          	sw	s0,24(sp)
    c068:	00912a23          	sw	s1,20(sp)
    c06c:	01212823          	sw	s2,16(sp)
    c070:	01312623          	sw	s3,12(sp)
    c074:	01412423          	sw	s4,8(sp)
    c078:	01512223          	sw	s5,4(sp)
    c07c:	00068913          	mv	s2,a3
    c080:	00078413          	mv	s0,a5
    c084:	00112e23          	sw	ra,28(sp)
    c088:	00050493          	mv	s1,a0
    c08c:	00058993          	mv	s3,a1
    c090:	00060a13          	mv	s4,a2
    c094:	00070a93          	mv	s5,a4
    c098:	00000097          	auipc	ra,0x0
    c09c:	d20080e7          	jalr	-736(ra) # bdb8 <enormlz>
    c0a0:	09000793          	li	a5,144
    c0a4:	40a90933          	sub	s2,s2,a0
    c0a8:	04a7d463          	bge	a5,a0,c0f0 <emdnorm+0x90>
    c0ac:	000087b7          	lui	a5,0x8
    c0b0:	ffe78793          	addi	a5,a5,-2 # 7ffe <_svfprintf_r+0x8ee>
    c0b4:	0527ce63          	blt	a5,s2,c110 <emdnorm+0xb0>
    c0b8:	00248793          	addi	a5,s1,2
    c0bc:	01a48493          	addi	s1,s1,26
    c0c0:	00278793          	addi	a5,a5,2
    c0c4:	fe079f23          	sh	zero,-2(a5)
    c0c8:	fe979ce3          	bne	a5,s1,c0c0 <emdnorm+0x60>
    c0cc:	01c12083          	lw	ra,28(sp)
    c0d0:	01812403          	lw	s0,24(sp)
    c0d4:	01412483          	lw	s1,20(sp)
    c0d8:	01012903          	lw	s2,16(sp)
    c0dc:	00c12983          	lw	s3,12(sp)
    c0e0:	00812a03          	lw	s4,8(sp)
    c0e4:	00412a83          	lw	s5,4(sp)
    c0e8:	02010113          	addi	sp,sp,32
    c0ec:	00008067          	ret
    c0f0:	02095063          	bgez	s2,c110 <emdnorm+0xb0>
    c0f4:	f7000793          	li	a5,-144
    c0f8:	18f94e63          	blt	s2,a5,c294 <emdnorm+0x234>
    c0fc:	00090593          	mv	a1,s2
    c100:	00048513          	mv	a0,s1
    c104:	00000097          	auipc	ra,0x0
    c108:	b44080e7          	jalr	-1212(ra) # bc48 <eshift.part.3>
    c10c:	1a051063          	bnez	a0,c2ac <emdnorm+0x24c>
    c110:	140a8863          	beqz	s5,c260 <emdnorm+0x200>
    c114:	00442703          	lw	a4,4(s0)
    c118:	00042783          	lw	a5,0(s0)
    c11c:	06f70863          	beq	a4,a5,c18c <emdnorm+0x12c>
    c120:	01a40513          	addi	a0,s0,26
    c124:	fffff097          	auipc	ra,0xfffff
    c128:	5a0080e7          	jalr	1440(ra) # b6c4 <ecleaz>
    c12c:	00442783          	lw	a5,4(s0)
    c130:	03800713          	li	a4,56
    c134:	1ce78c63          	beq	a5,a4,c30c <emdnorm+0x2ac>
    c138:	16f74e63          	blt	a4,a5,c2b4 <emdnorm+0x254>
    c13c:	01800713          	li	a4,24
    c140:	20e78463          	beq	a5,a4,c348 <emdnorm+0x2e8>
    c144:	03500713          	li	a4,53
    c148:	1ee78063          	beq	a5,a4,c328 <emdnorm+0x2c8>
    c14c:	00c00713          	li	a4,12
    c150:	00e42423          	sw	a4,8(s0)
    c154:	80010737          	lui	a4,0x80010
    c158:	fff70713          	addi	a4,a4,-1 # 8000ffff <__stack_top+0xfff991af>
    c15c:	00e42a23          	sw	a4,20(s0)
    c160:	00100713          	li	a4,1
    c164:	00e41c23          	sh	a4,24(s0)
    c168:	00b00713          	li	a4,11
    c16c:	00e42623          	sw	a4,12(s0)
    c170:	00c42703          	lw	a4,12(s0)
    c174:	01845683          	lhu	a3,24(s0)
    c178:	00870713          	addi	a4,a4,8
    c17c:	00171713          	slli	a4,a4,0x1
    c180:	00e40733          	add	a4,s0,a4
    c184:	00d71523          	sh	a3,10(a4)
    c188:	00f42023          	sw	a5,0(s0)
    c18c:	03204463          	bgtz	s2,c1b4 <emdnorm+0x154>
    c190:	00442703          	lw	a4,4(s0)
    c194:	09000793          	li	a5,144
    c198:	00f70e63          	beq	a4,a5,c1b4 <emdnorm+0x154>
    c19c:	0184d783          	lhu	a5,24(s1)
    c1a0:	00048513          	mv	a0,s1
    c1a4:	0017f793          	andi	a5,a5,1
    c1a8:	00f9e9b3          	or	s3,s3,a5
    c1ac:	fffff097          	auipc	ra,0xfffff
    c1b0:	590080e7          	jalr	1424(ra) # b73c <eshdn1>
    c1b4:	00842683          	lw	a3,8(s0)
    c1b8:	01445603          	lhu	a2,20(s0)
    c1bc:	00442583          	lw	a1,4(s0)
    c1c0:	00169713          	slli	a4,a3,0x1
    c1c4:	00e48733          	add	a4,s1,a4
    c1c8:	00075783          	lhu	a5,0(a4)
    c1cc:	00c7f7b3          	and	a5,a5,a2
    c1d0:	08f00613          	li	a2,143
    c1d4:	00b64a63          	blt	a2,a1,c1e8 <emdnorm+0x188>
    c1d8:	00168693          	addi	a3,a3,1
    c1dc:	00070613          	mv	a2,a4
    c1e0:	00c00593          	li	a1,12
    c1e4:	16d5d663          	bge	a1,a3,c350 <emdnorm+0x2f0>
    c1e8:	01445683          	lhu	a3,20(s0)
    c1ec:	00075603          	lhu	a2,0(a4)
    c1f0:	fff6c693          	not	a3,a3
    c1f4:	00c6f6b3          	and	a3,a3,a2
    c1f8:	00d71023          	sh	a3,0(a4)
    c1fc:	01645703          	lhu	a4,22(s0)
    c200:	00f776b3          	and	a3,a4,a5
    c204:	02068463          	beqz	a3,c22c <emdnorm+0x1cc>
    c208:	16f71463          	bne	a4,a5,c370 <emdnorm+0x310>
    c20c:	16099063          	bnez	s3,c36c <emdnorm+0x30c>
    c210:	00c42783          	lw	a5,12(s0)
    c214:	01845703          	lhu	a4,24(s0)
    c218:	00179793          	slli	a5,a5,0x1
    c21c:	00f487b3          	add	a5,s1,a5
    c220:	0007d783          	lhu	a5,0(a5)
    c224:	00e7f7b3          	and	a5,a5,a4
    c228:	14079463          	bnez	a5,c370 <emdnorm+0x310>
    c22c:	01204e63          	bgtz	s2,c248 <emdnorm+0x1e8>
    c230:	00442703          	lw	a4,4(s0)
    c234:	09000793          	li	a5,144
    c238:	00f70863          	beq	a4,a5,c248 <emdnorm+0x1e8>
    c23c:	00048513          	mv	a0,s1
    c240:	fffff097          	auipc	ra,0xfffff
    c244:	54c080e7          	jalr	1356(ra) # b78c <eshup1>
    c248:	0044d783          	lhu	a5,4(s1)
    c24c:	00078a63          	beqz	a5,c260 <emdnorm+0x200>
    c250:	00048513          	mv	a0,s1
    c254:	fffff097          	auipc	ra,0xfffff
    c258:	4e8080e7          	jalr	1256(ra) # b73c <eshdn1>
    c25c:	00190913          	addi	s2,s2,1
    c260:	000087b7          	lui	a5,0x8
    c264:	00049c23          	sh	zero,24(s1)
    c268:	ffe78793          	addi	a5,a5,-2 # 7ffe <_svfprintf_r+0x8ee>
    c26c:	1127dc63          	bge	a5,s2,c384 <emdnorm+0x324>
    c270:	ffff87b7          	lui	a5,0xffff8
    c274:	fff7c793          	not	a5,a5
    c278:	00f49123          	sh	a5,2(s1)
    c27c:	00448793          	addi	a5,s1,4
    c280:	01848493          	addi	s1,s1,24
    c284:	00079023          	sh	zero,0(a5) # ffff8000 <__stack_top+0x7ff811b0>
    c288:	00278793          	addi	a5,a5,2
    c28c:	fef49ce3          	bne	s1,a5,c284 <emdnorm+0x224>
    c290:	e3dff06f          	j	c0cc <emdnorm+0x6c>
    c294:	00248793          	addi	a5,s1,2
    c298:	01a48493          	addi	s1,s1,26
    c29c:	00278793          	addi	a5,a5,2
    c2a0:	fe079f23          	sh	zero,-2(a5)
    c2a4:	fe979ce3          	bne	a5,s1,c29c <emdnorm+0x23c>
    c2a8:	e25ff06f          	j	c0cc <emdnorm+0x6c>
    c2ac:	00100993          	li	s3,1
    c2b0:	e61ff06f          	j	c110 <emdnorm+0xb0>
    c2b4:	04000713          	li	a4,64
    c2b8:	02e78863          	beq	a5,a4,c2e8 <emdnorm+0x288>
    c2bc:	07100713          	li	a4,113
    c2c0:	e8e796e3          	bne	a5,a4,c14c <emdnorm+0xec>
    c2c4:	40008737          	lui	a4,0x40008
    c2c8:	fff70713          	addi	a4,a4,-1 # 40007fff <__trunctfdf2+0x3fff4697>
    c2cc:	00a00693          	li	a3,10
    c2d0:	00e42a23          	sw	a4,20(s0)
    c2d4:	00d42423          	sw	a3,8(s0)
    c2d8:	ffff8737          	lui	a4,0xffff8
    c2dc:	00e41c23          	sh	a4,24(s0)
    c2e0:	00d42623          	sw	a3,12(s0)
    c2e4:	e8dff06f          	j	c170 <emdnorm+0x110>
    c2e8:	00700713          	li	a4,7
    c2ec:	00e42423          	sw	a4,8(s0)
    c2f0:	80010737          	lui	a4,0x80010
    c2f4:	fff70713          	addi	a4,a4,-1 # 8000ffff <__stack_top+0xfff991af>
    c2f8:	00e42a23          	sw	a4,20(s0)
    c2fc:	00100713          	li	a4,1
    c300:	00e41c23          	sh	a4,24(s0)
    c304:	00600713          	li	a4,6
    c308:	e65ff06f          	j	c16c <emdnorm+0x10c>
    c30c:	00600693          	li	a3,6
    c310:	00800737          	lui	a4,0x800
    c314:	0ff70713          	addi	a4,a4,255 # 8000ff <__trunctfdf2+0x7ec797>
    c318:	00e42a23          	sw	a4,20(s0)
    c31c:	00d42423          	sw	a3,8(s0)
    c320:	10000713          	li	a4,256
    c324:	fb9ff06f          	j	c2dc <emdnorm+0x27c>
    c328:	04000737          	lui	a4,0x4000
    c32c:	7ff70713          	addi	a4,a4,2047 # 40007ff <__trunctfdf2+0x3fece97>
    c330:	00600693          	li	a3,6
    c334:	00e42a23          	sw	a4,20(s0)
    c338:	00001737          	lui	a4,0x1
    c33c:	00d42423          	sw	a3,8(s0)
    c340:	80070713          	addi	a4,a4,-2048 # 800 <_ZN6tflite23MicroInterpreterContextC1EPNS_14MicroAllocatorEPKNS_5ModelEPNS_21MicroInterpreterGraphE+0x14>
    c344:	f99ff06f          	j	c2dc <emdnorm+0x27c>
    c348:	00400693          	li	a3,4
    c34c:	fc5ff06f          	j	c310 <emdnorm+0x2b0>
    c350:	00265503          	lhu	a0,2(a2)
    c354:	00050463          	beqz	a0,c35c <emdnorm+0x2fc>
    c358:	0017e793          	ori	a5,a5,1
    c35c:	00061123          	sh	zero,2(a2)
    c360:	00168693          	addi	a3,a3,1
    c364:	00260613          	addi	a2,a2,2
    c368:	e7dff06f          	j	c1e4 <emdnorm+0x184>
    c36c:	ec0a10e3          	bnez	s4,c22c <emdnorm+0x1cc>
    c370:	00048593          	mv	a1,s1
    c374:	01a40513          	addi	a0,s0,26
    c378:	fffff097          	auipc	ra,0xfffff
    c37c:	504080e7          	jalr	1284(ra) # b87c <eaddm>
    c380:	eadff06f          	j	c22c <emdnorm+0x1cc>
    c384:	00095663          	bgez	s2,c390 <emdnorm+0x330>
    c388:	00049123          	sh	zero,2(s1)
    c38c:	d41ff06f          	j	c0cc <emdnorm+0x6c>
    c390:	01249123          	sh	s2,2(s1)
    c394:	d39ff06f          	j	c0cc <emdnorm+0x6c>

0000c398 <eiremain>:
    c398:	fe010113          	addi	sp,sp,-32
    c39c:	01412423          	sw	s4,8(sp)
    c3a0:	00255a03          	lhu	s4,2(a0)
    c3a4:	00812c23          	sw	s0,24(sp)
    c3a8:	00058413          	mv	s0,a1
    c3ac:	00112e23          	sw	ra,28(sp)
    c3b0:	00912a23          	sw	s1,20(sp)
    c3b4:	01212823          	sw	s2,16(sp)
    c3b8:	01512223          	sw	s5,4(sp)
    c3bc:	01612023          	sw	s6,0(sp)
    c3c0:	00060913          	mv	s2,a2
    c3c4:	03460b13          	addi	s6,a2,52
    c3c8:	01312623          	sw	s3,12(sp)
    c3cc:	00050a93          	mv	s5,a0
    c3d0:	00000097          	auipc	ra,0x0
    c3d4:	9e8080e7          	jalr	-1560(ra) # bdb8 <enormlz>
    c3d8:	00245483          	lhu	s1,2(s0)
    c3dc:	40aa0a33          	sub	s4,s4,a0
    c3e0:	00040513          	mv	a0,s0
    c3e4:	00000097          	auipc	ra,0x0
    c3e8:	9d4080e7          	jalr	-1580(ra) # bdb8 <enormlz>
    c3ec:	40a484b3          	sub	s1,s1,a0
    c3f0:	000b0513          	mv	a0,s6
    c3f4:	fffff097          	auipc	ra,0xfffff
    c3f8:	2d0080e7          	jalr	720(ra) # b6c4 <ecleaz>
    c3fc:	0544d463          	bge	s1,s4,c444 <eiremain+0xac>
    c400:	00040513          	mv	a0,s0
    c404:	01812403          	lw	s0,24(sp)
    c408:	01c12083          	lw	ra,28(sp)
    c40c:	00c12983          	lw	s3,12(sp)
    c410:	00812a03          	lw	s4,8(sp)
    c414:	00412a83          	lw	s5,4(sp)
    c418:	00012b03          	lw	s6,0(sp)
    c41c:	00090793          	mv	a5,s2
    c420:	00048693          	mv	a3,s1
    c424:	01012903          	lw	s2,16(sp)
    c428:	01412483          	lw	s1,20(sp)
    c42c:	00000713          	li	a4,0
    c430:	00000613          	li	a2,0
    c434:	00000593          	li	a1,0
    c438:	02010113          	addi	sp,sp,32
    c43c:	00000317          	auipc	t1,0x0
    c440:	c2430067          	jr	-988(t1) # c060 <emdnorm>
    c444:	00040593          	mv	a1,s0
    c448:	000a8513          	mv	a0,s5
    c44c:	fffff097          	auipc	ra,0xfffff
    c450:	2b4080e7          	jalr	692(ra) # b700 <ecmpm>
    c454:	00000993          	li	s3,0
    c458:	00a04c63          	bgtz	a0,c470 <eiremain+0xd8>
    c45c:	00040593          	mv	a1,s0
    c460:	000a8513          	mv	a0,s5
    c464:	fffff097          	auipc	ra,0xfffff
    c468:	450080e7          	jalr	1104(ra) # b8b4 <esubm>
    c46c:	00100993          	li	s3,1
    c470:	000b0513          	mv	a0,s6
    c474:	fffff097          	auipc	ra,0xfffff
    c478:	318080e7          	jalr	792(ra) # b78c <eshup1>
    c47c:	04c95783          	lhu	a5,76(s2)
    c480:	00040513          	mv	a0,s0
    c484:	fff48493          	addi	s1,s1,-1
    c488:	00f9e9b3          	or	s3,s3,a5
    c48c:	05391623          	sh	s3,76(s2)
    c490:	fffff097          	auipc	ra,0xfffff
    c494:	2fc080e7          	jalr	764(ra) # b78c <eshup1>
    c498:	f65ff06f          	j	c3fc <eiremain+0x64>

0000c49c <emul>:
    c49c:	f7010113          	addi	sp,sp,-144
    c4a0:	08812423          	sw	s0,136(sp)
    c4a4:	08912223          	sw	s1,132(sp)
    c4a8:	07312e23          	sw	s3,124(sp)
    c4ac:	07412c23          	sw	s4,120(sp)
    c4b0:	08112623          	sw	ra,140(sp)
    c4b4:	09212023          	sw	s2,128(sp)
    c4b8:	07512a23          	sw	s5,116(sp)
    c4bc:	07612823          	sw	s6,112(sp)
    c4c0:	07712623          	sw	s7,108(sp)
    c4c4:	07812423          	sw	s8,104(sp)
    c4c8:	00050493          	mv	s1,a0
    c4cc:	00058413          	mv	s0,a1
    c4d0:	00060993          	mv	s3,a2
    c4d4:	00068a13          	mv	s4,a3
    c4d8:	fffff097          	auipc	ra,0xfffff
    c4dc:	4b0080e7          	jalr	1200(ra) # b988 <eisnan>
    c4e0:	04050263          	beqz	a0,c524 <emul+0x88>
    c4e4:	00098593          	mv	a1,s3
    c4e8:	00048513          	mv	a0,s1
    c4ec:	fffff097          	auipc	ra,0xfffff
    c4f0:	1b4080e7          	jalr	436(ra) # b6a0 <emov>
    c4f4:	08c12083          	lw	ra,140(sp)
    c4f8:	08812403          	lw	s0,136(sp)
    c4fc:	08412483          	lw	s1,132(sp)
    c500:	08012903          	lw	s2,128(sp)
    c504:	07c12983          	lw	s3,124(sp)
    c508:	07812a03          	lw	s4,120(sp)
    c50c:	07412a83          	lw	s5,116(sp)
    c510:	07012b03          	lw	s6,112(sp)
    c514:	06c12b83          	lw	s7,108(sp)
    c518:	06812c03          	lw	s8,104(sp)
    c51c:	09010113          	addi	sp,sp,144
    c520:	00008067          	ret
    c524:	00040513          	mv	a0,s0
    c528:	fffff097          	auipc	ra,0xfffff
    c52c:	460080e7          	jalr	1120(ra) # b988 <eisnan>
    c530:	00050863          	beqz	a0,c540 <emul+0xa4>
    c534:	00098593          	mv	a1,s3
    c538:	00040513          	mv	a0,s0
    c53c:	fb1ff06f          	j	c4ec <emul+0x50>
    c540:	00048513          	mv	a0,s1
    c544:	fffff097          	auipc	ra,0xfffff
    c548:	6a0080e7          	jalr	1696(ra) # bbe4 <eisinf>
    c54c:	08051263          	bnez	a0,c5d0 <emul+0x134>
    c550:	00040513          	mv	a0,s0
    c554:	fffff097          	auipc	ra,0xfffff
    c558:	690080e7          	jalr	1680(ra) # bbe4 <eisinf>
    c55c:	00050e63          	beqz	a0,c578 <emul+0xdc>
    c560:	8003f597          	auipc	a1,0x8003f
    c564:	6bc58593          	addi	a1,a1,1724 # 8004bc1c <__stack_top+0xfffd4dcc>
    c568:	00048513          	mv	a0,s1
    c56c:	fffff097          	auipc	ra,0xfffff
    c570:	560080e7          	jalr	1376(ra) # bacc <ecmp>
    c574:	06050a63          	beqz	a0,c5e8 <emul+0x14c>
    c578:	00048513          	mv	a0,s1
    c57c:	fffff097          	auipc	ra,0xfffff
    c580:	668080e7          	jalr	1640(ra) # bbe4 <eisinf>
    c584:	00051a63          	bnez	a0,c598 <emul+0xfc>
    c588:	00040513          	mv	a0,s0
    c58c:	fffff097          	auipc	ra,0xfffff
    c590:	658080e7          	jalr	1624(ra) # bbe4 <eisinf>
    c594:	06050663          	beqz	a0,c600 <emul+0x164>
    c598:	00048513          	mv	a0,s1
    c59c:	fffff097          	auipc	ra,0xfffff
    c5a0:	420080e7          	jalr	1056(ra) # b9bc <eisneg>
    c5a4:	00050493          	mv	s1,a0
    c5a8:	00040513          	mv	a0,s0
    c5ac:	fffff097          	auipc	ra,0xfffff
    c5b0:	410080e7          	jalr	1040(ra) # b9bc <eisneg>
    c5b4:	04a48263          	beq	s1,a0,c5f8 <emul+0x15c>
    c5b8:	ffff87b7          	lui	a5,0xffff8
    c5bc:	00f99923          	sh	a5,18(s3)
    c5c0:	00098513          	mv	a0,s3
    c5c4:	fffff097          	auipc	ra,0xfffff
    c5c8:	658080e7          	jalr	1624(ra) # bc1c <einfin.isra.2>
    c5cc:	f29ff06f          	j	c4f4 <emul+0x58>
    c5d0:	8003f597          	auipc	a1,0x8003f
    c5d4:	64c58593          	addi	a1,a1,1612 # 8004bc1c <__stack_top+0xfffd4dcc>
    c5d8:	00040513          	mv	a0,s0
    c5dc:	fffff097          	auipc	ra,0xfffff
    c5e0:	4f0080e7          	jalr	1264(ra) # bacc <ecmp>
    c5e4:	f60516e3          	bnez	a0,c550 <emul+0xb4>
    c5e8:	00098513          	mv	a0,s3
    c5ec:	00000097          	auipc	ra,0x0
    c5f0:	8b8080e7          	jalr	-1864(ra) # bea4 <enan.constprop.12>
    c5f4:	f01ff06f          	j	c4f4 <emul+0x58>
    c5f8:	00099923          	sh	zero,18(s3)
    c5fc:	fc5ff06f          	j	c5c0 <emul+0x124>
    c600:	00048513          	mv	a0,s1
    c604:	00c10593          	addi	a1,sp,12
    c608:	fffff097          	auipc	ra,0xfffff
    c60c:	3f0080e7          	jalr	1008(ra) # b9f8 <emovi>
    c610:	00040513          	mv	a0,s0
    c614:	02810593          	addi	a1,sp,40
    c618:	fffff097          	auipc	ra,0xfffff
    c61c:	3e0080e7          	jalr	992(ra) # b9f8 <emovi>
    c620:	00e15403          	lhu	s0,14(sp)
    c624:	02a15483          	lhu	s1,42(sp)
    c628:	10040663          	beqz	s0,c734 <emul+0x298>
    c62c:	02a15783          	lhu	a5,42(sp)
    c630:	00048b13          	mv	s6,s1
    c634:	10078e63          	beqz	a5,c750 <emul+0x2b4>
    c638:	02812783          	lw	a5,40(sp)
    c63c:	034a0913          	addi	s2,s4,52
    c640:	04ea0b93          	addi	s7,s4,78
    c644:	02fa2a23          	sw	a5,52(s4)
    c648:	038a0793          	addi	a5,s4,56
    c64c:	00079023          	sh	zero,0(a5) # ffff8000 <__stack_top+0x7ff811b0>
    c650:	00278793          	addi	a5,a5,2
    c654:	ff779ce3          	bne	a5,s7,c64c <emul+0x1b0>
    c658:	00c10493          	addi	s1,sp,12
    c65c:	ff810c13          	addi	s8,sp,-8
    c660:	00000a93          	li	s5,0
    c664:	0184d503          	lhu	a0,24(s1)
    c668:	02050263          	beqz	a0,c68c <emul+0x1f0>
    c66c:	02810593          	addi	a1,sp,40
    c670:	04410613          	addi	a2,sp,68
    c674:	fffff097          	auipc	ra,0xfffff
    c678:	278080e7          	jalr	632(ra) # b8ec <m16m>
    c67c:	00090593          	mv	a1,s2
    c680:	04410513          	addi	a0,sp,68
    c684:	fffff097          	auipc	ra,0xfffff
    c688:	1f8080e7          	jalr	504(ra) # b87c <eaddm>
    c68c:	04ca5783          	lhu	a5,76(s4)
    c690:	00090513          	mv	a0,s2
    c694:	ffe48493          	addi	s1,s1,-2
    c698:	00faeab3          	or	s5,s5,a5
    c69c:	fffff097          	auipc	ra,0xfffff
    c6a0:	1c0080e7          	jalr	448(ra) # b85c <eshdn6>
    c6a4:	fc9c10e3          	bne	s8,s1,c664 <emul+0x1c8>
    c6a8:	00090593          	mv	a1,s2
    c6ac:	02810793          	addi	a5,sp,40
    c6b0:	0005d703          	lhu	a4,0(a1)
    c6b4:	00258593          	addi	a1,a1,2
    c6b8:	00278793          	addi	a5,a5,2
    c6bc:	fee79f23          	sh	a4,-2(a5)
    c6c0:	ff7598e3          	bne	a1,s7,c6b0 <emul+0x214>
    c6c4:	ffffc6b7          	lui	a3,0xffffc
    c6c8:	01640433          	add	s0,s0,s6
    c6cc:	00268693          	addi	a3,a3,2 # ffffc002 <__stack_top+0x7ff851b2>
    c6d0:	000a0793          	mv	a5,s4
    c6d4:	04000713          	li	a4,64
    c6d8:	00d406b3          	add	a3,s0,a3
    c6dc:	00000613          	li	a2,0
    c6e0:	000a8593          	mv	a1,s5
    c6e4:	02810513          	addi	a0,sp,40
    c6e8:	00000097          	auipc	ra,0x0
    c6ec:	978080e7          	jalr	-1672(ra) # c060 <emdnorm>
    c6f0:	00c15703          	lhu	a4,12(sp)
    c6f4:	02815783          	lhu	a5,40(sp)
    c6f8:	08f71263          	bne	a4,a5,c77c <emul+0x2e0>
    c6fc:	02011423          	sh	zero,40(sp)
    c700:	00098593          	mv	a1,s3
    c704:	02810513          	addi	a0,sp,40
    c708:	fffff097          	auipc	ra,0xfffff
    c70c:	7bc080e7          	jalr	1980(ra) # bec4 <emovo.isra.6>
    c710:	de5ff06f          	j	c4f4 <emul+0x58>
    c714:	00278793          	addi	a5,a5,2
    c718:	0027d683          	lhu	a3,2(a5)
    c71c:	02068063          	beqz	a3,c73c <emul+0x2a0>
    c720:	00c10513          	addi	a0,sp,12
    c724:	fffff097          	auipc	ra,0xfffff
    c728:	694080e7          	jalr	1684(ra) # bdb8 <enormlz>
    c72c:	40a00433          	neg	s0,a0
    c730:	efdff06f          	j	c62c <emul+0x190>
    c734:	00c10793          	addi	a5,sp,12
    c738:	02010713          	addi	a4,sp,32
    c73c:	fce79ce3          	bne	a5,a4,c714 <emul+0x278>
    c740:	00098513          	mv	a0,s3
    c744:	fffff097          	auipc	ra,0xfffff
    c748:	f48080e7          	jalr	-184(ra) # b68c <eclear>
    c74c:	da9ff06f          	j	c4f4 <emul+0x58>
    c750:	02810793          	addi	a5,sp,40
    c754:	03c10713          	addi	a4,sp,60
    c758:	fee784e3          	beq	a5,a4,c740 <emul+0x2a4>
    c75c:	00278793          	addi	a5,a5,2
    c760:	0027d683          	lhu	a3,2(a5)
    c764:	fe068ae3          	beqz	a3,c758 <emul+0x2bc>
    c768:	02810513          	addi	a0,sp,40
    c76c:	fffff097          	auipc	ra,0xfffff
    c770:	64c080e7          	jalr	1612(ra) # bdb8 <enormlz>
    c774:	40a48b33          	sub	s6,s1,a0
    c778:	ec1ff06f          	j	c638 <emul+0x19c>
    c77c:	fff00793          	li	a5,-1
    c780:	02f11423          	sh	a5,40(sp)
    c784:	f7dff06f          	j	c700 <emul+0x264>

0000c788 <ediv>:
    c788:	f7010113          	addi	sp,sp,-144
    c78c:	08812423          	sw	s0,136(sp)
    c790:	08912223          	sw	s1,132(sp)
    c794:	09212023          	sw	s2,128(sp)
    c798:	07512a23          	sw	s5,116(sp)
    c79c:	08112623          	sw	ra,140(sp)
    c7a0:	07312e23          	sw	s3,124(sp)
    c7a4:	07412c23          	sw	s4,120(sp)
    c7a8:	07612823          	sw	s6,112(sp)
    c7ac:	07712623          	sw	s7,108(sp)
    c7b0:	07812423          	sw	s8,104(sp)
    c7b4:	07912223          	sw	s9,100(sp)
    c7b8:	00050493          	mv	s1,a0
    c7bc:	00058413          	mv	s0,a1
    c7c0:	00060913          	mv	s2,a2
    c7c4:	00068a93          	mv	s5,a3
    c7c8:	fffff097          	auipc	ra,0xfffff
    c7cc:	1c0080e7          	jalr	448(ra) # b988 <eisnan>
    c7d0:	04050463          	beqz	a0,c818 <ediv+0x90>
    c7d4:	00090593          	mv	a1,s2
    c7d8:	00048513          	mv	a0,s1
    c7dc:	fffff097          	auipc	ra,0xfffff
    c7e0:	ec4080e7          	jalr	-316(ra) # b6a0 <emov>
    c7e4:	08c12083          	lw	ra,140(sp)
    c7e8:	08812403          	lw	s0,136(sp)
    c7ec:	08412483          	lw	s1,132(sp)
    c7f0:	08012903          	lw	s2,128(sp)
    c7f4:	07c12983          	lw	s3,124(sp)
    c7f8:	07812a03          	lw	s4,120(sp)
    c7fc:	07412a83          	lw	s5,116(sp)
    c800:	07012b03          	lw	s6,112(sp)
    c804:	06c12b83          	lw	s7,108(sp)
    c808:	06812c03          	lw	s8,104(sp)
    c80c:	06412c83          	lw	s9,100(sp)
    c810:	09010113          	addi	sp,sp,144
    c814:	00008067          	ret
    c818:	00040513          	mv	a0,s0
    c81c:	fffff097          	auipc	ra,0xfffff
    c820:	16c080e7          	jalr	364(ra) # b988 <eisnan>
    c824:	00050863          	beqz	a0,c834 <ediv+0xac>
    c828:	00090593          	mv	a1,s2
    c82c:	00040513          	mv	a0,s0
    c830:	fadff06f          	j	c7dc <ediv+0x54>
    c834:	8003f597          	auipc	a1,0x8003f
    c838:	3e858593          	addi	a1,a1,1000 # 8004bc1c <__stack_top+0xfffd4dcc>
    c83c:	00048513          	mv	a0,s1
    c840:	fffff097          	auipc	ra,0xfffff
    c844:	28c080e7          	jalr	652(ra) # bacc <ecmp>
    c848:	06050063          	beqz	a0,c8a8 <ediv+0x120>
    c84c:	00048513          	mv	a0,s1
    c850:	fffff097          	auipc	ra,0xfffff
    c854:	394080e7          	jalr	916(ra) # bbe4 <eisinf>
    c858:	00050993          	mv	s3,a0
    c85c:	00040513          	mv	a0,s0
    c860:	fffff097          	auipc	ra,0xfffff
    c864:	384080e7          	jalr	900(ra) # bbe4 <eisinf>
    c868:	06099463          	bnez	s3,c8d0 <ediv+0x148>
    c86c:	06050c63          	beqz	a0,c8e4 <ediv+0x15c>
    c870:	00048513          	mv	a0,s1
    c874:	fffff097          	auipc	ra,0xfffff
    c878:	148080e7          	jalr	328(ra) # b9bc <eisneg>
    c87c:	00050493          	mv	s1,a0
    c880:	00040513          	mv	a0,s0
    c884:	fffff097          	auipc	ra,0xfffff
    c888:	138080e7          	jalr	312(ra) # b9bc <eisneg>
    c88c:	24a48e63          	beq	s1,a0,cae8 <ediv+0x360>
    c890:	ffff87b7          	lui	a5,0xffff8
    c894:	00f91923          	sh	a5,18(s2)
    c898:	00090513          	mv	a0,s2
    c89c:	fffff097          	auipc	ra,0xfffff
    c8a0:	380080e7          	jalr	896(ra) # bc1c <einfin.isra.2>
    c8a4:	f41ff06f          	j	c7e4 <ediv+0x5c>
    c8a8:	8003f597          	auipc	a1,0x8003f
    c8ac:	37458593          	addi	a1,a1,884 # 8004bc1c <__stack_top+0xfffd4dcc>
    c8b0:	00040513          	mv	a0,s0
    c8b4:	fffff097          	auipc	ra,0xfffff
    c8b8:	218080e7          	jalr	536(ra) # bacc <ecmp>
    c8bc:	f80518e3          	bnez	a0,c84c <ediv+0xc4>
    c8c0:	00090513          	mv	a0,s2
    c8c4:	fffff097          	auipc	ra,0xfffff
    c8c8:	5e0080e7          	jalr	1504(ra) # bea4 <enan.constprop.12>
    c8cc:	f19ff06f          	j	c7e4 <ediv+0x5c>
    c8d0:	fe0518e3          	bnez	a0,c8c0 <ediv+0x138>
    c8d4:	00090513          	mv	a0,s2
    c8d8:	fffff097          	auipc	ra,0xfffff
    c8dc:	db4080e7          	jalr	-588(ra) # b68c <eclear>
    c8e0:	f05ff06f          	j	c7e4 <ediv+0x5c>
    c8e4:	00048513          	mv	a0,s1
    c8e8:	00c10593          	addi	a1,sp,12
    c8ec:	fffff097          	auipc	ra,0xfffff
    c8f0:	10c080e7          	jalr	268(ra) # b9f8 <emovi>
    c8f4:	00040513          	mv	a0,s0
    c8f8:	02810593          	addi	a1,sp,40
    c8fc:	fffff097          	auipc	ra,0xfffff
    c900:	0fc080e7          	jalr	252(ra) # b9f8 <emovi>
    c904:	02a15483          	lhu	s1,42(sp)
    c908:	00e15403          	lhu	s0,14(sp)
    c90c:	16048c63          	beqz	s1,ca84 <ediv+0x2fc>
    c910:	00e15783          	lhu	a5,14(sp)
    c914:	00040b93          	mv	s7,s0
    c918:	1a078c63          	beqz	a5,cad0 <ediv+0x348>
    c91c:	02812703          	lw	a4,40(sp)
    c920:	038a8793          	addi	a5,s5,56
    c924:	04ea8b13          	addi	s6,s5,78
    c928:	02eaaa23          	sw	a4,52(s5)
    c92c:	00078993          	mv	s3,a5
    c930:	00278793          	addi	a5,a5,2 # ffff8002 <__stack_top+0x7ff811b2>
    c934:	fe079f23          	sh	zero,-2(a5)
    c938:	ff679ce3          	bne	a5,s6,c930 <ediv+0x1a8>
    c93c:	02810513          	addi	a0,sp,40
    c940:	fffff097          	auipc	ra,0xfffff
    c944:	dfc080e7          	jalr	-516(ra) # b73c <eshdn1>
    c948:	01215c03          	lhu	s8,18(sp)
    c94c:	00010a37          	lui	s4,0x10
    c950:	fffa0a13          	addi	s4,s4,-1 # ffff <_exit+0x1f>
    c954:	034c0cb3          	mul	s9,s8,s4
    c958:	02c15783          	lhu	a5,44(sp)
    c95c:	02e15403          	lhu	s0,46(sp)
    c960:	01079793          	slli	a5,a5,0x10
    c964:	008787b3          	add	a5,a5,s0
    c968:	000a0413          	mv	s0,s4
    c96c:	00fce863          	bltu	s9,a5,c97c <ediv+0x1f4>
    c970:	0387d433          	divu	s0,a5,s8
    c974:	01041413          	slli	s0,s0,0x10
    c978:	01045413          	srli	s0,s0,0x10
    c97c:	00c10593          	addi	a1,sp,12
    c980:	00040513          	mv	a0,s0
    c984:	04410613          	addi	a2,sp,68
    c988:	fffff097          	auipc	ra,0xfffff
    c98c:	f64080e7          	jalr	-156(ra) # b8ec <m16m>
    c990:	02810593          	addi	a1,sp,40
    c994:	04410513          	addi	a0,sp,68
    c998:	fffff097          	auipc	ra,0xfffff
    c99c:	d68080e7          	jalr	-664(ra) # b700 <ecmpm>
    c9a0:	02a05a63          	blez	a0,c9d4 <ediv+0x24c>
    c9a4:	04410593          	addi	a1,sp,68
    c9a8:	00c10513          	addi	a0,sp,12
    c9ac:	fffff097          	auipc	ra,0xfffff
    c9b0:	f08080e7          	jalr	-248(ra) # b8b4 <esubm>
    c9b4:	02810593          	addi	a1,sp,40
    c9b8:	04410513          	addi	a0,sp,68
    c9bc:	fffff097          	auipc	ra,0xfffff
    c9c0:	d44080e7          	jalr	-700(ra) # b700 <ecmpm>
    c9c4:	12a04663          	bgtz	a0,caf0 <ediv+0x368>
    c9c8:	fff40413          	addi	s0,s0,-1
    c9cc:	01041413          	slli	s0,s0,0x10
    c9d0:	01045413          	srli	s0,s0,0x10
    c9d4:	02810593          	addi	a1,sp,40
    c9d8:	04410513          	addi	a0,sp,68
    c9dc:	fffff097          	auipc	ra,0xfffff
    c9e0:	ed8080e7          	jalr	-296(ra) # b8b4 <esubm>
    c9e4:	02810513          	addi	a0,sp,40
    c9e8:	00899023          	sh	s0,0(s3)
    c9ec:	00298993          	addi	s3,s3,2
    c9f0:	fffff097          	auipc	ra,0xfffff
    c9f4:	e4c080e7          	jalr	-436(ra) # b83c <eshup6>
    c9f8:	f73b10e3          	bne	s6,s3,c958 <ediv+0x1d0>
    c9fc:	02810713          	addi	a4,sp,40
    ca00:	03e10693          	addi	a3,sp,62
    ca04:	00070793          	mv	a5,a4
    ca08:	00000593          	li	a1,0
    ca0c:	0047d603          	lhu	a2,4(a5)
    ca10:	00278793          	addi	a5,a5,2
    ca14:	00c5e5b3          	or	a1,a1,a2
    ca18:	fef69ae3          	bne	a3,a5,ca0c <ediv+0x284>
    ca1c:	00b035b3          	snez	a1,a1
    ca20:	034a8793          	addi	a5,s5,52
    ca24:	0007d683          	lhu	a3,0(a5)
    ca28:	00278793          	addi	a5,a5,2
    ca2c:	00270713          	addi	a4,a4,2
    ca30:	fed71f23          	sh	a3,-2(a4)
    ca34:	fefb18e3          	bne	s6,a5,ca24 <ediv+0x29c>
    ca38:	000046b7          	lui	a3,0x4
    ca3c:	417484b3          	sub	s1,s1,s7
    ca40:	fff68693          	addi	a3,a3,-1 # 3fff <_ZN6tflite19LinearMemoryPlanner20GetMaximumMemorySizeEv+0x7>
    ca44:	000a8793          	mv	a5,s5
    ca48:	04000713          	li	a4,64
    ca4c:	00d486b3          	add	a3,s1,a3
    ca50:	00000613          	li	a2,0
    ca54:	02810513          	addi	a0,sp,40
    ca58:	fffff097          	auipc	ra,0xfffff
    ca5c:	608080e7          	jalr	1544(ra) # c060 <emdnorm>
    ca60:	00c15703          	lhu	a4,12(sp)
    ca64:	02815783          	lhu	a5,40(sp)
    ca68:	0af71463          	bne	a4,a5,cb10 <ediv+0x388>
    ca6c:	02011423          	sh	zero,40(sp)
    ca70:	00090593          	mv	a1,s2
    ca74:	02810513          	addi	a0,sp,40
    ca78:	fffff097          	auipc	ra,0xfffff
    ca7c:	44c080e7          	jalr	1100(ra) # bec4 <emovo.isra.6>
    ca80:	d65ff06f          	j	c7e4 <ediv+0x5c>
    ca84:	02810793          	addi	a5,sp,40
    ca88:	03c10713          	addi	a4,sp,60
    ca8c:	e4e784e3          	beq	a5,a4,c8d4 <ediv+0x14c>
    ca90:	00278793          	addi	a5,a5,2
    ca94:	0027d683          	lhu	a3,2(a5)
    ca98:	fe068ae3          	beqz	a3,ca8c <ediv+0x304>
    ca9c:	02810513          	addi	a0,sp,40
    caa0:	fffff097          	auipc	ra,0xfffff
    caa4:	318080e7          	jalr	792(ra) # bdb8 <enormlz>
    caa8:	40a004b3          	neg	s1,a0
    caac:	e65ff06f          	j	c910 <ediv+0x188>
    cab0:	00278793          	addi	a5,a5,2
    cab4:	0027d683          	lhu	a3,2(a5)
    cab8:	02068063          	beqz	a3,cad8 <ediv+0x350>
    cabc:	00c10513          	addi	a0,sp,12
    cac0:	fffff097          	auipc	ra,0xfffff
    cac4:	2f8080e7          	jalr	760(ra) # bdb8 <enormlz>
    cac8:	40a40bb3          	sub	s7,s0,a0
    cacc:	e51ff06f          	j	c91c <ediv+0x194>
    cad0:	00c10793          	addi	a5,sp,12
    cad4:	02010713          	addi	a4,sp,32
    cad8:	fce79ce3          	bne	a5,a4,cab0 <ediv+0x328>
    cadc:	00c15703          	lhu	a4,12(sp)
    cae0:	02815783          	lhu	a5,40(sp)
    cae4:	daf716e3          	bne	a4,a5,c890 <ediv+0x108>
    cae8:	00091923          	sh	zero,18(s2)
    caec:	dadff06f          	j	c898 <ediv+0x110>
    caf0:	ffe40413          	addi	s0,s0,-2
    caf4:	01041413          	slli	s0,s0,0x10
    caf8:	04410593          	addi	a1,sp,68
    cafc:	00c10513          	addi	a0,sp,12
    cb00:	01045413          	srli	s0,s0,0x10
    cb04:	fffff097          	auipc	ra,0xfffff
    cb08:	db0080e7          	jalr	-592(ra) # b8b4 <esubm>
    cb0c:	ec9ff06f          	j	c9d4 <ediv+0x24c>
    cb10:	fff00793          	li	a5,-1
    cb14:	02f11423          	sh	a5,40(sp)
    cb18:	f59ff06f          	j	ca70 <ediv+0x2e8>

0000cb1c <_ldtoa_r>:
    cb1c:	0005ae03          	lw	t3,0(a1)
    cb20:	0045a303          	lw	t1,4(a1)
    cb24:	0085a883          	lw	a7,8(a1)
    cb28:	00c5a583          	lw	a1,12(a1)
    cb2c:	e2010113          	addi	sp,sp,-480
    cb30:	1c812c23          	sw	s0,472(sp)
    cb34:	02b12623          	sw	a1,44(sp)
    cb38:	00078413          	mv	s0,a5
    cb3c:	04052583          	lw	a1,64(a0)
    cb40:	fff00793          	li	a5,-1
    cb44:	14f12823          	sw	a5,336(sp)
    cb48:	09000793          	li	a5,144
    cb4c:	1d212823          	sw	s2,464(sp)
    cb50:	1d512223          	sw	s5,452(sp)
    cb54:	1b812c23          	sw	s8,440(sp)
    cb58:	1b912a23          	sw	s9,436(sp)
    cb5c:	1c112e23          	sw	ra,476(sp)
    cb60:	1c912a23          	sw	s1,468(sp)
    cb64:	1d312623          	sw	s3,460(sp)
    cb68:	1d412423          	sw	s4,456(sp)
    cb6c:	1d612023          	sw	s6,448(sp)
    cb70:	1b712e23          	sw	s7,444(sp)
    cb74:	1ba12823          	sw	s10,432(sp)
    cb78:	1bb12623          	sw	s11,428(sp)
    cb7c:	01012823          	sw	a6,16(sp)
    cb80:	03c12023          	sw	t3,32(sp)
    cb84:	02612223          	sw	t1,36(sp)
    cb88:	03112423          	sw	a7,40(sp)
    cb8c:	14f12a23          	sw	a5,340(sp)
    cb90:	00050913          	mv	s2,a0
    cb94:	00060a93          	mv	s5,a2
    cb98:	00068c13          	mv	s8,a3
    cb9c:	00070c93          	mv	s9,a4
    cba0:	02058263          	beqz	a1,cbc4 <_ldtoa_r+0xa8>
    cba4:	04452783          	lw	a5,68(a0)
    cba8:	00100713          	li	a4,1
    cbac:	00f71733          	sll	a4,a4,a5
    cbb0:	00f5a223          	sw	a5,4(a1)
    cbb4:	00e5a423          	sw	a4,8(a1)
    cbb8:	00001097          	auipc	ra,0x1
    cbbc:	138080e7          	jalr	312(ra) # dcf0 <_Bfree>
    cbc0:	04092023          	sw	zero,64(s2)
    cbc4:	02010513          	addi	a0,sp,32
    cbc8:	05010593          	addi	a1,sp,80
    cbcc:	fffff097          	auipc	ra,0xfffff
    cbd0:	370080e7          	jalr	880(ra) # bf3c <e113toe.isra.8>
    cbd4:	05010513          	addi	a0,sp,80
    cbd8:	fffff097          	auipc	ra,0xfffff
    cbdc:	de4080e7          	jalr	-540(ra) # b9bc <eisneg>
    cbe0:	1c050463          	beqz	a0,cda8 <_ldtoa_r+0x28c>
    cbe4:	00100793          	li	a5,1
    cbe8:	00f42023          	sw	a5,0(s0)
    cbec:	00300793          	li	a5,3
    cbf0:	1cfa8063          	beq	s5,a5,cdb0 <_ldtoa_r+0x294>
    cbf4:	01400493          	li	s1,20
    cbf8:	000a8a63          	beqz	s5,cc0c <_ldtoa_r+0xf0>
    cbfc:	fffc0493          	addi	s1,s8,-1
    cc00:	02a00793          	li	a5,42
    cc04:	0097d463          	bge	a5,s1,cc0c <_ldtoa_r+0xf0>
    cc08:	02a00493          	li	s1,42
    cc0c:	15412783          	lw	a5,340(sp)
    cc10:	05010513          	addi	a0,sp,80
    cc14:	00f12a23          	sw	a5,20(sp)
    cc18:	fffff097          	auipc	ra,0xfffff
    cc1c:	d70080e7          	jalr	-656(ra) # b988 <eisnan>
    cc20:	00050b13          	mv	s6,a0
    cc24:	8003f597          	auipc	a1,0x8003f
    cc28:	24c58593          	addi	a1,a1,588 # 8004be70 <__stack_top+0xfffd5020>
    cc2c:	3a0514e3          	bnez	a0,d7d4 <_ldtoa_r+0xcb8>
    cc30:	09000793          	li	a5,144
    cc34:	06c10593          	addi	a1,sp,108
    cc38:	05010513          	addi	a0,sp,80
    cc3c:	14f12a23          	sw	a5,340(sp)
    cc40:	fffff097          	auipc	ra,0xfffff
    cc44:	a60080e7          	jalr	-1440(ra) # b6a0 <emov>
    cc48:	07e15783          	lhu	a5,126(sp)
    cc4c:	00012423          	sw	zero,8(sp)
    cc50:	01079713          	slli	a4,a5,0x10
    cc54:	41075713          	srai	a4,a4,0x10
    cc58:	02075063          	bgez	a4,cc78 <_ldtoa_r+0x15c>
    cc5c:	00008737          	lui	a4,0x8
    cc60:	fff70713          	addi	a4,a4,-1 # 7fff <_svfprintf_r+0x8ef>
    cc64:	00e7f7b3          	and	a5,a5,a4
    cc68:	06f11f23          	sh	a5,126(sp)
    cc6c:	000107b7          	lui	a5,0x10
    cc70:	fff78793          	addi	a5,a5,-1 # ffff <_exit+0x1f>
    cc74:	00f12423          	sw	a5,8(sp)
    cc78:	08810593          	addi	a1,sp,136
    cc7c:	8003f517          	auipc	a0,0x8003f
    cc80:	0b850513          	addi	a0,a0,184 # 8004bd34 <__stack_top+0xfffd4ee4>
    cc84:	fffff097          	auipc	ra,0xfffff
    cc88:	a1c080e7          	jalr	-1508(ra) # b6a0 <emov>
    cc8c:	07e15703          	lhu	a4,126(sp)
    cc90:	320710e3          	bnez	a4,d7b0 <_ldtoa_r+0xc94>
    cc94:	06c10793          	addi	a5,sp,108
    cc98:	07e10713          	addi	a4,sp,126
    cc9c:	0007d683          	lhu	a3,0(a5)
    cca0:	12069463          	bnez	a3,cdc8 <_ldtoa_r+0x2ac>
    cca4:	00278793          	addi	a5,a5,2
    cca8:	fef71ae3          	bne	a4,a5,cc9c <_ldtoa_r+0x180>
    ccac:	00000413          	li	s0,0
    ccb0:	0c010593          	addi	a1,sp,192
    ccb4:	08810513          	addi	a0,sp,136
    ccb8:	fffff097          	auipc	ra,0xfffff
    ccbc:	d40080e7          	jalr	-704(ra) # b9f8 <emovi>
    ccc0:	08810593          	addi	a1,sp,136
    ccc4:	0c010513          	addi	a0,sp,192
    ccc8:	fffff097          	auipc	ra,0xfffff
    cccc:	a10080e7          	jalr	-1520(ra) # b6d8 <emovz>
    ccd0:	0c010593          	addi	a1,sp,192
    ccd4:	06c10513          	addi	a0,sp,108
    ccd8:	fffff097          	auipc	ra,0xfffff
    ccdc:	d20080e7          	jalr	-736(ra) # b9f8 <emovi>
    cce0:	06c10593          	addi	a1,sp,108
    cce4:	0c010513          	addi	a0,sp,192
    cce8:	fffff097          	auipc	ra,0xfffff
    ccec:	9f0080e7          	jalr	-1552(ra) # b6d8 <emovz>
    ccf0:	15010613          	addi	a2,sp,336
    ccf4:	06c10593          	addi	a1,sp,108
    ccf8:	08810513          	addi	a0,sp,136
    ccfc:	fffff097          	auipc	ra,0xfffff
    cd00:	69c080e7          	jalr	1692(ra) # c398 <eiremain>
    cd04:	19c15983          	lhu	s3,412(sp)
    cd08:	8003fa17          	auipc	s4,0x8003f
    cd0c:	f14a0a13          	addi	s4,s4,-236 # 8004bc1c <__stack_top+0xfffd4dcc>
    cd10:	00099c63          	bnez	s3,cd28 <_ldtoa_r+0x20c>
    cd14:	000a0593          	mv	a1,s4
    cd18:	06c10513          	addi	a0,sp,108
    cd1c:	fffff097          	auipc	ra,0xfffff
    cd20:	db0080e7          	jalr	-592(ra) # bacc <ecmp>
    cd24:	76051c63          	bnez	a0,d49c <_ldtoa_r+0x980>
    cd28:	00812783          	lw	a5,8(sp)
    cd2c:	7c078a63          	beqz	a5,d500 <_ldtoa_r+0x9e4>
    cd30:	02d00793          	li	a5,45
    cd34:	10f10a23          	sb	a5,276(sp)
    cd38:	00300793          	li	a5,3
    cd3c:	00048a13          	mv	s4,s1
    cd40:	00fa9a63          	bne	s5,a5,cd54 <_ldtoa_r+0x238>
    cd44:	00848a33          	add	s4,s1,s0
    cd48:	02a00793          	li	a5,42
    cd4c:	0147d463          	bge	a5,s4,cd54 <_ldtoa_r+0x238>
    cd50:	02a00a13          	li	s4,42
    cd54:	00a00793          	li	a5,10
    cd58:	7af99863          	bne	s3,a5,d508 <_ldtoa_r+0x9ec>
    cd5c:	03100793          	li	a5,49
    cd60:	10f10aa3          	sb	a5,277(sp)
    cd64:	02e00793          	li	a5,46
    cd68:	10f10b23          	sb	a5,278(sp)
    cd6c:	11710993          	addi	s3,sp,279
    cd70:	01405a63          	blez	s4,cd84 <_ldtoa_r+0x268>
    cd74:	03000793          	li	a5,48
    cd78:	10f10ba3          	sb	a5,279(sp)
    cd7c:	fffa0a13          	addi	s4,s4,-1
    cd80:	11810993          	addi	s3,sp,280
    cd84:	00140413          	addi	s0,s0,1
    cd88:	780a5a63          	bgez	s4,d51c <_ldtoa_r+0xa00>
    cd8c:	00040613          	mv	a2,s0
    cd90:	8003f597          	auipc	a1,0x8003f
    cd94:	10458593          	addi	a1,a1,260 # 8004be94 <__stack_top+0xfffd5044>
    cd98:	00098513          	mv	a0,s3
    cd9c:	ffffa097          	auipc	ra,0xffffa
    cda0:	708080e7          	jalr	1800(ra) # 74a4 <sprintf>
    cda4:	2450006f          	j	d7e8 <_ldtoa_r+0xccc>
    cda8:	00042023          	sw	zero,0(s0)
    cdac:	e41ff06f          	j	cbec <_ldtoa_r+0xd0>
    cdb0:	000c0493          	mv	s1,s8
    cdb4:	e4dff06f          	j	cc00 <_ldtoa_r+0xe4>
    cdb8:	07c11783          	lh	a5,124(sp)
    cdbc:	8003f597          	auipc	a1,0x8003f
    cdc0:	0d458593          	addi	a1,a1,212 # 8004be90 <__stack_top+0xfffd5040>
    cdc4:	2007d8e3          	bgez	a5,d7d4 <_ldtoa_r+0xcb8>
    cdc8:	06c10593          	addi	a1,sp,108
    cdcc:	8003f517          	auipc	a0,0x8003f
    cdd0:	f6850513          	addi	a0,a0,-152 # 8004bd34 <__stack_top+0xfffd4ee4>
    cdd4:	fffff097          	auipc	ra,0xfffff
    cdd8:	cf8080e7          	jalr	-776(ra) # bacc <ecmp>
    cddc:	ec0508e3          	beqz	a0,ccac <_ldtoa_r+0x190>
    cde0:	4c055e63          	bgez	a0,d2bc <_ldtoa_r+0x7a0>
    cde4:	0a410593          	addi	a1,sp,164
    cde8:	06c10513          	addi	a0,sp,108
    cdec:	fffff097          	auipc	ra,0xfffff
    cdf0:	8b4080e7          	jalr	-1868(ra) # b6a0 <emov>
    cdf4:	000047b7          	lui	a5,0x4
    cdf8:	08e78793          	addi	a5,a5,142 # 408e <_ZN6tflite19LinearMemoryPlanner18GetOffsetForBufferEiPi+0xe>
    cdfc:	0af11b23          	sh	a5,182(sp)
    ce00:	01000793          	li	a5,16
    ce04:	00f12623          	sw	a5,12(sp)
    ce08:	000087b7          	lui	a5,0x8
    ce0c:	fff78793          	addi	a5,a5,-1 # 7fff <_svfprintf_r+0x8ef>
    ce10:	00f12c23          	sw	a5,24(sp)
    ce14:	ffffc7b7          	lui	a5,0xffffc
    ce18:	00278793          	addi	a5,a5,2 # ffffc002 <__stack_top+0x7ff851b2>
    ce1c:	00000413          	li	s0,0
    ce20:	8003fb97          	auipc	s7,0x8003f
    ce24:	eb0b8b93          	addi	s7,s7,-336 # 8004bcd0 <__stack_top+0xfffd4e80>
    ce28:	00f12e23          	sw	a5,28(sp)
    ce2c:	8003f997          	auipc	s3,0x8003f
    ce30:	f0898993          	addi	s3,s3,-248 # 8004bd34 <__stack_top+0xfffd4ee4>
    ce34:	15010693          	addi	a3,sp,336
    ce38:	08810613          	addi	a2,sp,136
    ce3c:	0a410593          	addi	a1,sp,164
    ce40:	000b8513          	mv	a0,s7
    ce44:	00000097          	auipc	ra,0x0
    ce48:	944080e7          	jalr	-1724(ra) # c788 <ediv>
    ce4c:	03c10593          	addi	a1,sp,60
    ce50:	08810513          	addi	a0,sp,136
    ce54:	fffff097          	auipc	ra,0xfffff
    ce58:	84c080e7          	jalr	-1972(ra) # b6a0 <emov>
    ce5c:	01812783          	lw	a5,24(sp)
    ce60:	04e15a03          	lhu	s4,78(sp)
    ce64:	00fa7d33          	and	s10,s4,a5
    ce68:	01c12783          	lw	a5,28(sp)
    ce6c:	00fd0d33          	add	s10,s10,a5
    ce70:	07a04063          	bgtz	s10,ced0 <_ldtoa_r+0x3b4>
    ce74:	0c010513          	addi	a0,sp,192
    ce78:	fffff097          	auipc	ra,0xfffff
    ce7c:	814080e7          	jalr	-2028(ra) # b68c <eclear>
    ce80:	010a1a13          	slli	s4,s4,0x10
    ce84:	410a5a13          	srai	s4,s4,0x10
    ce88:	120a5a63          	bgez	s4,cfbc <_ldtoa_r+0x4a0>
    ce8c:	00000793          	li	a5,0
    ce90:	03c10713          	addi	a4,sp,60
    ce94:	00f70733          	add	a4,a4,a5
    ce98:	00075683          	lhu	a3,0(a4)
    ce9c:	0c010713          	addi	a4,sp,192
    cea0:	00f70733          	add	a4,a4,a5
    cea4:	00075703          	lhu	a4,0(a4)
    cea8:	40e68263          	beq	a3,a4,d2ac <_ldtoa_r+0x790>
    ceac:	00098513          	mv	a0,s3
    ceb0:	fffff097          	auipc	ra,0xfffff
    ceb4:	ad8080e7          	jalr	-1320(ra) # b988 <eisnan>
    ceb8:	08050a63          	beqz	a0,cf4c <_ldtoa_r+0x430>
    cebc:	0c010593          	addi	a1,sp,192
    cec0:	00098513          	mv	a0,s3
    cec4:	ffffe097          	auipc	ra,0xffffe
    cec8:	7dc080e7          	jalr	2012(ra) # b6a0 <emov>
    cecc:	0f00006f          	j	cfbc <_ldtoa_r+0x4a0>
    ced0:	09000793          	li	a5,144
    ced4:	41a78d33          	sub	s10,a5,s10
    ced8:	0c010593          	addi	a1,sp,192
    cedc:	03c10513          	addi	a0,sp,60
    cee0:	ffffe097          	auipc	ra,0xffffe
    cee4:	7c0080e7          	jalr	1984(ra) # b6a0 <emov>
    cee8:	0da05a63          	blez	s10,cfbc <_ldtoa_r+0x4a0>
    ceec:	0c010713          	addi	a4,sp,192
    cef0:	000d0793          	mv	a5,s10
    cef4:	00f00693          	li	a3,15
    cef8:	04f6c263          	blt	a3,a5,cf3c <_ldtoa_r+0x420>
    cefc:	004d5793          	srli	a5,s10,0x4
    cf00:	00179713          	slli	a4,a5,0x1
    cf04:	0c010693          	addi	a3,sp,192
    cf08:	00e68733          	add	a4,a3,a4
    cf0c:	ff000693          	li	a3,-16
    cf10:	02d787b3          	mul	a5,a5,a3
    cf14:	8003f697          	auipc	a3,0x8003f
    cf18:	d0868693          	addi	a3,a3,-760 # 8004bc1c <__stack_top+0xfffd4dcc>
    cf1c:	01a787b3          	add	a5,a5,s10
    cf20:	00179793          	slli	a5,a5,0x1
    cf24:	00f687b3          	add	a5,a3,a5
    cf28:	12c7d783          	lhu	a5,300(a5)
    cf2c:	00075683          	lhu	a3,0(a4)
    cf30:	00d7f7b3          	and	a5,a5,a3
    cf34:	00f71023          	sh	a5,0(a4)
    cf38:	f49ff06f          	j	ce80 <_ldtoa_r+0x364>
    cf3c:	00071023          	sh	zero,0(a4)
    cf40:	ff078793          	addi	a5,a5,-16
    cf44:	00270713          	addi	a4,a4,2
    cf48:	fb1ff06f          	j	cef8 <_ldtoa_r+0x3dc>
    cf4c:	0c010513          	addi	a0,sp,192
    cf50:	fffff097          	auipc	ra,0xfffff
    cf54:	a38080e7          	jalr	-1480(ra) # b988 <eisnan>
    cf58:	00050863          	beqz	a0,cf68 <_ldtoa_r+0x44c>
    cf5c:	0c010593          	addi	a1,sp,192
    cf60:	00058513          	mv	a0,a1
    cf64:	f61ff06f          	j	cec4 <_ldtoa_r+0x3a8>
    cf68:	00098513          	mv	a0,s3
    cf6c:	fffff097          	auipc	ra,0xfffff
    cf70:	c78080e7          	jalr	-904(ra) # bbe4 <eisinf>
    cf74:	00050a13          	mv	s4,a0
    cf78:	0c010513          	addi	a0,sp,192
    cf7c:	fffff097          	auipc	ra,0xfffff
    cf80:	c68080e7          	jalr	-920(ra) # bbe4 <eisinf>
    cf84:	00050d13          	mv	s10,a0
    cf88:	160a0e63          	beqz	s4,d104 <_ldtoa_r+0x5e8>
    cf8c:	14050263          	beqz	a0,d0d0 <_ldtoa_r+0x5b4>
    cf90:	00098513          	mv	a0,s3
    cf94:	fffff097          	auipc	ra,0xfffff
    cf98:	a28080e7          	jalr	-1496(ra) # b9bc <eisneg>
    cf9c:	00050a13          	mv	s4,a0
    cfa0:	0c010513          	addi	a0,sp,192
    cfa4:	fffff097          	auipc	ra,0xfffff
    cfa8:	a18080e7          	jalr	-1512(ra) # b9bc <eisneg>
    cfac:	12aa1263          	bne	s4,a0,d0d0 <_ldtoa_r+0x5b4>
    cfb0:	0c010513          	addi	a0,sp,192
    cfb4:	fffff097          	auipc	ra,0xfffff
    cfb8:	ef0080e7          	jalr	-272(ra) # bea4 <enan.constprop.12>
    cfbc:	00000793          	li	a5,0
    cfc0:	08810713          	addi	a4,sp,136
    cfc4:	00f70733          	add	a4,a4,a5
    cfc8:	00075683          	lhu	a3,0(a4)
    cfcc:	0c010713          	addi	a4,sp,192
    cfd0:	00f70733          	add	a4,a4,a5
    cfd4:	00075703          	lhu	a4,0(a4)
    cfd8:	02e69463          	bne	a3,a4,d000 <_ldtoa_r+0x4e4>
    cfdc:	00278793          	addi	a5,a5,2
    cfe0:	01200713          	li	a4,18
    cfe4:	fce79ee3          	bne	a5,a4,cfc0 <_ldtoa_r+0x4a4>
    cfe8:	0a410593          	addi	a1,sp,164
    cfec:	08810513          	addi	a0,sp,136
    cff0:	ffffe097          	auipc	ra,0xffffe
    cff4:	6b0080e7          	jalr	1712(ra) # b6a0 <emov>
    cff8:	00c12783          	lw	a5,12(sp)
    cffc:	00f40433          	add	s0,s0,a5
    d000:	00c12783          	lw	a5,12(sp)
    d004:	014b8b93          	addi	s7,s7,20
    d008:	0017d793          	srli	a5,a5,0x1
    d00c:	00f12623          	sw	a5,12(sp)
    d010:	e33b92e3          	bne	s7,s3,ce34 <_ldtoa_r+0x318>
    d014:	0b615783          	lhu	a5,182(sp)
    d018:	07e15703          	lhu	a4,126(sp)
    d01c:	06c10593          	addi	a1,sp,108
    d020:	0a410513          	addi	a0,sp,164
    d024:	00e787b3          	add	a5,a5,a4
    d028:	ffffc737          	lui	a4,0xffffc
    d02c:	f7270713          	addi	a4,a4,-142 # ffffbf72 <__stack_top+0x7ff85122>
    d030:	00e787b3          	add	a5,a5,a4
    d034:	0af11b23          	sh	a5,182(sp)
    d038:	ffffe097          	auipc	ra,0xffffe
    d03c:	668080e7          	jalr	1640(ra) # b6a0 <emov>
    d040:	000b8513          	mv	a0,s7
    d044:	08810593          	addi	a1,sp,136
    d048:	ffffe097          	auipc	ra,0xffffe
    d04c:	658080e7          	jalr	1624(ra) # b6a0 <emov>
    d050:	00001a37          	lui	s4,0x1
    d054:	8003f997          	auipc	s3,0x8003f
    d058:	bdc98993          	addi	s3,s3,-1060 # 8004bc30 <__stack_top+0xfffd4de0>
    d05c:	8003fb97          	auipc	s7,0x8003f
    d060:	cc4b8b93          	addi	s7,s7,-828 # 8004bd20 <__stack_top+0xfffd4ed0>
    d064:	0a410593          	addi	a1,sp,164
    d068:	000b8513          	mv	a0,s7
    d06c:	fffff097          	auipc	ra,0xfffff
    d070:	a60080e7          	jalr	-1440(ra) # bacc <ecmp>
    d074:	c2a04ee3          	bgtz	a0,ccb0 <_ldtoa_r+0x194>
    d078:	0a410593          	addi	a1,sp,164
    d07c:	00098513          	mv	a0,s3
    d080:	fffff097          	auipc	ra,0xfffff
    d084:	a4c080e7          	jalr	-1460(ra) # bacc <ecmp>
    d088:	02a04c63          	bgtz	a0,d0c0 <_ldtoa_r+0x5a4>
    d08c:	0a410613          	addi	a2,sp,164
    d090:	00060593          	mv	a1,a2
    d094:	15010693          	addi	a3,sp,336
    d098:	00098513          	mv	a0,s3
    d09c:	fffff097          	auipc	ra,0xfffff
    d0a0:	6ec080e7          	jalr	1772(ra) # c788 <ediv>
    d0a4:	08810613          	addi	a2,sp,136
    d0a8:	15010693          	addi	a3,sp,336
    d0ac:	00060593          	mv	a1,a2
    d0b0:	00098513          	mv	a0,s3
    d0b4:	fffff097          	auipc	ra,0xfffff
    d0b8:	3e8080e7          	jalr	1000(ra) # c49c <emul>
    d0bc:	01440433          	add	s0,s0,s4
    d0c0:	001a5a13          	srli	s4,s4,0x1
    d0c4:	bf7986e3          	beq	s3,s7,ccb0 <_ldtoa_r+0x194>
    d0c8:	01498993          	addi	s3,s3,20
    d0cc:	f99ff06f          	j	d064 <_ldtoa_r+0x548>
    d0d0:	00098513          	mv	a0,s3
    d0d4:	0c010593          	addi	a1,sp,192
    d0d8:	ffffe097          	auipc	ra,0xffffe
    d0dc:	5c8080e7          	jalr	1480(ra) # b6a0 <emov>
    d0e0:	0c010513          	addi	a0,sp,192
    d0e4:	fffff097          	auipc	ra,0xfffff
    d0e8:	8a4080e7          	jalr	-1884(ra) # b988 <eisnan>
    d0ec:	ec0518e3          	bnez	a0,cfbc <_ldtoa_r+0x4a0>
    d0f0:	0d215783          	lhu	a5,210(sp)
    d0f4:	ffff8737          	lui	a4,0xffff8
    d0f8:	00e7c7b3          	xor	a5,a5,a4
    d0fc:	0cf11923          	sh	a5,210(sp)
    d100:	ebdff06f          	j	cfbc <_ldtoa_r+0x4a0>
    d104:	e4051ce3          	bnez	a0,cf5c <_ldtoa_r+0x440>
    d108:	0dc10593          	addi	a1,sp,220
    d10c:	00098513          	mv	a0,s3
    d110:	fffff097          	auipc	ra,0xfffff
    d114:	8e8080e7          	jalr	-1816(ra) # b9f8 <emovi>
    d118:	0f810593          	addi	a1,sp,248
    d11c:	0c010513          	addi	a0,sp,192
    d120:	fffff097          	auipc	ra,0xfffff
    d124:	8d8080e7          	jalr	-1832(ra) # b9f8 <emovi>
    d128:	0dc15783          	lhu	a5,220(sp)
    d12c:	0de15d83          	lhu	s11,222(sp)
    d130:	0fa15a03          	lhu	s4,250(sp)
    d134:	fff7c793          	not	a5,a5
    d138:	0cf11e23          	sh	a5,220(sp)
    d13c:	414d85b3          	sub	a1,s11,s4
    d140:	02b05e63          	blez	a1,d17c <_ldtoa_r+0x660>
    d144:	11410593          	addi	a1,sp,276
    d148:	0f810513          	addi	a0,sp,248
    d14c:	ffffe097          	auipc	ra,0xffffe
    d150:	58c080e7          	jalr	1420(ra) # b6d8 <emovz>
    d154:	0f810593          	addi	a1,sp,248
    d158:	0dc10513          	addi	a0,sp,220
    d15c:	ffffe097          	auipc	ra,0xffffe
    d160:	57c080e7          	jalr	1404(ra) # b6d8 <emovz>
    d164:	0dc10593          	addi	a1,sp,220
    d168:	11410513          	addi	a0,sp,276
    d16c:	ffffe097          	auipc	ra,0xffffe
    d170:	56c080e7          	jalr	1388(ra) # b6d8 <emovz>
    d174:	41ba05b3          	sub	a1,s4,s11
    d178:	0fa15a03          	lhu	s4,250(sp)
    d17c:	04058e63          	beqz	a1,d1d8 <_ldtoa_r+0x6bc>
    d180:	f6f00793          	li	a5,-145
    d184:	0af5c063          	blt	a1,a5,d224 <_ldtoa_r+0x708>
    d188:	0dc10513          	addi	a0,sp,220
    d18c:	fffff097          	auipc	ra,0xfffff
    d190:	abc080e7          	jalr	-1348(ra) # bc48 <eshift.part.3>
    d194:	00050d93          	mv	s11,a0
    d198:	0dc15703          	lhu	a4,220(sp)
    d19c:	0f815783          	lhu	a5,248(sp)
    d1a0:	0f810593          	addi	a1,sp,248
    d1a4:	0dc10513          	addi	a0,sp,220
    d1a8:	0ef71a63          	bne	a4,a5,d29c <_ldtoa_r+0x780>
    d1ac:	ffffe097          	auipc	ra,0xffffe
    d1b0:	6d0080e7          	jalr	1744(ra) # b87c <eaddm>
    d1b4:	15010793          	addi	a5,sp,336
    d1b8:	04000713          	li	a4,64
    d1bc:	000a0693          	mv	a3,s4
    d1c0:	000d0613          	mv	a2,s10
    d1c4:	000d8593          	mv	a1,s11
    d1c8:	0f810513          	addi	a0,sp,248
    d1cc:	fffff097          	auipc	ra,0xfffff
    d1d0:	e94080e7          	jalr	-364(ra) # c060 <emdnorm>
    d1d4:	0500006f          	j	d224 <_ldtoa_r+0x708>
    d1d8:	0f810593          	addi	a1,sp,248
    d1dc:	0dc10513          	addi	a0,sp,220
    d1e0:	ffffe097          	auipc	ra,0xffffe
    d1e4:	520080e7          	jalr	1312(ra) # b700 <ecmpm>
    d1e8:	06051c63          	bnez	a0,d260 <_ldtoa_r+0x744>
    d1ec:	0dc15703          	lhu	a4,220(sp)
    d1f0:	0f815783          	lhu	a5,248(sp)
    d1f4:	00f70a63          	beq	a4,a5,d208 <_ldtoa_r+0x6ec>
    d1f8:	0c010513          	addi	a0,sp,192
    d1fc:	ffffe097          	auipc	ra,0xffffe
    d200:	490080e7          	jalr	1168(ra) # b68c <eclear>
    d204:	db9ff06f          	j	cfbc <_ldtoa_r+0x4a0>
    d208:	0fa15783          	lhu	a5,250(sp)
    d20c:	02079663          	bnez	a5,d238 <_ldtoa_r+0x71c>
    d210:	0fe11783          	lh	a5,254(sp)
    d214:	0207c263          	bltz	a5,d238 <_ldtoa_r+0x71c>
    d218:	0f810513          	addi	a0,sp,248
    d21c:	ffffe097          	auipc	ra,0xffffe
    d220:	570080e7          	jalr	1392(ra) # b78c <eshup1>
    d224:	0c010593          	addi	a1,sp,192
    d228:	0f810513          	addi	a0,sp,248
    d22c:	fffff097          	auipc	ra,0xfffff
    d230:	c98080e7          	jalr	-872(ra) # bec4 <emovo.isra.6>
    d234:	d89ff06f          	j	cfbc <_ldtoa_r+0x4a0>
    d238:	0f810793          	addi	a5,sp,248
    d23c:	10e10713          	addi	a4,sp,270
    d240:	0027d683          	lhu	a3,2(a5)
    d244:	00068863          	beqz	a3,d254 <_ldtoa_r+0x738>
    d248:	001a0a13          	addi	s4,s4,1 # 1001 <_ZN6tflite21MicroInterpreterGraph15ResetTensorDataEPKNS_6TensorEP16TfLiteEvalTensor+0x51>
    d24c:	0f411d23          	sh	s4,250(sp)
    d250:	fd5ff06f          	j	d224 <_ldtoa_r+0x708>
    d254:	00278793          	addi	a5,a5,2
    d258:	fef714e3          	bne	a4,a5,d240 <_ldtoa_r+0x724>
    d25c:	ff1ff06f          	j	d24c <_ldtoa_r+0x730>
    d260:	00000d93          	li	s11,0
    d264:	f2a05ae3          	blez	a0,d198 <_ldtoa_r+0x67c>
    d268:	11410593          	addi	a1,sp,276
    d26c:	0f810513          	addi	a0,sp,248
    d270:	ffffe097          	auipc	ra,0xffffe
    d274:	468080e7          	jalr	1128(ra) # b6d8 <emovz>
    d278:	0f810593          	addi	a1,sp,248
    d27c:	0dc10513          	addi	a0,sp,220
    d280:	ffffe097          	auipc	ra,0xffffe
    d284:	458080e7          	jalr	1112(ra) # b6d8 <emovz>
    d288:	0dc10593          	addi	a1,sp,220
    d28c:	11410513          	addi	a0,sp,276
    d290:	ffffe097          	auipc	ra,0xffffe
    d294:	448080e7          	jalr	1096(ra) # b6d8 <emovz>
    d298:	f01ff06f          	j	d198 <_ldtoa_r+0x67c>
    d29c:	ffffe097          	auipc	ra,0xffffe
    d2a0:	618080e7          	jalr	1560(ra) # b8b4 <esubm>
    d2a4:	00100d13          	li	s10,1
    d2a8:	f0dff06f          	j	d1b4 <_ldtoa_r+0x698>
    d2ac:	00278793          	addi	a5,a5,2
    d2b0:	01200713          	li	a4,18
    d2b4:	bce79ee3          	bne	a5,a4,ce90 <_ldtoa_r+0x374>
    d2b8:	d05ff06f          	j	cfbc <_ldtoa_r+0x4a0>
    d2bc:	07e15783          	lhu	a5,126(sp)
    d2c0:	00000413          	li	s0,0
    d2c4:	8003f997          	auipc	s3,0x8003f
    d2c8:	a5c98993          	addi	s3,s3,-1444 # 8004bd20 <__stack_top+0xfffd4ed0>
    d2cc:	0c078863          	beqz	a5,d39c <_ldtoa_r+0x880>
    d2d0:	0c010593          	addi	a1,sp,192
    d2d4:	06c10513          	addi	a0,sp,108
    d2d8:	000049b7          	lui	s3,0x4
    d2dc:	ffffe097          	auipc	ra,0xffffe
    d2e0:	71c080e7          	jalr	1820(ra) # b9f8 <emovi>
    d2e4:	ffe98993          	addi	s3,s3,-2 # 3ffe <_ZN6tflite19LinearMemoryPlanner20GetMaximumMemorySizeEv+0x6>
    d2e8:	fd500a13          	li	s4,-43
    d2ec:	0d815783          	lhu	a5,216(sp)
    d2f0:	0077f793          	andi	a5,a5,7
    d2f4:	06079c63          	bnez	a5,d36c <_ldtoa_r+0x850>
    d2f8:	0a410593          	addi	a1,sp,164
    d2fc:	0c010513          	addi	a0,sp,192
    d300:	ffffe097          	auipc	ra,0xffffe
    d304:	3d8080e7          	jalr	984(ra) # b6d8 <emovz>
    d308:	0a410513          	addi	a0,sp,164
    d30c:	ffffe097          	auipc	ra,0xffffe
    d310:	430080e7          	jalr	1072(ra) # b73c <eshdn1>
    d314:	0a410513          	addi	a0,sp,164
    d318:	ffffe097          	auipc	ra,0xffffe
    d31c:	424080e7          	jalr	1060(ra) # b73c <eshdn1>
    d320:	0a410593          	addi	a1,sp,164
    d324:	0c010513          	addi	a0,sp,192
    d328:	ffffe097          	auipc	ra,0xffffe
    d32c:	554080e7          	jalr	1364(ra) # b87c <eaddm>
    d330:	0a615783          	lhu	a5,166(sp)
    d334:	00378793          	addi	a5,a5,3
    d338:	0af11323          	sh	a5,166(sp)
    d33c:	0a815783          	lhu	a5,168(sp)
    d340:	14079263          	bnez	a5,d484 <_ldtoa_r+0x968>
    d344:	0bc15783          	lhu	a5,188(sp)
    d348:	02079263          	bnez	a5,d36c <_ldtoa_r+0x850>
    d34c:	0a615783          	lhu	a5,166(sp)
    d350:	00f9ee63          	bltu	s3,a5,d36c <_ldtoa_r+0x850>
    d354:	0c010593          	addi	a1,sp,192
    d358:	0a410513          	addi	a0,sp,164
    d35c:	fff40413          	addi	s0,s0,-1
    d360:	ffffe097          	auipc	ra,0xffffe
    d364:	378080e7          	jalr	888(ra) # b6d8 <emovz>
    d368:	f94412e3          	bne	s0,s4,d2ec <_ldtoa_r+0x7d0>
    d36c:	06c10593          	addi	a1,sp,108
    d370:	0c010513          	addi	a0,sp,192
    d374:	fffff097          	auipc	ra,0xfffff
    d378:	b50080e7          	jalr	-1200(ra) # bec4 <emovo.isra.6>
    d37c:	0280006f          	j	d3a4 <_ldtoa_r+0x888>
    d380:	06c10613          	addi	a2,sp,108
    d384:	15010693          	addi	a3,sp,336
    d388:	00060593          	mv	a1,a2
    d38c:	00098513          	mv	a0,s3
    d390:	fffff097          	auipc	ra,0xfffff
    d394:	10c080e7          	jalr	268(ra) # c49c <emul>
    d398:	fff40413          	addi	s0,s0,-1
    d39c:	07c11783          	lh	a5,124(sp)
    d3a0:	fe07d0e3          	bgez	a5,d380 <_ldtoa_r+0x864>
    d3a4:	0c010593          	addi	a1,sp,192
    d3a8:	06c10513          	addi	a0,sp,108
    d3ac:	ffffe097          	auipc	ra,0xffffe
    d3b0:	2f4080e7          	jalr	756(ra) # b6a0 <emov>
    d3b4:	08810593          	addi	a1,sp,136
    d3b8:	8003f517          	auipc	a0,0x8003f
    d3bc:	97c50513          	addi	a0,a0,-1668 # 8004bd34 <__stack_top+0xfffd4ee4>
    d3c0:	ffffe097          	auipc	ra,0xffffe
    d3c4:	2e0080e7          	jalr	736(ra) # b6a0 <emov>
    d3c8:	00000b93          	li	s7,0
    d3cc:	fffff9b7          	lui	s3,0xfffff
    d3d0:	8003fd97          	auipc	s11,0x8003f
    d3d4:	99cd8d93          	addi	s11,s11,-1636 # 8004bd6c <__stack_top+0xfffd4f1c>
    d3d8:	00200d13          	li	s10,2
    d3dc:	017d8733          	add	a4,s11,s7
    d3e0:	8003f797          	auipc	a5,0x8003f
    d3e4:	85078793          	addi	a5,a5,-1968 # 8004bc30 <__stack_top+0xfffd4de0>
    d3e8:	0c010593          	addi	a1,sp,192
    d3ec:	8003f517          	auipc	a0,0x8003f
    d3f0:	94850513          	addi	a0,a0,-1720 # 8004bd34 <__stack_top+0xfffd4ee4>
    d3f4:	00e12623          	sw	a4,12(sp)
    d3f8:	01778a33          	add	s4,a5,s7
    d3fc:	ffffe097          	auipc	ra,0xffffe
    d400:	6d0080e7          	jalr	1744(ra) # bacc <ecmp>
    d404:	00c12703          	lw	a4,12(sp)
    d408:	04a05e63          	blez	a0,d464 <_ldtoa_r+0x948>
    d40c:	0c010593          	addi	a1,sp,192
    d410:	00070513          	mv	a0,a4
    d414:	ffffe097          	auipc	ra,0xffffe
    d418:	6b8080e7          	jalr	1720(ra) # bacc <ecmp>
    d41c:	02054c63          	bltz	a0,d454 <_ldtoa_r+0x938>
    d420:	0c010613          	addi	a2,sp,192
    d424:	00060593          	mv	a1,a2
    d428:	15010693          	addi	a3,sp,336
    d42c:	000a0513          	mv	a0,s4
    d430:	fffff097          	auipc	ra,0xfffff
    d434:	06c080e7          	jalr	108(ra) # c49c <emul>
    d438:	08810613          	addi	a2,sp,136
    d43c:	15010693          	addi	a3,sp,336
    d440:	00060593          	mv	a1,a2
    d444:	000a0513          	mv	a0,s4
    d448:	fffff097          	auipc	ra,0xfffff
    d44c:	054080e7          	jalr	84(ra) # c49c <emul>
    d450:	01340433          	add	s0,s0,s3
    d454:	014b8b93          	addi	s7,s7,20
    d458:	10400793          	li	a5,260
    d45c:	03a9c9b3          	div	s3,s3,s10
    d460:	f6fb9ee3          	bne	s7,a5,d3dc <_ldtoa_r+0x8c0>
    d464:	08810613          	addi	a2,sp,136
    d468:	15010693          	addi	a3,sp,336
    d46c:	8003f597          	auipc	a1,0x8003f
    d470:	8c858593          	addi	a1,a1,-1848 # 8004bd34 <__stack_top+0xfffd4ee4>
    d474:	00060513          	mv	a0,a2
    d478:	fffff097          	auipc	ra,0xfffff
    d47c:	310080e7          	jalr	784(ra) # c788 <ediv>
    d480:	831ff06f          	j	ccb0 <_ldtoa_r+0x194>
    d484:	0a410513          	addi	a0,sp,164
    d488:	ffffe097          	auipc	ra,0xffffe
    d48c:	2b4080e7          	jalr	692(ra) # b73c <eshdn1>
    d490:	0a615783          	lhu	a5,166(sp)
    d494:	00178793          	addi	a5,a5,1
    d498:	ea1ff06f          	j	d338 <_ldtoa_r+0x81c>
    d49c:	06c10513          	addi	a0,sp,108
    d4a0:	ffffe097          	auipc	ra,0xffffe
    d4a4:	2ec080e7          	jalr	748(ra) # b78c <eshup1>
    d4a8:	0a410593          	addi	a1,sp,164
    d4ac:	06c10513          	addi	a0,sp,108
    d4b0:	ffffe097          	auipc	ra,0xffffe
    d4b4:	228080e7          	jalr	552(ra) # b6d8 <emovz>
    d4b8:	0a410513          	addi	a0,sp,164
    d4bc:	ffffe097          	auipc	ra,0xffffe
    d4c0:	2d0080e7          	jalr	720(ra) # b78c <eshup1>
    d4c4:	0a410513          	addi	a0,sp,164
    d4c8:	ffffe097          	auipc	ra,0xffffe
    d4cc:	2c4080e7          	jalr	708(ra) # b78c <eshup1>
    d4d0:	06c10593          	addi	a1,sp,108
    d4d4:	0a410513          	addi	a0,sp,164
    d4d8:	ffffe097          	auipc	ra,0xffffe
    d4dc:	3a4080e7          	jalr	932(ra) # b87c <eaddm>
    d4e0:	15010613          	addi	a2,sp,336
    d4e4:	06c10593          	addi	a1,sp,108
    d4e8:	08810513          	addi	a0,sp,136
    d4ec:	fffff097          	auipc	ra,0xfffff
    d4f0:	eac080e7          	jalr	-340(ra) # c398 <eiremain>
    d4f4:	fff40413          	addi	s0,s0,-1
    d4f8:	19c15983          	lhu	s3,412(sp)
    d4fc:	815ff06f          	j	cd10 <_ldtoa_r+0x1f4>
    d500:	02000793          	li	a5,32
    d504:	831ff06f          	j	cd34 <_ldtoa_r+0x218>
    d508:	03098993          	addi	s3,s3,48 # fffff030 <__stack_top+0x7ff881e0>
    d50c:	02e00793          	li	a5,46
    d510:	11310aa3          	sb	s3,277(sp)
    d514:	10f10b23          	sb	a5,278(sp)
    d518:	11710993          	addi	s3,sp,279
    d51c:	01698bb3          	add	s7,s3,s6
    d520:	056a5663          	bge	s4,s6,d56c <_ldtoa_r+0xa50>
    d524:	19c15783          	lhu	a5,412(sp)
    d528:	00400713          	li	a4,4
    d52c:	fffb8993          	addi	s3,s7,-1
    d530:	84f75ee3          	bge	a4,a5,cd8c <_ldtoa_r+0x270>
    d534:	00500713          	li	a4,5
    d538:	0ae78063          	beq	a5,a4,d5d8 <_ldtoa_r+0xabc>
    d53c:	00098793          	mv	a5,s3
    d540:	02e00613          	li	a2,46
    d544:	03800593          	li	a1,56
    d548:	03000693          	li	a3,48
    d54c:	fff78793          	addi	a5,a5,-1
    d550:	0007c703          	lbu	a4,0(a5)
    d554:	07f77713          	andi	a4,a4,127
    d558:	0c0a5863          	bgez	s4,d628 <_ldtoa_r+0xb0c>
    d55c:	03100713          	li	a4,49
    d560:	00e78023          	sb	a4,0(a5)
    d564:	00140413          	addi	s0,s0,1
    d568:	825ff06f          	j	cd8c <_ldtoa_r+0x270>
    d56c:	06c10513          	addi	a0,sp,108
    d570:	ffffe097          	auipc	ra,0xffffe
    d574:	21c080e7          	jalr	540(ra) # b78c <eshup1>
    d578:	0a410593          	addi	a1,sp,164
    d57c:	06c10513          	addi	a0,sp,108
    d580:	ffffe097          	auipc	ra,0xffffe
    d584:	158080e7          	jalr	344(ra) # b6d8 <emovz>
    d588:	0a410513          	addi	a0,sp,164
    d58c:	ffffe097          	auipc	ra,0xffffe
    d590:	200080e7          	jalr	512(ra) # b78c <eshup1>
    d594:	0a410513          	addi	a0,sp,164
    d598:	ffffe097          	auipc	ra,0xffffe
    d59c:	1f4080e7          	jalr	500(ra) # b78c <eshup1>
    d5a0:	06c10593          	addi	a1,sp,108
    d5a4:	0a410513          	addi	a0,sp,164
    d5a8:	ffffe097          	auipc	ra,0xffffe
    d5ac:	2d4080e7          	jalr	724(ra) # b87c <eaddm>
    d5b0:	15010613          	addi	a2,sp,336
    d5b4:	06c10593          	addi	a1,sp,108
    d5b8:	08810513          	addi	a0,sp,136
    d5bc:	fffff097          	auipc	ra,0xfffff
    d5c0:	ddc080e7          	jalr	-548(ra) # c398 <eiremain>
    d5c4:	19c14783          	lbu	a5,412(sp)
    d5c8:	001b0b13          	addi	s6,s6,1
    d5cc:	03078793          	addi	a5,a5,48
    d5d0:	00fb8023          	sb	a5,0(s7)
    d5d4:	f49ff06f          	j	d51c <_ldtoa_r+0xa00>
    d5d8:	08810593          	addi	a1,sp,136
    d5dc:	06c10513          	addi	a0,sp,108
    d5e0:	fffff097          	auipc	ra,0xfffff
    d5e4:	8e4080e7          	jalr	-1820(ra) # bec4 <emovo.isra.6>
    d5e8:	8003e597          	auipc	a1,0x8003e
    d5ec:	63458593          	addi	a1,a1,1588 # 8004bc1c <__stack_top+0xfffd4dcc>
    d5f0:	08810513          	addi	a0,sp,136
    d5f4:	ffffe097          	auipc	ra,0xffffe
    d5f8:	4d8080e7          	jalr	1240(ra) # bacc <ecmp>
    d5fc:	f40510e3          	bnez	a0,d53c <_ldtoa_r+0xa20>
    d600:	f80a4663          	bltz	s4,cd8c <_ldtoa_r+0x270>
    d604:	ffebc783          	lbu	a5,-2(s7)
    d608:	fd278793          	addi	a5,a5,-46
    d60c:	0017b793          	seqz	a5,a5
    d610:	fff7c793          	not	a5,a5
    d614:	00f987b3          	add	a5,s3,a5
    d618:	0007c783          	lbu	a5,0(a5)
    d61c:	0017f793          	andi	a5,a5,1
    d620:	f0079ee3          	bnez	a5,d53c <_ldtoa_r+0xa20>
    d624:	f68ff06f          	j	cd8c <_ldtoa_r+0x270>
    d628:	02c71463          	bne	a4,a2,d650 <_ldtoa_r+0xb34>
    d62c:	fff7c703          	lbu	a4,-1(a5)
    d630:	03800693          	li	a3,56
    d634:	00e6e863          	bltu	a3,a4,d644 <_ldtoa_r+0xb28>
    d638:	00170713          	addi	a4,a4,1 # ffff8001 <__stack_top+0x7ff811b1>
    d63c:	fee78fa3          	sb	a4,-1(a5)
    d640:	f4cff06f          	j	cd8c <_ldtoa_r+0x270>
    d644:	00140413          	addi	s0,s0,1
    d648:	03100713          	li	a4,49
    d64c:	ff1ff06f          	j	d63c <_ldtoa_r+0xb20>
    d650:	00e5e863          	bltu	a1,a4,d660 <_ldtoa_r+0xb44>
    d654:	00170713          	addi	a4,a4,1
    d658:	00e78023          	sb	a4,0(a5)
    d65c:	f30ff06f          	j	cd8c <_ldtoa_r+0x270>
    d660:	00d78023          	sb	a3,0(a5)
    d664:	ee9ff06f          	j	d54c <_ldtoa_r+0xa30>
    d668:	00140793          	addi	a5,s0,1
    d66c:	00fca023          	sw	a5,0(s9)
    d670:	02e00693          	li	a3,46
    d674:	000a0793          	mv	a5,s4
    d678:	0007c703          	lbu	a4,0(a5)
    d67c:	00071663          	bnez	a4,d688 <_ldtoa_r+0xb6c>
    d680:	04500713          	li	a4,69
    d684:	02c0006f          	j	d6b0 <_ldtoa_r+0xb94>
    d688:	00178613          	addi	a2,a5,1
    d68c:	00d70663          	beq	a4,a3,d698 <_ldtoa_r+0xb7c>
    d690:	00060793          	mv	a5,a2
    d694:	fe5ff06f          	j	d678 <_ldtoa_r+0xb5c>
    d698:	0017c703          	lbu	a4,1(a5)
    d69c:	00178793          	addi	a5,a5,1
    d6a0:	fee78fa3          	sb	a4,-1(a5)
    d6a4:	fe071ae3          	bnez	a4,d698 <_ldtoa_r+0xb7c>
    d6a8:	fd9ff06f          	j	d680 <_ldtoa_r+0xb64>
    d6ac:	fff78793          	addi	a5,a5,-1
    d6b0:	0007c683          	lbu	a3,0(a5)
    d6b4:	00e68463          	beq	a3,a4,d6bc <_ldtoa_r+0xba0>
    d6b8:	fefa6ae3          	bltu	s4,a5,d6ac <_ldtoa_r+0xb90>
    d6bc:	00078023          	sb	zero,0(a5)
    d6c0:	1640006f          	j	d824 <_ldtoa_r+0xd08>
    d6c4:	00178793          	addi	a5,a5,1
    d6c8:	1680006f          	j	d830 <_ldtoa_r+0xd14>
    d6cc:	00068993          	mv	s3,a3
    d6d0:	1700006f          	j	d840 <_ldtoa_r+0xd24>
    d6d4:	fff98993          	addi	s3,s3,-1
    d6d8:	00098023          	sb	zero,0(s3)
    d6dc:	fff9c703          	lbu	a4,-1(s3)
    d6e0:	00d71663          	bne	a4,a3,d6ec <_ldtoa_r+0xbd0>
    d6e4:	41498733          	sub	a4,s3,s4
    d6e8:	fee7c6e3          	blt	a5,a4,d6d4 <_ldtoa_r+0xbb8>
    d6ec:	00300713          	li	a4,3
    d6f0:	009c0793          	addi	a5,s8,9
    d6f4:	02ea9263          	bne	s5,a4,d718 <_ldtoa_r+0xbfc>
    d6f8:	00848433          	add	s0,s1,s0
    d6fc:	00045863          	bgez	s0,d70c <_ldtoa_r+0xbf0>
    d700:	10010a23          	sb	zero,276(sp)
    d704:	000ca023          	sw	zero,0(s9)
    d708:	000a0993          	mv	s3,s4
    d70c:	000ca783          	lw	a5,0(s9)
    d710:	00fc0c33          	add	s8,s8,a5
    d714:	003c0793          	addi	a5,s8,3
    d718:	04092223          	sw	zero,68(s2)
    d71c:	00400713          	li	a4,4
    d720:	01470693          	addi	a3,a4,20
    d724:	04492583          	lw	a1,68(s2)
    d728:	06d7fc63          	bgeu	a5,a3,d7a0 <_ldtoa_r+0xc84>
    d72c:	00090513          	mv	a0,s2
    d730:	00000097          	auipc	ra,0x0
    d734:	510080e7          	jalr	1296(ra) # dc40 <_Balloc>
    d738:	04a92023          	sw	a0,64(s2)
    d73c:	000a0593          	mv	a1,s4
    d740:	00050413          	mv	s0,a0
    d744:	ffffa097          	auipc	ra,0xffffa
    d748:	f58080e7          	jalr	-168(ra) # 769c <strcpy>
    d74c:	01012783          	lw	a5,16(sp)
    d750:	00078863          	beqz	a5,d760 <_ldtoa_r+0xc44>
    d754:	414989b3          	sub	s3,s3,s4
    d758:	013409b3          	add	s3,s0,s3
    d75c:	0137a023          	sw	s3,0(a5)
    d760:	00040513          	mv	a0,s0
    d764:	1dc12083          	lw	ra,476(sp)
    d768:	1d812403          	lw	s0,472(sp)
    d76c:	1d412483          	lw	s1,468(sp)
    d770:	1d012903          	lw	s2,464(sp)
    d774:	1cc12983          	lw	s3,460(sp)
    d778:	1c812a03          	lw	s4,456(sp)
    d77c:	1c412a83          	lw	s5,452(sp)
    d780:	1c012b03          	lw	s6,448(sp)
    d784:	1bc12b83          	lw	s7,444(sp)
    d788:	1b812c03          	lw	s8,440(sp)
    d78c:	1b412c83          	lw	s9,436(sp)
    d790:	1b012d03          	lw	s10,432(sp)
    d794:	1ac12d83          	lw	s11,428(sp)
    d798:	1e010113          	addi	sp,sp,480
    d79c:	00008067          	ret
    d7a0:	00158593          	addi	a1,a1,1
    d7a4:	04b92223          	sw	a1,68(s2)
    d7a8:	00171713          	slli	a4,a4,0x1
    d7ac:	f75ff06f          	j	d720 <_ldtoa_r+0xc04>
    d7b0:	000087b7          	lui	a5,0x8
    d7b4:	fff78793          	addi	a5,a5,-1 # 7fff <_svfprintf_r+0x8ef>
    d7b8:	e0f71063          	bne	a4,a5,cdb8 <_ldtoa_r+0x29c>
    d7bc:	00812783          	lw	a5,8(sp)
    d7c0:	8003e597          	auipc	a1,0x8003e
    d7c4:	6c458593          	addi	a1,a1,1732 # 8004be84 <__stack_top+0xfffd5034>
    d7c8:	00078663          	beqz	a5,d7d4 <_ldtoa_r+0xcb8>
    d7cc:	8003e597          	auipc	a1,0x8003e
    d7d0:	6ac58593          	addi	a1,a1,1708 # 8004be78 <__stack_top+0xfffd5028>
    d7d4:	11410513          	addi	a0,sp,276
    d7d8:	00002437          	lui	s0,0x2
    d7dc:	ffffa097          	auipc	ra,0xffffa
    d7e0:	cc8080e7          	jalr	-824(ra) # 74a4 <sprintf>
    d7e4:	70f40413          	addi	s0,s0,1807 # 270f <_ZN6tflite14MicroAllocator28AllocateNodeAndRegistrationsEPKNS_5ModelEPNS_19SubgraphAllocationsE+0xc7>
    d7e8:	01412783          	lw	a5,20(sp)
    d7ec:	05010513          	addi	a0,sp,80
    d7f0:	16812023          	sw	s0,352(sp)
    d7f4:	14f12a23          	sw	a5,340(sp)
    d7f8:	ffffe097          	auipc	ra,0xffffe
    d7fc:	3ec080e7          	jalr	1004(ra) # bbe4 <eisinf>
    d800:	11410a13          	addi	s4,sp,276
    d804:	00051a63          	bnez	a0,d818 <_ldtoa_r+0xcfc>
    d808:	05010513          	addi	a0,sp,80
    d80c:	ffffe097          	auipc	ra,0xffffe
    d810:	17c080e7          	jalr	380(ra) # b988 <eisnan>
    d814:	e4050ae3          	beqz	a0,d668 <_ldtoa_r+0xb4c>
    d818:	000027b7          	lui	a5,0x2
    d81c:	70f78793          	addi	a5,a5,1807 # 270f <_ZN6tflite14MicroAllocator28AllocateNodeAndRegistrationsEPKNS_5ModelEPNS_19SubgraphAllocationsE+0xc7>
    d820:	00fca023          	sw	a5,0(s9)
    d824:	000a0793          	mv	a5,s4
    d828:	02000613          	li	a2,32
    d82c:	02d00693          	li	a3,45
    d830:	0007c703          	lbu	a4,0(a5)
    d834:	e8c708e3          	beq	a4,a2,d6c4 <_ldtoa_r+0xba8>
    d838:	e8d706e3          	beq	a4,a3,d6c4 <_ldtoa_r+0xba8>
    d83c:	000a0993          	mv	s3,s4
    d840:	00178793          	addi	a5,a5,1
    d844:	fff7c703          	lbu	a4,-1(a5)
    d848:	00198693          	addi	a3,s3,1
    d84c:	fee68fa3          	sb	a4,-1(a3)
    d850:	e6071ee3          	bnez	a4,d6cc <_ldtoa_r+0xbb0>
    d854:	00200713          	li	a4,2
    d858:	00100793          	li	a5,1
    d85c:	00ea8863          	beq	s5,a4,d86c <_ldtoa_r+0xd50>
    d860:	00048793          	mv	a5,s1
    d864:	0084d463          	bge	s1,s0,d86c <_ldtoa_r+0xd50>
    d868:	00040793          	mv	a5,s0
    d86c:	03000693          	li	a3,48
    d870:	e6dff06f          	j	d6dc <_ldtoa_r+0xbc0>

0000d874 <_ldcheck>:
    d874:	00052783          	lw	a5,0(a0)
    d878:	fc010113          	addi	sp,sp,-64
    d87c:	01410593          	addi	a1,sp,20
    d880:	00f12023          	sw	a5,0(sp)
    d884:	00452783          	lw	a5,4(a0)
    d888:	02112e23          	sw	ra,60(sp)
    d88c:	00f12223          	sw	a5,4(sp)
    d890:	00852783          	lw	a5,8(a0)
    d894:	00f12423          	sw	a5,8(sp)
    d898:	00c52783          	lw	a5,12(a0)
    d89c:	00010513          	mv	a0,sp
    d8a0:	00f12623          	sw	a5,12(sp)
    d8a4:	ffffe097          	auipc	ra,0xffffe
    d8a8:	698080e7          	jalr	1688(ra) # bf3c <e113toe.isra.8>
    d8ac:	02615783          	lhu	a5,38(sp)
    d8b0:	00000513          	li	a0,0
    d8b4:	fff7c793          	not	a5,a5
    d8b8:	01179713          	slli	a4,a5,0x11
    d8bc:	00071c63          	bnez	a4,d8d4 <_ldcheck+0x60>
    d8c0:	01410513          	addi	a0,sp,20
    d8c4:	ffffe097          	auipc	ra,0xffffe
    d8c8:	0c4080e7          	jalr	196(ra) # b988 <eisnan>
    d8cc:	00153513          	seqz	a0,a0
    d8d0:	00150513          	addi	a0,a0,1
    d8d4:	03c12083          	lw	ra,60(sp)
    d8d8:	04010113          	addi	sp,sp,64
    d8dc:	00008067          	ret

0000d8e0 <__localeconv_l>:
    d8e0:	0f050513          	addi	a0,a0,240
    d8e4:	00008067          	ret

0000d8e8 <_localeconv_r>:
    d8e8:	8003f797          	auipc	a5,0x8003f
    d8ec:	37878793          	addi	a5,a5,888 # 8004cc60 <__stack_top+0xfffd5e10>
    d8f0:	0007a783          	lw	a5,0(a5)
    d8f4:	0347a503          	lw	a0,52(a5)
    d8f8:	00051663          	bnez	a0,d904 <_localeconv_r+0x1c>
    d8fc:	8003f517          	auipc	a0,0x8003f
    d900:	1f450513          	addi	a0,a0,500 # 8004caf0 <__stack_top+0xfffd5ca0>
    d904:	0f050513          	addi	a0,a0,240
    d908:	00008067          	ret

0000d90c <localeconv>:
    d90c:	8003f797          	auipc	a5,0x8003f
    d910:	35478793          	addi	a5,a5,852 # 8004cc60 <__stack_top+0xfffd5e10>
    d914:	0007a783          	lw	a5,0(a5)
    d918:	0347a503          	lw	a0,52(a5)
    d91c:	00051663          	bnez	a0,d928 <localeconv+0x1c>
    d920:	8003f517          	auipc	a0,0x8003f
    d924:	1d050513          	addi	a0,a0,464 # 8004caf0 <__stack_top+0xfffd5ca0>
    d928:	0f050513          	addi	a0,a0,240
    d92c:	00008067          	ret

0000d930 <_setlocale_r>:
    d930:	02061463          	bnez	a2,d958 <_setlocale_r+0x28>
    d934:	8003e517          	auipc	a0,0x8003e
    d938:	56450513          	addi	a0,a0,1380 # 8004be98 <__stack_top+0xfffd5048>
    d93c:	00008067          	ret
    d940:	8003e517          	auipc	a0,0x8003e
    d944:	55850513          	addi	a0,a0,1368 # 8004be98 <__stack_top+0xfffd5048>
    d948:	00c12083          	lw	ra,12(sp)
    d94c:	00812403          	lw	s0,8(sp)
    d950:	01010113          	addi	sp,sp,16
    d954:	00008067          	ret
    d958:	ff010113          	addi	sp,sp,-16
    d95c:	8003e597          	auipc	a1,0x8003e
    d960:	54058593          	addi	a1,a1,1344 # 8004be9c <__stack_top+0xfffd504c>
    d964:	00060513          	mv	a0,a2
    d968:	00812423          	sw	s0,8(sp)
    d96c:	00112623          	sw	ra,12(sp)
    d970:	00060413          	mv	s0,a2
    d974:	ffffa097          	auipc	ra,0xffffa
    d978:	bac080e7          	jalr	-1108(ra) # 7520 <strcmp>
    d97c:	fc0502e3          	beqz	a0,d940 <_setlocale_r+0x10>
    d980:	8003e597          	auipc	a1,0x8003e
    d984:	51858593          	addi	a1,a1,1304 # 8004be98 <__stack_top+0xfffd5048>
    d988:	00040513          	mv	a0,s0
    d98c:	ffffa097          	auipc	ra,0xffffa
    d990:	b94080e7          	jalr	-1132(ra) # 7520 <strcmp>
    d994:	fa0506e3          	beqz	a0,d940 <_setlocale_r+0x10>
    d998:	8003e597          	auipc	a1,0x8003e
    d99c:	f1058593          	addi	a1,a1,-240 # 8004b8a8 <__stack_top+0xfffd4a58>
    d9a0:	00040513          	mv	a0,s0
    d9a4:	ffffa097          	auipc	ra,0xffffa
    d9a8:	b7c080e7          	jalr	-1156(ra) # 7520 <strcmp>
    d9ac:	f8050ae3          	beqz	a0,d940 <_setlocale_r+0x10>
    d9b0:	00000513          	li	a0,0
    d9b4:	f95ff06f          	j	d948 <_setlocale_r+0x18>

0000d9b8 <__locale_mb_cur_max>:
    d9b8:	8003f797          	auipc	a5,0x8003f
    d9bc:	2a878793          	addi	a5,a5,680 # 8004cc60 <__stack_top+0xfffd5e10>
    d9c0:	0007a783          	lw	a5,0(a5)
    d9c4:	0347a783          	lw	a5,52(a5)
    d9c8:	00079663          	bnez	a5,d9d4 <__locale_mb_cur_max+0x1c>
    d9cc:	8003f797          	auipc	a5,0x8003f
    d9d0:	12478793          	addi	a5,a5,292 # 8004caf0 <__stack_top+0xfffd5ca0>
    d9d4:	1287c503          	lbu	a0,296(a5)
    d9d8:	00008067          	ret

0000d9dc <__locale_ctype_ptr_l>:
    d9dc:	0ec52503          	lw	a0,236(a0)
    d9e0:	00008067          	ret

0000d9e4 <__locale_ctype_ptr>:
    d9e4:	8003f797          	auipc	a5,0x8003f
    d9e8:	27c78793          	addi	a5,a5,636 # 8004cc60 <__stack_top+0xfffd5e10>
    d9ec:	0007a783          	lw	a5,0(a5)
    d9f0:	0347a783          	lw	a5,52(a5)
    d9f4:	00079663          	bnez	a5,da00 <__locale_ctype_ptr+0x1c>
    d9f8:	8003f797          	auipc	a5,0x8003f
    d9fc:	0f878793          	addi	a5,a5,248 # 8004caf0 <__stack_top+0xfffd5ca0>
    da00:	0ec7a503          	lw	a0,236(a5)
    da04:	00008067          	ret

0000da08 <setlocale>:
    da08:	8003f797          	auipc	a5,0x8003f
    da0c:	25878793          	addi	a5,a5,600 # 8004cc60 <__stack_top+0xfffd5e10>
    da10:	00058613          	mv	a2,a1
    da14:	00050593          	mv	a1,a0
    da18:	0007a503          	lw	a0,0(a5)
    da1c:	00000317          	auipc	t1,0x0
    da20:	f1430067          	jr	-236(t1) # d930 <_setlocale_r>

0000da24 <__swhatbuf_r>:
    da24:	f8010113          	addi	sp,sp,-128
    da28:	06912a23          	sw	s1,116(sp)
    da2c:	00058493          	mv	s1,a1
    da30:	00e59583          	lh	a1,14(a1)
    da34:	06812c23          	sw	s0,120(sp)
    da38:	06112e23          	sw	ra,124(sp)
    da3c:	00060413          	mv	s0,a2
    da40:	0005de63          	bgez	a1,da5c <__swhatbuf_r+0x38>
    da44:	00c4d783          	lhu	a5,12(s1)
    da48:	0006a023          	sw	zero,0(a3)
    da4c:	0807f793          	andi	a5,a5,128
    da50:	04079a63          	bnez	a5,daa4 <__swhatbuf_r+0x80>
    da54:	40000793          	li	a5,1024
    da58:	0500006f          	j	daa8 <__swhatbuf_r+0x84>
    da5c:	01810613          	addi	a2,sp,24
    da60:	00d12623          	sw	a3,12(sp)
    da64:	00002097          	auipc	ra,0x2
    da68:	3d0080e7          	jalr	976(ra) # fe34 <_fstat_r>
    da6c:	00c12683          	lw	a3,12(sp)
    da70:	fc054ae3          	bltz	a0,da44 <__swhatbuf_r+0x20>
    da74:	01c12703          	lw	a4,28(sp)
    da78:	0000f7b7          	lui	a5,0xf
    da7c:	00001537          	lui	a0,0x1
    da80:	00e7f7b3          	and	a5,a5,a4
    da84:	ffffe737          	lui	a4,0xffffe
    da88:	00e787b3          	add	a5,a5,a4
    da8c:	0017b793          	seqz	a5,a5
    da90:	00f6a023          	sw	a5,0(a3)
    da94:	40000793          	li	a5,1024
    da98:	00f42023          	sw	a5,0(s0)
    da9c:	80050513          	addi	a0,a0,-2048 # 800 <_ZN6tflite23MicroInterpreterContextC1EPNS_14MicroAllocatorEPKNS_5ModelEPNS_21MicroInterpreterGraphE+0x14>
    daa0:	0100006f          	j	dab0 <__swhatbuf_r+0x8c>
    daa4:	04000793          	li	a5,64
    daa8:	00f42023          	sw	a5,0(s0)
    daac:	00000513          	li	a0,0
    dab0:	07c12083          	lw	ra,124(sp)
    dab4:	07812403          	lw	s0,120(sp)
    dab8:	07412483          	lw	s1,116(sp)
    dabc:	08010113          	addi	sp,sp,128
    dac0:	00008067          	ret

0000dac4 <__smakebuf_r>:
    dac4:	00c5d783          	lhu	a5,12(a1)
    dac8:	fe010113          	addi	sp,sp,-32
    dacc:	00812c23          	sw	s0,24(sp)
    dad0:	00112e23          	sw	ra,28(sp)
    dad4:	00912a23          	sw	s1,20(sp)
    dad8:	01212823          	sw	s2,16(sp)
    dadc:	0027f793          	andi	a5,a5,2
    dae0:	00058413          	mv	s0,a1
    dae4:	02078863          	beqz	a5,db14 <__smakebuf_r+0x50>
    dae8:	04340793          	addi	a5,s0,67
    daec:	00f42023          	sw	a5,0(s0)
    daf0:	00f42823          	sw	a5,16(s0)
    daf4:	00100793          	li	a5,1
    daf8:	00f42a23          	sw	a5,20(s0)
    dafc:	01c12083          	lw	ra,28(sp)
    db00:	01812403          	lw	s0,24(sp)
    db04:	01412483          	lw	s1,20(sp)
    db08:	01012903          	lw	s2,16(sp)
    db0c:	02010113          	addi	sp,sp,32
    db10:	00008067          	ret
    db14:	00c10693          	addi	a3,sp,12
    db18:	00810613          	addi	a2,sp,8
    db1c:	00050493          	mv	s1,a0
    db20:	00000097          	auipc	ra,0x0
    db24:	f04080e7          	jalr	-252(ra) # da24 <__swhatbuf_r>
    db28:	00812583          	lw	a1,8(sp)
    db2c:	00050913          	mv	s2,a0
    db30:	00048513          	mv	a0,s1
    db34:	ffff8097          	auipc	ra,0xffff8
    db38:	734080e7          	jalr	1844(ra) # 6268 <_malloc_r>
    db3c:	02051063          	bnez	a0,db5c <__smakebuf_r+0x98>
    db40:	00c41783          	lh	a5,12(s0)
    db44:	2007f713          	andi	a4,a5,512
    db48:	fa071ae3          	bnez	a4,dafc <__smakebuf_r+0x38>
    db4c:	ffc7f793          	andi	a5,a5,-4
    db50:	0027e793          	ori	a5,a5,2
    db54:	00f41623          	sh	a5,12(s0)
    db58:	f91ff06f          	j	dae8 <__smakebuf_r+0x24>
    db5c:	ffffd797          	auipc	a5,0xffffd
    db60:	1f078793          	addi	a5,a5,496 # ad4c <_cleanup_r>
    db64:	02f4ae23          	sw	a5,60(s1)
    db68:	00c45783          	lhu	a5,12(s0)
    db6c:	00a42023          	sw	a0,0(s0)
    db70:	00a42823          	sw	a0,16(s0)
    db74:	0807e793          	ori	a5,a5,128
    db78:	00f41623          	sh	a5,12(s0)
    db7c:	00812783          	lw	a5,8(sp)
    db80:	00f42a23          	sw	a5,20(s0)
    db84:	00c12783          	lw	a5,12(sp)
    db88:	02078463          	beqz	a5,dbb0 <__smakebuf_r+0xec>
    db8c:	00e41583          	lh	a1,14(s0)
    db90:	00048513          	mv	a0,s1
    db94:	00002097          	auipc	ra,0x2
    db98:	2f4080e7          	jalr	756(ra) # fe88 <_isatty_r>
    db9c:	00050a63          	beqz	a0,dbb0 <__smakebuf_r+0xec>
    dba0:	00c45783          	lhu	a5,12(s0)
    dba4:	ffc7f793          	andi	a5,a5,-4
    dba8:	0017e793          	ori	a5,a5,1
    dbac:	00f41623          	sh	a5,12(s0)
    dbb0:	00c45783          	lhu	a5,12(s0)
    dbb4:	00f96933          	or	s2,s2,a5
    dbb8:	01241623          	sh	s2,12(s0)
    dbbc:	f41ff06f          	j	dafc <__smakebuf_r+0x38>

0000dbc0 <_mbtowc_r>:
    dbc0:	8003f797          	auipc	a5,0x8003f
    dbc4:	0a078793          	addi	a5,a5,160 # 8004cc60 <__stack_top+0xfffd5e10>
    dbc8:	0007a783          	lw	a5,0(a5)
    dbcc:	0347a783          	lw	a5,52(a5)
    dbd0:	00079663          	bnez	a5,dbdc <_mbtowc_r+0x1c>
    dbd4:	8003f797          	auipc	a5,0x8003f
    dbd8:	f1c78793          	addi	a5,a5,-228 # 8004caf0 <__stack_top+0xfffd5ca0>
    dbdc:	0e47a303          	lw	t1,228(a5)
    dbe0:	00030067          	jr	t1

0000dbe4 <__ascii_mbtowc>:
    dbe4:	02059a63          	bnez	a1,dc18 <__ascii_mbtowc+0x34>
    dbe8:	ff010113          	addi	sp,sp,-16
    dbec:	00c10593          	addi	a1,sp,12
    dbf0:	00000513          	li	a0,0
    dbf4:	00060e63          	beqz	a2,dc10 <__ascii_mbtowc+0x2c>
    dbf8:	ffe00513          	li	a0,-2
    dbfc:	00068a63          	beqz	a3,dc10 <__ascii_mbtowc+0x2c>
    dc00:	00064783          	lbu	a5,0(a2)
    dc04:	00f5a023          	sw	a5,0(a1)
    dc08:	00064503          	lbu	a0,0(a2)
    dc0c:	00a03533          	snez	a0,a0
    dc10:	01010113          	addi	sp,sp,16
    dc14:	00008067          	ret
    dc18:	00000513          	li	a0,0
    dc1c:	02060063          	beqz	a2,dc3c <__ascii_mbtowc+0x58>
    dc20:	ffe00513          	li	a0,-2
    dc24:	00068c63          	beqz	a3,dc3c <__ascii_mbtowc+0x58>
    dc28:	00064783          	lbu	a5,0(a2)
    dc2c:	00f5a023          	sw	a5,0(a1)
    dc30:	00064503          	lbu	a0,0(a2)
    dc34:	00a03533          	snez	a0,a0
    dc38:	00008067          	ret
    dc3c:	00008067          	ret

0000dc40 <_Balloc>:
    dc40:	04c52783          	lw	a5,76(a0)
    dc44:	ff010113          	addi	sp,sp,-16
    dc48:	00912223          	sw	s1,4(sp)
    dc4c:	01212023          	sw	s2,0(sp)
    dc50:	00112623          	sw	ra,12(sp)
    dc54:	00812423          	sw	s0,8(sp)
    dc58:	00050493          	mv	s1,a0
    dc5c:	00058913          	mv	s2,a1
    dc60:	04078463          	beqz	a5,dca8 <_Balloc+0x68>
    dc64:	04c4a703          	lw	a4,76(s1)
    dc68:	00291793          	slli	a5,s2,0x2
    dc6c:	00f707b3          	add	a5,a4,a5
    dc70:	0007a503          	lw	a0,0(a5)
    dc74:	06051463          	bnez	a0,dcdc <_Balloc+0x9c>
    dc78:	00100413          	li	s0,1
    dc7c:	01241433          	sll	s0,s0,s2
    dc80:	00540613          	addi	a2,s0,5
    dc84:	00261613          	slli	a2,a2,0x2
    dc88:	00100593          	li	a1,1
    dc8c:	00048513          	mv	a0,s1
    dc90:	00002097          	auipc	ra,0x2
    dc94:	fa0080e7          	jalr	-96(ra) # fc30 <_calloc_r>
    dc98:	02050463          	beqz	a0,dcc0 <_Balloc+0x80>
    dc9c:	01252223          	sw	s2,4(a0)
    dca0:	00852423          	sw	s0,8(a0)
    dca4:	0400006f          	j	dce4 <_Balloc+0xa4>
    dca8:	02100613          	li	a2,33
    dcac:	00400593          	li	a1,4
    dcb0:	00002097          	auipc	ra,0x2
    dcb4:	f80080e7          	jalr	-128(ra) # fc30 <_calloc_r>
    dcb8:	04a4a623          	sw	a0,76(s1)
    dcbc:	fa0514e3          	bnez	a0,dc64 <_Balloc+0x24>
    dcc0:	00000513          	li	a0,0
    dcc4:	00c12083          	lw	ra,12(sp)
    dcc8:	00812403          	lw	s0,8(sp)
    dccc:	00412483          	lw	s1,4(sp)
    dcd0:	00012903          	lw	s2,0(sp)
    dcd4:	01010113          	addi	sp,sp,16
    dcd8:	00008067          	ret
    dcdc:	00052703          	lw	a4,0(a0)
    dce0:	00e7a023          	sw	a4,0(a5)
    dce4:	00052823          	sw	zero,16(a0)
    dce8:	00052623          	sw	zero,12(a0)
    dcec:	fd9ff06f          	j	dcc4 <_Balloc+0x84>

0000dcf0 <_Bfree>:
    dcf0:	02058063          	beqz	a1,dd10 <_Bfree+0x20>
    dcf4:	0045a783          	lw	a5,4(a1)
    dcf8:	00279713          	slli	a4,a5,0x2
    dcfc:	04c52783          	lw	a5,76(a0)
    dd00:	00e787b3          	add	a5,a5,a4
    dd04:	0007a703          	lw	a4,0(a5)
    dd08:	00e5a023          	sw	a4,0(a1)
    dd0c:	00b7a023          	sw	a1,0(a5)
    dd10:	00008067          	ret

0000dd14 <__multadd>:
    dd14:	fd010113          	addi	sp,sp,-48
    dd18:	01312e23          	sw	s3,28(sp)
    dd1c:	00050993          	mv	s3,a0
    dd20:	00010537          	lui	a0,0x10
    dd24:	02812423          	sw	s0,40(sp)
    dd28:	02912223          	sw	s1,36(sp)
    dd2c:	00058413          	mv	s0,a1
    dd30:	0105a483          	lw	s1,16(a1)
    dd34:	02112623          	sw	ra,44(sp)
    dd38:	03212023          	sw	s2,32(sp)
    dd3c:	01458593          	addi	a1,a1,20
    dd40:	00000813          	li	a6,0
    dd44:	fff50513          	addi	a0,a0,-1 # ffff <_exit+0x1f>
    dd48:	0005a783          	lw	a5,0(a1)
    dd4c:	00458593          	addi	a1,a1,4
    dd50:	00180813          	addi	a6,a6,1
    dd54:	00a7f733          	and	a4,a5,a0
    dd58:	02c70733          	mul	a4,a4,a2
    dd5c:	0107d793          	srli	a5,a5,0x10
    dd60:	02c787b3          	mul	a5,a5,a2
    dd64:	00d70733          	add	a4,a4,a3
    dd68:	01075693          	srli	a3,a4,0x10
    dd6c:	00a77733          	and	a4,a4,a0
    dd70:	00d787b3          	add	a5,a5,a3
    dd74:	0107d693          	srli	a3,a5,0x10
    dd78:	01079793          	slli	a5,a5,0x10
    dd7c:	00e787b3          	add	a5,a5,a4
    dd80:	fef5ae23          	sw	a5,-4(a1)
    dd84:	fc9842e3          	blt	a6,s1,dd48 <__multadd+0x34>
    dd88:	06068a63          	beqz	a3,ddfc <__multadd+0xe8>
    dd8c:	00842783          	lw	a5,8(s0)
    dd90:	04f4ca63          	blt	s1,a5,dde4 <__multadd+0xd0>
    dd94:	00442583          	lw	a1,4(s0)
    dd98:	00098513          	mv	a0,s3
    dd9c:	00d12623          	sw	a3,12(sp)
    dda0:	00158593          	addi	a1,a1,1
    dda4:	00000097          	auipc	ra,0x0
    dda8:	e9c080e7          	jalr	-356(ra) # dc40 <_Balloc>
    ddac:	01042603          	lw	a2,16(s0)
    ddb0:	00c40593          	addi	a1,s0,12
    ddb4:	00050913          	mv	s2,a0
    ddb8:	00260613          	addi	a2,a2,2
    ddbc:	00261613          	slli	a2,a2,0x2
    ddc0:	00c50513          	addi	a0,a0,12
    ddc4:	ffff9097          	auipc	ra,0xffff9
    ddc8:	ba4080e7          	jalr	-1116(ra) # 6968 <memcpy>
    ddcc:	00040593          	mv	a1,s0
    ddd0:	00098513          	mv	a0,s3
    ddd4:	00000097          	auipc	ra,0x0
    ddd8:	f1c080e7          	jalr	-228(ra) # dcf0 <_Bfree>
    dddc:	00c12683          	lw	a3,12(sp)
    dde0:	00090413          	mv	s0,s2
    dde4:	00448793          	addi	a5,s1,4
    dde8:	00279793          	slli	a5,a5,0x2
    ddec:	00f407b3          	add	a5,s0,a5
    ddf0:	00d7a223          	sw	a3,4(a5)
    ddf4:	00148493          	addi	s1,s1,1
    ddf8:	00942823          	sw	s1,16(s0)
    ddfc:	00040513          	mv	a0,s0
    de00:	02c12083          	lw	ra,44(sp)
    de04:	02812403          	lw	s0,40(sp)
    de08:	02412483          	lw	s1,36(sp)
    de0c:	02012903          	lw	s2,32(sp)
    de10:	01c12983          	lw	s3,28(sp)
    de14:	03010113          	addi	sp,sp,48
    de18:	00008067          	ret

0000de1c <__s2b>:
    de1c:	fd010113          	addi	sp,sp,-48
    de20:	00868793          	addi	a5,a3,8
    de24:	01412c23          	sw	s4,24(sp)
    de28:	00068a13          	mv	s4,a3
    de2c:	00900693          	li	a3,9
    de30:	02812423          	sw	s0,40(sp)
    de34:	02912223          	sw	s1,36(sp)
    de38:	01312e23          	sw	s3,28(sp)
    de3c:	00058413          	mv	s0,a1
    de40:	02d7c7b3          	div	a5,a5,a3
    de44:	02112623          	sw	ra,44(sp)
    de48:	03212023          	sw	s2,32(sp)
    de4c:	01512a23          	sw	s5,20(sp)
    de50:	00050993          	mv	s3,a0
    de54:	00060493          	mv	s1,a2
    de58:	00100693          	li	a3,1
    de5c:	00000593          	li	a1,0
    de60:	08f6c863          	blt	a3,a5,def0 <__s2b+0xd4>
    de64:	00098513          	mv	a0,s3
    de68:	00e12623          	sw	a4,12(sp)
    de6c:	00000097          	auipc	ra,0x0
    de70:	dd4080e7          	jalr	-556(ra) # dc40 <_Balloc>
    de74:	00c12703          	lw	a4,12(sp)
    de78:	00100793          	li	a5,1
    de7c:	00f52823          	sw	a5,16(a0)
    de80:	00e52a23          	sw	a4,20(a0)
    de84:	00900793          	li	a5,9
    de88:	0697da63          	bge	a5,s1,defc <__s2b+0xe0>
    de8c:	00940a93          	addi	s5,s0,9
    de90:	000a8913          	mv	s2,s5
    de94:	00940433          	add	s0,s0,s1
    de98:	00190913          	addi	s2,s2,1
    de9c:	fff94683          	lbu	a3,-1(s2)
    dea0:	00050593          	mv	a1,a0
    dea4:	00a00613          	li	a2,10
    dea8:	fd068693          	addi	a3,a3,-48
    deac:	00098513          	mv	a0,s3
    deb0:	00000097          	auipc	ra,0x0
    deb4:	e64080e7          	jalr	-412(ra) # dd14 <__multadd>
    deb8:	fe8910e3          	bne	s2,s0,de98 <__s2b+0x7c>
    debc:	ff848413          	addi	s0,s1,-8
    dec0:	008a8433          	add	s0,s5,s0
    dec4:	00048913          	mv	s2,s1
    dec8:	05494063          	blt	s2,s4,df08 <__s2b+0xec>
    decc:	02c12083          	lw	ra,44(sp)
    ded0:	02812403          	lw	s0,40(sp)
    ded4:	02412483          	lw	s1,36(sp)
    ded8:	02012903          	lw	s2,32(sp)
    dedc:	01c12983          	lw	s3,28(sp)
    dee0:	01812a03          	lw	s4,24(sp)
    dee4:	01412a83          	lw	s5,20(sp)
    dee8:	03010113          	addi	sp,sp,48
    deec:	00008067          	ret
    def0:	00169693          	slli	a3,a3,0x1
    def4:	00158593          	addi	a1,a1,1
    def8:	f69ff06f          	j	de60 <__s2b+0x44>
    defc:	00a40413          	addi	s0,s0,10
    df00:	00900493          	li	s1,9
    df04:	fc1ff06f          	j	dec4 <__s2b+0xa8>
    df08:	409907b3          	sub	a5,s2,s1
    df0c:	00f407b3          	add	a5,s0,a5
    df10:	0007c683          	lbu	a3,0(a5)
    df14:	00050593          	mv	a1,a0
    df18:	00a00613          	li	a2,10
    df1c:	fd068693          	addi	a3,a3,-48
    df20:	00098513          	mv	a0,s3
    df24:	00000097          	auipc	ra,0x0
    df28:	df0080e7          	jalr	-528(ra) # dd14 <__multadd>
    df2c:	00190913          	addi	s2,s2,1
    df30:	f99ff06f          	j	dec8 <__s2b+0xac>

0000df34 <__hi0bits>:
    df34:	ffff0737          	lui	a4,0xffff0
    df38:	00e57733          	and	a4,a0,a4
    df3c:	00050793          	mv	a5,a0
    df40:	00000513          	li	a0,0
    df44:	00071663          	bnez	a4,df50 <__hi0bits+0x1c>
    df48:	01079793          	slli	a5,a5,0x10
    df4c:	01000513          	li	a0,16
    df50:	ff000737          	lui	a4,0xff000
    df54:	00e7f733          	and	a4,a5,a4
    df58:	00071663          	bnez	a4,df64 <__hi0bits+0x30>
    df5c:	00850513          	addi	a0,a0,8
    df60:	00879793          	slli	a5,a5,0x8
    df64:	f0000737          	lui	a4,0xf0000
    df68:	00e7f733          	and	a4,a5,a4
    df6c:	00071663          	bnez	a4,df78 <__hi0bits+0x44>
    df70:	00450513          	addi	a0,a0,4
    df74:	00479793          	slli	a5,a5,0x4
    df78:	c0000737          	lui	a4,0xc0000
    df7c:	00e7f733          	and	a4,a5,a4
    df80:	00071663          	bnez	a4,df8c <__hi0bits+0x58>
    df84:	00250513          	addi	a0,a0,2
    df88:	00279793          	slli	a5,a5,0x2
    df8c:	0007ca63          	bltz	a5,dfa0 <__hi0bits+0x6c>
    df90:	00179713          	slli	a4,a5,0x1
    df94:	00150513          	addi	a0,a0,1
    df98:	00074463          	bltz	a4,dfa0 <__hi0bits+0x6c>
    df9c:	02000513          	li	a0,32
    dfa0:	00008067          	ret

0000dfa4 <__lo0bits>:
    dfa4:	00052783          	lw	a5,0(a0)
    dfa8:	0077f713          	andi	a4,a5,7
    dfac:	02070e63          	beqz	a4,dfe8 <__lo0bits+0x44>
    dfb0:	0017f693          	andi	a3,a5,1
    dfb4:	00000713          	li	a4,0
    dfb8:	00069c63          	bnez	a3,dfd0 <__lo0bits+0x2c>
    dfbc:	0027f713          	andi	a4,a5,2
    dfc0:	00070c63          	beqz	a4,dfd8 <__lo0bits+0x34>
    dfc4:	0017d793          	srli	a5,a5,0x1
    dfc8:	00f52023          	sw	a5,0(a0)
    dfcc:	00100713          	li	a4,1
    dfd0:	00070513          	mv	a0,a4
    dfd4:	00008067          	ret
    dfd8:	0027d793          	srli	a5,a5,0x2
    dfdc:	00f52023          	sw	a5,0(a0)
    dfe0:	00200713          	li	a4,2
    dfe4:	fedff06f          	j	dfd0 <__lo0bits+0x2c>
    dfe8:	01079693          	slli	a3,a5,0x10
    dfec:	0106d693          	srli	a3,a3,0x10
    dff0:	00000713          	li	a4,0
    dff4:	00069663          	bnez	a3,e000 <__lo0bits+0x5c>
    dff8:	0107d793          	srli	a5,a5,0x10
    dffc:	01000713          	li	a4,16
    e000:	0ff7f693          	zext.b	a3,a5
    e004:	00069663          	bnez	a3,e010 <__lo0bits+0x6c>
    e008:	00870713          	addi	a4,a4,8 # c0000008 <__stack_top+0x3ff891b8>
    e00c:	0087d793          	srli	a5,a5,0x8
    e010:	00f7f693          	andi	a3,a5,15
    e014:	00069663          	bnez	a3,e020 <__lo0bits+0x7c>
    e018:	00470713          	addi	a4,a4,4
    e01c:	0047d793          	srli	a5,a5,0x4
    e020:	0037f693          	andi	a3,a5,3
    e024:	00069663          	bnez	a3,e030 <__lo0bits+0x8c>
    e028:	00270713          	addi	a4,a4,2
    e02c:	0027d793          	srli	a5,a5,0x2
    e030:	0017f693          	andi	a3,a5,1
    e034:	00069863          	bnez	a3,e044 <__lo0bits+0xa0>
    e038:	0017d793          	srli	a5,a5,0x1
    e03c:	00170713          	addi	a4,a4,1
    e040:	00078663          	beqz	a5,e04c <__lo0bits+0xa8>
    e044:	00f52023          	sw	a5,0(a0)
    e048:	f89ff06f          	j	dfd0 <__lo0bits+0x2c>
    e04c:	02000713          	li	a4,32
    e050:	f81ff06f          	j	dfd0 <__lo0bits+0x2c>

0000e054 <__i2b>:
    e054:	ff010113          	addi	sp,sp,-16
    e058:	00812423          	sw	s0,8(sp)
    e05c:	00058413          	mv	s0,a1
    e060:	00100593          	li	a1,1
    e064:	00112623          	sw	ra,12(sp)
    e068:	00000097          	auipc	ra,0x0
    e06c:	bd8080e7          	jalr	-1064(ra) # dc40 <_Balloc>
    e070:	00852a23          	sw	s0,20(a0)
    e074:	00c12083          	lw	ra,12(sp)
    e078:	00812403          	lw	s0,8(sp)
    e07c:	00100713          	li	a4,1
    e080:	00e52823          	sw	a4,16(a0)
    e084:	01010113          	addi	sp,sp,16
    e088:	00008067          	ret

0000e08c <__multiply>:
    e08c:	0105a703          	lw	a4,16(a1)
    e090:	01062783          	lw	a5,16(a2)
    e094:	fd010113          	addi	sp,sp,-48
    e098:	02912223          	sw	s1,36(sp)
    e09c:	02112623          	sw	ra,44(sp)
    e0a0:	02812423          	sw	s0,40(sp)
    e0a4:	03212023          	sw	s2,32(sp)
    e0a8:	01312e23          	sw	s3,28(sp)
    e0ac:	00058493          	mv	s1,a1
    e0b0:	00f75663          	bge	a4,a5,e0bc <__multiply+0x30>
    e0b4:	00060493          	mv	s1,a2
    e0b8:	00058613          	mv	a2,a1
    e0bc:	0104a983          	lw	s3,16(s1)
    e0c0:	01062903          	lw	s2,16(a2)
    e0c4:	0084a783          	lw	a5,8(s1)
    e0c8:	0044a583          	lw	a1,4(s1)
    e0cc:	01298433          	add	s0,s3,s2
    e0d0:	0087d463          	bge	a5,s0,e0d8 <__multiply+0x4c>
    e0d4:	00158593          	addi	a1,a1,1
    e0d8:	00c12623          	sw	a2,12(sp)
    e0dc:	00000097          	auipc	ra,0x0
    e0e0:	b64080e7          	jalr	-1180(ra) # dc40 <_Balloc>
    e0e4:	00c12603          	lw	a2,12(sp)
    e0e8:	01450813          	addi	a6,a0,20
    e0ec:	00241313          	slli	t1,s0,0x2
    e0f0:	00680333          	add	t1,a6,t1
    e0f4:	00080793          	mv	a5,a6
    e0f8:	0467ec63          	bltu	a5,t1,e150 <__multiply+0xc4>
    e0fc:	01448593          	addi	a1,s1,20
    e100:	00299893          	slli	a7,s3,0x2
    e104:	01460613          	addi	a2,a2,20
    e108:	00291e13          	slli	t3,s2,0x2
    e10c:	000106b7          	lui	a3,0x10
    e110:	011588b3          	add	a7,a1,a7
    e114:	01c60e33          	add	t3,a2,t3
    e118:	fff68693          	addi	a3,a3,-1 # ffff <_exit+0x1f>
    e11c:	05c66063          	bltu	a2,t3,e15c <__multiply+0xd0>
    e120:	00805863          	blez	s0,e130 <__multiply+0xa4>
    e124:	ffc30313          	addi	t1,t1,-4
    e128:	00032783          	lw	a5,0(t1)
    e12c:	10078e63          	beqz	a5,e248 <__multiply+0x1bc>
    e130:	00852823          	sw	s0,16(a0)
    e134:	02c12083          	lw	ra,44(sp)
    e138:	02812403          	lw	s0,40(sp)
    e13c:	02412483          	lw	s1,36(sp)
    e140:	02012903          	lw	s2,32(sp)
    e144:	01c12983          	lw	s3,28(sp)
    e148:	03010113          	addi	sp,sp,48
    e14c:	00008067          	ret
    e150:	0007a023          	sw	zero,0(a5)
    e154:	00478793          	addi	a5,a5,4
    e158:	fa1ff06f          	j	e0f8 <__multiply+0x6c>
    e15c:	00062f83          	lw	t6,0(a2)
    e160:	00dfffb3          	and	t6,t6,a3
    e164:	060f8463          	beqz	t6,e1cc <__multiply+0x140>
    e168:	00080f13          	mv	t5,a6
    e16c:	00058293          	mv	t0,a1
    e170:	00000493          	li	s1,0
    e174:	0002a703          	lw	a4,0(t0) # 6b50 <memset+0xb4>
    e178:	000f2383          	lw	t2,0(t5)
    e17c:	004f0f13          	addi	t5,t5,4
    e180:	00d77eb3          	and	t4,a4,a3
    e184:	03fe8eb3          	mul	t4,t4,t6
    e188:	00d3f7b3          	and	a5,t2,a3
    e18c:	0103d393          	srli	t2,t2,0x10
    e190:	00428293          	addi	t0,t0,4
    e194:	00fe8eb3          	add	t4,t4,a5
    e198:	01075793          	srli	a5,a4,0x10
    e19c:	03f787b3          	mul	a5,a5,t6
    e1a0:	009e8eb3          	add	t4,t4,s1
    e1a4:	010ed713          	srli	a4,t4,0x10
    e1a8:	00defeb3          	and	t4,t4,a3
    e1ac:	007787b3          	add	a5,a5,t2
    e1b0:	00e787b3          	add	a5,a5,a4
    e1b4:	0107d493          	srli	s1,a5,0x10
    e1b8:	01079793          	slli	a5,a5,0x10
    e1bc:	01d7e7b3          	or	a5,a5,t4
    e1c0:	feff2e23          	sw	a5,-4(t5)
    e1c4:	fb12e8e3          	bltu	t0,a7,e174 <__multiply+0xe8>
    e1c8:	009f2023          	sw	s1,0(t5)
    e1cc:	00265283          	lhu	t0,2(a2)
    e1d0:	06028663          	beqz	t0,e23c <__multiply+0x1b0>
    e1d4:	00082783          	lw	a5,0(a6)
    e1d8:	00080e93          	mv	t4,a6
    e1dc:	00058f13          	mv	t5,a1
    e1e0:	00000f93          	li	t6,0
    e1e4:	000f2703          	lw	a4,0(t5)
    e1e8:	002ed383          	lhu	t2,2(t4)
    e1ec:	00d7f7b3          	and	a5,a5,a3
    e1f0:	00d77733          	and	a4,a4,a3
    e1f4:	02570733          	mul	a4,a4,t0
    e1f8:	004e8e93          	addi	t4,t4,4
    e1fc:	004f0f13          	addi	t5,t5,4
    e200:	00770733          	add	a4,a4,t2
    e204:	01f70733          	add	a4,a4,t6
    e208:	01071f93          	slli	t6,a4,0x10
    e20c:	00ffe7b3          	or	a5,t6,a5
    e210:	fefeae23          	sw	a5,-4(t4)
    e214:	ffef5783          	lhu	a5,-2(t5)
    e218:	000eaf83          	lw	t6,0(t4)
    e21c:	01075713          	srli	a4,a4,0x10
    e220:	025787b3          	mul	a5,a5,t0
    e224:	00dfffb3          	and	t6,t6,a3
    e228:	01f787b3          	add	a5,a5,t6
    e22c:	00e787b3          	add	a5,a5,a4
    e230:	0107df93          	srli	t6,a5,0x10
    e234:	fb1f68e3          	bltu	t5,a7,e1e4 <__multiply+0x158>
    e238:	00fea023          	sw	a5,0(t4)
    e23c:	00460613          	addi	a2,a2,4
    e240:	00480813          	addi	a6,a6,4
    e244:	ed9ff06f          	j	e11c <__multiply+0x90>
    e248:	fff40413          	addi	s0,s0,-1
    e24c:	ed5ff06f          	j	e120 <__multiply+0x94>

0000e250 <__pow5mult>:
    e250:	fe010113          	addi	sp,sp,-32
    e254:	00912a23          	sw	s1,20(sp)
    e258:	01212823          	sw	s2,16(sp)
    e25c:	01312623          	sw	s3,12(sp)
    e260:	00112e23          	sw	ra,28(sp)
    e264:	00812c23          	sw	s0,24(sp)
    e268:	01412423          	sw	s4,8(sp)
    e26c:	00367793          	andi	a5,a2,3
    e270:	00050913          	mv	s2,a0
    e274:	00060493          	mv	s1,a2
    e278:	00058993          	mv	s3,a1
    e27c:	02078663          	beqz	a5,e2a8 <__pow5mult+0x58>
    e280:	fff78793          	addi	a5,a5,-1
    e284:	8003e717          	auipc	a4,0x8003e
    e288:	c2470713          	addi	a4,a4,-988 # 8004bea8 <__stack_top+0xfffd5058>
    e28c:	00279793          	slli	a5,a5,0x2
    e290:	00f707b3          	add	a5,a4,a5
    e294:	0007a603          	lw	a2,0(a5)
    e298:	00000693          	li	a3,0
    e29c:	00000097          	auipc	ra,0x0
    e2a0:	a78080e7          	jalr	-1416(ra) # dd14 <__multadd>
    e2a4:	00050993          	mv	s3,a0
    e2a8:	4024d493          	srai	s1,s1,0x2
    e2ac:	08048863          	beqz	s1,e33c <__pow5mult+0xec>
    e2b0:	04892403          	lw	s0,72(s2)
    e2b4:	02041063          	bnez	s0,e2d4 <__pow5mult+0x84>
    e2b8:	27100593          	li	a1,625
    e2bc:	00090513          	mv	a0,s2
    e2c0:	00000097          	auipc	ra,0x0
    e2c4:	d94080e7          	jalr	-620(ra) # e054 <__i2b>
    e2c8:	04a92423          	sw	a0,72(s2)
    e2cc:	00050413          	mv	s0,a0
    e2d0:	00052023          	sw	zero,0(a0)
    e2d4:	0014f793          	andi	a5,s1,1
    e2d8:	02078863          	beqz	a5,e308 <__pow5mult+0xb8>
    e2dc:	00098593          	mv	a1,s3
    e2e0:	00040613          	mv	a2,s0
    e2e4:	00090513          	mv	a0,s2
    e2e8:	00000097          	auipc	ra,0x0
    e2ec:	da4080e7          	jalr	-604(ra) # e08c <__multiply>
    e2f0:	00050a13          	mv	s4,a0
    e2f4:	00098593          	mv	a1,s3
    e2f8:	00090513          	mv	a0,s2
    e2fc:	00000097          	auipc	ra,0x0
    e300:	9f4080e7          	jalr	-1548(ra) # dcf0 <_Bfree>
    e304:	000a0993          	mv	s3,s4
    e308:	4014d493          	srai	s1,s1,0x1
    e30c:	02048863          	beqz	s1,e33c <__pow5mult+0xec>
    e310:	00042503          	lw	a0,0(s0)
    e314:	02051063          	bnez	a0,e334 <__pow5mult+0xe4>
    e318:	00040613          	mv	a2,s0
    e31c:	00040593          	mv	a1,s0
    e320:	00090513          	mv	a0,s2
    e324:	00000097          	auipc	ra,0x0
    e328:	d68080e7          	jalr	-664(ra) # e08c <__multiply>
    e32c:	00a42023          	sw	a0,0(s0)
    e330:	00052023          	sw	zero,0(a0)
    e334:	00050413          	mv	s0,a0
    e338:	f9dff06f          	j	e2d4 <__pow5mult+0x84>
    e33c:	01c12083          	lw	ra,28(sp)
    e340:	01812403          	lw	s0,24(sp)
    e344:	00098513          	mv	a0,s3
    e348:	01412483          	lw	s1,20(sp)
    e34c:	01012903          	lw	s2,16(sp)
    e350:	00c12983          	lw	s3,12(sp)
    e354:	00812a03          	lw	s4,8(sp)
    e358:	02010113          	addi	sp,sp,32
    e35c:	00008067          	ret

0000e360 <__lshift>:
    e360:	fd010113          	addi	sp,sp,-48
    e364:	02912223          	sw	s1,36(sp)
    e368:	00058493          	mv	s1,a1
    e36c:	01312e23          	sw	s3,28(sp)
    e370:	0104a983          	lw	s3,16(s1)
    e374:	02812423          	sw	s0,40(sp)
    e378:	0045a583          	lw	a1,4(a1)
    e37c:	40565413          	srai	s0,a2,0x5
    e380:	0084a783          	lw	a5,8(s1)
    e384:	013409b3          	add	s3,s0,s3
    e388:	03212023          	sw	s2,32(sp)
    e38c:	01512a23          	sw	s5,20(sp)
    e390:	02112623          	sw	ra,44(sp)
    e394:	01412c23          	sw	s4,24(sp)
    e398:	00050a93          	mv	s5,a0
    e39c:	00198913          	addi	s2,s3,1
    e3a0:	0d27ca63          	blt	a5,s2,e474 <__lshift+0x114>
    e3a4:	000a8513          	mv	a0,s5
    e3a8:	00c12623          	sw	a2,12(sp)
    e3ac:	00000097          	auipc	ra,0x0
    e3b0:	894080e7          	jalr	-1900(ra) # dc40 <_Balloc>
    e3b4:	00c12603          	lw	a2,12(sp)
    e3b8:	01450793          	addi	a5,a0,20
    e3bc:	00050a13          	mv	s4,a0
    e3c0:	00078693          	mv	a3,a5
    e3c4:	00000713          	li	a4,0
    e3c8:	00468693          	addi	a3,a3,4
    e3cc:	0a874a63          	blt	a4,s0,e480 <__lshift+0x120>
    e3d0:	00045463          	bgez	s0,e3d8 <__lshift+0x78>
    e3d4:	00000413          	li	s0,0
    e3d8:	0104a683          	lw	a3,16(s1)
    e3dc:	00241413          	slli	s0,s0,0x2
    e3e0:	00878733          	add	a4,a5,s0
    e3e4:	00269693          	slli	a3,a3,0x2
    e3e8:	01448793          	addi	a5,s1,20
    e3ec:	01f67613          	andi	a2,a2,31
    e3f0:	00d786b3          	add	a3,a5,a3
    e3f4:	08060c63          	beqz	a2,e48c <__lshift+0x12c>
    e3f8:	02000813          	li	a6,32
    e3fc:	40c80833          	sub	a6,a6,a2
    e400:	00000593          	li	a1,0
    e404:	0007a503          	lw	a0,0(a5)
    e408:	00470713          	addi	a4,a4,4
    e40c:	00478793          	addi	a5,a5,4
    e410:	00c51533          	sll	a0,a0,a2
    e414:	00b565b3          	or	a1,a0,a1
    e418:	feb72e23          	sw	a1,-4(a4)
    e41c:	ffc7a583          	lw	a1,-4(a5)
    e420:	0105d5b3          	srl	a1,a1,a6
    e424:	fed7e0e3          	bltu	a5,a3,e404 <__lshift+0xa4>
    e428:	00b72023          	sw	a1,0(a4)
    e42c:	00058463          	beqz	a1,e434 <__lshift+0xd4>
    e430:	00298913          	addi	s2,s3,2
    e434:	fff90913          	addi	s2,s2,-1
    e438:	012a2823          	sw	s2,16(s4)
    e43c:	000a8513          	mv	a0,s5
    e440:	00048593          	mv	a1,s1
    e444:	00000097          	auipc	ra,0x0
    e448:	8ac080e7          	jalr	-1876(ra) # dcf0 <_Bfree>
    e44c:	02c12083          	lw	ra,44(sp)
    e450:	02812403          	lw	s0,40(sp)
    e454:	000a0513          	mv	a0,s4
    e458:	02412483          	lw	s1,36(sp)
    e45c:	02012903          	lw	s2,32(sp)
    e460:	01c12983          	lw	s3,28(sp)
    e464:	01812a03          	lw	s4,24(sp)
    e468:	01412a83          	lw	s5,20(sp)
    e46c:	03010113          	addi	sp,sp,48
    e470:	00008067          	ret
    e474:	00158593          	addi	a1,a1,1
    e478:	00179793          	slli	a5,a5,0x1
    e47c:	f25ff06f          	j	e3a0 <__lshift+0x40>
    e480:	fe06ae23          	sw	zero,-4(a3)
    e484:	00170713          	addi	a4,a4,1
    e488:	f41ff06f          	j	e3c8 <__lshift+0x68>
    e48c:	00478793          	addi	a5,a5,4
    e490:	ffc7a603          	lw	a2,-4(a5)
    e494:	00470713          	addi	a4,a4,4
    e498:	fec72e23          	sw	a2,-4(a4)
    e49c:	fed7e8e3          	bltu	a5,a3,e48c <__lshift+0x12c>
    e4a0:	f95ff06f          	j	e434 <__lshift+0xd4>

0000e4a4 <__mcmp>:
    e4a4:	01052783          	lw	a5,16(a0)
    e4a8:	0105a703          	lw	a4,16(a1)
    e4ac:	40e787b3          	sub	a5,a5,a4
    e4b0:	02079c63          	bnez	a5,e4e8 <__mcmp+0x44>
    e4b4:	00271713          	slli	a4,a4,0x2
    e4b8:	01450513          	addi	a0,a0,20
    e4bc:	01458593          	addi	a1,a1,20
    e4c0:	00e506b3          	add	a3,a0,a4
    e4c4:	00e585b3          	add	a1,a1,a4
    e4c8:	ffc68693          	addi	a3,a3,-4
    e4cc:	ffc58593          	addi	a1,a1,-4
    e4d0:	0006a603          	lw	a2,0(a3)
    e4d4:	0005a703          	lw	a4,0(a1)
    e4d8:	00e60c63          	beq	a2,a4,e4f0 <__mcmp+0x4c>
    e4dc:	fff00793          	li	a5,-1
    e4e0:	00e66463          	bltu	a2,a4,e4e8 <__mcmp+0x44>
    e4e4:	00100793          	li	a5,1
    e4e8:	00078513          	mv	a0,a5
    e4ec:	00008067          	ret
    e4f0:	fcd56ce3          	bltu	a0,a3,e4c8 <__mcmp+0x24>
    e4f4:	ff5ff06f          	j	e4e8 <__mcmp+0x44>

0000e4f8 <__mdiff>:
    e4f8:	fe010113          	addi	sp,sp,-32
    e4fc:	00912a23          	sw	s1,20(sp)
    e500:	00058493          	mv	s1,a1
    e504:	01312623          	sw	s3,12(sp)
    e508:	00060593          	mv	a1,a2
    e50c:	00050993          	mv	s3,a0
    e510:	00048513          	mv	a0,s1
    e514:	00812c23          	sw	s0,24(sp)
    e518:	00112e23          	sw	ra,28(sp)
    e51c:	01212823          	sw	s2,16(sp)
    e520:	00060413          	mv	s0,a2
    e524:	00000097          	auipc	ra,0x0
    e528:	f80080e7          	jalr	-128(ra) # e4a4 <__mcmp>
    e52c:	02051e63          	bnez	a0,e568 <__mdiff+0x70>
    e530:	00000593          	li	a1,0
    e534:	00098513          	mv	a0,s3
    e538:	fffff097          	auipc	ra,0xfffff
    e53c:	708080e7          	jalr	1800(ra) # dc40 <_Balloc>
    e540:	00100793          	li	a5,1
    e544:	00f52823          	sw	a5,16(a0)
    e548:	00052a23          	sw	zero,20(a0)
    e54c:	01c12083          	lw	ra,28(sp)
    e550:	01812403          	lw	s0,24(sp)
    e554:	01412483          	lw	s1,20(sp)
    e558:	01012903          	lw	s2,16(sp)
    e55c:	00c12983          	lw	s3,12(sp)
    e560:	02010113          	addi	sp,sp,32
    e564:	00008067          	ret
    e568:	00100913          	li	s2,1
    e56c:	00054a63          	bltz	a0,e580 <__mdiff+0x88>
    e570:	00040793          	mv	a5,s0
    e574:	00000913          	li	s2,0
    e578:	00048413          	mv	s0,s1
    e57c:	00078493          	mv	s1,a5
    e580:	00442583          	lw	a1,4(s0)
    e584:	00098513          	mv	a0,s3
    e588:	fffff097          	auipc	ra,0xfffff
    e58c:	6b8080e7          	jalr	1720(ra) # dc40 <_Balloc>
    e590:	01042303          	lw	t1,16(s0)
    e594:	0104a883          	lw	a7,16(s1)
    e598:	01440613          	addi	a2,s0,20
    e59c:	00231e13          	slli	t3,t1,0x2
    e5a0:	01448813          	addi	a6,s1,20
    e5a4:	00289893          	slli	a7,a7,0x2
    e5a8:	00010eb7          	lui	t4,0x10
    e5ac:	01252623          	sw	s2,12(a0)
    e5b0:	01c60e33          	add	t3,a2,t3
    e5b4:	011808b3          	add	a7,a6,a7
    e5b8:	01450693          	addi	a3,a0,20
    e5bc:	00000f13          	li	t5,0
    e5c0:	fffe8e93          	addi	t4,t4,-1 # ffff <_exit+0x1f>
    e5c4:	00062703          	lw	a4,0(a2)
    e5c8:	00082f83          	lw	t6,0(a6)
    e5cc:	00468693          	addi	a3,a3,4
    e5d0:	01d775b3          	and	a1,a4,t4
    e5d4:	01dff7b3          	and	a5,t6,t4
    e5d8:	01e585b3          	add	a1,a1,t5
    e5dc:	40f585b3          	sub	a1,a1,a5
    e5e0:	010fdf93          	srli	t6,t6,0x10
    e5e4:	01075793          	srli	a5,a4,0x10
    e5e8:	41f787b3          	sub	a5,a5,t6
    e5ec:	4105d713          	srai	a4,a1,0x10
    e5f0:	00e787b3          	add	a5,a5,a4
    e5f4:	4107df13          	srai	t5,a5,0x10
    e5f8:	01d5f5b3          	and	a1,a1,t4
    e5fc:	01079793          	slli	a5,a5,0x10
    e600:	00b7e7b3          	or	a5,a5,a1
    e604:	00480813          	addi	a6,a6,4
    e608:	fef6ae23          	sw	a5,-4(a3)
    e60c:	00460613          	addi	a2,a2,4
    e610:	fb186ae3          	bltu	a6,a7,e5c4 <__mdiff+0xcc>
    e614:	000105b7          	lui	a1,0x10
    e618:	fff58593          	addi	a1,a1,-1 # ffff <_exit+0x1f>
    e61c:	01c66c63          	bltu	a2,t3,e634 <__mdiff+0x13c>
    e620:	ffc68693          	addi	a3,a3,-4
    e624:	0006a783          	lw	a5,0(a3)
    e628:	04078263          	beqz	a5,e66c <__mdiff+0x174>
    e62c:	00652823          	sw	t1,16(a0)
    e630:	f1dff06f          	j	e54c <__mdiff+0x54>
    e634:	00062783          	lw	a5,0(a2)
    e638:	00468693          	addi	a3,a3,4
    e63c:	00460613          	addi	a2,a2,4
    e640:	00b7f733          	and	a4,a5,a1
    e644:	01e70733          	add	a4,a4,t5
    e648:	41075813          	srai	a6,a4,0x10
    e64c:	0107d793          	srli	a5,a5,0x10
    e650:	010787b3          	add	a5,a5,a6
    e654:	4107df13          	srai	t5,a5,0x10
    e658:	00b77733          	and	a4,a4,a1
    e65c:	01079793          	slli	a5,a5,0x10
    e660:	00e7e7b3          	or	a5,a5,a4
    e664:	fef6ae23          	sw	a5,-4(a3)
    e668:	fb5ff06f          	j	e61c <__mdiff+0x124>
    e66c:	fff30313          	addi	t1,t1,-1
    e670:	fb1ff06f          	j	e620 <__mdiff+0x128>

0000e674 <__ulp>:
    e674:	7ff007b7          	lui	a5,0x7ff00
    e678:	00b7f5b3          	and	a1,a5,a1
    e67c:	fcc007b7          	lui	a5,0xfcc00
    e680:	00f585b3          	add	a1,a1,a5
    e684:	00b05863          	blez	a1,e694 <__ulp+0x20>
    e688:	00000793          	li	a5,0
    e68c:	00078513          	mv	a0,a5
    e690:	00008067          	ret
    e694:	40b005b3          	neg	a1,a1
    e698:	4145d793          	srai	a5,a1,0x14
    e69c:	01300713          	li	a4,19
    e6a0:	00f74863          	blt	a4,a5,e6b0 <__ulp+0x3c>
    e6a4:	000805b7          	lui	a1,0x80
    e6a8:	40f5d5b3          	sra	a1,a1,a5
    e6ac:	fddff06f          	j	e688 <__ulp+0x14>
    e6b0:	fec78713          	addi	a4,a5,-20 # fcbfffec <__stack_top+0x7cb8919c>
    e6b4:	01e00693          	li	a3,30
    e6b8:	00000593          	li	a1,0
    e6bc:	00100793          	li	a5,1
    e6c0:	fce6c6e3          	blt	a3,a4,e68c <__ulp+0x18>
    e6c4:	800007b7          	lui	a5,0x80000
    e6c8:	00e7d7b3          	srl	a5,a5,a4
    e6cc:	fc1ff06f          	j	e68c <__ulp+0x18>

0000e6d0 <__b2d>:
    e6d0:	fd010113          	addi	sp,sp,-48
    e6d4:	02912223          	sw	s1,36(sp)
    e6d8:	01052483          	lw	s1,16(a0)
    e6dc:	01312e23          	sw	s3,28(sp)
    e6e0:	01450993          	addi	s3,a0,20
    e6e4:	00249493          	slli	s1,s1,0x2
    e6e8:	009984b3          	add	s1,s3,s1
    e6ec:	02812423          	sw	s0,40(sp)
    e6f0:	ffc4a403          	lw	s0,-4(s1)
    e6f4:	03212023          	sw	s2,32(sp)
    e6f8:	00b12623          	sw	a1,12(sp)
    e6fc:	00040513          	mv	a0,s0
    e700:	02112623          	sw	ra,44(sp)
    e704:	00000097          	auipc	ra,0x0
    e708:	830080e7          	jalr	-2000(ra) # df34 <__hi0bits>
    e70c:	00c12583          	lw	a1,12(sp)
    e710:	02000793          	li	a5,32
    e714:	40a787b3          	sub	a5,a5,a0
    e718:	00f5a023          	sw	a5,0(a1) # 80000 <__trunctfdf2+0x6c698>
    e71c:	00a00793          	li	a5,10
    e720:	ffc48913          	addi	s2,s1,-4
    e724:	04a7cc63          	blt	a5,a0,e77c <__b2d+0xac>
    e728:	00b00793          	li	a5,11
    e72c:	40a787b3          	sub	a5,a5,a0
    e730:	3ff00737          	lui	a4,0x3ff00
    e734:	00f456b3          	srl	a3,s0,a5
    e738:	00e6e6b3          	or	a3,a3,a4
    e73c:	00000713          	li	a4,0
    e740:	0129f463          	bgeu	s3,s2,e748 <__b2d+0x78>
    e744:	ff84a703          	lw	a4,-8(s1)
    e748:	01550513          	addi	a0,a0,21
    e74c:	00a41533          	sll	a0,s0,a0
    e750:	00f757b3          	srl	a5,a4,a5
    e754:	00f567b3          	or	a5,a0,a5
    e758:	02c12083          	lw	ra,44(sp)
    e75c:	02812403          	lw	s0,40(sp)
    e760:	02412483          	lw	s1,36(sp)
    e764:	02012903          	lw	s2,32(sp)
    e768:	01c12983          	lw	s3,28(sp)
    e76c:	00078513          	mv	a0,a5
    e770:	00068593          	mv	a1,a3
    e774:	03010113          	addi	sp,sp,48
    e778:	00008067          	ret
    e77c:	00000793          	li	a5,0
    e780:	0129f663          	bgeu	s3,s2,e78c <__b2d+0xbc>
    e784:	ff84a783          	lw	a5,-8(s1)
    e788:	ff848913          	addi	s2,s1,-8
    e78c:	ff550513          	addi	a0,a0,-11
    e790:	02050e63          	beqz	a0,e7cc <__b2d+0xfc>
    e794:	02000713          	li	a4,32
    e798:	40a70633          	sub	a2,a4,a0
    e79c:	00c7d733          	srl	a4,a5,a2
    e7a0:	00a41433          	sll	s0,s0,a0
    e7a4:	00e46433          	or	s0,s0,a4
    e7a8:	3ff006b7          	lui	a3,0x3ff00
    e7ac:	00d466b3          	or	a3,s0,a3
    e7b0:	00000713          	li	a4,0
    e7b4:	0129f463          	bgeu	s3,s2,e7bc <__b2d+0xec>
    e7b8:	ffc92703          	lw	a4,-4(s2)
    e7bc:	00a797b3          	sll	a5,a5,a0
    e7c0:	00c75733          	srl	a4,a4,a2
    e7c4:	00e7e7b3          	or	a5,a5,a4
    e7c8:	f91ff06f          	j	e758 <__b2d+0x88>
    e7cc:	3ff006b7          	lui	a3,0x3ff00
    e7d0:	00d466b3          	or	a3,s0,a3
    e7d4:	f85ff06f          	j	e758 <__b2d+0x88>

0000e7d8 <__d2b>:
    e7d8:	fd010113          	addi	sp,sp,-48
    e7dc:	02812423          	sw	s0,40(sp)
    e7e0:	00058413          	mv	s0,a1
    e7e4:	00100593          	li	a1,1
    e7e8:	02912223          	sw	s1,36(sp)
    e7ec:	03212023          	sw	s2,32(sp)
    e7f0:	00060493          	mv	s1,a2
    e7f4:	01312e23          	sw	s3,28(sp)
    e7f8:	01412c23          	sw	s4,24(sp)
    e7fc:	00070913          	mv	s2,a4
    e800:	02112623          	sw	ra,44(sp)
    e804:	00068a13          	mv	s4,a3
    e808:	fffff097          	auipc	ra,0xfffff
    e80c:	438080e7          	jalr	1080(ra) # dc40 <_Balloc>
    e810:	00100737          	lui	a4,0x100
    e814:	fff70793          	addi	a5,a4,-1 # fffff <__trunctfdf2+0xec697>
    e818:	0097f7b3          	and	a5,a5,s1
    e81c:	0144d493          	srli	s1,s1,0x14
    e820:	7ff4f493          	andi	s1,s1,2047
    e824:	00050993          	mv	s3,a0
    e828:	08049c63          	bnez	s1,e8c0 <__d2b+0xe8>
    e82c:	00f12623          	sw	a5,12(sp)
    e830:	0a040063          	beqz	s0,e8d0 <__d2b+0xf8>
    e834:	00810513          	addi	a0,sp,8
    e838:	00812423          	sw	s0,8(sp)
    e83c:	fffff097          	auipc	ra,0xfffff
    e840:	768080e7          	jalr	1896(ra) # dfa4 <__lo0bits>
    e844:	00812683          	lw	a3,8(sp)
    e848:	08050063          	beqz	a0,e8c8 <__d2b+0xf0>
    e84c:	00c12703          	lw	a4,12(sp)
    e850:	02000793          	li	a5,32
    e854:	40a787b3          	sub	a5,a5,a0
    e858:	00f717b3          	sll	a5,a4,a5
    e85c:	00d7e7b3          	or	a5,a5,a3
    e860:	00a75733          	srl	a4,a4,a0
    e864:	00f9aa23          	sw	a5,20(s3)
    e868:	00e12623          	sw	a4,12(sp)
    e86c:	00c12403          	lw	s0,12(sp)
    e870:	0089ac23          	sw	s0,24(s3)
    e874:	00803433          	snez	s0,s0
    e878:	00140413          	addi	s0,s0,1
    e87c:	0089a823          	sw	s0,16(s3)
    e880:	06048c63          	beqz	s1,e8f8 <__d2b+0x120>
    e884:	bcd48493          	addi	s1,s1,-1075
    e888:	00a484b3          	add	s1,s1,a0
    e88c:	03500793          	li	a5,53
    e890:	009a2023          	sw	s1,0(s4)
    e894:	40a78533          	sub	a0,a5,a0
    e898:	00a92023          	sw	a0,0(s2)
    e89c:	02c12083          	lw	ra,44(sp)
    e8a0:	02812403          	lw	s0,40(sp)
    e8a4:	00098513          	mv	a0,s3
    e8a8:	02412483          	lw	s1,36(sp)
    e8ac:	02012903          	lw	s2,32(sp)
    e8b0:	01c12983          	lw	s3,28(sp)
    e8b4:	01812a03          	lw	s4,24(sp)
    e8b8:	03010113          	addi	sp,sp,48
    e8bc:	00008067          	ret
    e8c0:	00e7e7b3          	or	a5,a5,a4
    e8c4:	f69ff06f          	j	e82c <__d2b+0x54>
    e8c8:	00d9aa23          	sw	a3,20(s3)
    e8cc:	fa1ff06f          	j	e86c <__d2b+0x94>
    e8d0:	00c10513          	addi	a0,sp,12
    e8d4:	fffff097          	auipc	ra,0xfffff
    e8d8:	6d0080e7          	jalr	1744(ra) # dfa4 <__lo0bits>
    e8dc:	00c12783          	lw	a5,12(sp)
    e8e0:	02050513          	addi	a0,a0,32
    e8e4:	00100413          	li	s0,1
    e8e8:	00f9aa23          	sw	a5,20(s3)
    e8ec:	00100793          	li	a5,1
    e8f0:	00f9a823          	sw	a5,16(s3)
    e8f4:	f8dff06f          	j	e880 <__d2b+0xa8>
    e8f8:	00241793          	slli	a5,s0,0x2
    e8fc:	bce50513          	addi	a0,a0,-1074
    e900:	00f987b3          	add	a5,s3,a5
    e904:	00aa2023          	sw	a0,0(s4)
    e908:	0107a503          	lw	a0,16(a5) # 80000010 <__stack_top+0xfff891c0>
    e90c:	00541413          	slli	s0,s0,0x5
    e910:	fffff097          	auipc	ra,0xfffff
    e914:	624080e7          	jalr	1572(ra) # df34 <__hi0bits>
    e918:	40a40433          	sub	s0,s0,a0
    e91c:	00892023          	sw	s0,0(s2)
    e920:	f7dff06f          	j	e89c <__d2b+0xc4>

0000e924 <__ratio>:
    e924:	fd010113          	addi	sp,sp,-48
    e928:	03212023          	sw	s2,32(sp)
    e92c:	00058913          	mv	s2,a1
    e930:	00810593          	addi	a1,sp,8
    e934:	02112623          	sw	ra,44(sp)
    e938:	02812423          	sw	s0,40(sp)
    e93c:	02912223          	sw	s1,36(sp)
    e940:	01312e23          	sw	s3,28(sp)
    e944:	01412c23          	sw	s4,24(sp)
    e948:	00050a13          	mv	s4,a0
    e94c:	00000097          	auipc	ra,0x0
    e950:	d84080e7          	jalr	-636(ra) # e6d0 <__b2d>
    e954:	00050993          	mv	s3,a0
    e958:	00058493          	mv	s1,a1
    e95c:	00058413          	mv	s0,a1
    e960:	00090513          	mv	a0,s2
    e964:	00c10593          	addi	a1,sp,12
    e968:	00000097          	auipc	ra,0x0
    e96c:	d68080e7          	jalr	-664(ra) # e6d0 <__b2d>
    e970:	01092783          	lw	a5,16(s2)
    e974:	010a2703          	lw	a4,16(s4)
    e978:	00812683          	lw	a3,8(sp)
    e97c:	40f70733          	sub	a4,a4,a5
    e980:	00c12783          	lw	a5,12(sp)
    e984:	00571713          	slli	a4,a4,0x5
    e988:	40f686b3          	sub	a3,a3,a5
    e98c:	00d707b3          	add	a5,a4,a3
    e990:	04f05663          	blez	a5,e9dc <__ratio+0xb8>
    e994:	01479793          	slli	a5,a5,0x14
    e998:	00058613          	mv	a2,a1
    e99c:	00978433          	add	s0,a5,s1
    e9a0:	00060713          	mv	a4,a2
    e9a4:	00040593          	mv	a1,s0
    e9a8:	00050613          	mv	a2,a0
    e9ac:	00070693          	mv	a3,a4
    e9b0:	00098513          	mv	a0,s3
    e9b4:	ffff6097          	auipc	ra,0xffff6
    e9b8:	60c080e7          	jalr	1548(ra) # 4fc0 <__divdf3>
    e9bc:	02c12083          	lw	ra,44(sp)
    e9c0:	02812403          	lw	s0,40(sp)
    e9c4:	02412483          	lw	s1,36(sp)
    e9c8:	02012903          	lw	s2,32(sp)
    e9cc:	01c12983          	lw	s3,28(sp)
    e9d0:	01812a03          	lw	s4,24(sp)
    e9d4:	03010113          	addi	sp,sp,48
    e9d8:	00008067          	ret
    e9dc:	fff00737          	lui	a4,0xfff00
    e9e0:	02e787b3          	mul	a5,a5,a4
    e9e4:	00b78633          	add	a2,a5,a1
    e9e8:	fb9ff06f          	j	e9a0 <__ratio+0x7c>

0000e9ec <_mprec_log10>:
    e9ec:	ff010113          	addi	sp,sp,-16
    e9f0:	00812423          	sw	s0,8(sp)
    e9f4:	00112623          	sw	ra,12(sp)
    e9f8:	01212223          	sw	s2,4(sp)
    e9fc:	01312023          	sw	s3,0(sp)
    ea00:	01700793          	li	a5,23
    ea04:	00050413          	mv	s0,a0
    ea08:	02a7ca63          	blt	a5,a0,ea3c <_mprec_log10+0x50>
    ea0c:	00351413          	slli	s0,a0,0x3
    ea10:	8003d797          	auipc	a5,0x8003d
    ea14:	49878793          	addi	a5,a5,1176 # 8004bea8 <__stack_top+0xfffd5058>
    ea18:	00878433          	add	s0,a5,s0
    ea1c:	01042503          	lw	a0,16(s0)
    ea20:	01442583          	lw	a1,20(s0)
    ea24:	00c12083          	lw	ra,12(sp)
    ea28:	00812403          	lw	s0,8(sp)
    ea2c:	00412903          	lw	s2,4(sp)
    ea30:	00012983          	lw	s3,0(sp)
    ea34:	01010113          	addi	sp,sp,16
    ea38:	00008067          	ret
    ea3c:	8003e797          	auipc	a5,0x8003e
    ea40:	87478793          	addi	a5,a5,-1932 # 8004c2b0 <__stack_top+0xfffd5460>
    ea44:	0007a503          	lw	a0,0(a5)
    ea48:	0047a583          	lw	a1,4(a5)
    ea4c:	8003e797          	auipc	a5,0x8003e
    ea50:	86c78793          	addi	a5,a5,-1940 # 8004c2b8 <__stack_top+0xfffd5468>
    ea54:	0007a903          	lw	s2,0(a5)
    ea58:	0047a983          	lw	s3,4(a5)
    ea5c:	00090613          	mv	a2,s2
    ea60:	00098693          	mv	a3,s3
    ea64:	fff40413          	addi	s0,s0,-1
    ea68:	ffff7097          	auipc	ra,0xffff7
    ea6c:	c54080e7          	jalr	-940(ra) # 56bc <__muldf3>
    ea70:	fe0416e3          	bnez	s0,ea5c <_mprec_log10+0x70>
    ea74:	fb1ff06f          	j	ea24 <_mprec_log10+0x38>

0000ea78 <__copybits>:
    ea78:	fff58793          	addi	a5,a1,-1
    ea7c:	01062703          	lw	a4,16(a2)
    ea80:	4057d793          	srai	a5,a5,0x5
    ea84:	00178793          	addi	a5,a5,1
    ea88:	00279793          	slli	a5,a5,0x2
    ea8c:	01460693          	addi	a3,a2,20
    ea90:	00271713          	slli	a4,a4,0x2
    ea94:	00f507b3          	add	a5,a0,a5
    ea98:	00e68733          	add	a4,a3,a4
    ea9c:	00e6e663          	bltu	a3,a4,eaa8 <__copybits+0x30>
    eaa0:	00f56e63          	bltu	a0,a5,eabc <__copybits+0x44>
    eaa4:	00008067          	ret
    eaa8:	00468693          	addi	a3,a3,4 # 3ff00004 <__trunctfdf2+0x3feec69c>
    eaac:	ffc6a603          	lw	a2,-4(a3)
    eab0:	00450513          	addi	a0,a0,4
    eab4:	fec52e23          	sw	a2,-4(a0)
    eab8:	fe5ff06f          	j	ea9c <__copybits+0x24>
    eabc:	00450513          	addi	a0,a0,4
    eac0:	fe052e23          	sw	zero,-4(a0)
    eac4:	fddff06f          	j	eaa0 <__copybits+0x28>

0000eac8 <__any_on>:
    eac8:	01052683          	lw	a3,16(a0)
    eacc:	4055d793          	srai	a5,a1,0x5
    ead0:	01450713          	addi	a4,a0,20
    ead4:	04f6c063          	blt	a3,a5,eb14 <__any_on+0x4c>
    ead8:	02d7d463          	bge	a5,a3,eb00 <__any_on+0x38>
    eadc:	01f5f593          	andi	a1,a1,31
    eae0:	02058063          	beqz	a1,eb00 <__any_on+0x38>
    eae4:	00279693          	slli	a3,a5,0x2
    eae8:	00d706b3          	add	a3,a4,a3
    eaec:	0006a603          	lw	a2,0(a3)
    eaf0:	00100513          	li	a0,1
    eaf4:	00b656b3          	srl	a3,a2,a1
    eaf8:	00b695b3          	sll	a1,a3,a1
    eafc:	02b61863          	bne	a2,a1,eb2c <__any_on+0x64>
    eb00:	00279793          	slli	a5,a5,0x2
    eb04:	00f707b3          	add	a5,a4,a5
    eb08:	00f76a63          	bltu	a4,a5,eb1c <__any_on+0x54>
    eb0c:	00000513          	li	a0,0
    eb10:	00008067          	ret
    eb14:	00068793          	mv	a5,a3
    eb18:	fe9ff06f          	j	eb00 <__any_on+0x38>
    eb1c:	ffc78793          	addi	a5,a5,-4
    eb20:	0007a683          	lw	a3,0(a5)
    eb24:	fe0682e3          	beqz	a3,eb08 <__any_on+0x40>
    eb28:	00100513          	li	a0,1
    eb2c:	00008067          	ret

0000eb30 <__sread>:
    eb30:	ff010113          	addi	sp,sp,-16
    eb34:	00812423          	sw	s0,8(sp)
    eb38:	00058413          	mv	s0,a1
    eb3c:	00e59583          	lh	a1,14(a1)
    eb40:	00112623          	sw	ra,12(sp)
    eb44:	00001097          	auipc	ra,0x1
    eb48:	3ec080e7          	jalr	1004(ra) # ff30 <_read_r>
    eb4c:	02054063          	bltz	a0,eb6c <__sread+0x3c>
    eb50:	05042783          	lw	a5,80(s0)
    eb54:	00a787b3          	add	a5,a5,a0
    eb58:	04f42823          	sw	a5,80(s0)
    eb5c:	00c12083          	lw	ra,12(sp)
    eb60:	00812403          	lw	s0,8(sp)
    eb64:	01010113          	addi	sp,sp,16
    eb68:	00008067          	ret
    eb6c:	00c45783          	lhu	a5,12(s0)
    eb70:	fffff737          	lui	a4,0xfffff
    eb74:	fff70713          	addi	a4,a4,-1 # ffffefff <__stack_top+0x7ff881af>
    eb78:	00e7f7b3          	and	a5,a5,a4
    eb7c:	00f41623          	sh	a5,12(s0)
    eb80:	fddff06f          	j	eb5c <__sread+0x2c>

0000eb84 <__seofread>:
    eb84:	00000513          	li	a0,0
    eb88:	00008067          	ret

0000eb8c <__swrite>:
    eb8c:	00c5d783          	lhu	a5,12(a1)
    eb90:	fe010113          	addi	sp,sp,-32
    eb94:	00812c23          	sw	s0,24(sp)
    eb98:	00912a23          	sw	s1,20(sp)
    eb9c:	01212823          	sw	s2,16(sp)
    eba0:	01312623          	sw	s3,12(sp)
    eba4:	00112e23          	sw	ra,28(sp)
    eba8:	1007f793          	andi	a5,a5,256
    ebac:	00050493          	mv	s1,a0
    ebb0:	00058413          	mv	s0,a1
    ebb4:	00060913          	mv	s2,a2
    ebb8:	00068993          	mv	s3,a3
    ebbc:	00078c63          	beqz	a5,ebd4 <__swrite+0x48>
    ebc0:	00e59583          	lh	a1,14(a1)
    ebc4:	00200693          	li	a3,2
    ebc8:	00000613          	li	a2,0
    ebcc:	00001097          	auipc	ra,0x1
    ebd0:	30c080e7          	jalr	780(ra) # fed8 <_lseek_r>
    ebd4:	00c45783          	lhu	a5,12(s0)
    ebd8:	fffff737          	lui	a4,0xfffff
    ebdc:	fff70713          	addi	a4,a4,-1 # ffffefff <__stack_top+0x7ff881af>
    ebe0:	00e7f7b3          	and	a5,a5,a4
    ebe4:	00f41623          	sh	a5,12(s0)
    ebe8:	00e41583          	lh	a1,14(s0)
    ebec:	01812403          	lw	s0,24(sp)
    ebf0:	01c12083          	lw	ra,28(sp)
    ebf4:	00098693          	mv	a3,s3
    ebf8:	00090613          	mv	a2,s2
    ebfc:	00c12983          	lw	s3,12(sp)
    ec00:	01012903          	lw	s2,16(sp)
    ec04:	00048513          	mv	a0,s1
    ec08:	01412483          	lw	s1,20(sp)
    ec0c:	02010113          	addi	sp,sp,32
    ec10:	ffffc317          	auipc	t1,0xffffc
    ec14:	c6430067          	jr	-924(t1) # a874 <_write_r>

0000ec18 <__sseek>:
    ec18:	ff010113          	addi	sp,sp,-16
    ec1c:	00812423          	sw	s0,8(sp)
    ec20:	00058413          	mv	s0,a1
    ec24:	00e59583          	lh	a1,14(a1)
    ec28:	00112623          	sw	ra,12(sp)
    ec2c:	00001097          	auipc	ra,0x1
    ec30:	2ac080e7          	jalr	684(ra) # fed8 <_lseek_r>
    ec34:	fff00793          	li	a5,-1
    ec38:	00c45703          	lhu	a4,12(s0)
    ec3c:	02f51263          	bne	a0,a5,ec60 <__sseek+0x48>
    ec40:	fffff7b7          	lui	a5,0xfffff
    ec44:	fff78793          	addi	a5,a5,-1 # ffffefff <__stack_top+0x7ff881af>
    ec48:	00e7f7b3          	and	a5,a5,a4
    ec4c:	00f41623          	sh	a5,12(s0)
    ec50:	00c12083          	lw	ra,12(sp)
    ec54:	00812403          	lw	s0,8(sp)
    ec58:	01010113          	addi	sp,sp,16
    ec5c:	00008067          	ret
    ec60:	000017b7          	lui	a5,0x1
    ec64:	00f767b3          	or	a5,a4,a5
    ec68:	00f41623          	sh	a5,12(s0)
    ec6c:	04a42823          	sw	a0,80(s0)
    ec70:	fe1ff06f          	j	ec50 <__sseek+0x38>

0000ec74 <__sclose>:
    ec74:	00e59583          	lh	a1,14(a1)
    ec78:	00001317          	auipc	t1,0x1
    ec7c:	05c30067          	jr	92(t1) # fcd4 <_close_r>

0000ec80 <strncpy>:
    ec80:	00050793          	mv	a5,a0
    ec84:	00060e63          	beqz	a2,eca0 <strncpy+0x20>
    ec88:	00158593          	addi	a1,a1,1
    ec8c:	fff5c703          	lbu	a4,-1(a1)
    ec90:	00178793          	addi	a5,a5,1 # 1001 <_ZN6tflite21MicroInterpreterGraph15ResetTensorDataEPKNS_6TensorEP16TfLiteEvalTensor+0x51>
    ec94:	fff60613          	addi	a2,a2,-1
    ec98:	fee78fa3          	sb	a4,-1(a5)
    ec9c:	fe0714e3          	bnez	a4,ec84 <strncpy+0x4>
    eca0:	00c78633          	add	a2,a5,a2
    eca4:	00c79463          	bne	a5,a2,ecac <strncpy+0x2c>
    eca8:	00008067          	ret
    ecac:	00178793          	addi	a5,a5,1
    ecb0:	fe078fa3          	sb	zero,-1(a5)
    ecb4:	ff1ff06f          	j	eca4 <strncpy+0x24>

0000ecb8 <__ssprint_r>:
    ecb8:	00862783          	lw	a5,8(a2)
    ecbc:	fd010113          	addi	sp,sp,-48
    ecc0:	01312e23          	sw	s3,28(sp)
    ecc4:	02112623          	sw	ra,44(sp)
    ecc8:	02812423          	sw	s0,40(sp)
    eccc:	02912223          	sw	s1,36(sp)
    ecd0:	03212023          	sw	s2,32(sp)
    ecd4:	01412c23          	sw	s4,24(sp)
    ecd8:	01512a23          	sw	s5,20(sp)
    ecdc:	01612823          	sw	s6,16(sp)
    ece0:	01712623          	sw	s7,12(sp)
    ece4:	01812423          	sw	s8,8(sp)
    ece8:	01912223          	sw	s9,4(sp)
    ecec:	01a12023          	sw	s10,0(sp)
    ecf0:	00060993          	mv	s3,a2
    ecf4:	12078a63          	beqz	a5,ee28 <__ssprint_r+0x170>
    ecf8:	00062a83          	lw	s5,0(a2)
    ecfc:	00050a13          	mv	s4,a0
    ed00:	00058413          	mv	s0,a1
    ed04:	00000b13          	li	s6,0
    ed08:	00000913          	li	s2,0
    ed0c:	00300b93          	li	s7,3
    ed10:	00200c13          	li	s8,2
    ed14:	08090263          	beqz	s2,ed98 <__ssprint_r+0xe0>
    ed18:	00842d03          	lw	s10,8(s0)
    ed1c:	0da96463          	bltu	s2,s10,ede4 <__ssprint_r+0x12c>
    ed20:	00c45783          	lhu	a5,12(s0)
    ed24:	4807f713          	andi	a4,a5,1152
    ed28:	0a070e63          	beqz	a4,ede4 <__ssprint_r+0x12c>
    ed2c:	00042483          	lw	s1,0(s0)
    ed30:	01042583          	lw	a1,16(s0)
    ed34:	40b48cb3          	sub	s9,s1,a1
    ed38:	01442483          	lw	s1,20(s0)
    ed3c:	001c8713          	addi	a4,s9,1
    ed40:	01270733          	add	a4,a4,s2
    ed44:	029b84b3          	mul	s1,s7,s1
    ed48:	0384c4b3          	div	s1,s1,s8
    ed4c:	00e4f463          	bgeu	s1,a4,ed54 <__ssprint_r+0x9c>
    ed50:	00070493          	mv	s1,a4
    ed54:	4007f793          	andi	a5,a5,1024
    ed58:	10078863          	beqz	a5,ee68 <__ssprint_r+0x1b0>
    ed5c:	00048593          	mv	a1,s1
    ed60:	000a0513          	mv	a0,s4
    ed64:	ffff7097          	auipc	ra,0xffff7
    ed68:	504080e7          	jalr	1284(ra) # 6268 <_malloc_r>
    ed6c:	00050d13          	mv	s10,a0
    ed70:	02051c63          	bnez	a0,eda8 <__ssprint_r+0xf0>
    ed74:	00c00793          	li	a5,12
    ed78:	00fa2023          	sw	a5,0(s4)
    ed7c:	00c45783          	lhu	a5,12(s0)
    ed80:	fff00513          	li	a0,-1
    ed84:	0407e793          	ori	a5,a5,64
    ed88:	00f41623          	sh	a5,12(s0)
    ed8c:	0009a423          	sw	zero,8(s3)
    ed90:	0009a223          	sw	zero,4(s3)
    ed94:	09c0006f          	j	ee30 <__ssprint_r+0x178>
    ed98:	000aab03          	lw	s6,0(s5)
    ed9c:	004aa903          	lw	s2,4(s5)
    eda0:	008a8a93          	addi	s5,s5,8
    eda4:	f71ff06f          	j	ed14 <__ssprint_r+0x5c>
    eda8:	01042583          	lw	a1,16(s0)
    edac:	000c8613          	mv	a2,s9
    edb0:	ffff8097          	auipc	ra,0xffff8
    edb4:	bb8080e7          	jalr	-1096(ra) # 6968 <memcpy>
    edb8:	00c45783          	lhu	a5,12(s0)
    edbc:	b7f7f793          	andi	a5,a5,-1153
    edc0:	0807e793          	ori	a5,a5,128
    edc4:	00f41623          	sh	a5,12(s0)
    edc8:	01a42823          	sw	s10,16(s0)
    edcc:	00942a23          	sw	s1,20(s0)
    edd0:	019d0d33          	add	s10,s10,s9
    edd4:	419484b3          	sub	s1,s1,s9
    edd8:	01a42023          	sw	s10,0(s0)
    eddc:	00942423          	sw	s1,8(s0)
    ede0:	00090d13          	mv	s10,s2
    ede4:	01a97463          	bgeu	s2,s10,edec <__ssprint_r+0x134>
    ede8:	00090d13          	mv	s10,s2
    edec:	00042503          	lw	a0,0(s0)
    edf0:	000d0613          	mv	a2,s10
    edf4:	000b0593          	mv	a1,s6
    edf8:	ffff8097          	auipc	ra,0xffff8
    edfc:	c48080e7          	jalr	-952(ra) # 6a40 <memmove>
    ee00:	00842783          	lw	a5,8(s0)
    ee04:	41a787b3          	sub	a5,a5,s10
    ee08:	00f42423          	sw	a5,8(s0)
    ee0c:	00042783          	lw	a5,0(s0)
    ee10:	01a78d33          	add	s10,a5,s10
    ee14:	0089a783          	lw	a5,8(s3)
    ee18:	01a42023          	sw	s10,0(s0)
    ee1c:	41278933          	sub	s2,a5,s2
    ee20:	0129a423          	sw	s2,8(s3)
    ee24:	f6091ae3          	bnez	s2,ed98 <__ssprint_r+0xe0>
    ee28:	0009a223          	sw	zero,4(s3)
    ee2c:	00000513          	li	a0,0
    ee30:	02c12083          	lw	ra,44(sp)
    ee34:	02812403          	lw	s0,40(sp)
    ee38:	02412483          	lw	s1,36(sp)
    ee3c:	02012903          	lw	s2,32(sp)
    ee40:	01c12983          	lw	s3,28(sp)
    ee44:	01812a03          	lw	s4,24(sp)
    ee48:	01412a83          	lw	s5,20(sp)
    ee4c:	01012b03          	lw	s6,16(sp)
    ee50:	00c12b83          	lw	s7,12(sp)
    ee54:	00812c03          	lw	s8,8(sp)
    ee58:	00412c83          	lw	s9,4(sp)
    ee5c:	00012d03          	lw	s10,0(sp)
    ee60:	03010113          	addi	sp,sp,48
    ee64:	00008067          	ret
    ee68:	00048613          	mv	a2,s1
    ee6c:	000a0513          	mv	a0,s4
    ee70:	ffff8097          	auipc	ra,0xffff8
    ee74:	d10080e7          	jalr	-752(ra) # 6b80 <_realloc_r>
    ee78:	00050d13          	mv	s10,a0
    ee7c:	f40516e3          	bnez	a0,edc8 <__ssprint_r+0x110>
    ee80:	01042583          	lw	a1,16(s0)
    ee84:	000a0513          	mv	a0,s4
    ee88:	ffffc097          	auipc	ra,0xffffc
    ee8c:	428080e7          	jalr	1064(ra) # b2b0 <_free_r>
    ee90:	ee5ff06f          	j	ed74 <__ssprint_r+0xbc>

0000ee94 <_svfiprintf_r>:
    ee94:	00c5d783          	lhu	a5,12(a1)
    ee98:	ee010113          	addi	sp,sp,-288
    ee9c:	10912a23          	sw	s1,276(sp)
    eea0:	11212823          	sw	s2,272(sp)
    eea4:	11412423          	sw	s4,264(sp)
    eea8:	11512223          	sw	s5,260(sp)
    eeac:	10112e23          	sw	ra,284(sp)
    eeb0:	10812c23          	sw	s0,280(sp)
    eeb4:	11312623          	sw	s3,268(sp)
    eeb8:	11612023          	sw	s6,256(sp)
    eebc:	0f712e23          	sw	s7,252(sp)
    eec0:	0f812c23          	sw	s8,248(sp)
    eec4:	0f912a23          	sw	s9,244(sp)
    eec8:	0fa12823          	sw	s10,240(sp)
    eecc:	0fb12623          	sw	s11,236(sp)
    eed0:	0807f793          	andi	a5,a5,128
    eed4:	00050a13          	mv	s4,a0
    eed8:	00058913          	mv	s2,a1
    eedc:	00060a93          	mv	s5,a2
    eee0:	00068493          	mv	s1,a3
    eee4:	02078e63          	beqz	a5,ef20 <_svfiprintf_r+0x8c>
    eee8:	0105a783          	lw	a5,16(a1)
    eeec:	02079a63          	bnez	a5,ef20 <_svfiprintf_r+0x8c>
    eef0:	04000593          	li	a1,64
    eef4:	ffff7097          	auipc	ra,0xffff7
    eef8:	374080e7          	jalr	884(ra) # 6268 <_malloc_r>
    eefc:	00a92023          	sw	a0,0(s2)
    ef00:	00a92823          	sw	a0,16(s2)
    ef04:	00051a63          	bnez	a0,ef18 <_svfiprintf_r+0x84>
    ef08:	00c00793          	li	a5,12
    ef0c:	00fa2023          	sw	a5,0(s4)
    ef10:	fff00b93          	li	s7,-1
    ef14:	3590006f          	j	fa6c <_svfiprintf_r+0xbd8>
    ef18:	04000793          	li	a5,64
    ef1c:	00f92a23          	sw	a5,20(s2)
    ef20:	03c10b13          	addi	s6,sp,60
    ef24:	03612823          	sw	s6,48(sp)
    ef28:	02012c23          	sw	zero,56(sp)
    ef2c:	02012a23          	sw	zero,52(sp)
    ef30:	000b0713          	mv	a4,s6
    ef34:	00012623          	sw	zero,12(sp)
    ef38:	00012223          	sw	zero,4(sp)
    ef3c:	00012423          	sw	zero,8(sp)
    ef40:	00012823          	sw	zero,16(sp)
    ef44:	00000b93          	li	s7,0
    ef48:	000a8413          	mv	s0,s5
    ef4c:	02500693          	li	a3,37
    ef50:	00044783          	lbu	a5,0(s0)
    ef54:	00078463          	beqz	a5,ef5c <_svfiprintf_r+0xc8>
    ef58:	0ad79663          	bne	a5,a3,f004 <_svfiprintf_r+0x170>
    ef5c:	415409b3          	sub	s3,s0,s5
    ef60:	04098863          	beqz	s3,efb0 <_svfiprintf_r+0x11c>
    ef64:	03812783          	lw	a5,56(sp)
    ef68:	01572023          	sw	s5,0(a4)
    ef6c:	01372223          	sw	s3,4(a4)
    ef70:	013787b3          	add	a5,a5,s3
    ef74:	02f12c23          	sw	a5,56(sp)
    ef78:	03412783          	lw	a5,52(sp)
    ef7c:	00700693          	li	a3,7
    ef80:	00870713          	addi	a4,a4,8
    ef84:	00178793          	addi	a5,a5,1
    ef88:	02f12a23          	sw	a5,52(sp)
    ef8c:	02f6d063          	bge	a3,a5,efac <_svfiprintf_r+0x118>
    ef90:	03010613          	addi	a2,sp,48
    ef94:	00090593          	mv	a1,s2
    ef98:	000a0513          	mv	a0,s4
    ef9c:	00000097          	auipc	ra,0x0
    efa0:	d1c080e7          	jalr	-740(ra) # ecb8 <__ssprint_r>
    efa4:	2a051ee3          	bnez	a0,fa60 <_svfiprintf_r+0xbcc>
    efa8:	000b0713          	mv	a4,s6
    efac:	013b8bb3          	add	s7,s7,s3
    efb0:	00044783          	lbu	a5,0(s0)
    efb4:	32078ae3          	beqz	a5,fae8 <_svfiprintf_r+0xc54>
    efb8:	00140693          	addi	a3,s0,1
    efbc:	020105a3          	sb	zero,43(sp)
    efc0:	fff00413          	li	s0,-1
    efc4:	00000993          	li	s3,0
    efc8:	00000d13          	li	s10,0
    efcc:	00900c13          	li	s8,9
    efd0:	02a00c93          	li	s9,42
    efd4:	0006c603          	lbu	a2,0(a3)
    efd8:	00168a93          	addi	s5,a3,1
    efdc:	05a00513          	li	a0,90
    efe0:	fe060693          	addi	a3,a2,-32
    efe4:	12d562e3          	bltu	a0,a3,f908 <_svfiprintf_r+0xa74>
    efe8:	8003d797          	auipc	a5,0x8003d
    efec:	fe878793          	addi	a5,a5,-24 # 8004bfd0 <__stack_top+0xfffd5180>
    eff0:	00269693          	slli	a3,a3,0x2
    eff4:	00f686b3          	add	a3,a3,a5
    eff8:	0006a683          	lw	a3,0(a3)
    effc:	00f686b3          	add	a3,a3,a5
    f000:	00068067          	jr	a3
    f004:	00140413          	addi	s0,s0,1
    f008:	f49ff06f          	j	ef50 <_svfiprintf_r+0xbc>
    f00c:	8003d797          	auipc	a5,0x8003d
    f010:	a6c78793          	addi	a5,a5,-1428 # 8004ba78 <__stack_top+0xfffd4c28>
    f014:	00f12623          	sw	a5,12(sp)
    f018:	020d7693          	andi	a3,s10,32
    f01c:	6e068863          	beqz	a3,f70c <_svfiprintf_r+0x878>
    f020:	00748493          	addi	s1,s1,7
    f024:	ff84f493          	andi	s1,s1,-8
    f028:	0004ad83          	lw	s11,0(s1)
    f02c:	0044ac83          	lw	s9,4(s1)
    f030:	00848c13          	addi	s8,s1,8
    f034:	001d7693          	andi	a3,s10,1
    f038:	00068e63          	beqz	a3,f054 <_svfiprintf_r+0x1c0>
    f03c:	019de6b3          	or	a3,s11,s9
    f040:	00068a63          	beqz	a3,f054 <_svfiprintf_r+0x1c0>
    f044:	03000693          	li	a3,48
    f048:	02d10623          	sb	a3,44(sp)
    f04c:	02c106a3          	sb	a2,45(sp)
    f050:	002d6d13          	ori	s10,s10,2
    f054:	bffd7d13          	andi	s10,s10,-1025
    f058:	3200006f          	j	f378 <_svfiprintf_r+0x4e4>
    f05c:	000a0513          	mv	a0,s4
    f060:	00e12023          	sw	a4,0(sp)
    f064:	fffff097          	auipc	ra,0xfffff
    f068:	884080e7          	jalr	-1916(ra) # d8e8 <_localeconv_r>
    f06c:	00452783          	lw	a5,4(a0)
    f070:	00078513          	mv	a0,a5
    f074:	00f12823          	sw	a5,16(sp)
    f078:	ffff8097          	auipc	ra,0xffff8
    f07c:	640080e7          	jalr	1600(ra) # 76b8 <strlen>
    f080:	00a12423          	sw	a0,8(sp)
    f084:	000a0513          	mv	a0,s4
    f088:	fffff097          	auipc	ra,0xfffff
    f08c:	860080e7          	jalr	-1952(ra) # d8e8 <_localeconv_r>
    f090:	00852783          	lw	a5,8(a0)
    f094:	00012703          	lw	a4,0(sp)
    f098:	00f12223          	sw	a5,4(sp)
    f09c:	00812783          	lw	a5,8(sp)
    f0a0:	00078c63          	beqz	a5,f0b8 <_svfiprintf_r+0x224>
    f0a4:	00412783          	lw	a5,4(sp)
    f0a8:	00078863          	beqz	a5,f0b8 <_svfiprintf_r+0x224>
    f0ac:	0007c683          	lbu	a3,0(a5)
    f0b0:	00068463          	beqz	a3,f0b8 <_svfiprintf_r+0x224>
    f0b4:	400d6d13          	ori	s10,s10,1024
    f0b8:	000a8693          	mv	a3,s5
    f0bc:	f19ff06f          	j	efd4 <_svfiprintf_r+0x140>
    f0c0:	02b14683          	lbu	a3,43(sp)
    f0c4:	fe069ae3          	bnez	a3,f0b8 <_svfiprintf_r+0x224>
    f0c8:	02000693          	li	a3,32
    f0cc:	02d105a3          	sb	a3,43(sp)
    f0d0:	fe9ff06f          	j	f0b8 <_svfiprintf_r+0x224>
    f0d4:	001d6d13          	ori	s10,s10,1
    f0d8:	fe1ff06f          	j	f0b8 <_svfiprintf_r+0x224>
    f0dc:	0004a983          	lw	s3,0(s1)
    f0e0:	00448493          	addi	s1,s1,4
    f0e4:	fc09dae3          	bgez	s3,f0b8 <_svfiprintf_r+0x224>
    f0e8:	413009b3          	neg	s3,s3
    f0ec:	004d6d13          	ori	s10,s10,4
    f0f0:	fc9ff06f          	j	f0b8 <_svfiprintf_r+0x224>
    f0f4:	02b00693          	li	a3,43
    f0f8:	fd5ff06f          	j	f0cc <_svfiprintf_r+0x238>
    f0fc:	000ac603          	lbu	a2,0(s5)
    f100:	001a8693          	addi	a3,s5,1
    f104:	05961263          	bne	a2,s9,f148 <_svfiprintf_r+0x2b4>
    f108:	0004a403          	lw	s0,0(s1)
    f10c:	00448613          	addi	a2,s1,4
    f110:	00045463          	bgez	s0,f118 <_svfiprintf_r+0x284>
    f114:	fff00413          	li	s0,-1
    f118:	00060493          	mv	s1,a2
    f11c:	00068a93          	mv	s5,a3
    f120:	f99ff06f          	j	f0b8 <_svfiprintf_r+0x224>
    f124:	00a00793          	li	a5,10
    f128:	02f40433          	mul	s0,s0,a5
    f12c:	00168693          	addi	a3,a3,1
    f130:	fff6c603          	lbu	a2,-1(a3)
    f134:	00b40433          	add	s0,s0,a1
    f138:	fd060593          	addi	a1,a2,-48
    f13c:	febc74e3          	bgeu	s8,a1,f124 <_svfiprintf_r+0x290>
    f140:	00068a93          	mv	s5,a3
    f144:	e9dff06f          	j	efe0 <_svfiprintf_r+0x14c>
    f148:	00000413          	li	s0,0
    f14c:	fedff06f          	j	f138 <_svfiprintf_r+0x2a4>
    f150:	080d6d13          	ori	s10,s10,128
    f154:	f65ff06f          	j	f0b8 <_svfiprintf_r+0x224>
    f158:	000a8693          	mv	a3,s5
    f15c:	00000993          	li	s3,0
    f160:	00a00793          	li	a5,10
    f164:	02f989b3          	mul	s3,s3,a5
    f168:	fd060613          	addi	a2,a2,-48
    f16c:	00168693          	addi	a3,a3,1
    f170:	013609b3          	add	s3,a2,s3
    f174:	fff6c603          	lbu	a2,-1(a3)
    f178:	fd060593          	addi	a1,a2,-48
    f17c:	febc72e3          	bgeu	s8,a1,f160 <_svfiprintf_r+0x2cc>
    f180:	fc1ff06f          	j	f140 <_svfiprintf_r+0x2ac>
    f184:	000ac603          	lbu	a2,0(s5)
    f188:	06800693          	li	a3,104
    f18c:	00d61863          	bne	a2,a3,f19c <_svfiprintf_r+0x308>
    f190:	001a8a93          	addi	s5,s5,1
    f194:	200d6d13          	ori	s10,s10,512
    f198:	f21ff06f          	j	f0b8 <_svfiprintf_r+0x224>
    f19c:	040d6d13          	ori	s10,s10,64
    f1a0:	f19ff06f          	j	f0b8 <_svfiprintf_r+0x224>
    f1a4:	000ac603          	lbu	a2,0(s5)
    f1a8:	06c00693          	li	a3,108
    f1ac:	00d61863          	bne	a2,a3,f1bc <_svfiprintf_r+0x328>
    f1b0:	001a8a93          	addi	s5,s5,1
    f1b4:	020d6d13          	ori	s10,s10,32
    f1b8:	f01ff06f          	j	f0b8 <_svfiprintf_r+0x224>
    f1bc:	010d6d13          	ori	s10,s10,16
    f1c0:	ef9ff06f          	j	f0b8 <_svfiprintf_r+0x224>
    f1c4:	0004a683          	lw	a3,0(s1)
    f1c8:	00448c13          	addi	s8,s1,4
    f1cc:	020105a3          	sb	zero,43(sp)
    f1d0:	06d10e23          	sb	a3,124(sp)
    f1d4:	00100413          	li	s0,1
    f1d8:	00000c93          	li	s9,0
    f1dc:	07c10493          	addi	s1,sp,124
    f1e0:	1dc0006f          	j	f3bc <_svfiprintf_r+0x528>
    f1e4:	010d6d13          	ori	s10,s10,16
    f1e8:	020d7693          	andi	a3,s10,32
    f1ec:	06068263          	beqz	a3,f250 <_svfiprintf_r+0x3bc>
    f1f0:	00748493          	addi	s1,s1,7
    f1f4:	ff84f493          	andi	s1,s1,-8
    f1f8:	0004ad83          	lw	s11,0(s1)
    f1fc:	0044ac83          	lw	s9,4(s1)
    f200:	00848c13          	addi	s8,s1,8
    f204:	100cd2e3          	bgez	s9,fb08 <_svfiprintf_r+0xc74>
    f208:	41b00333          	neg	t1,s11
    f20c:	006036b3          	snez	a3,t1
    f210:	41900833          	neg	a6,s9
    f214:	40d80cb3          	sub	s9,a6,a3
    f218:	02d00693          	li	a3,45
    f21c:	02d105a3          	sb	a3,43(sp)
    f220:	00030d93          	mv	s11,t1
    f224:	00100693          	li	a3,1
    f228:	fff00613          	li	a2,-1
    f22c:	52c40263          	beq	s0,a2,f750 <_svfiprintf_r+0x8bc>
    f230:	000d0613          	mv	a2,s10
    f234:	019de5b3          	or	a1,s11,s9
    f238:	f7fd7d13          	andi	s10,s10,-129
    f23c:	50059a63          	bnez	a1,f750 <_svfiprintf_r+0x8bc>
    f240:	6a040663          	beqz	s0,f8ec <_svfiprintf_r+0xa58>
    f244:	00100613          	li	a2,1
    f248:	50c69863          	bne	a3,a2,f758 <_svfiprintf_r+0x8c4>
    f24c:	0d10006f          	j	fb1c <_svfiprintf_r+0xc88>
    f250:	010d7693          	andi	a3,s10,16
    f254:	00448c13          	addi	s8,s1,4
    f258:	00068863          	beqz	a3,f268 <_svfiprintf_r+0x3d4>
    f25c:	0004ad83          	lw	s11,0(s1)
    f260:	41fddc93          	srai	s9,s11,0x1f
    f264:	fa1ff06f          	j	f204 <_svfiprintf_r+0x370>
    f268:	040d7693          	andi	a3,s10,64
    f26c:	0004a303          	lw	t1,0(s1)
    f270:	00068863          	beqz	a3,f280 <_svfiprintf_r+0x3ec>
    f274:	01031d93          	slli	s11,t1,0x10
    f278:	410ddd93          	srai	s11,s11,0x10
    f27c:	fe5ff06f          	j	f260 <_svfiprintf_r+0x3cc>
    f280:	200d7693          	andi	a3,s10,512
    f284:	00030d93          	mv	s11,t1
    f288:	fc068ce3          	beqz	a3,f260 <_svfiprintf_r+0x3cc>
    f28c:	01831d93          	slli	s11,t1,0x18
    f290:	418ddd93          	srai	s11,s11,0x18
    f294:	fcdff06f          	j	f260 <_svfiprintf_r+0x3cc>
    f298:	020d7613          	andi	a2,s10,32
    f29c:	0004a683          	lw	a3,0(s1)
    f2a0:	00448493          	addi	s1,s1,4
    f2a4:	00060a63          	beqz	a2,f2b8 <_svfiprintf_r+0x424>
    f2a8:	41fbd793          	srai	a5,s7,0x1f
    f2ac:	0176a023          	sw	s7,0(a3)
    f2b0:	00f6a223          	sw	a5,4(a3)
    f2b4:	c95ff06f          	j	ef48 <_svfiprintf_r+0xb4>
    f2b8:	010d7613          	andi	a2,s10,16
    f2bc:	00060663          	beqz	a2,f2c8 <_svfiprintf_r+0x434>
    f2c0:	0176a023          	sw	s7,0(a3)
    f2c4:	c85ff06f          	j	ef48 <_svfiprintf_r+0xb4>
    f2c8:	040d7613          	andi	a2,s10,64
    f2cc:	00060663          	beqz	a2,f2d8 <_svfiprintf_r+0x444>
    f2d0:	01769023          	sh	s7,0(a3)
    f2d4:	c75ff06f          	j	ef48 <_svfiprintf_r+0xb4>
    f2d8:	200d7793          	andi	a5,s10,512
    f2dc:	fe0782e3          	beqz	a5,f2c0 <_svfiprintf_r+0x42c>
    f2e0:	01768023          	sb	s7,0(a3)
    f2e4:	c65ff06f          	j	ef48 <_svfiprintf_r+0xb4>
    f2e8:	010d6d13          	ori	s10,s10,16
    f2ec:	020d7693          	andi	a3,s10,32
    f2f0:	02068463          	beqz	a3,f318 <_svfiprintf_r+0x484>
    f2f4:	00748493          	addi	s1,s1,7
    f2f8:	ff84f493          	andi	s1,s1,-8
    f2fc:	0004ad83          	lw	s11,0(s1)
    f300:	0044ac83          	lw	s9,4(s1)
    f304:	00848c13          	addi	s8,s1,8
    f308:	bffd7d13          	andi	s10,s10,-1025
    f30c:	00000693          	li	a3,0
    f310:	020105a3          	sb	zero,43(sp)
    f314:	f15ff06f          	j	f228 <_svfiprintf_r+0x394>
    f318:	010d7693          	andi	a3,s10,16
    f31c:	00448c13          	addi	s8,s1,4
    f320:	00068663          	beqz	a3,f32c <_svfiprintf_r+0x498>
    f324:	0004ad83          	lw	s11,0(s1)
    f328:	0100006f          	j	f338 <_svfiprintf_r+0x4a4>
    f32c:	040d7693          	andi	a3,s10,64
    f330:	00068863          	beqz	a3,f340 <_svfiprintf_r+0x4ac>
    f334:	0004dd83          	lhu	s11,0(s1)
    f338:	00000c93          	li	s9,0
    f33c:	fcdff06f          	j	f308 <_svfiprintf_r+0x474>
    f340:	200d7693          	andi	a3,s10,512
    f344:	fe0680e3          	beqz	a3,f324 <_svfiprintf_r+0x490>
    f348:	0004cd83          	lbu	s11,0(s1)
    f34c:	fedff06f          	j	f338 <_svfiprintf_r+0x4a4>
    f350:	ffff86b7          	lui	a3,0xffff8
    f354:	0004ad83          	lw	s11,0(s1)
    f358:	8306c693          	xori	a3,a3,-2000
    f35c:	8003c797          	auipc	a5,0x8003c
    f360:	71c78793          	addi	a5,a5,1820 # 8004ba78 <__stack_top+0xfffd4c28>
    f364:	00448c13          	addi	s8,s1,4
    f368:	00000c93          	li	s9,0
    f36c:	002d6d13          	ori	s10,s10,2
    f370:	02d11623          	sh	a3,44(sp)
    f374:	00f12623          	sw	a5,12(sp)
    f378:	00200693          	li	a3,2
    f37c:	f95ff06f          	j	f310 <_svfiprintf_r+0x47c>
    f380:	020105a3          	sb	zero,43(sp)
    f384:	fff00693          	li	a3,-1
    f388:	00e12023          	sw	a4,0(sp)
    f38c:	00448c13          	addi	s8,s1,4
    f390:	0004a483          	lw	s1,0(s1)
    f394:	2ed40863          	beq	s0,a3,f684 <_svfiprintf_r+0x7f0>
    f398:	00040613          	mv	a2,s0
    f39c:	00000593          	li	a1,0
    f3a0:	00048513          	mv	a0,s1
    f3a4:	ffff7097          	auipc	ra,0xffff7
    f3a8:	5a0080e7          	jalr	1440(ra) # 6944 <memchr>
    f3ac:	00000c93          	li	s9,0
    f3b0:	00012703          	lw	a4,0(sp)
    f3b4:	00050463          	beqz	a0,f3bc <_svfiprintf_r+0x528>
    f3b8:	40950433          	sub	s0,a0,s1
    f3bc:	01912023          	sw	s9,0(sp)
    f3c0:	008cd463          	bge	s9,s0,f3c8 <_svfiprintf_r+0x534>
    f3c4:	00812023          	sw	s0,0(sp)
    f3c8:	02b14683          	lbu	a3,43(sp)
    f3cc:	00068863          	beqz	a3,f3dc <_svfiprintf_r+0x548>
    f3d0:	00012783          	lw	a5,0(sp)
    f3d4:	00178793          	addi	a5,a5,1
    f3d8:	00f12023          	sw	a5,0(sp)
    f3dc:	002d7d93          	andi	s11,s10,2
    f3e0:	000d8863          	beqz	s11,f3f0 <_svfiprintf_r+0x55c>
    f3e4:	00012783          	lw	a5,0(sp)
    f3e8:	00278793          	addi	a5,a5,2
    f3ec:	00f12023          	sw	a5,0(sp)
    f3f0:	084d7793          	andi	a5,s10,132
    f3f4:	00f12a23          	sw	a5,20(sp)
    f3f8:	06079863          	bnez	a5,f468 <_svfiprintf_r+0x5d4>
    f3fc:	00012783          	lw	a5,0(sp)
    f400:	40f986b3          	sub	a3,s3,a5
    f404:	06d05263          	blez	a3,f468 <_svfiprintf_r+0x5d4>
    f408:	01000893          	li	a7,16
    f40c:	8003d817          	auipc	a6,0x8003d
    f410:	d3080813          	addi	a6,a6,-720 # 8004c13c <__stack_top+0xfffd52ec>
    f414:	00700313          	li	t1,7
    f418:	03412603          	lw	a2,52(sp)
    f41c:	01072023          	sw	a6,0(a4)
    f420:	03812583          	lw	a1,56(sp)
    f424:	00160613          	addi	a2,a2,1
    f428:	00870513          	addi	a0,a4,8
    f42c:	4ed8c863          	blt	a7,a3,f91c <_svfiprintf_r+0xa88>
    f430:	00d72223          	sw	a3,4(a4)
    f434:	00b686b3          	add	a3,a3,a1
    f438:	02d12c23          	sw	a3,56(sp)
    f43c:	02c12a23          	sw	a2,52(sp)
    f440:	00700693          	li	a3,7
    f444:	00050713          	mv	a4,a0
    f448:	02c6d063          	bge	a3,a2,f468 <_svfiprintf_r+0x5d4>
    f44c:	03010613          	addi	a2,sp,48
    f450:	00090593          	mv	a1,s2
    f454:	000a0513          	mv	a0,s4
    f458:	00000097          	auipc	ra,0x0
    f45c:	860080e7          	jalr	-1952(ra) # ecb8 <__ssprint_r>
    f460:	60051063          	bnez	a0,fa60 <_svfiprintf_r+0xbcc>
    f464:	000b0713          	mv	a4,s6
    f468:	02b14683          	lbu	a3,43(sp)
    f46c:	04068a63          	beqz	a3,f4c0 <_svfiprintf_r+0x62c>
    f470:	02b10613          	addi	a2,sp,43
    f474:	00c72023          	sw	a2,0(a4)
    f478:	00100613          	li	a2,1
    f47c:	03412683          	lw	a3,52(sp)
    f480:	00c72223          	sw	a2,4(a4)
    f484:	03812603          	lw	a2,56(sp)
    f488:	00168693          	addi	a3,a3,1 # ffff8001 <__stack_top+0x7ff811b1>
    f48c:	02d12a23          	sw	a3,52(sp)
    f490:	00160613          	addi	a2,a2,1
    f494:	02c12c23          	sw	a2,56(sp)
    f498:	00700613          	li	a2,7
    f49c:	00870713          	addi	a4,a4,8
    f4a0:	02d65063          	bge	a2,a3,f4c0 <_svfiprintf_r+0x62c>
    f4a4:	03010613          	addi	a2,sp,48
    f4a8:	00090593          	mv	a1,s2
    f4ac:	000a0513          	mv	a0,s4
    f4b0:	00000097          	auipc	ra,0x0
    f4b4:	808080e7          	jalr	-2040(ra) # ecb8 <__ssprint_r>
    f4b8:	5a051463          	bnez	a0,fa60 <_svfiprintf_r+0xbcc>
    f4bc:	000b0713          	mv	a4,s6
    f4c0:	040d8a63          	beqz	s11,f514 <_svfiprintf_r+0x680>
    f4c4:	02c10613          	addi	a2,sp,44
    f4c8:	00c72023          	sw	a2,0(a4)
    f4cc:	00200613          	li	a2,2
    f4d0:	03412683          	lw	a3,52(sp)
    f4d4:	00c72223          	sw	a2,4(a4)
    f4d8:	03812603          	lw	a2,56(sp)
    f4dc:	00168693          	addi	a3,a3,1
    f4e0:	02d12a23          	sw	a3,52(sp)
    f4e4:	00260613          	addi	a2,a2,2
    f4e8:	02c12c23          	sw	a2,56(sp)
    f4ec:	00700613          	li	a2,7
    f4f0:	00870713          	addi	a4,a4,8
    f4f4:	02d65063          	bge	a2,a3,f514 <_svfiprintf_r+0x680>
    f4f8:	03010613          	addi	a2,sp,48
    f4fc:	00090593          	mv	a1,s2
    f500:	000a0513          	mv	a0,s4
    f504:	fffff097          	auipc	ra,0xfffff
    f508:	7b4080e7          	jalr	1972(ra) # ecb8 <__ssprint_r>
    f50c:	54051a63          	bnez	a0,fa60 <_svfiprintf_r+0xbcc>
    f510:	000b0713          	mv	a4,s6
    f514:	01412783          	lw	a5,20(sp)
    f518:	08000693          	li	a3,128
    f51c:	06d79863          	bne	a5,a3,f58c <_svfiprintf_r+0x6f8>
    f520:	00012783          	lw	a5,0(sp)
    f524:	40f98db3          	sub	s11,s3,a5
    f528:	07b05263          	blez	s11,f58c <_svfiprintf_r+0x6f8>
    f52c:	01000893          	li	a7,16
    f530:	8003d817          	auipc	a6,0x8003d
    f534:	c1c80813          	addi	a6,a6,-996 # 8004c14c <__stack_top+0xfffd52fc>
    f538:	00700313          	li	t1,7
    f53c:	03412683          	lw	a3,52(sp)
    f540:	01072023          	sw	a6,0(a4)
    f544:	03812603          	lw	a2,56(sp)
    f548:	00168693          	addi	a3,a3,1
    f54c:	00870593          	addi	a1,a4,8
    f550:	43b8c063          	blt	a7,s11,f970 <_svfiprintf_r+0xadc>
    f554:	01b72223          	sw	s11,4(a4)
    f558:	00cd8db3          	add	s11,s11,a2
    f55c:	03b12c23          	sw	s11,56(sp)
    f560:	02d12a23          	sw	a3,52(sp)
    f564:	00700613          	li	a2,7
    f568:	00058713          	mv	a4,a1
    f56c:	02d65063          	bge	a2,a3,f58c <_svfiprintf_r+0x6f8>
    f570:	03010613          	addi	a2,sp,48
    f574:	00090593          	mv	a1,s2
    f578:	000a0513          	mv	a0,s4
    f57c:	fffff097          	auipc	ra,0xfffff
    f580:	73c080e7          	jalr	1852(ra) # ecb8 <__ssprint_r>
    f584:	4c051e63          	bnez	a0,fa60 <_svfiprintf_r+0xbcc>
    f588:	000b0713          	mv	a4,s6
    f58c:	408c8cb3          	sub	s9,s9,s0
    f590:	07905263          	blez	s9,f5f4 <_svfiprintf_r+0x760>
    f594:	01000813          	li	a6,16
    f598:	8003dd97          	auipc	s11,0x8003d
    f59c:	bb4d8d93          	addi	s11,s11,-1100 # 8004c14c <__stack_top+0xfffd52fc>
    f5a0:	00700893          	li	a7,7
    f5a4:	03412683          	lw	a3,52(sp)
    f5a8:	01b72023          	sw	s11,0(a4)
    f5ac:	03812603          	lw	a2,56(sp)
    f5b0:	00168693          	addi	a3,a3,1
    f5b4:	00870593          	addi	a1,a4,8
    f5b8:	41984263          	blt	a6,s9,f9bc <_svfiprintf_r+0xb28>
    f5bc:	01972223          	sw	s9,4(a4)
    f5c0:	00cc8cb3          	add	s9,s9,a2
    f5c4:	03912c23          	sw	s9,56(sp)
    f5c8:	02d12a23          	sw	a3,52(sp)
    f5cc:	00700613          	li	a2,7
    f5d0:	00058713          	mv	a4,a1
    f5d4:	02d65063          	bge	a2,a3,f5f4 <_svfiprintf_r+0x760>
    f5d8:	03010613          	addi	a2,sp,48
    f5dc:	00090593          	mv	a1,s2
    f5e0:	000a0513          	mv	a0,s4
    f5e4:	fffff097          	auipc	ra,0xfffff
    f5e8:	6d4080e7          	jalr	1748(ra) # ecb8 <__ssprint_r>
    f5ec:	46051a63          	bnez	a0,fa60 <_svfiprintf_r+0xbcc>
    f5f0:	000b0713          	mv	a4,s6
    f5f4:	03812683          	lw	a3,56(sp)
    f5f8:	00872223          	sw	s0,4(a4)
    f5fc:	00972023          	sw	s1,0(a4)
    f600:	00868433          	add	s0,a3,s0
    f604:	03412683          	lw	a3,52(sp)
    f608:	02812c23          	sw	s0,56(sp)
    f60c:	00700613          	li	a2,7
    f610:	00168693          	addi	a3,a3,1
    f614:	02d12a23          	sw	a3,52(sp)
    f618:	00870713          	addi	a4,a4,8
    f61c:	02d65063          	bge	a2,a3,f63c <_svfiprintf_r+0x7a8>
    f620:	03010613          	addi	a2,sp,48
    f624:	00090593          	mv	a1,s2
    f628:	000a0513          	mv	a0,s4
    f62c:	fffff097          	auipc	ra,0xfffff
    f630:	68c080e7          	jalr	1676(ra) # ecb8 <__ssprint_r>
    f634:	42051663          	bnez	a0,fa60 <_svfiprintf_r+0xbcc>
    f638:	000b0713          	mv	a4,s6
    f63c:	004d7793          	andi	a5,s10,4
    f640:	3c079063          	bnez	a5,fa00 <_svfiprintf_r+0xb6c>
    f644:	00012783          	lw	a5,0(sp)
    f648:	00f9d463          	bge	s3,a5,f650 <_svfiprintf_r+0x7bc>
    f64c:	00078993          	mv	s3,a5
    f650:	03812783          	lw	a5,56(sp)
    f654:	013b8bb3          	add	s7,s7,s3
    f658:	00078e63          	beqz	a5,f674 <_svfiprintf_r+0x7e0>
    f65c:	03010613          	addi	a2,sp,48
    f660:	00090593          	mv	a1,s2
    f664:	000a0513          	mv	a0,s4
    f668:	fffff097          	auipc	ra,0xfffff
    f66c:	650080e7          	jalr	1616(ra) # ecb8 <__ssprint_r>
    f670:	3e051863          	bnez	a0,fa60 <_svfiprintf_r+0xbcc>
    f674:	02012a23          	sw	zero,52(sp)
    f678:	000c0493          	mv	s1,s8
    f67c:	000b0713          	mv	a4,s6
    f680:	8c9ff06f          	j	ef48 <_svfiprintf_r+0xb4>
    f684:	00048513          	mv	a0,s1
    f688:	ffff8097          	auipc	ra,0xffff8
    f68c:	030080e7          	jalr	48(ra) # 76b8 <strlen>
    f690:	00050413          	mv	s0,a0
    f694:	00000c93          	li	s9,0
    f698:	00012703          	lw	a4,0(sp)
    f69c:	d21ff06f          	j	f3bc <_svfiprintf_r+0x528>
    f6a0:	010d6d13          	ori	s10,s10,16
    f6a4:	020d7693          	andi	a3,s10,32
    f6a8:	02068063          	beqz	a3,f6c8 <_svfiprintf_r+0x834>
    f6ac:	00748493          	addi	s1,s1,7
    f6b0:	ff84f493          	andi	s1,s1,-8
    f6b4:	0004ad83          	lw	s11,0(s1)
    f6b8:	0044ac83          	lw	s9,4(s1)
    f6bc:	00848c13          	addi	s8,s1,8
    f6c0:	00100693          	li	a3,1
    f6c4:	c4dff06f          	j	f310 <_svfiprintf_r+0x47c>
    f6c8:	010d7693          	andi	a3,s10,16
    f6cc:	00448c13          	addi	s8,s1,4
    f6d0:	00068663          	beqz	a3,f6dc <_svfiprintf_r+0x848>
    f6d4:	0004ad83          	lw	s11,0(s1)
    f6d8:	0100006f          	j	f6e8 <_svfiprintf_r+0x854>
    f6dc:	040d7693          	andi	a3,s10,64
    f6e0:	00068863          	beqz	a3,f6f0 <_svfiprintf_r+0x85c>
    f6e4:	0004dd83          	lhu	s11,0(s1)
    f6e8:	00000c93          	li	s9,0
    f6ec:	fd5ff06f          	j	f6c0 <_svfiprintf_r+0x82c>
    f6f0:	200d7693          	andi	a3,s10,512
    f6f4:	fe0680e3          	beqz	a3,f6d4 <_svfiprintf_r+0x840>
    f6f8:	0004cd83          	lbu	s11,0(s1)
    f6fc:	fedff06f          	j	f6e8 <_svfiprintf_r+0x854>
    f700:	7fff1797          	auipc	a5,0x7fff1
    f704:	90078793          	addi	a5,a5,-1792 # 80000000 <__trunctfdf2+0x7ffec698>
    f708:	90dff06f          	j	f014 <_svfiprintf_r+0x180>
    f70c:	010d7693          	andi	a3,s10,16
    f710:	00448c13          	addi	s8,s1,4
    f714:	00068663          	beqz	a3,f720 <_svfiprintf_r+0x88c>
    f718:	0004ad83          	lw	s11,0(s1)
    f71c:	0100006f          	j	f72c <_svfiprintf_r+0x898>
    f720:	040d7693          	andi	a3,s10,64
    f724:	00068863          	beqz	a3,f734 <_svfiprintf_r+0x8a0>
    f728:	0004dd83          	lhu	s11,0(s1)
    f72c:	00000c93          	li	s9,0
    f730:	905ff06f          	j	f034 <_svfiprintf_r+0x1a0>
    f734:	200d7693          	andi	a3,s10,512
    f738:	fe0680e3          	beqz	a3,f718 <_svfiprintf_r+0x884>
    f73c:	0004cd83          	lbu	s11,0(s1)
    f740:	fedff06f          	j	f72c <_svfiprintf_r+0x898>
    f744:	000d0613          	mv	a2,s10
    f748:	00100693          	li	a3,1
    f74c:	ae9ff06f          	j	f234 <_svfiprintf_r+0x3a0>
    f750:	00100613          	li	a2,1
    f754:	3ac68e63          	beq	a3,a2,fb10 <_svfiprintf_r+0xc7c>
    f758:	00200613          	li	a2,2
    f75c:	14c68c63          	beq	a3,a2,f8b4 <_svfiprintf_r+0xa20>
    f760:	0e010693          	addi	a3,sp,224
    f764:	01dc9593          	slli	a1,s9,0x1d
    f768:	007df613          	andi	a2,s11,7
    f76c:	003dd313          	srli	t1,s11,0x3
    f770:	03060613          	addi	a2,a2,48
    f774:	0065edb3          	or	s11,a1,t1
    f778:	003cdc93          	srli	s9,s9,0x3
    f77c:	fec68fa3          	sb	a2,-1(a3)
    f780:	019de5b3          	or	a1,s11,s9
    f784:	fff68493          	addi	s1,a3,-1
    f788:	02059663          	bnez	a1,f7b4 <_svfiprintf_r+0x920>
    f78c:	001d7593          	andi	a1,s10,1
    f790:	00058a63          	beqz	a1,f7a4 <_svfiprintf_r+0x910>
    f794:	03000593          	li	a1,48
    f798:	00b60663          	beq	a2,a1,f7a4 <_svfiprintf_r+0x910>
    f79c:	feb48fa3          	sb	a1,-1(s1)
    f7a0:	ffe68493          	addi	s1,a3,-2
    f7a4:	0e010793          	addi	a5,sp,224
    f7a8:	00040c93          	mv	s9,s0
    f7ac:	40978433          	sub	s0,a5,s1
    f7b0:	c0dff06f          	j	f3bc <_svfiprintf_r+0x528>
    f7b4:	00048693          	mv	a3,s1
    f7b8:	fadff06f          	j	f764 <_svfiprintf_r+0x8d0>
    f7bc:	400d7793          	andi	a5,s10,1024
    f7c0:	00000893          	li	a7,0
    f7c4:	0e010e13          	addi	t3,sp,224
    f7c8:	00f12023          	sw	a5,0(sp)
    f7cc:	00a00613          	li	a2,10
    f7d0:	00000693          	li	a3,0
    f7d4:	000d8513          	mv	a0,s11
    f7d8:	000c8593          	mv	a1,s9
    f7dc:	01112e23          	sw	a7,28(sp)
    f7e0:	00e12c23          	sw	a4,24(sp)
    f7e4:	fffe0493          	addi	s1,t3,-1
    f7e8:	01c12a23          	sw	t3,20(sp)
    f7ec:	00001097          	auipc	ra,0x1
    f7f0:	fa4080e7          	jalr	-92(ra) # 10790 <__umoddi3>
    f7f4:	01412e03          	lw	t3,20(sp)
    f7f8:	01c12883          	lw	a7,28(sp)
    f7fc:	00012783          	lw	a5,0(sp)
    f800:	03050513          	addi	a0,a0,48
    f804:	feae0fa3          	sb	a0,-1(t3)
    f808:	00188893          	addi	a7,a7,1
    f80c:	01812703          	lw	a4,24(sp)
    f810:	06078063          	beqz	a5,f870 <_svfiprintf_r+0x9dc>
    f814:	00412783          	lw	a5,4(sp)
    f818:	0007c683          	lbu	a3,0(a5)
    f81c:	05169a63          	bne	a3,a7,f870 <_svfiprintf_r+0x9dc>
    f820:	0ff00793          	li	a5,255
    f824:	04f88663          	beq	a7,a5,f870 <_svfiprintf_r+0x9dc>
    f828:	000c9663          	bnez	s9,f834 <_svfiprintf_r+0x9a0>
    f82c:	00900793          	li	a5,9
    f830:	05b7f063          	bgeu	a5,s11,f870 <_svfiprintf_r+0x9dc>
    f834:	00812783          	lw	a5,8(sp)
    f838:	01012583          	lw	a1,16(sp)
    f83c:	00e12a23          	sw	a4,20(sp)
    f840:	40f484b3          	sub	s1,s1,a5
    f844:	00078613          	mv	a2,a5
    f848:	00048513          	mv	a0,s1
    f84c:	fffff097          	auipc	ra,0xfffff
    f850:	434080e7          	jalr	1076(ra) # ec80 <strncpy>
    f854:	00412783          	lw	a5,4(sp)
    f858:	00000893          	li	a7,0
    f85c:	01412703          	lw	a4,20(sp)
    f860:	0017c683          	lbu	a3,1(a5)
    f864:	00068663          	beqz	a3,f870 <_svfiprintf_r+0x9dc>
    f868:	00178793          	addi	a5,a5,1
    f86c:	00f12223          	sw	a5,4(sp)
    f870:	00a00613          	li	a2,10
    f874:	00000693          	li	a3,0
    f878:	000d8513          	mv	a0,s11
    f87c:	000c8593          	mv	a1,s9
    f880:	01112c23          	sw	a7,24(sp)
    f884:	00e12a23          	sw	a4,20(sp)
    f888:	00001097          	auipc	ra,0x1
    f88c:	ad4080e7          	jalr	-1324(ra) # 1035c <__udivdi3>
    f890:	01412703          	lw	a4,20(sp)
    f894:	01812883          	lw	a7,24(sp)
    f898:	000c9663          	bnez	s9,f8a4 <_svfiprintf_r+0xa10>
    f89c:	00900793          	li	a5,9
    f8a0:	f1b7f2e3          	bgeu	a5,s11,f7a4 <_svfiprintf_r+0x910>
    f8a4:	00050d93          	mv	s11,a0
    f8a8:	00058c93          	mv	s9,a1
    f8ac:	00048e13          	mv	t3,s1
    f8b0:	f1dff06f          	j	f7cc <_svfiprintf_r+0x938>
    f8b4:	0e010493          	addi	s1,sp,224
    f8b8:	00c12783          	lw	a5,12(sp)
    f8bc:	00fdf693          	andi	a3,s11,15
    f8c0:	fff48493          	addi	s1,s1,-1
    f8c4:	00d786b3          	add	a3,a5,a3
    f8c8:	0006c683          	lbu	a3,0(a3)
    f8cc:	004dd313          	srli	t1,s11,0x4
    f8d0:	00d48023          	sb	a3,0(s1)
    f8d4:	01cc9693          	slli	a3,s9,0x1c
    f8d8:	0066edb3          	or	s11,a3,t1
    f8dc:	004cdc93          	srli	s9,s9,0x4
    f8e0:	019de6b3          	or	a3,s11,s9
    f8e4:	fc069ae3          	bnez	a3,f8b8 <_svfiprintf_r+0xa24>
    f8e8:	ebdff06f          	j	f7a4 <_svfiprintf_r+0x910>
    f8ec:	0e010493          	addi	s1,sp,224
    f8f0:	ea069ae3          	bnez	a3,f7a4 <_svfiprintf_r+0x910>
    f8f4:	00167613          	andi	a2,a2,1
    f8f8:	ea0606e3          	beqz	a2,f7a4 <_svfiprintf_r+0x910>
    f8fc:	03000693          	li	a3,48
    f900:	0cd10fa3          	sb	a3,223(sp)
    f904:	2200006f          	j	fb24 <_svfiprintf_r+0xc90>
    f908:	1e060063          	beqz	a2,fae8 <_svfiprintf_r+0xc54>
    f90c:	06c10e23          	sb	a2,124(sp)
    f910:	020105a3          	sb	zero,43(sp)
    f914:	00048c13          	mv	s8,s1
    f918:	8bdff06f          	j	f1d4 <_svfiprintf_r+0x340>
    f91c:	01058593          	addi	a1,a1,16
    f920:	01172223          	sw	a7,4(a4)
    f924:	02b12c23          	sw	a1,56(sp)
    f928:	02c12a23          	sw	a2,52(sp)
    f92c:	02c35c63          	bge	t1,a2,f964 <_svfiprintf_r+0xad0>
    f930:	03010613          	addi	a2,sp,48
    f934:	00090593          	mv	a1,s2
    f938:	000a0513          	mv	a0,s4
    f93c:	00d12c23          	sw	a3,24(sp)
    f940:	fffff097          	auipc	ra,0xfffff
    f944:	378080e7          	jalr	888(ra) # ecb8 <__ssprint_r>
    f948:	10051c63          	bnez	a0,fa60 <_svfiprintf_r+0xbcc>
    f94c:	01812683          	lw	a3,24(sp)
    f950:	000b0513          	mv	a0,s6
    f954:	00700313          	li	t1,7
    f958:	8003c817          	auipc	a6,0x8003c
    f95c:	7e480813          	addi	a6,a6,2020 # 8004c13c <__stack_top+0xfffd52ec>
    f960:	01000893          	li	a7,16
    f964:	ff068693          	addi	a3,a3,-16
    f968:	00050713          	mv	a4,a0
    f96c:	aadff06f          	j	f418 <_svfiprintf_r+0x584>
    f970:	01060613          	addi	a2,a2,16
    f974:	01172223          	sw	a7,4(a4)
    f978:	02c12c23          	sw	a2,56(sp)
    f97c:	02d12a23          	sw	a3,52(sp)
    f980:	02d35863          	bge	t1,a3,f9b0 <_svfiprintf_r+0xb1c>
    f984:	03010613          	addi	a2,sp,48
    f988:	00090593          	mv	a1,s2
    f98c:	000a0513          	mv	a0,s4
    f990:	fffff097          	auipc	ra,0xfffff
    f994:	328080e7          	jalr	808(ra) # ecb8 <__ssprint_r>
    f998:	0c051463          	bnez	a0,fa60 <_svfiprintf_r+0xbcc>
    f99c:	000b0593          	mv	a1,s6
    f9a0:	00700313          	li	t1,7
    f9a4:	8003c817          	auipc	a6,0x8003c
    f9a8:	7a880813          	addi	a6,a6,1960 # 8004c14c <__stack_top+0xfffd52fc>
    f9ac:	01000893          	li	a7,16
    f9b0:	ff0d8d93          	addi	s11,s11,-16
    f9b4:	00058713          	mv	a4,a1
    f9b8:	b85ff06f          	j	f53c <_svfiprintf_r+0x6a8>
    f9bc:	01060613          	addi	a2,a2,16
    f9c0:	01072223          	sw	a6,4(a4)
    f9c4:	02c12c23          	sw	a2,56(sp)
    f9c8:	02d12a23          	sw	a3,52(sp)
    f9cc:	02d8d463          	bge	a7,a3,f9f4 <_svfiprintf_r+0xb60>
    f9d0:	03010613          	addi	a2,sp,48
    f9d4:	00090593          	mv	a1,s2
    f9d8:	000a0513          	mv	a0,s4
    f9dc:	fffff097          	auipc	ra,0xfffff
    f9e0:	2dc080e7          	jalr	732(ra) # ecb8 <__ssprint_r>
    f9e4:	06051e63          	bnez	a0,fa60 <_svfiprintf_r+0xbcc>
    f9e8:	000b0593          	mv	a1,s6
    f9ec:	00700893          	li	a7,7
    f9f0:	01000813          	li	a6,16
    f9f4:	ff0c8c93          	addi	s9,s9,-16
    f9f8:	00058713          	mv	a4,a1
    f9fc:	ba9ff06f          	j	f5a4 <_svfiprintf_r+0x710>
    fa00:	00012783          	lw	a5,0(sp)
    fa04:	40f98433          	sub	s0,s3,a5
    fa08:	c2805ee3          	blez	s0,f644 <_svfiprintf_r+0x7b0>
    fa0c:	01000c93          	li	s9,16
    fa10:	8003c497          	auipc	s1,0x8003c
    fa14:	72c48493          	addi	s1,s1,1836 # 8004c13c <__stack_top+0xfffd52ec>
    fa18:	00700d93          	li	s11,7
    fa1c:	03412783          	lw	a5,52(sp)
    fa20:	00972023          	sw	s1,0(a4)
    fa24:	03812683          	lw	a3,56(sp)
    fa28:	00178793          	addi	a5,a5,1
    fa2c:	088cc063          	blt	s9,s0,faac <_svfiprintf_r+0xc18>
    fa30:	008686b3          	add	a3,a3,s0
    fa34:	00872223          	sw	s0,4(a4)
    fa38:	02d12c23          	sw	a3,56(sp)
    fa3c:	02f12a23          	sw	a5,52(sp)
    fa40:	00700713          	li	a4,7
    fa44:	c0f750e3          	bge	a4,a5,f644 <_svfiprintf_r+0x7b0>
    fa48:	03010613          	addi	a2,sp,48
    fa4c:	00090593          	mv	a1,s2
    fa50:	000a0513          	mv	a0,s4
    fa54:	fffff097          	auipc	ra,0xfffff
    fa58:	264080e7          	jalr	612(ra) # ecb8 <__ssprint_r>
    fa5c:	be0504e3          	beqz	a0,f644 <_svfiprintf_r+0x7b0>
    fa60:	00c95783          	lhu	a5,12(s2)
    fa64:	0407f793          	andi	a5,a5,64
    fa68:	ca079463          	bnez	a5,ef10 <_svfiprintf_r+0x7c>
    fa6c:	11c12083          	lw	ra,284(sp)
    fa70:	11812403          	lw	s0,280(sp)
    fa74:	000b8513          	mv	a0,s7
    fa78:	11412483          	lw	s1,276(sp)
    fa7c:	11012903          	lw	s2,272(sp)
    fa80:	10c12983          	lw	s3,268(sp)
    fa84:	10812a03          	lw	s4,264(sp)
    fa88:	10412a83          	lw	s5,260(sp)
    fa8c:	10012b03          	lw	s6,256(sp)
    fa90:	0fc12b83          	lw	s7,252(sp)
    fa94:	0f812c03          	lw	s8,248(sp)
    fa98:	0f412c83          	lw	s9,244(sp)
    fa9c:	0f012d03          	lw	s10,240(sp)
    faa0:	0ec12d83          	lw	s11,236(sp)
    faa4:	12010113          	addi	sp,sp,288
    faa8:	00008067          	ret
    faac:	01068693          	addi	a3,a3,16
    fab0:	01972223          	sw	s9,4(a4)
    fab4:	02d12c23          	sw	a3,56(sp)
    fab8:	02f12a23          	sw	a5,52(sp)
    fabc:	00870713          	addi	a4,a4,8
    fac0:	02fdd063          	bge	s11,a5,fae0 <_svfiprintf_r+0xc4c>
    fac4:	03010613          	addi	a2,sp,48
    fac8:	00090593          	mv	a1,s2
    facc:	000a0513          	mv	a0,s4
    fad0:	fffff097          	auipc	ra,0xfffff
    fad4:	1e8080e7          	jalr	488(ra) # ecb8 <__ssprint_r>
    fad8:	f80514e3          	bnez	a0,fa60 <_svfiprintf_r+0xbcc>
    fadc:	000b0713          	mv	a4,s6
    fae0:	ff040413          	addi	s0,s0,-16
    fae4:	f39ff06f          	j	fa1c <_svfiprintf_r+0xb88>
    fae8:	03812783          	lw	a5,56(sp)
    faec:	f6078ae3          	beqz	a5,fa60 <_svfiprintf_r+0xbcc>
    faf0:	03010613          	addi	a2,sp,48
    faf4:	00090593          	mv	a1,s2
    faf8:	000a0513          	mv	a0,s4
    fafc:	fffff097          	auipc	ra,0xfffff
    fb00:	1bc080e7          	jalr	444(ra) # ecb8 <__ssprint_r>
    fb04:	f5dff06f          	j	fa60 <_svfiprintf_r+0xbcc>
    fb08:	fff00693          	li	a3,-1
    fb0c:	c2d41ce3          	bne	s0,a3,f744 <_svfiprintf_r+0x8b0>
    fb10:	ca0c96e3          	bnez	s9,f7bc <_svfiprintf_r+0x928>
    fb14:	00900693          	li	a3,9
    fb18:	cbb6e2e3          	bltu	a3,s11,f7bc <_svfiprintf_r+0x928>
    fb1c:	030d8313          	addi	t1,s11,48
    fb20:	0c610fa3          	sb	t1,223(sp)
    fb24:	0df10493          	addi	s1,sp,223
    fb28:	c7dff06f          	j	f7a4 <_svfiprintf_r+0x910>

0000fb2c <_wcrtomb_r>:
    fb2c:	8003d797          	auipc	a5,0x8003d
    fb30:	13478793          	addi	a5,a5,308 # 8004cc60 <__stack_top+0xfffd5e10>
    fb34:	0007a783          	lw	a5,0(a5)
    fb38:	fe010113          	addi	sp,sp,-32
    fb3c:	00812c23          	sw	s0,24(sp)
    fb40:	00912a23          	sw	s1,20(sp)
    fb44:	00112e23          	sw	ra,28(sp)
    fb48:	00050413          	mv	s0,a0
    fb4c:	00068493          	mv	s1,a3
    fb50:	0347a783          	lw	a5,52(a5)
    fb54:	04059863          	bnez	a1,fba4 <_wcrtomb_r+0x78>
    fb58:	00079663          	bnez	a5,fb64 <_wcrtomb_r+0x38>
    fb5c:	8003d797          	auipc	a5,0x8003d
    fb60:	f9478793          	addi	a5,a5,-108 # 8004caf0 <__stack_top+0xfffd5ca0>
    fb64:	0e07a783          	lw	a5,224(a5)
    fb68:	00048693          	mv	a3,s1
    fb6c:	00000613          	li	a2,0
    fb70:	00410593          	addi	a1,sp,4
    fb74:	00040513          	mv	a0,s0
    fb78:	000780e7          	jalr	a5
    fb7c:	fff00793          	li	a5,-1
    fb80:	00f51863          	bne	a0,a5,fb90 <_wcrtomb_r+0x64>
    fb84:	0004a023          	sw	zero,0(s1)
    fb88:	08a00793          	li	a5,138
    fb8c:	00f42023          	sw	a5,0(s0)
    fb90:	01c12083          	lw	ra,28(sp)
    fb94:	01812403          	lw	s0,24(sp)
    fb98:	01412483          	lw	s1,20(sp)
    fb9c:	02010113          	addi	sp,sp,32
    fba0:	00008067          	ret
    fba4:	00079663          	bnez	a5,fbb0 <_wcrtomb_r+0x84>
    fba8:	8003d797          	auipc	a5,0x8003d
    fbac:	f4878793          	addi	a5,a5,-184 # 8004caf0 <__stack_top+0xfffd5ca0>
    fbb0:	0e07a783          	lw	a5,224(a5)
    fbb4:	00048693          	mv	a3,s1
    fbb8:	fbdff06f          	j	fb74 <_wcrtomb_r+0x48>

0000fbbc <wcrtomb>:
    fbbc:	8003d797          	auipc	a5,0x8003d
    fbc0:	0a478793          	addi	a5,a5,164 # 8004cc60 <__stack_top+0xfffd5e10>
    fbc4:	00060693          	mv	a3,a2
    fbc8:	00058613          	mv	a2,a1
    fbcc:	00050593          	mv	a1,a0
    fbd0:	0007a503          	lw	a0,0(a5)
    fbd4:	00000317          	auipc	t1,0x0
    fbd8:	f5830067          	jr	-168(t1) # fb2c <_wcrtomb_r>

0000fbdc <_wctomb_r>:
    fbdc:	8003d797          	auipc	a5,0x8003d
    fbe0:	08478793          	addi	a5,a5,132 # 8004cc60 <__stack_top+0xfffd5e10>
    fbe4:	0007a783          	lw	a5,0(a5)
    fbe8:	0347a783          	lw	a5,52(a5)
    fbec:	00079663          	bnez	a5,fbf8 <_wctomb_r+0x1c>
    fbf0:	8003d797          	auipc	a5,0x8003d
    fbf4:	f0078793          	addi	a5,a5,-256 # 8004caf0 <__stack_top+0xfffd5ca0>
    fbf8:	0e07a303          	lw	t1,224(a5)
    fbfc:	00030067          	jr	t1

0000fc00 <__ascii_wctomb>:
    fc00:	02058463          	beqz	a1,fc28 <__ascii_wctomb+0x28>
    fc04:	0ff00793          	li	a5,255
    fc08:	00c7fa63          	bgeu	a5,a2,fc1c <__ascii_wctomb+0x1c>
    fc0c:	08a00793          	li	a5,138
    fc10:	00f52023          	sw	a5,0(a0)
    fc14:	fff00513          	li	a0,-1
    fc18:	00008067          	ret
    fc1c:	00c58023          	sb	a2,0(a1)
    fc20:	00100513          	li	a0,1
    fc24:	00008067          	ret
    fc28:	00000513          	li	a0,0
    fc2c:	00008067          	ret

0000fc30 <_calloc_r>:
    fc30:	02c585b3          	mul	a1,a1,a2
    fc34:	ff010113          	addi	sp,sp,-16
    fc38:	00812423          	sw	s0,8(sp)
    fc3c:	00112623          	sw	ra,12(sp)
    fc40:	ffff6097          	auipc	ra,0xffff6
    fc44:	628080e7          	jalr	1576(ra) # 6268 <_malloc_r>
    fc48:	00050413          	mv	s0,a0
    fc4c:	04050263          	beqz	a0,fc90 <_calloc_r+0x60>
    fc50:	ffc52603          	lw	a2,-4(a0)
    fc54:	02400713          	li	a4,36
    fc58:	ffc67613          	andi	a2,a2,-4
    fc5c:	ffc60613          	addi	a2,a2,-4
    fc60:	06c76263          	bltu	a4,a2,fcc4 <_calloc_r+0x94>
    fc64:	01300693          	li	a3,19
    fc68:	00050793          	mv	a5,a0
    fc6c:	00c6fc63          	bgeu	a3,a2,fc84 <_calloc_r+0x54>
    fc70:	00052023          	sw	zero,0(a0)
    fc74:	00052223          	sw	zero,4(a0)
    fc78:	01b00793          	li	a5,27
    fc7c:	02c7e463          	bltu	a5,a2,fca4 <_calloc_r+0x74>
    fc80:	00850793          	addi	a5,a0,8
    fc84:	0007a023          	sw	zero,0(a5)
    fc88:	0007a223          	sw	zero,4(a5)
    fc8c:	0007a423          	sw	zero,8(a5)
    fc90:	00040513          	mv	a0,s0
    fc94:	00c12083          	lw	ra,12(sp)
    fc98:	00812403          	lw	s0,8(sp)
    fc9c:	01010113          	addi	sp,sp,16
    fca0:	00008067          	ret
    fca4:	00052423          	sw	zero,8(a0)
    fca8:	00052623          	sw	zero,12(a0)
    fcac:	01050793          	addi	a5,a0,16
    fcb0:	fce61ae3          	bne	a2,a4,fc84 <_calloc_r+0x54>
    fcb4:	00052823          	sw	zero,16(a0)
    fcb8:	01850793          	addi	a5,a0,24
    fcbc:	00052a23          	sw	zero,20(a0)
    fcc0:	fc5ff06f          	j	fc84 <_calloc_r+0x54>
    fcc4:	00000593          	li	a1,0
    fcc8:	ffff7097          	auipc	ra,0xffff7
    fccc:	dd4080e7          	jalr	-556(ra) # 6a9c <memset>
    fcd0:	fc1ff06f          	j	fc90 <_calloc_r+0x60>

0000fcd4 <_close_r>:
    fcd4:	ff010113          	addi	sp,sp,-16
    fcd8:	00812423          	sw	s0,8(sp)
    fcdc:	00050413          	mv	s0,a0
    fce0:	00058513          	mv	a0,a1
    fce4:	8003d797          	auipc	a5,0x8003d
    fce8:	1607a423          	sw	zero,360(a5) # 8004ce4c <__stack_top+0xfffd5ffc>
    fcec:	00112623          	sw	ra,12(sp)
    fcf0:	00000097          	auipc	ra,0x0
    fcf4:	298080e7          	jalr	664(ra) # ff88 <_close>
    fcf8:	fff00793          	li	a5,-1
    fcfc:	00f51c63          	bne	a0,a5,fd14 <_close_r+0x40>
    fd00:	8003d797          	auipc	a5,0x8003d
    fd04:	14c78793          	addi	a5,a5,332 # 8004ce4c <__stack_top+0xfffd5ffc>
    fd08:	0007a783          	lw	a5,0(a5)
    fd0c:	00078463          	beqz	a5,fd14 <_close_r+0x40>
    fd10:	00f42023          	sw	a5,0(s0)
    fd14:	00c12083          	lw	ra,12(sp)
    fd18:	00812403          	lw	s0,8(sp)
    fd1c:	01010113          	addi	sp,sp,16
    fd20:	00008067          	ret

0000fd24 <_fclose_r>:
    fd24:	ff010113          	addi	sp,sp,-16
    fd28:	00112623          	sw	ra,12(sp)
    fd2c:	00812423          	sw	s0,8(sp)
    fd30:	00912223          	sw	s1,4(sp)
    fd34:	01212023          	sw	s2,0(sp)
    fd38:	02059263          	bnez	a1,fd5c <_fclose_r+0x38>
    fd3c:	00000913          	li	s2,0
    fd40:	00c12083          	lw	ra,12(sp)
    fd44:	00812403          	lw	s0,8(sp)
    fd48:	00090513          	mv	a0,s2
    fd4c:	00412483          	lw	s1,4(sp)
    fd50:	00012903          	lw	s2,0(sp)
    fd54:	01010113          	addi	sp,sp,16
    fd58:	00008067          	ret
    fd5c:	00050493          	mv	s1,a0
    fd60:	00058413          	mv	s0,a1
    fd64:	00050a63          	beqz	a0,fd78 <_fclose_r+0x54>
    fd68:	03852783          	lw	a5,56(a0)
    fd6c:	00079663          	bnez	a5,fd78 <_fclose_r+0x54>
    fd70:	ffffb097          	auipc	ra,0xffffb
    fd74:	07c080e7          	jalr	124(ra) # adec <__sinit>
    fd78:	00c41783          	lh	a5,12(s0)
    fd7c:	fc0780e3          	beqz	a5,fd3c <_fclose_r+0x18>
    fd80:	00040593          	mv	a1,s0
    fd84:	00048513          	mv	a0,s1
    fd88:	ffffb097          	auipc	ra,0xffffb
    fd8c:	c8c080e7          	jalr	-884(ra) # aa14 <__sflush_r>
    fd90:	02c42783          	lw	a5,44(s0)
    fd94:	00050913          	mv	s2,a0
    fd98:	00078c63          	beqz	a5,fdb0 <_fclose_r+0x8c>
    fd9c:	01c42583          	lw	a1,28(s0)
    fda0:	00048513          	mv	a0,s1
    fda4:	000780e7          	jalr	a5
    fda8:	00055463          	bgez	a0,fdb0 <_fclose_r+0x8c>
    fdac:	fff00913          	li	s2,-1
    fdb0:	00c45783          	lhu	a5,12(s0)
    fdb4:	0807f793          	andi	a5,a5,128
    fdb8:	00078a63          	beqz	a5,fdcc <_fclose_r+0xa8>
    fdbc:	01042583          	lw	a1,16(s0)
    fdc0:	00048513          	mv	a0,s1
    fdc4:	ffffb097          	auipc	ra,0xffffb
    fdc8:	4ec080e7          	jalr	1260(ra) # b2b0 <_free_r>
    fdcc:	03042583          	lw	a1,48(s0)
    fdd0:	00058e63          	beqz	a1,fdec <_fclose_r+0xc8>
    fdd4:	04040793          	addi	a5,s0,64
    fdd8:	00f58863          	beq	a1,a5,fde8 <_fclose_r+0xc4>
    fddc:	00048513          	mv	a0,s1
    fde0:	ffffb097          	auipc	ra,0xffffb
    fde4:	4d0080e7          	jalr	1232(ra) # b2b0 <_free_r>
    fde8:	02042823          	sw	zero,48(s0)
    fdec:	04442583          	lw	a1,68(s0)
    fdf0:	00058a63          	beqz	a1,fe04 <_fclose_r+0xe0>
    fdf4:	00048513          	mv	a0,s1
    fdf8:	ffffb097          	auipc	ra,0xffffb
    fdfc:	4b8080e7          	jalr	1208(ra) # b2b0 <_free_r>
    fe00:	04042223          	sw	zero,68(s0)
    fe04:	ffffb097          	auipc	ra,0xffffb
    fe08:	174080e7          	jalr	372(ra) # af78 <__sfp_lock_acquire>
    fe0c:	00041623          	sh	zero,12(s0)
    fe10:	ffffb097          	auipc	ra,0xffffb
    fe14:	16c080e7          	jalr	364(ra) # af7c <__sfp_lock_release>
    fe18:	f29ff06f          	j	fd40 <_fclose_r+0x1c>

0000fe1c <fclose>:
    fe1c:	8003d797          	auipc	a5,0x8003d
    fe20:	e4478793          	addi	a5,a5,-444 # 8004cc60 <__stack_top+0xfffd5e10>
    fe24:	00050593          	mv	a1,a0
    fe28:	0007a503          	lw	a0,0(a5)
    fe2c:	00000317          	auipc	t1,0x0
    fe30:	ef830067          	jr	-264(t1) # fd24 <_fclose_r>

0000fe34 <_fstat_r>:
    fe34:	ff010113          	addi	sp,sp,-16
    fe38:	00812423          	sw	s0,8(sp)
    fe3c:	00050413          	mv	s0,a0
    fe40:	00058513          	mv	a0,a1
    fe44:	00060593          	mv	a1,a2
    fe48:	8003d797          	auipc	a5,0x8003d
    fe4c:	0007a223          	sw	zero,4(a5) # 8004ce4c <__stack_top+0xfffd5ffc>
    fe50:	00112623          	sw	ra,12(sp)
    fe54:	00000097          	auipc	ra,0x0
    fe58:	1d4080e7          	jalr	468(ra) # 10028 <_fstat>
    fe5c:	fff00793          	li	a5,-1
    fe60:	00f51c63          	bne	a0,a5,fe78 <_fstat_r+0x44>
    fe64:	8003d797          	auipc	a5,0x8003d
    fe68:	fe878793          	addi	a5,a5,-24 # 8004ce4c <__stack_top+0xfffd5ffc>
    fe6c:	0007a783          	lw	a5,0(a5)
    fe70:	00078463          	beqz	a5,fe78 <_fstat_r+0x44>
    fe74:	00f42023          	sw	a5,0(s0)
    fe78:	00c12083          	lw	ra,12(sp)
    fe7c:	00812403          	lw	s0,8(sp)
    fe80:	01010113          	addi	sp,sp,16
    fe84:	00008067          	ret

0000fe88 <_isatty_r>:
    fe88:	ff010113          	addi	sp,sp,-16
    fe8c:	00812423          	sw	s0,8(sp)
    fe90:	00050413          	mv	s0,a0
    fe94:	00058513          	mv	a0,a1
    fe98:	8003d797          	auipc	a5,0x8003d
    fe9c:	fa07aa23          	sw	zero,-76(a5) # 8004ce4c <__stack_top+0xfffd5ffc>
    fea0:	00112623          	sw	ra,12(sp)
    fea4:	00000097          	auipc	ra,0x0
    fea8:	200080e7          	jalr	512(ra) # 100a4 <_isatty>
    feac:	fff00793          	li	a5,-1
    feb0:	00f51c63          	bne	a0,a5,fec8 <_isatty_r+0x40>
    feb4:	8003d797          	auipc	a5,0x8003d
    feb8:	f9878793          	addi	a5,a5,-104 # 8004ce4c <__stack_top+0xfffd5ffc>
    febc:	0007a783          	lw	a5,0(a5)
    fec0:	00078463          	beqz	a5,fec8 <_isatty_r+0x40>
    fec4:	00f42023          	sw	a5,0(s0)
    fec8:	00c12083          	lw	ra,12(sp)
    fecc:	00812403          	lw	s0,8(sp)
    fed0:	01010113          	addi	sp,sp,16
    fed4:	00008067          	ret

0000fed8 <_lseek_r>:
    fed8:	ff010113          	addi	sp,sp,-16
    fedc:	00812423          	sw	s0,8(sp)
    fee0:	00050413          	mv	s0,a0
    fee4:	00058513          	mv	a0,a1
    fee8:	00060593          	mv	a1,a2
    feec:	00068613          	mv	a2,a3
    fef0:	8003d797          	auipc	a5,0x8003d
    fef4:	f407ae23          	sw	zero,-164(a5) # 8004ce4c <__stack_top+0xfffd5ffc>
    fef8:	00112623          	sw	ra,12(sp)
    fefc:	00000097          	auipc	ra,0x0
    ff00:	20c080e7          	jalr	524(ra) # 10108 <_lseek>
    ff04:	fff00793          	li	a5,-1
    ff08:	00f51c63          	bne	a0,a5,ff20 <_lseek_r+0x48>
    ff0c:	8003d797          	auipc	a5,0x8003d
    ff10:	f4078793          	addi	a5,a5,-192 # 8004ce4c <__stack_top+0xfffd5ffc>
    ff14:	0007a783          	lw	a5,0(a5)
    ff18:	00078463          	beqz	a5,ff20 <_lseek_r+0x48>
    ff1c:	00f42023          	sw	a5,0(s0)
    ff20:	00c12083          	lw	ra,12(sp)
    ff24:	00812403          	lw	s0,8(sp)
    ff28:	01010113          	addi	sp,sp,16
    ff2c:	00008067          	ret

0000ff30 <_read_r>:
    ff30:	ff010113          	addi	sp,sp,-16
    ff34:	00812423          	sw	s0,8(sp)
    ff38:	00050413          	mv	s0,a0
    ff3c:	00058513          	mv	a0,a1
    ff40:	00060593          	mv	a1,a2
    ff44:	00068613          	mv	a2,a3
    ff48:	8003d797          	auipc	a5,0x8003d
    ff4c:	f007a223          	sw	zero,-252(a5) # 8004ce4c <__stack_top+0xfffd5ffc>
    ff50:	00112623          	sw	ra,12(sp)
    ff54:	00000097          	auipc	ra,0x0
    ff58:	204080e7          	jalr	516(ra) # 10158 <_read>
    ff5c:	fff00793          	li	a5,-1
    ff60:	00f51c63          	bne	a0,a5,ff78 <_read_r+0x48>
    ff64:	8003d797          	auipc	a5,0x8003d
    ff68:	ee878793          	addi	a5,a5,-280 # 8004ce4c <__stack_top+0xfffd5ffc>
    ff6c:	0007a783          	lw	a5,0(a5)
    ff70:	00078463          	beqz	a5,ff78 <_read_r+0x48>
    ff74:	00f42023          	sw	a5,0(s0)
    ff78:	00c12083          	lw	ra,12(sp)
    ff7c:	00812403          	lw	s0,8(sp)
    ff80:	01010113          	addi	sp,sp,16
    ff84:	00008067          	ret

0000ff88 <_close>:
    ff88:	ff010113          	addi	sp,sp,-16
    ff8c:	00112623          	sw	ra,12(sp)
    ff90:	00812423          	sw	s0,8(sp)
    ff94:	00000593          	li	a1,0
    ff98:	00000613          	li	a2,0
    ff9c:	00000693          	li	a3,0
    ffa0:	00000713          	li	a4,0
    ffa4:	00000793          	li	a5,0
    ffa8:	03900893          	li	a7,57
    ffac:	00000073          	ecall
    ffb0:	00050413          	mv	s0,a0
    ffb4:	00055c63          	bgez	a0,ffcc <_close+0x44>
    ffb8:	40800433          	neg	s0,s0
    ffbc:	ffff6097          	auipc	ra,0xffff6
    ffc0:	d80080e7          	jalr	-640(ra) # 5d3c <__errno>
    ffc4:	00852023          	sw	s0,0(a0)
    ffc8:	fff00413          	li	s0,-1
    ffcc:	00040513          	mv	a0,s0
    ffd0:	00c12083          	lw	ra,12(sp)
    ffd4:	00812403          	lw	s0,8(sp)
    ffd8:	01010113          	addi	sp,sp,16
    ffdc:	00008067          	ret

0000ffe0 <_exit>:
    ffe0:	00000593          	li	a1,0
    ffe4:	00000613          	li	a2,0
    ffe8:	00000693          	li	a3,0
    ffec:	00000713          	li	a4,0
    fff0:	00000793          	li	a5,0
    fff4:	05d00893          	li	a7,93
    fff8:	00000073          	ecall
    fffc:	02055463          	bgez	a0,10024 <_exit+0x44>
   10000:	ff010113          	addi	sp,sp,-16
   10004:	00812423          	sw	s0,8(sp)
   10008:	00050413          	mv	s0,a0
   1000c:	00112623          	sw	ra,12(sp)
   10010:	40800433          	neg	s0,s0
   10014:	ffff6097          	auipc	ra,0xffff6
   10018:	d28080e7          	jalr	-728(ra) # 5d3c <__errno>
   1001c:	00852023          	sw	s0,0(a0)
   10020:	0000006f          	j	10020 <_exit+0x40>
   10024:	0000006f          	j	10024 <_exit+0x44>

00010028 <_fstat>:
   10028:	f7010113          	addi	sp,sp,-144
   1002c:	08912223          	sw	s1,132(sp)
   10030:	08112623          	sw	ra,140(sp)
   10034:	00058493          	mv	s1,a1
   10038:	08812423          	sw	s0,136(sp)
   1003c:	00010593          	mv	a1,sp
   10040:	00000613          	li	a2,0
   10044:	00000693          	li	a3,0
   10048:	00000713          	li	a4,0
   1004c:	00000793          	li	a5,0
   10050:	05000893          	li	a7,80
   10054:	00000073          	ecall
   10058:	00050413          	mv	s0,a0
   1005c:	00055c63          	bgez	a0,10074 <_fstat+0x4c>
   10060:	40800433          	neg	s0,s0
   10064:	ffff6097          	auipc	ra,0xffff6
   10068:	cd8080e7          	jalr	-808(ra) # 5d3c <__errno>
   1006c:	00852023          	sw	s0,0(a0)
   10070:	fff00413          	li	s0,-1
   10074:	00048513          	mv	a0,s1
   10078:	00010593          	mv	a1,sp
   1007c:	00000097          	auipc	ra,0x0
   10080:	25c080e7          	jalr	604(ra) # 102d8 <_conv_stat>
   10084:	00040513          	mv	a0,s0
   10088:	08c12083          	lw	ra,140(sp)
   1008c:	08812403          	lw	s0,136(sp)
   10090:	08412483          	lw	s1,132(sp)
   10094:	09010113          	addi	sp,sp,144
   10098:	00008067          	ret

0001009c <_getpid>:
   1009c:	00100513          	li	a0,1
   100a0:	00008067          	ret

000100a4 <_isatty>:
   100a4:	f9010113          	addi	sp,sp,-112
   100a8:	00810593          	addi	a1,sp,8
   100ac:	06112623          	sw	ra,108(sp)
   100b0:	00000097          	auipc	ra,0x0
   100b4:	f78080e7          	jalr	-136(ra) # 10028 <_fstat>
   100b8:	fff00793          	li	a5,-1
   100bc:	00f50e63          	beq	a0,a5,100d8 <_isatty+0x34>
   100c0:	00c12503          	lw	a0,12(sp)
   100c4:	00d55513          	srli	a0,a0,0xd
   100c8:	00157513          	andi	a0,a0,1
   100cc:	06c12083          	lw	ra,108(sp)
   100d0:	07010113          	addi	sp,sp,112
   100d4:	00008067          	ret
   100d8:	00000513          	li	a0,0
   100dc:	ff1ff06f          	j	100cc <_isatty+0x28>

000100e0 <_kill>:
   100e0:	ff010113          	addi	sp,sp,-16
   100e4:	00112623          	sw	ra,12(sp)
   100e8:	ffff6097          	auipc	ra,0xffff6
   100ec:	c54080e7          	jalr	-940(ra) # 5d3c <__errno>
   100f0:	00c12083          	lw	ra,12(sp)
   100f4:	01600793          	li	a5,22
   100f8:	00f52023          	sw	a5,0(a0)
   100fc:	fff00513          	li	a0,-1
   10100:	01010113          	addi	sp,sp,16
   10104:	00008067          	ret

00010108 <_lseek>:
   10108:	ff010113          	addi	sp,sp,-16
   1010c:	00112623          	sw	ra,12(sp)
   10110:	00812423          	sw	s0,8(sp)
   10114:	00000693          	li	a3,0
   10118:	00000713          	li	a4,0
   1011c:	00000793          	li	a5,0
   10120:	03e00893          	li	a7,62
   10124:	00000073          	ecall
   10128:	00050413          	mv	s0,a0
   1012c:	00055c63          	bgez	a0,10144 <_lseek+0x3c>
   10130:	40800433          	neg	s0,s0
   10134:	ffff6097          	auipc	ra,0xffff6
   10138:	c08080e7          	jalr	-1016(ra) # 5d3c <__errno>
   1013c:	00852023          	sw	s0,0(a0)
   10140:	fff00413          	li	s0,-1
   10144:	00040513          	mv	a0,s0
   10148:	00c12083          	lw	ra,12(sp)
   1014c:	00812403          	lw	s0,8(sp)
   10150:	01010113          	addi	sp,sp,16
   10154:	00008067          	ret

00010158 <_read>:
   10158:	ff010113          	addi	sp,sp,-16
   1015c:	00112623          	sw	ra,12(sp)
   10160:	00812423          	sw	s0,8(sp)
   10164:	00000693          	li	a3,0
   10168:	00000713          	li	a4,0
   1016c:	00000793          	li	a5,0
   10170:	03f00893          	li	a7,63
   10174:	00000073          	ecall
   10178:	00050413          	mv	s0,a0
   1017c:	00055c63          	bgez	a0,10194 <_read+0x3c>
   10180:	40800433          	neg	s0,s0
   10184:	ffff6097          	auipc	ra,0xffff6
   10188:	bb8080e7          	jalr	-1096(ra) # 5d3c <__errno>
   1018c:	00852023          	sw	s0,0(a0)
   10190:	fff00413          	li	s0,-1
   10194:	00040513          	mv	a0,s0
   10198:	00c12083          	lw	ra,12(sp)
   1019c:	00812403          	lw	s0,8(sp)
   101a0:	01010113          	addi	sp,sp,16
   101a4:	00008067          	ret

000101a8 <_sbrk>:
   101a8:	ff010113          	addi	sp,sp,-16
   101ac:	00912223          	sw	s1,4(sp)
   101b0:	8003d497          	auipc	s1,0x8003d
   101b4:	adc48493          	addi	s1,s1,-1316 # 8004cc8c <__stack_top+0xfffd5e3c>
   101b8:	0004a783          	lw	a5,0(s1)
   101bc:	01212023          	sw	s2,0(sp)
   101c0:	00112623          	sw	ra,12(sp)
   101c4:	00812423          	sw	s0,8(sp)
   101c8:	00050913          	mv	s2,a0
   101cc:	04079e63          	bnez	a5,10228 <_sbrk+0x80>
   101d0:	00000513          	li	a0,0
   101d4:	00000593          	li	a1,0
   101d8:	00000613          	li	a2,0
   101dc:	00000693          	li	a3,0
   101e0:	00000713          	li	a4,0
   101e4:	0d600893          	li	a7,214
   101e8:	00000073          	ecall
   101ec:	00050413          	mv	s0,a0
   101f0:	02055863          	bgez	a0,10220 <_sbrk+0x78>
   101f4:	ffff6097          	auipc	ra,0xffff6
   101f8:	b48080e7          	jalr	-1208(ra) # 5d3c <__errno>
   101fc:	40800433          	neg	s0,s0
   10200:	00852023          	sw	s0,0(a0)
   10204:	fff00513          	li	a0,-1
   10208:	00c12083          	lw	ra,12(sp)
   1020c:	00812403          	lw	s0,8(sp)
   10210:	00412483          	lw	s1,4(sp)
   10214:	00012903          	lw	s2,0(sp)
   10218:	01010113          	addi	sp,sp,16
   1021c:	00008067          	ret
   10220:	8003d797          	auipc	a5,0x8003d
   10224:	a6a7a623          	sw	a0,-1428(a5) # 8004cc8c <__stack_top+0xfffd5e3c>
   10228:	0004a503          	lw	a0,0(s1)
   1022c:	00000593          	li	a1,0
   10230:	00000613          	li	a2,0
   10234:	00a90533          	add	a0,s2,a0
   10238:	00000693          	li	a3,0
   1023c:	00000713          	li	a4,0
   10240:	00000793          	li	a5,0
   10244:	0d600893          	li	a7,214
   10248:	00000073          	ecall
   1024c:	00050413          	mv	s0,a0
   10250:	00055c63          	bgez	a0,10268 <_sbrk+0xc0>
   10254:	40800433          	neg	s0,s0
   10258:	ffff6097          	auipc	ra,0xffff6
   1025c:	ae4080e7          	jalr	-1308(ra) # 5d3c <__errno>
   10260:	00852023          	sw	s0,0(a0)
   10264:	fff00413          	li	s0,-1
   10268:	0004a783          	lw	a5,0(s1)
   1026c:	fff00513          	li	a0,-1
   10270:	00f90933          	add	s2,s2,a5
   10274:	f9241ae3          	bne	s0,s2,10208 <_sbrk+0x60>
   10278:	8003d717          	auipc	a4,0x8003d
   1027c:	a0872a23          	sw	s0,-1516(a4) # 8004cc8c <__stack_top+0xfffd5e3c>
   10280:	00078513          	mv	a0,a5
   10284:	f85ff06f          	j	10208 <_sbrk+0x60>

00010288 <_write>:
   10288:	ff010113          	addi	sp,sp,-16
   1028c:	00112623          	sw	ra,12(sp)
   10290:	00812423          	sw	s0,8(sp)
   10294:	00000693          	li	a3,0
   10298:	00000713          	li	a4,0
   1029c:	00000793          	li	a5,0
   102a0:	04000893          	li	a7,64
   102a4:	00000073          	ecall
   102a8:	00050413          	mv	s0,a0
   102ac:	00055c63          	bgez	a0,102c4 <_write+0x3c>
   102b0:	40800433          	neg	s0,s0
   102b4:	ffff6097          	auipc	ra,0xffff6
   102b8:	a88080e7          	jalr	-1400(ra) # 5d3c <__errno>
   102bc:	00852023          	sw	s0,0(a0)
   102c0:	fff00413          	li	s0,-1
   102c4:	00040513          	mv	a0,s0
   102c8:	00c12083          	lw	ra,12(sp)
   102cc:	00812403          	lw	s0,8(sp)
   102d0:	01010113          	addi	sp,sp,16
   102d4:	00008067          	ret

000102d8 <_conv_stat>:
   102d8:	0005a783          	lw	a5,0(a1)
   102dc:	0485a703          	lw	a4,72(a1)
   102e0:	00f51023          	sh	a5,0(a0)
   102e4:	0085a783          	lw	a5,8(a1)
   102e8:	00f51123          	sh	a5,2(a0)
   102ec:	0105a783          	lw	a5,16(a1)
   102f0:	00f52223          	sw	a5,4(a0)
   102f4:	0145a783          	lw	a5,20(a1)
   102f8:	00f51423          	sh	a5,8(a0)
   102fc:	0185a783          	lw	a5,24(a1)
   10300:	00f51523          	sh	a5,10(a0)
   10304:	01c5a783          	lw	a5,28(a1)
   10308:	00f51623          	sh	a5,12(a0)
   1030c:	0205a783          	lw	a5,32(a1)
   10310:	00f51723          	sh	a5,14(a0)
   10314:	0305a783          	lw	a5,48(a1)
   10318:	00f52823          	sw	a5,16(a0)
   1031c:	0405a783          	lw	a5,64(a1)
   10320:	04f52423          	sw	a5,72(a0)
   10324:	0385a783          	lw	a5,56(a1)
   10328:	04f52223          	sw	a5,68(a0)
   1032c:	04c5a783          	lw	a5,76(a1)
   10330:	00e52c23          	sw	a4,24(a0)
   10334:	0585a703          	lw	a4,88(a1)
   10338:	00f52e23          	sw	a5,28(a0)
   1033c:	05c5a783          	lw	a5,92(a1)
   10340:	02e52423          	sw	a4,40(a0)
   10344:	0685a703          	lw	a4,104(a1)
   10348:	02f52623          	sw	a5,44(a0)
   1034c:	06c5a783          	lw	a5,108(a1)
   10350:	02e52c23          	sw	a4,56(a0)
   10354:	02f52e23          	sw	a5,60(a0)
   10358:	00008067          	ret

0001035c <__udivdi3>:
   1035c:	00058793          	mv	a5,a1
   10360:	00060813          	mv	a6,a2
   10364:	00068713          	mv	a4,a3
   10368:	00050313          	mv	t1,a0
   1036c:	28069663          	bnez	a3,105f8 <__udivdi3+0x29c>
   10370:	8003b897          	auipc	a7,0x8003b
   10374:	42c88893          	addi	a7,a7,1068 # 8004b79c <__stack_top+0xfffd494c>
   10378:	0ec5f663          	bgeu	a1,a2,10464 <__udivdi3+0x108>
   1037c:	00010737          	lui	a4,0x10
   10380:	0ce67863          	bgeu	a2,a4,10450 <__udivdi3+0xf4>
   10384:	0ff00713          	li	a4,255
   10388:	00c73733          	sltu	a4,a4,a2
   1038c:	00371713          	slli	a4,a4,0x3
   10390:	00e656b3          	srl	a3,a2,a4
   10394:	00d888b3          	add	a7,a7,a3
   10398:	0008c683          	lbu	a3,0(a7)
   1039c:	00e68733          	add	a4,a3,a4
   103a0:	02000693          	li	a3,32
   103a4:	40e686b3          	sub	a3,a3,a4
   103a8:	00068c63          	beqz	a3,103c0 <__udivdi3+0x64>
   103ac:	00d797b3          	sll	a5,a5,a3
   103b0:	00e55733          	srl	a4,a0,a4
   103b4:	00d61833          	sll	a6,a2,a3
   103b8:	00f765b3          	or	a1,a4,a5
   103bc:	00d51333          	sll	t1,a0,a3
   103c0:	01085513          	srli	a0,a6,0x10
   103c4:	02a5f733          	remu	a4,a1,a0
   103c8:	01081613          	slli	a2,a6,0x10
   103cc:	01065613          	srli	a2,a2,0x10
   103d0:	01035693          	srli	a3,t1,0x10
   103d4:	02a5d5b3          	divu	a1,a1,a0
   103d8:	01071713          	slli	a4,a4,0x10
   103dc:	00d766b3          	or	a3,a4,a3
   103e0:	02b607b3          	mul	a5,a2,a1
   103e4:	00058713          	mv	a4,a1
   103e8:	00f6fe63          	bgeu	a3,a5,10404 <__udivdi3+0xa8>
   103ec:	010686b3          	add	a3,a3,a6
   103f0:	fff58713          	addi	a4,a1,-1
   103f4:	0106e863          	bltu	a3,a6,10404 <__udivdi3+0xa8>
   103f8:	00f6f663          	bgeu	a3,a5,10404 <__udivdi3+0xa8>
   103fc:	ffe58713          	addi	a4,a1,-2
   10400:	010686b3          	add	a3,a3,a6
   10404:	40f686b3          	sub	a3,a3,a5
   10408:	02a6f7b3          	remu	a5,a3,a0
   1040c:	01031313          	slli	t1,t1,0x10
   10410:	01035313          	srli	t1,t1,0x10
   10414:	02a6d6b3          	divu	a3,a3,a0
   10418:	01079793          	slli	a5,a5,0x10
   1041c:	0067e333          	or	t1,a5,t1
   10420:	02d605b3          	mul	a1,a2,a3
   10424:	00068513          	mv	a0,a3
   10428:	00b37c63          	bgeu	t1,a1,10440 <__udivdi3+0xe4>
   1042c:	00680333          	add	t1,a6,t1
   10430:	fff68513          	addi	a0,a3,-1
   10434:	01036663          	bltu	t1,a6,10440 <__udivdi3+0xe4>
   10438:	00b37463          	bgeu	t1,a1,10440 <__udivdi3+0xe4>
   1043c:	ffe68513          	addi	a0,a3,-2
   10440:	01071713          	slli	a4,a4,0x10
   10444:	00a76733          	or	a4,a4,a0
   10448:	00000593          	li	a1,0
   1044c:	0e40006f          	j	10530 <__udivdi3+0x1d4>
   10450:	010006b7          	lui	a3,0x1000
   10454:	01000713          	li	a4,16
   10458:	f2d66ce3          	bltu	a2,a3,10390 <__udivdi3+0x34>
   1045c:	01800713          	li	a4,24
   10460:	f31ff06f          	j	10390 <__udivdi3+0x34>
   10464:	00061663          	bnez	a2,10470 <__udivdi3+0x114>
   10468:	00100693          	li	a3,1
   1046c:	02c6d833          	divu	a6,a3,a2
   10470:	000106b7          	lui	a3,0x10
   10474:	0cd87263          	bgeu	a6,a3,10538 <__udivdi3+0x1dc>
   10478:	0ff00693          	li	a3,255
   1047c:	0106f463          	bgeu	a3,a6,10484 <__udivdi3+0x128>
   10480:	00800713          	li	a4,8
   10484:	00e856b3          	srl	a3,a6,a4
   10488:	00d888b3          	add	a7,a7,a3
   1048c:	0008c683          	lbu	a3,0(a7)
   10490:	00e686b3          	add	a3,a3,a4
   10494:	02000713          	li	a4,32
   10498:	40d70733          	sub	a4,a4,a3
   1049c:	0a071863          	bnez	a4,1054c <__udivdi3+0x1f0>
   104a0:	410787b3          	sub	a5,a5,a6
   104a4:	00100593          	li	a1,1
   104a8:	01085613          	srli	a2,a6,0x10
   104ac:	01081893          	slli	a7,a6,0x10
   104b0:	0108d893          	srli	a7,a7,0x10
   104b4:	01035693          	srli	a3,t1,0x10
   104b8:	02c7f733          	remu	a4,a5,a2
   104bc:	02c7d7b3          	divu	a5,a5,a2
   104c0:	01071713          	slli	a4,a4,0x10
   104c4:	00d766b3          	or	a3,a4,a3
   104c8:	02f88533          	mul	a0,a7,a5
   104cc:	00078713          	mv	a4,a5
   104d0:	00a6fe63          	bgeu	a3,a0,104ec <__udivdi3+0x190>
   104d4:	010686b3          	add	a3,a3,a6
   104d8:	fff78713          	addi	a4,a5,-1
   104dc:	0106e863          	bltu	a3,a6,104ec <__udivdi3+0x190>
   104e0:	00a6f663          	bgeu	a3,a0,104ec <__udivdi3+0x190>
   104e4:	ffe78713          	addi	a4,a5,-2
   104e8:	010686b3          	add	a3,a3,a6
   104ec:	40a686b3          	sub	a3,a3,a0
   104f0:	02c6f7b3          	remu	a5,a3,a2
   104f4:	01031313          	slli	t1,t1,0x10
   104f8:	01035313          	srli	t1,t1,0x10
   104fc:	02c6d6b3          	divu	a3,a3,a2
   10500:	01079793          	slli	a5,a5,0x10
   10504:	0067e333          	or	t1,a5,t1
   10508:	02d888b3          	mul	a7,a7,a3
   1050c:	00068513          	mv	a0,a3
   10510:	01137c63          	bgeu	t1,a7,10528 <__udivdi3+0x1cc>
   10514:	00680333          	add	t1,a6,t1
   10518:	fff68513          	addi	a0,a3,-1 # ffff <_exit+0x1f>
   1051c:	01036663          	bltu	t1,a6,10528 <__udivdi3+0x1cc>
   10520:	01137463          	bgeu	t1,a7,10528 <__udivdi3+0x1cc>
   10524:	ffe68513          	addi	a0,a3,-2
   10528:	01071713          	slli	a4,a4,0x10
   1052c:	00a76733          	or	a4,a4,a0
   10530:	00070513          	mv	a0,a4
   10534:	00008067          	ret
   10538:	010006b7          	lui	a3,0x1000
   1053c:	01000713          	li	a4,16
   10540:	f4d862e3          	bltu	a6,a3,10484 <__udivdi3+0x128>
   10544:	01800713          	li	a4,24
   10548:	f3dff06f          	j	10484 <__udivdi3+0x128>
   1054c:	00e81833          	sll	a6,a6,a4
   10550:	00d7d5b3          	srl	a1,a5,a3
   10554:	00e51333          	sll	t1,a0,a4
   10558:	00d556b3          	srl	a3,a0,a3
   1055c:	01085513          	srli	a0,a6,0x10
   10560:	00e797b3          	sll	a5,a5,a4
   10564:	02a5f733          	remu	a4,a1,a0
   10568:	00f6e8b3          	or	a7,a3,a5
   1056c:	01081793          	slli	a5,a6,0x10
   10570:	0107d793          	srli	a5,a5,0x10
   10574:	0108d613          	srli	a2,a7,0x10
   10578:	02a5d5b3          	divu	a1,a1,a0
   1057c:	01071713          	slli	a4,a4,0x10
   10580:	00c76733          	or	a4,a4,a2
   10584:	02b786b3          	mul	a3,a5,a1
   10588:	00058613          	mv	a2,a1
   1058c:	00d77e63          	bgeu	a4,a3,105a8 <__udivdi3+0x24c>
   10590:	01070733          	add	a4,a4,a6
   10594:	fff58613          	addi	a2,a1,-1
   10598:	01076863          	bltu	a4,a6,105a8 <__udivdi3+0x24c>
   1059c:	00d77663          	bgeu	a4,a3,105a8 <__udivdi3+0x24c>
   105a0:	ffe58613          	addi	a2,a1,-2
   105a4:	01070733          	add	a4,a4,a6
   105a8:	40d706b3          	sub	a3,a4,a3
   105ac:	02a6f733          	remu	a4,a3,a0
   105b0:	01089893          	slli	a7,a7,0x10
   105b4:	0108d893          	srli	a7,a7,0x10
   105b8:	02a6d6b3          	divu	a3,a3,a0
   105bc:	01071713          	slli	a4,a4,0x10
   105c0:	02d785b3          	mul	a1,a5,a3
   105c4:	011767b3          	or	a5,a4,a7
   105c8:	00068713          	mv	a4,a3
   105cc:	00b7fe63          	bgeu	a5,a1,105e8 <__udivdi3+0x28c>
   105d0:	010787b3          	add	a5,a5,a6
   105d4:	fff68713          	addi	a4,a3,-1 # ffffff <__trunctfdf2+0xfec697>
   105d8:	0107e863          	bltu	a5,a6,105e8 <__udivdi3+0x28c>
   105dc:	00b7f663          	bgeu	a5,a1,105e8 <__udivdi3+0x28c>
   105e0:	ffe68713          	addi	a4,a3,-2
   105e4:	010787b3          	add	a5,a5,a6
   105e8:	40b787b3          	sub	a5,a5,a1
   105ec:	01061593          	slli	a1,a2,0x10
   105f0:	00e5e5b3          	or	a1,a1,a4
   105f4:	eb5ff06f          	j	104a8 <__udivdi3+0x14c>
   105f8:	18d5e663          	bltu	a1,a3,10784 <__udivdi3+0x428>
   105fc:	00010737          	lui	a4,0x10
   10600:	04e6f463          	bgeu	a3,a4,10648 <__udivdi3+0x2ec>
   10604:	0ff00813          	li	a6,255
   10608:	00d83733          	sltu	a4,a6,a3
   1060c:	00371713          	slli	a4,a4,0x3
   10610:	00e6d833          	srl	a6,a3,a4
   10614:	8003b597          	auipc	a1,0x8003b
   10618:	18858593          	addi	a1,a1,392 # 8004b79c <__stack_top+0xfffd494c>
   1061c:	010585b3          	add	a1,a1,a6
   10620:	0005c803          	lbu	a6,0(a1)
   10624:	02000593          	li	a1,32
   10628:	00e80833          	add	a6,a6,a4
   1062c:	410585b3          	sub	a1,a1,a6
   10630:	02059663          	bnez	a1,1065c <__udivdi3+0x300>
   10634:	00100713          	li	a4,1
   10638:	eef6ece3          	bltu	a3,a5,10530 <__udivdi3+0x1d4>
   1063c:	00c53533          	sltu	a0,a0,a2
   10640:	00154713          	xori	a4,a0,1
   10644:	eedff06f          	j	10530 <__udivdi3+0x1d4>
   10648:	010005b7          	lui	a1,0x1000
   1064c:	01000713          	li	a4,16
   10650:	fcb6e0e3          	bltu	a3,a1,10610 <__udivdi3+0x2b4>
   10654:	01800713          	li	a4,24
   10658:	fb9ff06f          	j	10610 <__udivdi3+0x2b4>
   1065c:	01065733          	srl	a4,a2,a6
   10660:	00b696b3          	sll	a3,a3,a1
   10664:	00d766b3          	or	a3,a4,a3
   10668:	0106de93          	srli	t4,a3,0x10
   1066c:	0107d733          	srl	a4,a5,a6
   10670:	03d778b3          	remu	a7,a4,t4
   10674:	00b797b3          	sll	a5,a5,a1
   10678:	01055833          	srl	a6,a0,a6
   1067c:	00f86333          	or	t1,a6,a5
   10680:	01069793          	slli	a5,a3,0x10
   10684:	0107d793          	srli	a5,a5,0x10
   10688:	01035813          	srli	a6,t1,0x10
   1068c:	00b61633          	sll	a2,a2,a1
   10690:	03d75733          	divu	a4,a4,t4
   10694:	01089893          	slli	a7,a7,0x10
   10698:	0108e833          	or	a6,a7,a6
   1069c:	02e78f33          	mul	t5,a5,a4
   106a0:	00070e13          	mv	t3,a4
   106a4:	01e87e63          	bgeu	a6,t5,106c0 <__udivdi3+0x364>
   106a8:	00d80833          	add	a6,a6,a3
   106ac:	fff70e13          	addi	t3,a4,-1 # ffff <_exit+0x1f>
   106b0:	00d86863          	bltu	a6,a3,106c0 <__udivdi3+0x364>
   106b4:	01e87663          	bgeu	a6,t5,106c0 <__udivdi3+0x364>
   106b8:	ffe70e13          	addi	t3,a4,-2
   106bc:	00d80833          	add	a6,a6,a3
   106c0:	41e80833          	sub	a6,a6,t5
   106c4:	03d878b3          	remu	a7,a6,t4
   106c8:	03d85833          	divu	a6,a6,t4
   106cc:	01089893          	slli	a7,a7,0x10
   106d0:	03078eb3          	mul	t4,a5,a6
   106d4:	01031793          	slli	a5,t1,0x10
   106d8:	0107d793          	srli	a5,a5,0x10
   106dc:	00f8e7b3          	or	a5,a7,a5
   106e0:	00080713          	mv	a4,a6
   106e4:	01d7fe63          	bgeu	a5,t4,10700 <__udivdi3+0x3a4>
   106e8:	00d787b3          	add	a5,a5,a3
   106ec:	fff80713          	addi	a4,a6,-1
   106f0:	00d7e863          	bltu	a5,a3,10700 <__udivdi3+0x3a4>
   106f4:	01d7f663          	bgeu	a5,t4,10700 <__udivdi3+0x3a4>
   106f8:	ffe80713          	addi	a4,a6,-2
   106fc:	00d787b3          	add	a5,a5,a3
   10700:	010e1e13          	slli	t3,t3,0x10
   10704:	41d787b3          	sub	a5,a5,t4
   10708:	00010eb7          	lui	t4,0x10
   1070c:	00ee6733          	or	a4,t3,a4
   10710:	fffe8813          	addi	a6,t4,-1 # ffff <_exit+0x1f>
   10714:	01077333          	and	t1,a4,a6
   10718:	01075893          	srli	a7,a4,0x10
   1071c:	01067833          	and	a6,a2,a6
   10720:	01065613          	srli	a2,a2,0x10
   10724:	03030e33          	mul	t3,t1,a6
   10728:	03088833          	mul	a6,a7,a6
   1072c:	010e5693          	srli	a3,t3,0x10
   10730:	02c30333          	mul	t1,t1,a2
   10734:	01030333          	add	t1,t1,a6
   10738:	006686b3          	add	a3,a3,t1
   1073c:	02c888b3          	mul	a7,a7,a2
   10740:	0106f463          	bgeu	a3,a6,10748 <__udivdi3+0x3ec>
   10744:	01d888b3          	add	a7,a7,t4
   10748:	0106d613          	srli	a2,a3,0x10
   1074c:	011608b3          	add	a7,a2,a7
   10750:	0317e663          	bltu	a5,a7,1077c <__udivdi3+0x420>
   10754:	cf179ae3          	bne	a5,a7,10448 <__udivdi3+0xec>
   10758:	000107b7          	lui	a5,0x10
   1075c:	fff78793          	addi	a5,a5,-1 # ffff <_exit+0x1f>
   10760:	00f6f6b3          	and	a3,a3,a5
   10764:	01069693          	slli	a3,a3,0x10
   10768:	00fe7e33          	and	t3,t3,a5
   1076c:	00b51533          	sll	a0,a0,a1
   10770:	01c686b3          	add	a3,a3,t3
   10774:	00000593          	li	a1,0
   10778:	dad57ce3          	bgeu	a0,a3,10530 <__udivdi3+0x1d4>
   1077c:	fff70713          	addi	a4,a4,-1
   10780:	cc9ff06f          	j	10448 <__udivdi3+0xec>
   10784:	00000593          	li	a1,0
   10788:	00000713          	li	a4,0
   1078c:	da5ff06f          	j	10530 <__udivdi3+0x1d4>

00010790 <__umoddi3>:
   10790:	00060893          	mv	a7,a2
   10794:	00068713          	mv	a4,a3
   10798:	00050793          	mv	a5,a0
   1079c:	00058813          	mv	a6,a1
   107a0:	22069c63          	bnez	a3,109d8 <__umoddi3+0x248>
   107a4:	8003b697          	auipc	a3,0x8003b
   107a8:	ff868693          	addi	a3,a3,-8 # 8004b79c <__stack_top+0xfffd494c>
   107ac:	0cc5fc63          	bgeu	a1,a2,10884 <__umoddi3+0xf4>
   107b0:	00010337          	lui	t1,0x10
   107b4:	0a667e63          	bgeu	a2,t1,10870 <__umoddi3+0xe0>
   107b8:	0ff00313          	li	t1,255
   107bc:	00c37463          	bgeu	t1,a2,107c4 <__umoddi3+0x34>
   107c0:	00800713          	li	a4,8
   107c4:	00e65333          	srl	t1,a2,a4
   107c8:	006686b3          	add	a3,a3,t1
   107cc:	0006ce03          	lbu	t3,0(a3)
   107d0:	02000313          	li	t1,32
   107d4:	00ee0e33          	add	t3,t3,a4
   107d8:	41c30333          	sub	t1,t1,t3
   107dc:	00030c63          	beqz	t1,107f4 <__umoddi3+0x64>
   107e0:	006595b3          	sll	a1,a1,t1
   107e4:	01c55e33          	srl	t3,a0,t3
   107e8:	006618b3          	sll	a7,a2,t1
   107ec:	00be6833          	or	a6,t3,a1
   107f0:	006517b3          	sll	a5,a0,t1
   107f4:	0108d613          	srli	a2,a7,0x10
   107f8:	02c87733          	remu	a4,a6,a2
   107fc:	01089513          	slli	a0,a7,0x10
   10800:	01055513          	srli	a0,a0,0x10
   10804:	0107d693          	srli	a3,a5,0x10
   10808:	02c85833          	divu	a6,a6,a2
   1080c:	01071713          	slli	a4,a4,0x10
   10810:	00d766b3          	or	a3,a4,a3
   10814:	03050833          	mul	a6,a0,a6
   10818:	0106fa63          	bgeu	a3,a6,1082c <__umoddi3+0x9c>
   1081c:	011686b3          	add	a3,a3,a7
   10820:	0116e663          	bltu	a3,a7,1082c <__umoddi3+0x9c>
   10824:	0106f463          	bgeu	a3,a6,1082c <__umoddi3+0x9c>
   10828:	011686b3          	add	a3,a3,a7
   1082c:	410686b3          	sub	a3,a3,a6
   10830:	02c6f733          	remu	a4,a3,a2
   10834:	01079793          	slli	a5,a5,0x10
   10838:	0107d793          	srli	a5,a5,0x10
   1083c:	02c6d6b3          	divu	a3,a3,a2
   10840:	02d506b3          	mul	a3,a0,a3
   10844:	01071513          	slli	a0,a4,0x10
   10848:	00f567b3          	or	a5,a0,a5
   1084c:	00d7fa63          	bgeu	a5,a3,10860 <__umoddi3+0xd0>
   10850:	011787b3          	add	a5,a5,a7
   10854:	0117e663          	bltu	a5,a7,10860 <__umoddi3+0xd0>
   10858:	00d7f463          	bgeu	a5,a3,10860 <__umoddi3+0xd0>
   1085c:	011787b3          	add	a5,a5,a7
   10860:	40d787b3          	sub	a5,a5,a3
   10864:	0067d533          	srl	a0,a5,t1
   10868:	00000593          	li	a1,0
   1086c:	00008067          	ret
   10870:	01000337          	lui	t1,0x1000
   10874:	01000713          	li	a4,16
   10878:	f46666e3          	bltu	a2,t1,107c4 <__umoddi3+0x34>
   1087c:	01800713          	li	a4,24
   10880:	f45ff06f          	j	107c4 <__umoddi3+0x34>
   10884:	00061663          	bnez	a2,10890 <__umoddi3+0x100>
   10888:	00100613          	li	a2,1
   1088c:	031658b3          	divu	a7,a2,a7
   10890:	00010637          	lui	a2,0x10
   10894:	0ac8f263          	bgeu	a7,a2,10938 <__umoddi3+0x1a8>
   10898:	0ff00613          	li	a2,255
   1089c:	01167463          	bgeu	a2,a7,108a4 <__umoddi3+0x114>
   108a0:	00800713          	li	a4,8
   108a4:	00e8d633          	srl	a2,a7,a4
   108a8:	00c686b3          	add	a3,a3,a2
   108ac:	0006ce03          	lbu	t3,0(a3)
   108b0:	02000313          	li	t1,32
   108b4:	00ee0e33          	add	t3,t3,a4
   108b8:	41c30333          	sub	t1,t1,t3
   108bc:	08031863          	bnez	t1,1094c <__umoddi3+0x1bc>
   108c0:	411585b3          	sub	a1,a1,a7
   108c4:	0108d713          	srli	a4,a7,0x10
   108c8:	01089513          	slli	a0,a7,0x10
   108cc:	01055513          	srli	a0,a0,0x10
   108d0:	0107d613          	srli	a2,a5,0x10
   108d4:	02e5f6b3          	remu	a3,a1,a4
   108d8:	02e5d5b3          	divu	a1,a1,a4
   108dc:	01069693          	slli	a3,a3,0x10
   108e0:	00c6e6b3          	or	a3,a3,a2
   108e4:	02b505b3          	mul	a1,a0,a1
   108e8:	00b6fa63          	bgeu	a3,a1,108fc <__umoddi3+0x16c>
   108ec:	011686b3          	add	a3,a3,a7
   108f0:	0116e663          	bltu	a3,a7,108fc <__umoddi3+0x16c>
   108f4:	00b6f463          	bgeu	a3,a1,108fc <__umoddi3+0x16c>
   108f8:	011686b3          	add	a3,a3,a7
   108fc:	40b685b3          	sub	a1,a3,a1
   10900:	02e5f6b3          	remu	a3,a1,a4
   10904:	01079793          	slli	a5,a5,0x10
   10908:	0107d793          	srli	a5,a5,0x10
   1090c:	02e5d5b3          	divu	a1,a1,a4
   10910:	02b505b3          	mul	a1,a0,a1
   10914:	01069513          	slli	a0,a3,0x10
   10918:	00f567b3          	or	a5,a0,a5
   1091c:	00b7fa63          	bgeu	a5,a1,10930 <__umoddi3+0x1a0>
   10920:	011787b3          	add	a5,a5,a7
   10924:	0117e663          	bltu	a5,a7,10930 <__umoddi3+0x1a0>
   10928:	00b7f463          	bgeu	a5,a1,10930 <__umoddi3+0x1a0>
   1092c:	011787b3          	add	a5,a5,a7
   10930:	40b787b3          	sub	a5,a5,a1
   10934:	f31ff06f          	j	10864 <__umoddi3+0xd4>
   10938:	01000637          	lui	a2,0x1000
   1093c:	01000713          	li	a4,16
   10940:	f6c8e2e3          	bltu	a7,a2,108a4 <__umoddi3+0x114>
   10944:	01800713          	li	a4,24
   10948:	f5dff06f          	j	108a4 <__umoddi3+0x114>
   1094c:	006898b3          	sll	a7,a7,t1
   10950:	01c5d733          	srl	a4,a1,t3
   10954:	006517b3          	sll	a5,a0,t1
   10958:	01c55e33          	srl	t3,a0,t3
   1095c:	0108d513          	srli	a0,a7,0x10
   10960:	02a776b3          	remu	a3,a4,a0
   10964:	006595b3          	sll	a1,a1,t1
   10968:	00be6e33          	or	t3,t3,a1
   1096c:	01089593          	slli	a1,a7,0x10
   10970:	0105d593          	srli	a1,a1,0x10
   10974:	010e5613          	srli	a2,t3,0x10
   10978:	02a75733          	divu	a4,a4,a0
   1097c:	01069693          	slli	a3,a3,0x10
   10980:	00c6e6b3          	or	a3,a3,a2
   10984:	02e58733          	mul	a4,a1,a4
   10988:	00e6fa63          	bgeu	a3,a4,1099c <__umoddi3+0x20c>
   1098c:	011686b3          	add	a3,a3,a7
   10990:	0116e663          	bltu	a3,a7,1099c <__umoddi3+0x20c>
   10994:	00e6f463          	bgeu	a3,a4,1099c <__umoddi3+0x20c>
   10998:	011686b3          	add	a3,a3,a7
   1099c:	40e68633          	sub	a2,a3,a4
   109a0:	02a676b3          	remu	a3,a2,a0
   109a4:	010e1e13          	slli	t3,t3,0x10
   109a8:	010e5e13          	srli	t3,t3,0x10
   109ac:	02a65633          	divu	a2,a2,a0
   109b0:	01069693          	slli	a3,a3,0x10
   109b4:	02c58633          	mul	a2,a1,a2
   109b8:	01c6e5b3          	or	a1,a3,t3
   109bc:	00c5fa63          	bgeu	a1,a2,109d0 <__umoddi3+0x240>
   109c0:	011585b3          	add	a1,a1,a7
   109c4:	0115e663          	bltu	a1,a7,109d0 <__umoddi3+0x240>
   109c8:	00c5f463          	bgeu	a1,a2,109d0 <__umoddi3+0x240>
   109cc:	011585b3          	add	a1,a1,a7
   109d0:	40c585b3          	sub	a1,a1,a2
   109d4:	ef1ff06f          	j	108c4 <__umoddi3+0x134>
   109d8:	e8d5eae3          	bltu	a1,a3,1086c <__umoddi3+0xdc>
   109dc:	00010737          	lui	a4,0x10
   109e0:	04e6fc63          	bgeu	a3,a4,10a38 <__umoddi3+0x2a8>
   109e4:	0ff00e93          	li	t4,255
   109e8:	00deb733          	sltu	a4,t4,a3
   109ec:	00371713          	slli	a4,a4,0x3
   109f0:	00e6d333          	srl	t1,a3,a4
   109f4:	8003b897          	auipc	a7,0x8003b
   109f8:	da888893          	addi	a7,a7,-600 # 8004b79c <__stack_top+0xfffd494c>
   109fc:	006888b3          	add	a7,a7,t1
   10a00:	0008ce83          	lbu	t4,0(a7)
   10a04:	02000e13          	li	t3,32
   10a08:	00ee8eb3          	add	t4,t4,a4
   10a0c:	41de0e33          	sub	t3,t3,t4
   10a10:	020e1e63          	bnez	t3,10a4c <__umoddi3+0x2bc>
   10a14:	00b6e463          	bltu	a3,a1,10a1c <__umoddi3+0x28c>
   10a18:	00c56a63          	bltu	a0,a2,10a2c <__umoddi3+0x29c>
   10a1c:	40c507b3          	sub	a5,a0,a2
   10a20:	40d585b3          	sub	a1,a1,a3
   10a24:	00f53533          	sltu	a0,a0,a5
   10a28:	40a58833          	sub	a6,a1,a0
   10a2c:	00078513          	mv	a0,a5
   10a30:	00080593          	mv	a1,a6
   10a34:	e39ff06f          	j	1086c <__umoddi3+0xdc>
   10a38:	010008b7          	lui	a7,0x1000
   10a3c:	01000713          	li	a4,16
   10a40:	fb16e8e3          	bltu	a3,a7,109f0 <__umoddi3+0x260>
   10a44:	01800713          	li	a4,24
   10a48:	fa9ff06f          	j	109f0 <__umoddi3+0x260>
   10a4c:	01d65733          	srl	a4,a2,t4
   10a50:	01c696b3          	sll	a3,a3,t3
   10a54:	00d766b3          	or	a3,a4,a3
   10a58:	0106d813          	srli	a6,a3,0x10
   10a5c:	01d5d733          	srl	a4,a1,t4
   10a60:	03077333          	remu	t1,a4,a6
   10a64:	01c595b3          	sll	a1,a1,t3
   10a68:	01d557b3          	srl	a5,a0,t4
   10a6c:	00b7e7b3          	or	a5,a5,a1
   10a70:	01069593          	slli	a1,a3,0x10
   10a74:	0105d593          	srli	a1,a1,0x10
   10a78:	0107d893          	srli	a7,a5,0x10
   10a7c:	01c61633          	sll	a2,a2,t3
   10a80:	01c51533          	sll	a0,a0,t3
   10a84:	03075733          	divu	a4,a4,a6
   10a88:	01031313          	slli	t1,t1,0x10
   10a8c:	011368b3          	or	a7,t1,a7
   10a90:	02e58f33          	mul	t5,a1,a4
   10a94:	00070313          	mv	t1,a4
   10a98:	01e8fe63          	bgeu	a7,t5,10ab4 <__umoddi3+0x324>
   10a9c:	00d888b3          	add	a7,a7,a3
   10aa0:	fff70313          	addi	t1,a4,-1 # ffff <_exit+0x1f>
   10aa4:	00d8e863          	bltu	a7,a3,10ab4 <__umoddi3+0x324>
   10aa8:	01e8f663          	bgeu	a7,t5,10ab4 <__umoddi3+0x324>
   10aac:	ffe70313          	addi	t1,a4,-2
   10ab0:	00d888b3          	add	a7,a7,a3
   10ab4:	41e888b3          	sub	a7,a7,t5
   10ab8:	0308ff33          	remu	t5,a7,a6
   10abc:	0308d8b3          	divu	a7,a7,a6
   10ac0:	010f1f13          	slli	t5,t5,0x10
   10ac4:	03158833          	mul	a6,a1,a7
   10ac8:	01079593          	slli	a1,a5,0x10
   10acc:	0105d593          	srli	a1,a1,0x10
   10ad0:	00bf65b3          	or	a1,t5,a1
   10ad4:	00088793          	mv	a5,a7
   10ad8:	0105fe63          	bgeu	a1,a6,10af4 <__umoddi3+0x364>
   10adc:	00d585b3          	add	a1,a1,a3
   10ae0:	fff88793          	addi	a5,a7,-1 # ffffff <__trunctfdf2+0xfec697>
   10ae4:	00d5e863          	bltu	a1,a3,10af4 <__umoddi3+0x364>
   10ae8:	0105f663          	bgeu	a1,a6,10af4 <__umoddi3+0x364>
   10aec:	ffe88793          	addi	a5,a7,-2
   10af0:	00d585b3          	add	a1,a1,a3
   10af4:	01031313          	slli	t1,t1,0x10
   10af8:	00010f37          	lui	t5,0x10
   10afc:	00f36333          	or	t1,t1,a5
   10b00:	ffff0793          	addi	a5,t5,-1 # ffff <_exit+0x1f>
   10b04:	00f378b3          	and	a7,t1,a5
   10b08:	410585b3          	sub	a1,a1,a6
   10b0c:	01035313          	srli	t1,t1,0x10
   10b10:	01065813          	srli	a6,a2,0x10
   10b14:	00f677b3          	and	a5,a2,a5
   10b18:	02f88733          	mul	a4,a7,a5
   10b1c:	02f307b3          	mul	a5,t1,a5
   10b20:	030888b3          	mul	a7,a7,a6
   10b24:	03030333          	mul	t1,t1,a6
   10b28:	00f888b3          	add	a7,a7,a5
   10b2c:	01075813          	srli	a6,a4,0x10
   10b30:	01180833          	add	a6,a6,a7
   10b34:	00f87463          	bgeu	a6,a5,10b3c <__umoddi3+0x3ac>
   10b38:	01e30333          	add	t1,t1,t5
   10b3c:	01085793          	srli	a5,a6,0x10
   10b40:	00678333          	add	t1,a5,t1
   10b44:	000107b7          	lui	a5,0x10
   10b48:	fff78793          	addi	a5,a5,-1 # ffff <_exit+0x1f>
   10b4c:	00f87833          	and	a6,a6,a5
   10b50:	01081813          	slli	a6,a6,0x10
   10b54:	00f77733          	and	a4,a4,a5
   10b58:	00e80733          	add	a4,a6,a4
   10b5c:	0065e663          	bltu	a1,t1,10b68 <__umoddi3+0x3d8>
   10b60:	00659e63          	bne	a1,t1,10b7c <__umoddi3+0x3ec>
   10b64:	00e57c63          	bgeu	a0,a4,10b7c <__umoddi3+0x3ec>
   10b68:	40c70633          	sub	a2,a4,a2
   10b6c:	00c73733          	sltu	a4,a4,a2
   10b70:	00d70733          	add	a4,a4,a3
   10b74:	40e30333          	sub	t1,t1,a4
   10b78:	00060713          	mv	a4,a2
   10b7c:	40e50733          	sub	a4,a0,a4
   10b80:	00e53533          	sltu	a0,a0,a4
   10b84:	406585b3          	sub	a1,a1,t1
   10b88:	40a585b3          	sub	a1,a1,a0
   10b8c:	01d597b3          	sll	a5,a1,t4
   10b90:	01c75733          	srl	a4,a4,t3
   10b94:	00e7e533          	or	a0,a5,a4
   10b98:	01c5d5b3          	srl	a1,a1,t3
   10b9c:	cd1ff06f          	j	1086c <__umoddi3+0xdc>

00010ba0 <__eqtf2>:
   10ba0:	00c52783          	lw	a5,12(a0)
   10ba4:	0005af03          	lw	t5,0(a1) # 1000000 <__trunctfdf2+0xfec698>
   10ba8:	0045af83          	lw	t6,4(a1)
   10bac:	0085a283          	lw	t0,8(a1)
   10bb0:	00c5a583          	lw	a1,12(a1)
   10bb4:	00008737          	lui	a4,0x8
   10bb8:	0107d693          	srli	a3,a5,0x10
   10bbc:	fff70713          	addi	a4,a4,-1 # 7fff <_svfprintf_r+0x8ef>
   10bc0:	01079813          	slli	a6,a5,0x10
   10bc4:	01059e93          	slli	t4,a1,0x10
   10bc8:	01f7d613          	srli	a2,a5,0x1f
   10bcc:	00e6f6b3          	and	a3,a3,a4
   10bd0:	0105d793          	srli	a5,a1,0x10
   10bd4:	ff010113          	addi	sp,sp,-16
   10bd8:	00052883          	lw	a7,0(a0)
   10bdc:	00452303          	lw	t1,4(a0)
   10be0:	00852e03          	lw	t3,8(a0)
   10be4:	01085813          	srli	a6,a6,0x10
   10be8:	010ede93          	srli	t4,t4,0x10
   10bec:	00e7f7b3          	and	a5,a5,a4
   10bf0:	01f5d593          	srli	a1,a1,0x1f
   10bf4:	02e69063          	bne	a3,a4,10c14 <__eqtf2+0x74>
   10bf8:	0068e733          	or	a4,a7,t1
   10bfc:	01c76733          	or	a4,a4,t3
   10c00:	01076733          	or	a4,a4,a6
   10c04:	00100513          	li	a0,1
   10c08:	04071a63          	bnez	a4,10c5c <__eqtf2+0xbc>
   10c0c:	04d79863          	bne	a5,a3,10c5c <__eqtf2+0xbc>
   10c10:	0080006f          	j	10c18 <__eqtf2+0x78>
   10c14:	00e79c63          	bne	a5,a4,10c2c <__eqtf2+0x8c>
   10c18:	01ff6733          	or	a4,t5,t6
   10c1c:	00576733          	or	a4,a4,t0
   10c20:	01d76733          	or	a4,a4,t4
   10c24:	00100513          	li	a0,1
   10c28:	02071a63          	bnez	a4,10c5c <__eqtf2+0xbc>
   10c2c:	00100513          	li	a0,1
   10c30:	02d79663          	bne	a5,a3,10c5c <__eqtf2+0xbc>
   10c34:	03e89463          	bne	a7,t5,10c5c <__eqtf2+0xbc>
   10c38:	03f31263          	bne	t1,t6,10c5c <__eqtf2+0xbc>
   10c3c:	025e1063          	bne	t3,t0,10c5c <__eqtf2+0xbc>
   10c40:	01d81e63          	bne	a6,t4,10c5c <__eqtf2+0xbc>
   10c44:	02b60063          	beq	a2,a1,10c64 <__eqtf2+0xc4>
   10c48:	00079a63          	bnez	a5,10c5c <__eqtf2+0xbc>
   10c4c:	0068e533          	or	a0,a7,t1
   10c50:	01c56533          	or	a0,a0,t3
   10c54:	01056533          	or	a0,a0,a6
   10c58:	00a03533          	snez	a0,a0
   10c5c:	01010113          	addi	sp,sp,16
   10c60:	00008067          	ret
   10c64:	00000513          	li	a0,0
   10c68:	ff5ff06f          	j	10c5c <__eqtf2+0xbc>

00010c6c <__getf2>:
   10c6c:	00c52783          	lw	a5,12(a0)
   10c70:	00c5a603          	lw	a2,12(a1)
   10c74:	0005a283          	lw	t0,0(a1)
   10c78:	0045a883          	lw	a7,4(a1)
   10c7c:	0085af03          	lw	t5,8(a1)
   10c80:	000085b7          	lui	a1,0x8
   10c84:	0107d693          	srli	a3,a5,0x10
   10c88:	fff58593          	addi	a1,a1,-1 # 7fff <_svfprintf_r+0x8ef>
   10c8c:	01079313          	slli	t1,a5,0x10
   10c90:	01061e13          	slli	t3,a2,0x10
   10c94:	01065713          	srli	a4,a2,0x10
   10c98:	00b6f6b3          	and	a3,a3,a1
   10c9c:	ff010113          	addi	sp,sp,-16
   10ca0:	00052f83          	lw	t6,0(a0)
   10ca4:	00452803          	lw	a6,4(a0)
   10ca8:	00852e83          	lw	t4,8(a0)
   10cac:	01035313          	srli	t1,t1,0x10
   10cb0:	01f7d793          	srli	a5,a5,0x1f
   10cb4:	010e5e13          	srli	t3,t3,0x10
   10cb8:	00b77733          	and	a4,a4,a1
   10cbc:	01f65613          	srli	a2,a2,0x1f
   10cc0:	02b69063          	bne	a3,a1,10ce0 <__getf2+0x74>
   10cc4:	01f865b3          	or	a1,a6,t6
   10cc8:	01d5e5b3          	or	a1,a1,t4
   10ccc:	0065e5b3          	or	a1,a1,t1
   10cd0:	ffe00513          	li	a0,-2
   10cd4:	0c058863          	beqz	a1,10da4 <__getf2+0x138>
   10cd8:	01010113          	addi	sp,sp,16
   10cdc:	00008067          	ret
   10ce0:	00b71c63          	bne	a4,a1,10cf8 <__getf2+0x8c>
   10ce4:	0058e5b3          	or	a1,a7,t0
   10ce8:	01e5e5b3          	or	a1,a1,t5
   10cec:	01c5e5b3          	or	a1,a1,t3
   10cf0:	ffe00513          	li	a0,-2
   10cf4:	fe0592e3          	bnez	a1,10cd8 <__getf2+0x6c>
   10cf8:	0a069863          	bnez	a3,10da8 <__getf2+0x13c>
   10cfc:	01f86533          	or	a0,a6,t6
   10d00:	01d56533          	or	a0,a0,t4
   10d04:	00656533          	or	a0,a0,t1
   10d08:	00153513          	seqz	a0,a0
   10d0c:	00071a63          	bnez	a4,10d20 <__getf2+0xb4>
   10d10:	0058e5b3          	or	a1,a7,t0
   10d14:	01e5e5b3          	or	a1,a1,t5
   10d18:	01c5e5b3          	or	a1,a1,t3
   10d1c:	06058663          	beqz	a1,10d88 <__getf2+0x11c>
   10d20:	00051a63          	bnez	a0,10d34 <__getf2+0xc8>
   10d24:	00c78e63          	beq	a5,a2,10d40 <__getf2+0xd4>
   10d28:	00100513          	li	a0,1
   10d2c:	fa0786e3          	beqz	a5,10cd8 <__getf2+0x6c>
   10d30:	0080006f          	j	10d38 <__getf2+0xcc>
   10d34:	fa0612e3          	bnez	a2,10cd8 <__getf2+0x6c>
   10d38:	fff00513          	li	a0,-1
   10d3c:	f9dff06f          	j	10cd8 <__getf2+0x6c>
   10d40:	fed744e3          	blt	a4,a3,10d28 <__getf2+0xbc>
   10d44:	00e6da63          	bge	a3,a4,10d58 <__getf2+0xec>
   10d48:	fff00513          	li	a0,-1
   10d4c:	f80786e3          	beqz	a5,10cd8 <__getf2+0x6c>
   10d50:	00100513          	li	a0,1
   10d54:	f85ff06f          	j	10cd8 <__getf2+0x6c>
   10d58:	fc6e68e3          	bltu	t3,t1,10d28 <__getf2+0xbc>
   10d5c:	03c31c63          	bne	t1,t3,10d94 <__getf2+0x128>
   10d60:	fddf64e3          	bltu	t5,t4,10d28 <__getf2+0xbc>
   10d64:	03df1c63          	bne	t5,t4,10d9c <__getf2+0x130>
   10d68:	fd08e0e3          	bltu	a7,a6,10d28 <__getf2+0xbc>
   10d6c:	01089463          	bne	a7,a6,10d74 <__getf2+0x108>
   10d70:	fbf2ece3          	bltu	t0,t6,10d28 <__getf2+0xbc>
   10d74:	fd186ae3          	bltu	a6,a7,10d48 <__getf2+0xdc>
   10d78:	00000513          	li	a0,0
   10d7c:	f5089ee3          	bne	a7,a6,10cd8 <__getf2+0x6c>
   10d80:	f45ffce3          	bgeu	t6,t0,10cd8 <__getf2+0x6c>
   10d84:	fc5ff06f          	j	10d48 <__getf2+0xdc>
   10d88:	fa0500e3          	beqz	a0,10d28 <__getf2+0xbc>
   10d8c:	00000513          	li	a0,0
   10d90:	f49ff06f          	j	10cd8 <__getf2+0x6c>
   10d94:	fbc36ae3          	bltu	t1,t3,10d48 <__getf2+0xdc>
   10d98:	ff5ff06f          	j	10d8c <__getf2+0x120>
   10d9c:	fbeee6e3          	bltu	t4,t5,10d48 <__getf2+0xdc>
   10da0:	fedff06f          	j	10d8c <__getf2+0x120>
   10da4:	f4d700e3          	beq	a4,a3,10ce4 <__getf2+0x78>
   10da8:	f6071ee3          	bnez	a4,10d24 <__getf2+0xb8>
   10dac:	00000513          	li	a0,0
   10db0:	f61ff06f          	j	10d10 <__getf2+0xa4>

00010db4 <__letf2>:
   10db4:	00c52783          	lw	a5,12(a0)
   10db8:	00c5a603          	lw	a2,12(a1)
   10dbc:	0005a283          	lw	t0,0(a1)
   10dc0:	0045a883          	lw	a7,4(a1)
   10dc4:	0085af03          	lw	t5,8(a1)
   10dc8:	000085b7          	lui	a1,0x8
   10dcc:	0107d693          	srli	a3,a5,0x10
   10dd0:	fff58593          	addi	a1,a1,-1 # 7fff <_svfprintf_r+0x8ef>
   10dd4:	01079313          	slli	t1,a5,0x10
   10dd8:	01061e13          	slli	t3,a2,0x10
   10ddc:	01065713          	srli	a4,a2,0x10
   10de0:	00b6f6b3          	and	a3,a3,a1
   10de4:	ff010113          	addi	sp,sp,-16
   10de8:	00052f83          	lw	t6,0(a0)
   10dec:	00452803          	lw	a6,4(a0)
   10df0:	00852e83          	lw	t4,8(a0)
   10df4:	01035313          	srli	t1,t1,0x10
   10df8:	01f7d793          	srli	a5,a5,0x1f
   10dfc:	010e5e13          	srli	t3,t3,0x10
   10e00:	00b77733          	and	a4,a4,a1
   10e04:	01f65613          	srli	a2,a2,0x1f
   10e08:	02b69063          	bne	a3,a1,10e28 <__letf2+0x74>
   10e0c:	01f865b3          	or	a1,a6,t6
   10e10:	01d5e5b3          	or	a1,a1,t4
   10e14:	0065e5b3          	or	a1,a1,t1
   10e18:	00200513          	li	a0,2
   10e1c:	0c058863          	beqz	a1,10eec <__letf2+0x138>
   10e20:	01010113          	addi	sp,sp,16
   10e24:	00008067          	ret
   10e28:	00b71c63          	bne	a4,a1,10e40 <__letf2+0x8c>
   10e2c:	0058e5b3          	or	a1,a7,t0
   10e30:	01e5e5b3          	or	a1,a1,t5
   10e34:	01c5e5b3          	or	a1,a1,t3
   10e38:	00200513          	li	a0,2
   10e3c:	fe0592e3          	bnez	a1,10e20 <__letf2+0x6c>
   10e40:	0a069863          	bnez	a3,10ef0 <__letf2+0x13c>
   10e44:	01f86533          	or	a0,a6,t6
   10e48:	01d56533          	or	a0,a0,t4
   10e4c:	00656533          	or	a0,a0,t1
   10e50:	00153513          	seqz	a0,a0
   10e54:	00071a63          	bnez	a4,10e68 <__letf2+0xb4>
   10e58:	0058e5b3          	or	a1,a7,t0
   10e5c:	01e5e5b3          	or	a1,a1,t5
   10e60:	01c5e5b3          	or	a1,a1,t3
   10e64:	06058663          	beqz	a1,10ed0 <__letf2+0x11c>
   10e68:	00051a63          	bnez	a0,10e7c <__letf2+0xc8>
   10e6c:	00c78e63          	beq	a5,a2,10e88 <__letf2+0xd4>
   10e70:	00100513          	li	a0,1
   10e74:	fa0786e3          	beqz	a5,10e20 <__letf2+0x6c>
   10e78:	0080006f          	j	10e80 <__letf2+0xcc>
   10e7c:	fa0612e3          	bnez	a2,10e20 <__letf2+0x6c>
   10e80:	fff00513          	li	a0,-1
   10e84:	f9dff06f          	j	10e20 <__letf2+0x6c>
   10e88:	fed744e3          	blt	a4,a3,10e70 <__letf2+0xbc>
   10e8c:	00e6da63          	bge	a3,a4,10ea0 <__letf2+0xec>
   10e90:	fff00513          	li	a0,-1
   10e94:	f80786e3          	beqz	a5,10e20 <__letf2+0x6c>
   10e98:	00100513          	li	a0,1
   10e9c:	f85ff06f          	j	10e20 <__letf2+0x6c>
   10ea0:	fc6e68e3          	bltu	t3,t1,10e70 <__letf2+0xbc>
   10ea4:	03c31c63          	bne	t1,t3,10edc <__letf2+0x128>
   10ea8:	fddf64e3          	bltu	t5,t4,10e70 <__letf2+0xbc>
   10eac:	03df1c63          	bne	t5,t4,10ee4 <__letf2+0x130>
   10eb0:	fd08e0e3          	bltu	a7,a6,10e70 <__letf2+0xbc>
   10eb4:	01089463          	bne	a7,a6,10ebc <__letf2+0x108>
   10eb8:	fbf2ece3          	bltu	t0,t6,10e70 <__letf2+0xbc>
   10ebc:	fd186ae3          	bltu	a6,a7,10e90 <__letf2+0xdc>
   10ec0:	00000513          	li	a0,0
   10ec4:	f5089ee3          	bne	a7,a6,10e20 <__letf2+0x6c>
   10ec8:	f45ffce3          	bgeu	t6,t0,10e20 <__letf2+0x6c>
   10ecc:	fc5ff06f          	j	10e90 <__letf2+0xdc>
   10ed0:	fa0500e3          	beqz	a0,10e70 <__letf2+0xbc>
   10ed4:	00000513          	li	a0,0
   10ed8:	f49ff06f          	j	10e20 <__letf2+0x6c>
   10edc:	fbc36ae3          	bltu	t1,t3,10e90 <__letf2+0xdc>
   10ee0:	ff5ff06f          	j	10ed4 <__letf2+0x120>
   10ee4:	fbeee6e3          	bltu	t4,t5,10e90 <__letf2+0xdc>
   10ee8:	fedff06f          	j	10ed4 <__letf2+0x120>
   10eec:	f4d700e3          	beq	a4,a3,10e2c <__letf2+0x78>
   10ef0:	f6071ee3          	bnez	a4,10e6c <__letf2+0xb8>
   10ef4:	00000513          	li	a0,0
   10ef8:	f61ff06f          	j	10e58 <__letf2+0xa4>

00010efc <__multf3>:
   10efc:	f4010113          	addi	sp,sp,-192
   10f00:	0b312623          	sw	s3,172(sp)
   10f04:	00c5a983          	lw	s3,12(a1)
   10f08:	0005a683          	lw	a3,0(a1)
   10f0c:	0045a783          	lw	a5,4(a1)
   10f10:	00a12623          	sw	a0,12(sp)
   10f14:	0085a503          	lw	a0,8(a1)
   10f18:	01099713          	slli	a4,s3,0x10
   10f1c:	0b212823          	sw	s2,176(sp)
   10f20:	0b412423          	sw	s4,168(sp)
   10f24:	0b512223          	sw	s5,164(sp)
   10f28:	0b612023          	sw	s6,160(sp)
   10f2c:	00062a03          	lw	s4,0(a2) # 1000000 <__trunctfdf2+0xfec698>
   10f30:	00462b03          	lw	s6,4(a2)
   10f34:	00862a83          	lw	s5,8(a2)
   10f38:	00c62903          	lw	s2,12(a2)
   10f3c:	00008637          	lui	a2,0x8
   10f40:	0a912a23          	sw	s1,180(sp)
   10f44:	01075713          	srli	a4,a4,0x10
   10f48:	0109d493          	srli	s1,s3,0x10
   10f4c:	fff60613          	addi	a2,a2,-1 # 7fff <_svfprintf_r+0x8ef>
   10f50:	07312623          	sw	s3,108(sp)
   10f54:	0a112e23          	sw	ra,188(sp)
   10f58:	0a812c23          	sw	s0,184(sp)
   10f5c:	09712e23          	sw	s7,156(sp)
   10f60:	09812c23          	sw	s8,152(sp)
   10f64:	09912a23          	sw	s9,148(sp)
   10f68:	09a12823          	sw	s10,144(sp)
   10f6c:	09b12623          	sw	s11,140(sp)
   10f70:	06d12023          	sw	a3,96(sp)
   10f74:	06f12223          	sw	a5,100(sp)
   10f78:	06a12423          	sw	a0,104(sp)
   10f7c:	02d12823          	sw	a3,48(sp)
   10f80:	02f12a23          	sw	a5,52(sp)
   10f84:	02a12c23          	sw	a0,56(sp)
   10f88:	02e12e23          	sw	a4,60(sp)
   10f8c:	00c4f4b3          	and	s1,s1,a2
   10f90:	01f9d993          	srli	s3,s3,0x1f
   10f94:	12048a63          	beqz	s1,110c8 <__multf3+0x1cc>
   10f98:	26c48063          	beq	s1,a2,111f8 <__multf3+0x2fc>
   10f9c:	000107b7          	lui	a5,0x10
   10fa0:	00f767b3          	or	a5,a4,a5
   10fa4:	02f12e23          	sw	a5,60(sp)
   10fa8:	03010613          	addi	a2,sp,48
   10fac:	03c10793          	addi	a5,sp,60
   10fb0:	0007a703          	lw	a4,0(a5) # 10000 <_exit+0x20>
   10fb4:	ffc7a683          	lw	a3,-4(a5)
   10fb8:	ffc78793          	addi	a5,a5,-4
   10fbc:	00371713          	slli	a4,a4,0x3
   10fc0:	01d6d693          	srli	a3,a3,0x1d
   10fc4:	00d76733          	or	a4,a4,a3
   10fc8:	00e7a223          	sw	a4,4(a5)
   10fcc:	fef612e3          	bne	a2,a5,10fb0 <__multf3+0xb4>
   10fd0:	03012783          	lw	a5,48(sp)
   10fd4:	ffffc537          	lui	a0,0xffffc
   10fd8:	00150513          	addi	a0,a0,1 # ffffc001 <__stack_top+0x7ff851b1>
   10fdc:	00379793          	slli	a5,a5,0x3
   10fe0:	02f12823          	sw	a5,48(sp)
   10fe4:	00a484b3          	add	s1,s1,a0
   10fe8:	00000b93          	li	s7,0
   10fec:	01091513          	slli	a0,s2,0x10
   10ff0:	00008737          	lui	a4,0x8
   10ff4:	01095793          	srli	a5,s2,0x10
   10ff8:	01055513          	srli	a0,a0,0x10
   10ffc:	fff70713          	addi	a4,a4,-1 # 7fff <_svfprintf_r+0x8ef>
   11000:	07212623          	sw	s2,108(sp)
   11004:	07412023          	sw	s4,96(sp)
   11008:	07612223          	sw	s6,100(sp)
   1100c:	07512423          	sw	s5,104(sp)
   11010:	05412023          	sw	s4,64(sp)
   11014:	05612223          	sw	s6,68(sp)
   11018:	05512423          	sw	s5,72(sp)
   1101c:	04a12623          	sw	a0,76(sp)
   11020:	00e7f7b3          	and	a5,a5,a4
   11024:	01f95913          	srli	s2,s2,0x1f
   11028:	1e078c63          	beqz	a5,11220 <__multf3+0x324>
   1102c:	32e78263          	beq	a5,a4,11350 <__multf3+0x454>
   11030:	00010ab7          	lui	s5,0x10
   11034:	01556ab3          	or	s5,a0,s5
   11038:	05512623          	sw	s5,76(sp)
   1103c:	04010593          	addi	a1,sp,64
   11040:	04c10713          	addi	a4,sp,76
   11044:	00072683          	lw	a3,0(a4)
   11048:	ffc72603          	lw	a2,-4(a4)
   1104c:	ffc70713          	addi	a4,a4,-4
   11050:	00369693          	slli	a3,a3,0x3
   11054:	01d65613          	srli	a2,a2,0x1d
   11058:	00c6e6b3          	or	a3,a3,a2
   1105c:	00d72223          	sw	a3,4(a4)
   11060:	fee592e3          	bne	a1,a4,11044 <__multf3+0x148>
   11064:	04012703          	lw	a4,64(sp)
   11068:	ffffc537          	lui	a0,0xffffc
   1106c:	00150513          	addi	a0,a0,1 # ffffc001 <__stack_top+0x7ff851b1>
   11070:	00371713          	slli	a4,a4,0x3
   11074:	04e12023          	sw	a4,64(sp)
   11078:	00a787b3          	add	a5,a5,a0
   1107c:	00000713          	li	a4,0
   11080:	00f487b3          	add	a5,s1,a5
   11084:	02f12023          	sw	a5,32(sp)
   11088:	00178793          	addi	a5,a5,1
   1108c:	00f12e23          	sw	a5,28(sp)
   11090:	002b9793          	slli	a5,s7,0x2
   11094:	0129c6b3          	xor	a3,s3,s2
   11098:	00e7e7b3          	or	a5,a5,a4
   1109c:	00d12823          	sw	a3,16(sp)
   110a0:	fff78793          	addi	a5,a5,-1
   110a4:	00e00693          	li	a3,14
   110a8:	2cf6e863          	bltu	a3,a5,11378 <__multf3+0x47c>
   110ac:	8003b697          	auipc	a3,0x8003b
   110b0:	1b468693          	addi	a3,a3,436 # 8004c260 <__stack_top+0xfffd5410>
   110b4:	00279793          	slli	a5,a5,0x2
   110b8:	00d787b3          	add	a5,a5,a3
   110bc:	0007a783          	lw	a5,0(a5)
   110c0:	00d787b3          	add	a5,a5,a3
   110c4:	00078067          	jr	a5
   110c8:	00d7e633          	or	a2,a5,a3
   110cc:	00a66633          	or	a2,a2,a0
   110d0:	00e66633          	or	a2,a2,a4
   110d4:	14060063          	beqz	a2,11214 <__multf3+0x318>
   110d8:	06070263          	beqz	a4,1113c <__multf3+0x240>
   110dc:	00070513          	mv	a0,a4
   110e0:	ffff4097          	auipc	ra,0xffff4
   110e4:	e94080e7          	jalr	-364(ra) # 4f74 <__clzsi2>
   110e8:	ff450693          	addi	a3,a0,-12
   110ec:	4056d793          	srai	a5,a3,0x5
   110f0:	01f6f693          	andi	a3,a3,31
   110f4:	08068463          	beqz	a3,1117c <__multf3+0x280>
   110f8:	ffc00713          	li	a4,-4
   110fc:	02e78733          	mul	a4,a5,a4
   11100:	03010313          	addi	t1,sp,48
   11104:	02000813          	li	a6,32
   11108:	00279593          	slli	a1,a5,0x2
   1110c:	40d80833          	sub	a6,a6,a3
   11110:	00c70713          	addi	a4,a4,12
   11114:	00e30733          	add	a4,t1,a4
   11118:	08e31a63          	bne	t1,a4,111ac <__multf3+0x2b0>
   1111c:	08010713          	addi	a4,sp,128
   11120:	00b705b3          	add	a1,a4,a1
   11124:	03012703          	lw	a4,48(sp)
   11128:	fff78793          	addi	a5,a5,-1
   1112c:	00d716b3          	sll	a3,a4,a3
   11130:	fad5a823          	sw	a3,-80(a1)
   11134:	fff00693          	li	a3,-1
   11138:	0ac0006f          	j	111e4 <__multf3+0x2e8>
   1113c:	00050a63          	beqz	a0,11150 <__multf3+0x254>
   11140:	ffff4097          	auipc	ra,0xffff4
   11144:	e34080e7          	jalr	-460(ra) # 4f74 <__clzsi2>
   11148:	02050513          	addi	a0,a0,32
   1114c:	f9dff06f          	j	110e8 <__multf3+0x1ec>
   11150:	00078c63          	beqz	a5,11168 <__multf3+0x26c>
   11154:	00078513          	mv	a0,a5
   11158:	ffff4097          	auipc	ra,0xffff4
   1115c:	e1c080e7          	jalr	-484(ra) # 4f74 <__clzsi2>
   11160:	04050513          	addi	a0,a0,64
   11164:	f85ff06f          	j	110e8 <__multf3+0x1ec>
   11168:	00068513          	mv	a0,a3
   1116c:	ffff4097          	auipc	ra,0xffff4
   11170:	e08080e7          	jalr	-504(ra) # 4f74 <__clzsi2>
   11174:	06050513          	addi	a0,a0,96
   11178:	f71ff06f          	j	110e8 <__multf3+0x1ec>
   1117c:	ffc00613          	li	a2,-4
   11180:	02c78633          	mul	a2,a5,a2
   11184:	03c10713          	addi	a4,sp,60
   11188:	00300693          	li	a3,3
   1118c:	00c705b3          	add	a1,a4,a2
   11190:	0005a583          	lw	a1,0(a1)
   11194:	fff68693          	addi	a3,a3,-1
   11198:	ffc70713          	addi	a4,a4,-4
   1119c:	00b72223          	sw	a1,4(a4)
   111a0:	fef6d6e3          	bge	a3,a5,1118c <__multf3+0x290>
   111a4:	fff78793          	addi	a5,a5,-1
   111a8:	f8dff06f          	j	11134 <__multf3+0x238>
   111ac:	ffc72603          	lw	a2,-4(a4)
   111b0:	00072883          	lw	a7,0(a4)
   111b4:	00b70e33          	add	t3,a4,a1
   111b8:	01065633          	srl	a2,a2,a6
   111bc:	00d898b3          	sll	a7,a7,a3
   111c0:	01166633          	or	a2,a2,a7
   111c4:	00ce2023          	sw	a2,0(t3)
   111c8:	ffc70713          	addi	a4,a4,-4
   111cc:	f4dff06f          	j	11118 <__multf3+0x21c>
   111d0:	00279713          	slli	a4,a5,0x2
   111d4:	03010613          	addi	a2,sp,48
   111d8:	00e60733          	add	a4,a2,a4
   111dc:	00072023          	sw	zero,0(a4)
   111e0:	fff78793          	addi	a5,a5,-1
   111e4:	fed796e3          	bne	a5,a3,111d0 <__multf3+0x2d4>
   111e8:	ffffc4b7          	lui	s1,0xffffc
   111ec:	01148493          	addi	s1,s1,17 # ffffc011 <__stack_top+0x7ff851c1>
   111f0:	40a484b3          	sub	s1,s1,a0
   111f4:	df5ff06f          	j	10fe8 <__multf3+0xec>
   111f8:	00d7e7b3          	or	a5,a5,a3
   111fc:	00a7e7b3          	or	a5,a5,a0
   11200:	00e7e7b3          	or	a5,a5,a4
   11204:	00300b93          	li	s7,3
   11208:	de0792e3          	bnez	a5,10fec <__multf3+0xf0>
   1120c:	00200b93          	li	s7,2
   11210:	dddff06f          	j	10fec <__multf3+0xf0>
   11214:	00000493          	li	s1,0
   11218:	00100b93          	li	s7,1
   1121c:	dd1ff06f          	j	10fec <__multf3+0xf0>
   11220:	016a67b3          	or	a5,s4,s6
   11224:	0157e7b3          	or	a5,a5,s5
   11228:	00a7e7b3          	or	a5,a5,a0
   1122c:	14078063          	beqz	a5,1136c <__multf3+0x470>
   11230:	06050063          	beqz	a0,11290 <__multf3+0x394>
   11234:	ffff4097          	auipc	ra,0xffff4
   11238:	d40080e7          	jalr	-704(ra) # 4f74 <__clzsi2>
   1123c:	ff450613          	addi	a2,a0,-12
   11240:	40565713          	srai	a4,a2,0x5
   11244:	01f67613          	andi	a2,a2,31
   11248:	08060663          	beqz	a2,112d4 <__multf3+0x3d8>
   1124c:	ffc00693          	li	a3,-4
   11250:	02d706b3          	mul	a3,a4,a3
   11254:	04010313          	addi	t1,sp,64
   11258:	02000813          	li	a6,32
   1125c:	00271593          	slli	a1,a4,0x2
   11260:	40c80833          	sub	a6,a6,a2
   11264:	00c68693          	addi	a3,a3,12
   11268:	00d306b3          	add	a3,t1,a3
   1126c:	08d31c63          	bne	t1,a3,11304 <__multf3+0x408>
   11270:	08010793          	addi	a5,sp,128
   11274:	00b785b3          	add	a1,a5,a1
   11278:	04012783          	lw	a5,64(sp)
   1127c:	fff70713          	addi	a4,a4,-1
   11280:	00c79633          	sll	a2,a5,a2
   11284:	fcc5a023          	sw	a2,-64(a1)
   11288:	fff00693          	li	a3,-1
   1128c:	0b00006f          	j	1133c <__multf3+0x440>
   11290:	000a8c63          	beqz	s5,112a8 <__multf3+0x3ac>
   11294:	000a8513          	mv	a0,s5
   11298:	ffff4097          	auipc	ra,0xffff4
   1129c:	cdc080e7          	jalr	-804(ra) # 4f74 <__clzsi2>
   112a0:	02050513          	addi	a0,a0,32
   112a4:	f99ff06f          	j	1123c <__multf3+0x340>
   112a8:	000b0c63          	beqz	s6,112c0 <__multf3+0x3c4>
   112ac:	000b0513          	mv	a0,s6
   112b0:	ffff4097          	auipc	ra,0xffff4
   112b4:	cc4080e7          	jalr	-828(ra) # 4f74 <__clzsi2>
   112b8:	04050513          	addi	a0,a0,64
   112bc:	f81ff06f          	j	1123c <__multf3+0x340>
   112c0:	000a0513          	mv	a0,s4
   112c4:	ffff4097          	auipc	ra,0xffff4
   112c8:	cb0080e7          	jalr	-848(ra) # 4f74 <__clzsi2>
   112cc:	06050513          	addi	a0,a0,96
   112d0:	f6dff06f          	j	1123c <__multf3+0x340>
   112d4:	ffc00613          	li	a2,-4
   112d8:	02c70633          	mul	a2,a4,a2
   112dc:	04c10793          	addi	a5,sp,76
   112e0:	00300693          	li	a3,3
   112e4:	00c785b3          	add	a1,a5,a2
   112e8:	0005a583          	lw	a1,0(a1)
   112ec:	fff68693          	addi	a3,a3,-1
   112f0:	ffc78793          	addi	a5,a5,-4
   112f4:	00b7a223          	sw	a1,4(a5)
   112f8:	fee6d6e3          	bge	a3,a4,112e4 <__multf3+0x3e8>
   112fc:	fff70713          	addi	a4,a4,-1
   11300:	f89ff06f          	j	11288 <__multf3+0x38c>
   11304:	ffc6a783          	lw	a5,-4(a3)
   11308:	0006a883          	lw	a7,0(a3)
   1130c:	00b68e33          	add	t3,a3,a1
   11310:	0107d7b3          	srl	a5,a5,a6
   11314:	00c898b3          	sll	a7,a7,a2
   11318:	0117e7b3          	or	a5,a5,a7
   1131c:	00fe2023          	sw	a5,0(t3)
   11320:	ffc68693          	addi	a3,a3,-4
   11324:	f49ff06f          	j	1126c <__multf3+0x370>
   11328:	00271793          	slli	a5,a4,0x2
   1132c:	04010613          	addi	a2,sp,64
   11330:	00f607b3          	add	a5,a2,a5
   11334:	0007a023          	sw	zero,0(a5)
   11338:	fff70713          	addi	a4,a4,-1
   1133c:	fed716e3          	bne	a4,a3,11328 <__multf3+0x42c>
   11340:	ffffc7b7          	lui	a5,0xffffc
   11344:	01178793          	addi	a5,a5,17 # ffffc011 <__stack_top+0x7ff851c1>
   11348:	40a787b3          	sub	a5,a5,a0
   1134c:	d31ff06f          	j	1107c <__multf3+0x180>
   11350:	016a6a33          	or	s4,s4,s6
   11354:	015a6ab3          	or	s5,s4,s5
   11358:	00aaeab3          	or	s5,s5,a0
   1135c:	00300713          	li	a4,3
   11360:	d20a90e3          	bnez	s5,11080 <__multf3+0x184>
   11364:	00200713          	li	a4,2
   11368:	d19ff06f          	j	11080 <__multf3+0x184>
   1136c:	00000793          	li	a5,0
   11370:	00100713          	li	a4,1
   11374:	d0dff06f          	j	11080 <__multf3+0x184>
   11378:	03012703          	lw	a4,48(sp)
   1137c:	04012e03          	lw	t3,64(sp)
   11380:	00010537          	lui	a0,0x10
   11384:	fff50693          	addi	a3,a0,-1 # ffff <_exit+0x1f>
   11388:	01075f93          	srli	t6,a4,0x10
   1138c:	010e5a93          	srli	s5,t3,0x10
   11390:	00d77733          	and	a4,a4,a3
   11394:	00de7e33          	and	t3,t3,a3
   11398:	02ea87b3          	mul	a5,s5,a4
   1139c:	02ee0633          	mul	a2,t3,a4
   113a0:	03cf8833          	mul	a6,t6,t3
   113a4:	010785b3          	add	a1,a5,a6
   113a8:	01065793          	srli	a5,a2,0x10
   113ac:	00b787b3          	add	a5,a5,a1
   113b0:	035f8b33          	mul	s6,t6,s5
   113b4:	0107f463          	bgeu	a5,a6,113bc <__multf3+0x4c0>
   113b8:	00ab0b33          	add	s6,s6,a0
   113bc:	04412f03          	lw	t5,68(sp)
   113c0:	0107d293          	srli	t0,a5,0x10
   113c4:	00d7f7b3          	and	a5,a5,a3
   113c8:	00d67633          	and	a2,a2,a3
   113cc:	01079793          	slli	a5,a5,0x10
   113d0:	00c787b3          	add	a5,a5,a2
   113d4:	010f5493          	srli	s1,t5,0x10
   113d8:	00df7f33          	and	t5,t5,a3
   113dc:	02f12223          	sw	a5,36(sp)
   113e0:	06f12023          	sw	a5,96(sp)
   113e4:	02ef06b3          	mul	a3,t5,a4
   113e8:	02e487b3          	mul	a5,s1,a4
   113ec:	03ef8633          	mul	a2,t6,t5
   113f0:	00c78533          	add	a0,a5,a2
   113f4:	0106d793          	srli	a5,a3,0x10
   113f8:	00a787b3          	add	a5,a5,a0
   113fc:	029f8a33          	mul	s4,t6,s1
   11400:	00c7f663          	bgeu	a5,a2,1140c <__multf3+0x510>
   11404:	00010637          	lui	a2,0x10
   11408:	00ca0a33          	add	s4,s4,a2
   1140c:	00010637          	lui	a2,0x10
   11410:	fff60593          	addi	a1,a2,-1 # ffff <_exit+0x1f>
   11414:	00b7f533          	and	a0,a5,a1
   11418:	0107dd93          	srli	s11,a5,0x10
   1141c:	03412783          	lw	a5,52(sp)
   11420:	00b6f6b3          	and	a3,a3,a1
   11424:	01051513          	slli	a0,a0,0x10
   11428:	0107d913          	srli	s2,a5,0x10
   1142c:	00b7f5b3          	and	a1,a5,a1
   11430:	00d50533          	add	a0,a0,a3
   11434:	02ba87b3          	mul	a5,s5,a1
   11438:	00a282b3          	add	t0,t0,a0
   1143c:	02be06b3          	mul	a3,t3,a1
   11440:	03c90333          	mul	t1,s2,t3
   11444:	00678833          	add	a6,a5,t1
   11448:	0106d793          	srli	a5,a3,0x10
   1144c:	010787b3          	add	a5,a5,a6
   11450:	032a88b3          	mul	a7,s5,s2
   11454:	0067f463          	bgeu	a5,t1,1145c <__multf3+0x560>
   11458:	00c888b3          	add	a7,a7,a2
   1145c:	00010337          	lui	t1,0x10
   11460:	fff30613          	addi	a2,t1,-1 # ffff <_exit+0x1f>
   11464:	0107d993          	srli	s3,a5,0x10
   11468:	00c7f833          	and	a6,a5,a2
   1146c:	00c6f6b3          	and	a3,a3,a2
   11470:	011989b3          	add	s3,s3,a7
   11474:	01081813          	slli	a6,a6,0x10
   11478:	03e588b3          	mul	a7,a1,t5
   1147c:	00d80833          	add	a6,a6,a3
   11480:	03e90633          	mul	a2,s2,t5
   11484:	0108d693          	srli	a3,a7,0x10
   11488:	02b487b3          	mul	a5,s1,a1
   1148c:	00c787b3          	add	a5,a5,a2
   11490:	00f687b3          	add	a5,a3,a5
   11494:	03248eb3          	mul	t4,s1,s2
   11498:	00c7f463          	bgeu	a5,a2,114a0 <__multf3+0x5a4>
   1149c:	006e8eb3          	add	t4,t4,t1
   114a0:	0107d693          	srli	a3,a5,0x10
   114a4:	01d686b3          	add	a3,a3,t4
   114a8:	000103b7          	lui	t2,0x10
   114ac:	04812e83          	lw	t4,72(sp)
   114b0:	fff38613          	addi	a2,t2,-1 # ffff <_exit+0x1f>
   114b4:	02d12423          	sw	a3,40(sp)
   114b8:	00c7f6b3          	and	a3,a5,a2
   114bc:	00c8f8b3          	and	a7,a7,a2
   114c0:	010ed413          	srli	s0,t4,0x10
   114c4:	01069693          	slli	a3,a3,0x10
   114c8:	00cefeb3          	and	t4,t4,a2
   114cc:	011686b3          	add	a3,a3,a7
   114d0:	02ee8333          	mul	t1,t4,a4
   114d4:	02e408b3          	mul	a7,s0,a4
   114d8:	03df8bb3          	mul	s7,t6,t4
   114dc:	017887b3          	add	a5,a7,s7
   114e0:	01035893          	srli	a7,t1,0x10
   114e4:	00f888b3          	add	a7,a7,a5
   114e8:	028f8633          	mul	a2,t6,s0
   114ec:	0178f463          	bgeu	a7,s7,114f4 <__multf3+0x5f8>
   114f0:	00760633          	add	a2,a2,t2
   114f4:	0108d793          	srli	a5,a7,0x10
   114f8:	00010c37          	lui	s8,0x10
   114fc:	00c787b3          	add	a5,a5,a2
   11500:	fffc0613          	addi	a2,s8,-1 # ffff <_exit+0x1f>
   11504:	02f12623          	sw	a5,44(sp)
   11508:	00c8f7b3          	and	a5,a7,a2
   1150c:	03812883          	lw	a7,56(sp)
   11510:	00c37333          	and	t1,t1,a2
   11514:	01079793          	slli	a5,a5,0x10
   11518:	0108d393          	srli	t2,a7,0x10
   1151c:	00c8f633          	and	a2,a7,a2
   11520:	006787b3          	add	a5,a5,t1
   11524:	03c608b3          	mul	a7,a2,t3
   11528:	03c38cb3          	mul	s9,t2,t3
   1152c:	0108dd13          	srli	s10,a7,0x10
   11530:	02ca8333          	mul	t1,s5,a2
   11534:	01930333          	add	t1,t1,s9
   11538:	006d0333          	add	t1,s10,t1
   1153c:	027a8bb3          	mul	s7,s5,t2
   11540:	01937463          	bgeu	t1,s9,11548 <__multf3+0x64c>
   11544:	018b8bb3          	add	s7,s7,s8
   11548:	01035c13          	srli	s8,t1,0x10
   1154c:	017c0bb3          	add	s7,s8,s7
   11550:	00010c37          	lui	s8,0x10
   11554:	005b02b3          	add	t0,s6,t0
   11558:	fffc0c93          	addi	s9,s8,-1 # ffff <_exit+0x1f>
   1155c:	00a2b533          	sltu	a0,t0,a0
   11560:	01937333          	and	t1,t1,s9
   11564:	00ad8db3          	add	s11,s11,a0
   11568:	01031313          	slli	t1,t1,0x10
   1156c:	0198f8b3          	and	a7,a7,s9
   11570:	014d8a33          	add	s4,s11,s4
   11574:	011308b3          	add	a7,t1,a7
   11578:	01028333          	add	t1,t0,a6
   1157c:	01033833          	sltu	a6,t1,a6
   11580:	00612a23          	sw	t1,20(sp)
   11584:	06612223          	sw	t1,100(sp)
   11588:	013a0333          	add	t1,s4,s3
   1158c:	01030b33          	add	s6,t1,a6
   11590:	013339b3          	sltu	s3,t1,s3
   11594:	010b3833          	sltu	a6,s6,a6
   11598:	0109e833          	or	a6,s3,a6
   1159c:	00aa3533          	sltu	a0,s4,a0
   115a0:	00a80533          	add	a0,a6,a0
   115a4:	02812803          	lw	a6,40(sp)
   115a8:	00db02b3          	add	t0,s6,a3
   115ac:	02812983          	lw	s3,40(sp)
   115b0:	00d2b6b3          	sltu	a3,t0,a3
   115b4:	01050533          	add	a0,a0,a6
   115b8:	02c12303          	lw	t1,44(sp)
   115bc:	00d50833          	add	a6,a0,a3
   115c0:	00f282b3          	add	t0,t0,a5
   115c4:	01353533          	sltu	a0,a0,s3
   115c8:	00d836b3          	sltu	a3,a6,a3
   115cc:	00f2b7b3          	sltu	a5,t0,a5
   115d0:	00680db3          	add	s11,a6,t1
   115d4:	00d566b3          	or	a3,a0,a3
   115d8:	02c12503          	lw	a0,44(sp)
   115dc:	00fd8333          	add	t1,s11,a5
   115e0:	011282b3          	add	t0,t0,a7
   115e4:	0112b8b3          	sltu	a7,t0,a7
   115e8:	00f337b3          	sltu	a5,t1,a5
   115ec:	00512c23          	sw	t0,24(sp)
   115f0:	06512423          	sw	t0,104(sp)
   115f4:	017302b3          	add	t0,t1,s7
   115f8:	04c12303          	lw	t1,76(sp)
   115fc:	01128d33          	add	s10,t0,a7
   11600:	00adbdb3          	sltu	s11,s11,a0
   11604:	00fde7b3          	or	a5,s11,a5
   11608:	0172bbb3          	sltu	s7,t0,s7
   1160c:	011d38b3          	sltu	a7,s10,a7
   11610:	00f686b3          	add	a3,a3,a5
   11614:	01035293          	srli	t0,t1,0x10
   11618:	011bea33          	or	s4,s7,a7
   1161c:	01937333          	and	t1,t1,s9
   11620:	02e307b3          	mul	a5,t1,a4
   11624:	01468a33          	add	s4,a3,s4
   11628:	02e28733          	mul	a4,t0,a4
   1162c:	0107d893          	srli	a7,a5,0x10
   11630:	026f86b3          	mul	a3,t6,t1
   11634:	00d70733          	add	a4,a4,a3
   11638:	00e888b3          	add	a7,a7,a4
   1163c:	025f8fb3          	mul	t6,t6,t0
   11640:	00d8f463          	bgeu	a7,a3,11648 <__multf3+0x74c>
   11644:	018f8fb3          	add	t6,t6,s8
   11648:	03c12983          	lw	s3,60(sp)
   1164c:	000106b7          	lui	a3,0x10
   11650:	fff68513          	addi	a0,a3,-1 # ffff <_exit+0x1f>
   11654:	0108d713          	srli	a4,a7,0x10
   11658:	00a8f8b3          	and	a7,a7,a0
   1165c:	01f70733          	add	a4,a4,t6
   11660:	00a7f7b3          	and	a5,a5,a0
   11664:	0109df93          	srli	t6,s3,0x10
   11668:	01089893          	slli	a7,a7,0x10
   1166c:	00a9f9b3          	and	s3,s3,a0
   11670:	00f888b3          	add	a7,a7,a5
   11674:	03fa8b33          	mul	s6,s5,t6
   11678:	00070d93          	mv	s11,a4
   1167c:	033e07b3          	mul	a5,t3,s3
   11680:	033a8ab3          	mul	s5,s5,s3
   11684:	0107d813          	srli	a6,a5,0x10
   11688:	03cf8e33          	mul	t3,t6,t3
   1168c:	01ca8ab3          	add	s5,s5,t3
   11690:	01580ab3          	add	s5,a6,s5
   11694:	01caf463          	bgeu	s5,t3,1169c <__multf3+0x7a0>
   11698:	00db0b33          	add	s6,s6,a3
   1169c:	010ad813          	srli	a6,s5,0x10
   116a0:	01680733          	add	a4,a6,s6
   116a4:	00010b37          	lui	s6,0x10
   116a8:	02e12423          	sw	a4,40(sp)
   116ac:	fffb0713          	addi	a4,s6,-1 # ffff <_exit+0x1f>
   116b0:	00eaf833          	and	a6,s5,a4
   116b4:	00e7f7b3          	and	a5,a5,a4
   116b8:	01081813          	slli	a6,a6,0x10
   116bc:	00f80833          	add	a6,a6,a5
   116c0:	02be86b3          	mul	a3,t4,a1
   116c4:	03d90e33          	mul	t3,s2,t4
   116c8:	0106d513          	srli	a0,a3,0x10
   116cc:	02b407b3          	mul	a5,s0,a1
   116d0:	01c787b3          	add	a5,a5,t3
   116d4:	00f507b3          	add	a5,a0,a5
   116d8:	02890733          	mul	a4,s2,s0
   116dc:	01c7f463          	bgeu	a5,t3,116e4 <__multf3+0x7e8>
   116e0:	01670733          	add	a4,a4,s6
   116e4:	0107d513          	srli	a0,a5,0x10
   116e8:	00e50733          	add	a4,a0,a4
   116ec:	00010b37          	lui	s6,0x10
   116f0:	02e12623          	sw	a4,44(sp)
   116f4:	fffb0713          	addi	a4,s6,-1 # ffff <_exit+0x1f>
   116f8:	00e7f533          	and	a0,a5,a4
   116fc:	00e6f6b3          	and	a3,a3,a4
   11700:	03e38e33          	mul	t3,t2,t5
   11704:	01051513          	slli	a0,a0,0x10
   11708:	00d50533          	add	a0,a0,a3
   1170c:	03e60733          	mul	a4,a2,t5
   11710:	02c487b3          	mul	a5,s1,a2
   11714:	01075693          	srli	a3,a4,0x10
   11718:	01c787b3          	add	a5,a5,t3
   1171c:	00f687b3          	add	a5,a3,a5
   11720:	02748ab3          	mul	s5,s1,t2
   11724:	01c7f463          	bgeu	a5,t3,1172c <__multf3+0x830>
   11728:	016a8ab3          	add	s5,s5,s6
   1172c:	000106b7          	lui	a3,0x10
   11730:	fff68e13          	addi	t3,a3,-1 # ffff <_exit+0x1f>
   11734:	01c7f6b3          	and	a3,a5,t3
   11738:	0107db93          	srli	s7,a5,0x10
   1173c:	011d07b3          	add	a5,s10,a7
   11740:	01c77733          	and	a4,a4,t3
   11744:	0117b8b3          	sltu	a7,a5,a7
   11748:	01ba0a33          	add	s4,s4,s11
   1174c:	01069693          	slli	a3,a3,0x10
   11750:	00e686b3          	add	a3,a3,a4
   11754:	011a0d33          	add	s10,s4,a7
   11758:	02812703          	lw	a4,40(sp)
   1175c:	011d38b3          	sltu	a7,s10,a7
   11760:	01ba3a33          	sltu	s4,s4,s11
   11764:	010787b3          	add	a5,a5,a6
   11768:	011a6a33          	or	s4,s4,a7
   1176c:	02812883          	lw	a7,40(sp)
   11770:	0107b833          	sltu	a6,a5,a6
   11774:	00ed0b33          	add	s6,s10,a4
   11778:	02c12703          	lw	a4,44(sp)
   1177c:	010b0cb3          	add	s9,s6,a6
   11780:	00a787b3          	add	a5,a5,a0
   11784:	011b3b33          	sltu	s6,s6,a7
   11788:	010cb833          	sltu	a6,s9,a6
   1178c:	00a7b533          	sltu	a0,a5,a0
   11790:	00ec8733          	add	a4,s9,a4
   11794:	010b6b33          	or	s6,s6,a6
   11798:	02c12803          	lw	a6,44(sp)
   1179c:	00a70c33          	add	s8,a4,a0
   117a0:	015b8bb3          	add	s7,s7,s5
   117a4:	00d787b3          	add	a5,a5,a3
   117a8:	00d7b6b3          	sltu	a3,a5,a3
   117ac:	017c0ab3          	add	s5,s8,s7
   117b0:	00da8e33          	add	t3,s5,a3
   117b4:	01073733          	sltu	a4,a4,a6
   117b8:	00ac3533          	sltu	a0,s8,a0
   117bc:	00a76733          	or	a4,a4,a0
   117c0:	00de36b3          	sltu	a3,t3,a3
   117c4:	016a0a33          	add	s4,s4,s6
   117c8:	017abab3          	sltu	s5,s5,s7
   117cc:	00ea0a33          	add	s4,s4,a4
   117d0:	00daeab3          	or	s5,s5,a3
   117d4:	015a06b3          	add	a3,s4,s5
   117d8:	02ce8833          	mul	a6,t4,a2
   117dc:	06f12623          	sw	a5,108(sp)
   117e0:	03d38a33          	mul	s4,t2,t4
   117e4:	01085513          	srli	a0,a6,0x10
   117e8:	02c40733          	mul	a4,s0,a2
   117ec:	01470733          	add	a4,a4,s4
   117f0:	00e50733          	add	a4,a0,a4
   117f4:	027408b3          	mul	a7,s0,t2
   117f8:	01477663          	bgeu	a4,s4,11804 <__multf3+0x908>
   117fc:	00010537          	lui	a0,0x10
   11800:	00a888b3          	add	a7,a7,a0
   11804:	00010a37          	lui	s4,0x10
   11808:	01075513          	srli	a0,a4,0x10
   1180c:	fffa0a93          	addi	s5,s4,-1 # ffff <_exit+0x1f>
   11810:	011508b3          	add	a7,a0,a7
   11814:	01577533          	and	a0,a4,s5
   11818:	01587833          	and	a6,a6,s5
   1181c:	01051513          	slli	a0,a0,0x10
   11820:	02690ab3          	mul	s5,s2,t1
   11824:	01050533          	add	a0,a0,a6
   11828:	02b30833          	mul	a6,t1,a1
   1182c:	02b285b3          	mul	a1,t0,a1
   11830:	01085713          	srli	a4,a6,0x10
   11834:	015585b3          	add	a1,a1,s5
   11838:	00b70733          	add	a4,a4,a1
   1183c:	02590933          	mul	s2,s2,t0
   11840:	01577463          	bgeu	a4,s5,11848 <__multf3+0x94c>
   11844:	01490933          	add	s2,s2,s4
   11848:	00010ab7          	lui	s5,0x10
   1184c:	01075593          	srli	a1,a4,0x10
   11850:	fffa8a13          	addi	s4,s5,-1 # ffff <_exit+0x1f>
   11854:	01487833          	and	a6,a6,s4
   11858:	01258933          	add	s2,a1,s2
   1185c:	014775b3          	and	a1,a4,s4
   11860:	01059593          	slli	a1,a1,0x10
   11864:	03e98733          	mul	a4,s3,t5
   11868:	010585b3          	add	a1,a1,a6
   1186c:	03ef8f33          	mul	t5,t6,t5
   11870:	01075813          	srli	a6,a4,0x10
   11874:	03f48a33          	mul	s4,s1,t6
   11878:	033484b3          	mul	s1,s1,s3
   1187c:	01e484b3          	add	s1,s1,t5
   11880:	009804b3          	add	s1,a6,s1
   11884:	01e4f463          	bgeu	s1,t5,1188c <__multf3+0x990>
   11888:	015a0a33          	add	s4,s4,s5
   1188c:	0104db13          	srli	s6,s1,0x10
   11890:	014b0b33          	add	s6,s6,s4
   11894:	00010a37          	lui	s4,0x10
   11898:	fffa0f13          	addi	t5,s4,-1 # ffff <_exit+0x1f>
   1189c:	01e4f833          	and	a6,s1,t5
   118a0:	01e77733          	and	a4,a4,t5
   118a4:	026384b3          	mul	s1,t2,t1
   118a8:	01081813          	slli	a6,a6,0x10
   118ac:	00e80833          	add	a6,a6,a4
   118b0:	02660f33          	mul	t5,a2,t1
   118b4:	02c28633          	mul	a2,t0,a2
   118b8:	010f5713          	srli	a4,t5,0x10
   118bc:	00960633          	add	a2,a2,s1
   118c0:	00c70633          	add	a2,a4,a2
   118c4:	025383b3          	mul	t2,t2,t0
   118c8:	00967463          	bgeu	a2,s1,118d0 <__multf3+0x9d4>
   118cc:	014383b3          	add	t2,t2,s4
   118d0:	00010a37          	lui	s4,0x10
   118d4:	01065713          	srli	a4,a2,0x10
   118d8:	fffa0493          	addi	s1,s4,-1 # ffff <_exit+0x1f>
   118dc:	007703b3          	add	t2,a4,t2
   118e0:	00967733          	and	a4,a2,s1
   118e4:	009f7f33          	and	t5,t5,s1
   118e8:	01071713          	slli	a4,a4,0x10
   118ec:	01e70733          	add	a4,a4,t5
   118f0:	03340633          	mul	a2,s0,s3
   118f4:	033e8f33          	mul	t5,t4,s3
   118f8:	03df8eb3          	mul	t4,t6,t4
   118fc:	010f5a93          	srli	s5,t5,0x10
   11900:	01d60633          	add	a2,a2,t4
   11904:	00ca8633          	add	a2,s5,a2
   11908:	03f404b3          	mul	s1,s0,t6
   1190c:	01d67463          	bgeu	a2,t4,11914 <__multf3+0xa18>
   11910:	014484b3          	add	s1,s1,s4
   11914:	01065c13          	srli	s8,a2,0x10
   11918:	00010cb7          	lui	s9,0x10
   1191c:	009c0c33          	add	s8,s8,s1
   11920:	00ae0e33          	add	t3,t3,a0
   11924:	fffc8493          	addi	s1,s9,-1 # ffff <_exit+0x1f>
   11928:	00ae3533          	sltu	a0,t3,a0
   1192c:	011686b3          	add	a3,a3,a7
   11930:	00967633          	and	a2,a2,s1
   11934:	00a68db3          	add	s11,a3,a0
   11938:	009f7f33          	and	t5,t5,s1
   1193c:	00be0e33          	add	t3,t3,a1
   11940:	01061613          	slli	a2,a2,0x10
   11944:	01e60633          	add	a2,a2,t5
   11948:	00be35b3          	sltu	a1,t3,a1
   1194c:	012d8f33          	add	t5,s11,s2
   11950:	010e0e33          	add	t3,t3,a6
   11954:	00bf0d33          	add	s10,t5,a1
   11958:	016d0eb3          	add	t4,s10,s6
   1195c:	07c12823          	sw	t3,112(sp)
   11960:	010e3e33          	sltu	t3,t3,a6
   11964:	01ce8a33          	add	s4,t4,t3
   11968:	0116b6b3          	sltu	a3,a3,a7
   1196c:	00bd35b3          	sltu	a1,s10,a1
   11970:	00adb533          	sltu	a0,s11,a0
   11974:	012f3933          	sltu	s2,t5,s2
   11978:	00a6e533          	or	a0,a3,a0
   1197c:	00b96933          	or	s2,s2,a1
   11980:	016ebeb3          	sltu	t4,t4,s6
   11984:	01ca3e33          	sltu	t3,s4,t3
   11988:	01250533          	add	a0,a0,s2
   1198c:	01ceeeb3          	or	t4,t4,t3
   11990:	00ea0833          	add	a6,s4,a4
   11994:	01d50533          	add	a0,a0,t4
   11998:	00e83733          	sltu	a4,a6,a4
   1199c:	00750533          	add	a0,a0,t2
   119a0:	00e506b3          	add	a3,a0,a4
   119a4:	007533b3          	sltu	t2,a0,t2
   119a8:	03330533          	mul	a0,t1,s3
   119ac:	00c80833          	add	a6,a6,a2
   119b0:	00e6b733          	sltu	a4,a3,a4
   119b4:	00c83633          	sltu	a2,a6,a2
   119b8:	018686b3          	add	a3,a3,s8
   119bc:	00c685b3          	add	a1,a3,a2
   119c0:	0186bc33          	sltu	s8,a3,s8
   119c4:	00c5b633          	sltu	a2,a1,a2
   119c8:	07012a23          	sw	a6,116(sp)
   119cc:	00e3e733          	or	a4,t2,a4
   119d0:	026f8333          	mul	t1,t6,t1
   119d4:	01055693          	srli	a3,a0,0x10
   119d8:	00cc6633          	or	a2,s8,a2
   119dc:	033289b3          	mul	s3,t0,s3
   119e0:	006989b3          	add	s3,s3,t1
   119e4:	03f28fb3          	mul	t6,t0,t6
   119e8:	013682b3          	add	t0,a3,s3
   119ec:	0062f463          	bgeu	t0,t1,119f4 <__multf3+0xaf8>
   119f0:	019f8fb3          	add	t6,t6,s9
   119f4:	0092f6b3          	and	a3,t0,s1
   119f8:	01069693          	slli	a3,a3,0x10
   119fc:	009574b3          	and	s1,a0,s1
   11a00:	009684b3          	add	s1,a3,s1
   11a04:	0102d293          	srli	t0,t0,0x10
   11a08:	009585b3          	add	a1,a1,s1
   11a0c:	00e282b3          	add	t0,t0,a4
   11a10:	01412683          	lw	a3,20(sp)
   11a14:	02412703          	lw	a4,36(sp)
   11a18:	0095b4b3          	sltu	s1,a1,s1
   11a1c:	00c282b3          	add	t0,t0,a2
   11a20:	009282b3          	add	t0,t0,s1
   11a24:	01f28fb3          	add	t6,t0,t6
   11a28:	00d762b3          	or	t0,a4,a3
   11a2c:	01812703          	lw	a4,24(sp)
   11a30:	00d79793          	slli	a5,a5,0xd
   11a34:	06b12c23          	sw	a1,120(sp)
   11a38:	005762b3          	or	t0,a4,t0
   11a3c:	07f12e23          	sw	t6,124(sp)
   11a40:	0057e7b3          	or	a5,a5,t0
   11a44:	06010713          	addi	a4,sp,96
   11a48:	07010593          	addi	a1,sp,112
   11a4c:	00c72683          	lw	a3,12(a4)
   11a50:	01072603          	lw	a2,16(a4)
   11a54:	00470713          	addi	a4,a4,4
   11a58:	0136d693          	srli	a3,a3,0x13
   11a5c:	00d61613          	slli	a2,a2,0xd
   11a60:	00c6e6b3          	or	a3,a3,a2
   11a64:	fed72e23          	sw	a3,-4(a4)
   11a68:	fee592e3          	bne	a1,a4,11a4c <__multf3+0xb50>
   11a6c:	06012703          	lw	a4,96(sp)
   11a70:	06812683          	lw	a3,104(sp)
   11a74:	00f037b3          	snez	a5,a5
   11a78:	00e7e7b3          	or	a5,a5,a4
   11a7c:	04d12c23          	sw	a3,88(sp)
   11a80:	06c12703          	lw	a4,108(sp)
   11a84:	06412683          	lw	a3,100(sp)
   11a88:	04f12823          	sw	a5,80(sp)
   11a8c:	04e12e23          	sw	a4,92(sp)
   11a90:	04d12a23          	sw	a3,84(sp)
   11a94:	00b71693          	slli	a3,a4,0xb
   11a98:	2206dc63          	bgez	a3,11cd0 <__multf3+0xdd4>
   11a9c:	01f79793          	slli	a5,a5,0x1f
   11aa0:	05010713          	addi	a4,sp,80
   11aa4:	05c10593          	addi	a1,sp,92
   11aa8:	00072683          	lw	a3,0(a4)
   11aac:	00472603          	lw	a2,4(a4)
   11ab0:	00470713          	addi	a4,a4,4
   11ab4:	0016d693          	srli	a3,a3,0x1
   11ab8:	01f61613          	slli	a2,a2,0x1f
   11abc:	00c6e6b3          	or	a3,a3,a2
   11ac0:	fed72e23          	sw	a3,-4(a4)
   11ac4:	fee592e3          	bne	a1,a4,11aa8 <__multf3+0xbac>
   11ac8:	05c12703          	lw	a4,92(sp)
   11acc:	00f037b3          	snez	a5,a5
   11ad0:	00175713          	srli	a4,a4,0x1
   11ad4:	04e12e23          	sw	a4,92(sp)
   11ad8:	05012703          	lw	a4,80(sp)
   11adc:	00f767b3          	or	a5,a4,a5
   11ae0:	04f12823          	sw	a5,80(sp)
   11ae4:	01c12703          	lw	a4,28(sp)
   11ae8:	000047b7          	lui	a5,0x4
   11aec:	fff78793          	addi	a5,a5,-1 # 3fff <_ZN6tflite19LinearMemoryPlanner20GetMaximumMemorySizeEv+0x7>
   11af0:	00f707b3          	add	a5,a4,a5
   11af4:	20f05063          	blez	a5,11cf4 <__multf3+0xdf8>
   11af8:	05012703          	lw	a4,80(sp)
   11afc:	00777693          	andi	a3,a4,7
   11b00:	04068463          	beqz	a3,11b48 <__multf3+0xc4c>
   11b04:	00f77693          	andi	a3,a4,15
   11b08:	00400613          	li	a2,4
   11b0c:	02c68e63          	beq	a3,a2,11b48 <__multf3+0xc4c>
   11b10:	05412683          	lw	a3,84(sp)
   11b14:	00470713          	addi	a4,a4,4
   11b18:	04e12823          	sw	a4,80(sp)
   11b1c:	00473713          	sltiu	a4,a4,4
   11b20:	00d706b3          	add	a3,a4,a3
   11b24:	00e6b733          	sltu	a4,a3,a4
   11b28:	04d12a23          	sw	a3,84(sp)
   11b2c:	05812683          	lw	a3,88(sp)
   11b30:	00d706b3          	add	a3,a4,a3
   11b34:	04d12c23          	sw	a3,88(sp)
   11b38:	00e6b6b3          	sltu	a3,a3,a4
   11b3c:	05c12703          	lw	a4,92(sp)
   11b40:	00e686b3          	add	a3,a3,a4
   11b44:	04d12e23          	sw	a3,92(sp)
   11b48:	05c12703          	lw	a4,92(sp)
   11b4c:	00b71693          	slli	a3,a4,0xb
   11b50:	0206d063          	bgez	a3,11b70 <__multf3+0xc74>
   11b54:	fff007b7          	lui	a5,0xfff00
   11b58:	fff78793          	addi	a5,a5,-1 # ffefffff <__stack_top+0x7fe891af>
   11b5c:	00f77733          	and	a4,a4,a5
   11b60:	04e12e23          	sw	a4,92(sp)
   11b64:	01c12703          	lw	a4,28(sp)
   11b68:	000047b7          	lui	a5,0x4
   11b6c:	00f707b3          	add	a5,a4,a5
   11b70:	05010713          	addi	a4,sp,80
   11b74:	05c10593          	addi	a1,sp,92
   11b78:	00072683          	lw	a3,0(a4)
   11b7c:	00472603          	lw	a2,4(a4)
   11b80:	00470713          	addi	a4,a4,4
   11b84:	0036d693          	srli	a3,a3,0x3
   11b88:	01d61613          	slli	a2,a2,0x1d
   11b8c:	00c6e6b3          	or	a3,a3,a2
   11b90:	fed72e23          	sw	a3,-4(a4)
   11b94:	feb712e3          	bne	a4,a1,11b78 <__multf3+0xc7c>
   11b98:	00008737          	lui	a4,0x8
   11b9c:	ffe70693          	addi	a3,a4,-2 # 7ffe <_svfprintf_r+0x8ee>
   11ba0:	12f6ce63          	blt	a3,a5,11cdc <__multf3+0xde0>
   11ba4:	05c12703          	lw	a4,92(sp)
   11ba8:	00375713          	srli	a4,a4,0x3
   11bac:	04e12e23          	sw	a4,92(sp)
   11bb0:	05c12703          	lw	a4,92(sp)
   11bb4:	800106b7          	lui	a3,0x80010
   11bb8:	fff68693          	addi	a3,a3,-1 # 8000ffff <__stack_top+0xfff991af>
   11bbc:	06e11623          	sh	a4,108(sp)
   11bc0:	00008737          	lui	a4,0x8
   11bc4:	fff70713          	addi	a4,a4,-1 # 7fff <_svfprintf_r+0x8ef>
   11bc8:	00e7f7b3          	and	a5,a5,a4
   11bcc:	06c12703          	lw	a4,108(sp)
   11bd0:	01079793          	slli	a5,a5,0x10
   11bd4:	0bc12083          	lw	ra,188(sp)
   11bd8:	00d77733          	and	a4,a4,a3
   11bdc:	00f767b3          	or	a5,a4,a5
   11be0:	01012703          	lw	a4,16(sp)
   11be4:	800006b7          	lui	a3,0x80000
   11be8:	fff6c693          	not	a3,a3
   11bec:	01f71713          	slli	a4,a4,0x1f
   11bf0:	00d7f7b3          	and	a5,a5,a3
   11bf4:	00e7e7b3          	or	a5,a5,a4
   11bf8:	00c12683          	lw	a3,12(sp)
   11bfc:	05012703          	lw	a4,80(sp)
   11c00:	0b812403          	lw	s0,184(sp)
   11c04:	00f6a623          	sw	a5,12(a3) # 8000000c <__stack_top+0xfff891bc>
   11c08:	00e6a023          	sw	a4,0(a3)
   11c0c:	05412703          	lw	a4,84(sp)
   11c10:	0b412483          	lw	s1,180(sp)
   11c14:	0b012903          	lw	s2,176(sp)
   11c18:	00e6a223          	sw	a4,4(a3)
   11c1c:	05812703          	lw	a4,88(sp)
   11c20:	0ac12983          	lw	s3,172(sp)
   11c24:	0a812a03          	lw	s4,168(sp)
   11c28:	00e6a423          	sw	a4,8(a3)
   11c2c:	0a412a83          	lw	s5,164(sp)
   11c30:	0a012b03          	lw	s6,160(sp)
   11c34:	09c12b83          	lw	s7,156(sp)
   11c38:	09812c03          	lw	s8,152(sp)
   11c3c:	09412c83          	lw	s9,148(sp)
   11c40:	09012d03          	lw	s10,144(sp)
   11c44:	08c12d83          	lw	s11,140(sp)
   11c48:	00068513          	mv	a0,a3
   11c4c:	0c010113          	addi	sp,sp,192
   11c50:	00008067          	ret
   11c54:	01312823          	sw	s3,16(sp)
   11c58:	03012783          	lw	a5,48(sp)
   11c5c:	04f12823          	sw	a5,80(sp)
   11c60:	03412783          	lw	a5,52(sp)
   11c64:	04f12a23          	sw	a5,84(sp)
   11c68:	03812783          	lw	a5,56(sp)
   11c6c:	04f12c23          	sw	a5,88(sp)
   11c70:	03c12783          	lw	a5,60(sp)
   11c74:	04f12e23          	sw	a5,92(sp)
   11c78:	00200793          	li	a5,2
   11c7c:	26fb8c63          	beq	s7,a5,11ef4 <__multf3+0xff8>
   11c80:	00300793          	li	a5,3
   11c84:	28fb8663          	beq	s7,a5,11f10 <__multf3+0x1014>
   11c88:	00100793          	li	a5,1
   11c8c:	e4fb9ce3          	bne	s7,a5,11ae4 <__multf3+0xbe8>
   11c90:	04012e23          	sw	zero,92(sp)
   11c94:	04012c23          	sw	zero,88(sp)
   11c98:	04012a23          	sw	zero,84(sp)
   11c9c:	04012823          	sw	zero,80(sp)
   11ca0:	2140006f          	j	11eb4 <__multf3+0xfb8>
   11ca4:	01212823          	sw	s2,16(sp)
   11ca8:	04012783          	lw	a5,64(sp)
   11cac:	00070b93          	mv	s7,a4
   11cb0:	04f12823          	sw	a5,80(sp)
   11cb4:	04412783          	lw	a5,68(sp)
   11cb8:	04f12a23          	sw	a5,84(sp)
   11cbc:	04812783          	lw	a5,72(sp)
   11cc0:	04f12c23          	sw	a5,88(sp)
   11cc4:	04c12783          	lw	a5,76(sp)
   11cc8:	04f12e23          	sw	a5,92(sp)
   11ccc:	fadff06f          	j	11c78 <__multf3+0xd7c>
   11cd0:	02012783          	lw	a5,32(sp)
   11cd4:	00f12e23          	sw	a5,28(sp)
   11cd8:	e0dff06f          	j	11ae4 <__multf3+0xbe8>
   11cdc:	04012e23          	sw	zero,92(sp)
   11ce0:	04012c23          	sw	zero,88(sp)
   11ce4:	04012a23          	sw	zero,84(sp)
   11ce8:	04012823          	sw	zero,80(sp)
   11cec:	fff70793          	addi	a5,a4,-1
   11cf0:	ec1ff06f          	j	11bb0 <__multf3+0xcb4>
   11cf4:	00100713          	li	a4,1
   11cf8:	40f707b3          	sub	a5,a4,a5
   11cfc:	07400713          	li	a4,116
   11d00:	1af74e63          	blt	a4,a5,11ebc <__multf3+0xfc0>
   11d04:	4057d893          	srai	a7,a5,0x5
   11d08:	00000713          	li	a4,0
   11d0c:	01f7f793          	andi	a5,a5,31
   11d10:	00000693          	li	a3,0
   11d14:	00269613          	slli	a2,a3,0x2
   11d18:	03169a63          	bne	a3,a7,11d4c <__multf3+0xe50>
   11d1c:	04079463          	bnez	a5,11d64 <__multf3+0xe68>
   11d20:	00300513          	li	a0,3
   11d24:	05010593          	addi	a1,sp,80
   11d28:	40d506b3          	sub	a3,a0,a3
   11d2c:	00c58533          	add	a0,a1,a2
   11d30:	00052503          	lw	a0,0(a0) # 10000 <_exit+0x20>
   11d34:	00178793          	addi	a5,a5,1 # 4001 <_ZN6tflite19LinearMemoryPlanner20GetMaximumMemorySizeEv+0x9>
   11d38:	00458593          	addi	a1,a1,4
   11d3c:	fea5ae23          	sw	a0,-4(a1)
   11d40:	fef6d6e3          	bge	a3,a5,11d2c <__multf3+0xe30>
   11d44:	00400613          	li	a2,4
   11d48:	0b80006f          	j	11e00 <__multf3+0xf04>
   11d4c:	05010593          	addi	a1,sp,80
   11d50:	00c58633          	add	a2,a1,a2
   11d54:	00062603          	lw	a2,0(a2)
   11d58:	00168693          	addi	a3,a3,1
   11d5c:	00c76733          	or	a4,a4,a2
   11d60:	fb5ff06f          	j	11d14 <__multf3+0xe18>
   11d64:	08010693          	addi	a3,sp,128
   11d68:	00c686b3          	add	a3,a3,a2
   11d6c:	fd06a683          	lw	a3,-48(a3)
   11d70:	02000813          	li	a6,32
   11d74:	40f80833          	sub	a6,a6,a5
   11d78:	010696b3          	sll	a3,a3,a6
   11d7c:	00d76733          	or	a4,a4,a3
   11d80:	05010693          	addi	a3,sp,80
   11d84:	00c68633          	add	a2,a3,a2
   11d88:	00300693          	li	a3,3
   11d8c:	00000513          	li	a0,0
   11d90:	411686b3          	sub	a3,a3,a7
   11d94:	00460613          	addi	a2,a2,4
   11d98:	02d54463          	blt	a0,a3,11dc0 <__multf3+0xec4>
   11d9c:	08010613          	addi	a2,sp,128
   11da0:	00269693          	slli	a3,a3,0x2
   11da4:	00d606b3          	add	a3,a2,a3
   11da8:	05c12603          	lw	a2,92(sp)
   11dac:	00f657b3          	srl	a5,a2,a5
   11db0:	fcf6a823          	sw	a5,-48(a3)
   11db4:	00400793          	li	a5,4
   11db8:	411787b3          	sub	a5,a5,a7
   11dbc:	f89ff06f          	j	11d44 <__multf3+0xe48>
   11dc0:	00251313          	slli	t1,a0,0x2
   11dc4:	05010593          	addi	a1,sp,80
   11dc8:	00658333          	add	t1,a1,t1
   11dcc:	00062e03          	lw	t3,0(a2)
   11dd0:	ffc62583          	lw	a1,-4(a2)
   11dd4:	00150513          	addi	a0,a0,1
   11dd8:	010e1e33          	sll	t3,t3,a6
   11ddc:	00f5d5b3          	srl	a1,a1,a5
   11de0:	01c5e5b3          	or	a1,a1,t3
   11de4:	00b32023          	sw	a1,0(t1)
   11de8:	fadff06f          	j	11d94 <__multf3+0xe98>
   11dec:	00279693          	slli	a3,a5,0x2
   11df0:	05010593          	addi	a1,sp,80
   11df4:	00d586b3          	add	a3,a1,a3
   11df8:	0006a023          	sw	zero,0(a3)
   11dfc:	00178793          	addi	a5,a5,1
   11e00:	fec796e3          	bne	a5,a2,11dec <__multf3+0xef0>
   11e04:	05012683          	lw	a3,80(sp)
   11e08:	00e03733          	snez	a4,a4
   11e0c:	00d76733          	or	a4,a4,a3
   11e10:	04e12823          	sw	a4,80(sp)
   11e14:	00777693          	andi	a3,a4,7
   11e18:	04068263          	beqz	a3,11e5c <__multf3+0xf60>
   11e1c:	00f77693          	andi	a3,a4,15
   11e20:	02f68e63          	beq	a3,a5,11e5c <__multf3+0xf60>
   11e24:	05412783          	lw	a5,84(sp)
   11e28:	00470713          	addi	a4,a4,4
   11e2c:	04e12823          	sw	a4,80(sp)
   11e30:	00473713          	sltiu	a4,a4,4
   11e34:	00f707b3          	add	a5,a4,a5
   11e38:	00e7b733          	sltu	a4,a5,a4
   11e3c:	04f12a23          	sw	a5,84(sp)
   11e40:	05812783          	lw	a5,88(sp)
   11e44:	00f707b3          	add	a5,a4,a5
   11e48:	04f12c23          	sw	a5,88(sp)
   11e4c:	00e7b7b3          	sltu	a5,a5,a4
   11e50:	05c12703          	lw	a4,92(sp)
   11e54:	00e787b3          	add	a5,a5,a4
   11e58:	04f12e23          	sw	a5,92(sp)
   11e5c:	05c12783          	lw	a5,92(sp)
   11e60:	00c79713          	slli	a4,a5,0xc
   11e64:	00075e63          	bgez	a4,11e80 <__multf3+0xf84>
   11e68:	04012e23          	sw	zero,92(sp)
   11e6c:	04012c23          	sw	zero,88(sp)
   11e70:	04012a23          	sw	zero,84(sp)
   11e74:	04012823          	sw	zero,80(sp)
   11e78:	00100793          	li	a5,1
   11e7c:	d35ff06f          	j	11bb0 <__multf3+0xcb4>
   11e80:	05010793          	addi	a5,sp,80
   11e84:	05c10613          	addi	a2,sp,92
   11e88:	0007a703          	lw	a4,0(a5)
   11e8c:	0047a683          	lw	a3,4(a5)
   11e90:	00478793          	addi	a5,a5,4
   11e94:	00375713          	srli	a4,a4,0x3
   11e98:	01d69693          	slli	a3,a3,0x1d
   11e9c:	00d76733          	or	a4,a4,a3
   11ea0:	fee7ae23          	sw	a4,-4(a5)
   11ea4:	fef612e3          	bne	a2,a5,11e88 <__multf3+0xf8c>
   11ea8:	05c12783          	lw	a5,92(sp)
   11eac:	0037d793          	srli	a5,a5,0x3
   11eb0:	04f12e23          	sw	a5,92(sp)
   11eb4:	00000793          	li	a5,0
   11eb8:	cf9ff06f          	j	11bb0 <__multf3+0xcb4>
   11ebc:	05412783          	lw	a5,84(sp)
   11ec0:	05012703          	lw	a4,80(sp)
   11ec4:	00f76733          	or	a4,a4,a5
   11ec8:	05812783          	lw	a5,88(sp)
   11ecc:	00f76733          	or	a4,a4,a5
   11ed0:	05c12783          	lw	a5,92(sp)
   11ed4:	00f76733          	or	a4,a4,a5
   11ed8:	00000793          	li	a5,0
   11edc:	cc070ae3          	beqz	a4,11bb0 <__multf3+0xcb4>
   11ee0:	04012e23          	sw	zero,92(sp)
   11ee4:	04012c23          	sw	zero,88(sp)
   11ee8:	04012a23          	sw	zero,84(sp)
   11eec:	04012823          	sw	zero,80(sp)
   11ef0:	cc1ff06f          	j	11bb0 <__multf3+0xcb4>
   11ef4:	000087b7          	lui	a5,0x8
   11ef8:	04012e23          	sw	zero,92(sp)
   11efc:	04012c23          	sw	zero,88(sp)
   11f00:	04012a23          	sw	zero,84(sp)
   11f04:	04012823          	sw	zero,80(sp)
   11f08:	fff78793          	addi	a5,a5,-1 # 7fff <_svfprintf_r+0x8ef>
   11f0c:	ca5ff06f          	j	11bb0 <__multf3+0xcb4>
   11f10:	000087b7          	lui	a5,0x8
   11f14:	04f12e23          	sw	a5,92(sp)
   11f18:	04012c23          	sw	zero,88(sp)
   11f1c:	04012a23          	sw	zero,84(sp)
   11f20:	04012823          	sw	zero,80(sp)
   11f24:	fff78793          	addi	a5,a5,-1 # 7fff <_svfprintf_r+0x8ef>
   11f28:	00012823          	sw	zero,16(sp)
   11f2c:	c85ff06f          	j	11bb0 <__multf3+0xcb4>

00011f30 <__subtf3>:
   11f30:	fa010113          	addi	sp,sp,-96
   11f34:	0085a783          	lw	a5,8(a1)
   11f38:	05212823          	sw	s2,80(sp)
   11f3c:	00c5a903          	lw	s2,12(a1)
   11f40:	0045a703          	lw	a4,4(a1)
   11f44:	04912a23          	sw	s1,84(sp)
   11f48:	00050493          	mv	s1,a0
   11f4c:	0005a503          	lw	a0,0(a1)
   11f50:	02f12c23          	sw	a5,56(sp)
   11f54:	00f12c23          	sw	a5,24(sp)
   11f58:	00062303          	lw	t1,0(a2)
   11f5c:	01091793          	slli	a5,s2,0x10
   11f60:	00462883          	lw	a7,4(a2)
   11f64:	00862683          	lw	a3,8(a2)
   11f68:	00c62803          	lw	a6,12(a2)
   11f6c:	04812c23          	sw	s0,88(sp)
   11f70:	0107d793          	srli	a5,a5,0x10
   11f74:	00191413          	slli	s0,s2,0x1
   11f78:	03212e23          	sw	s2,60(sp)
   11f7c:	04112e23          	sw	ra,92(sp)
   11f80:	05312623          	sw	s3,76(sp)
   11f84:	05412423          	sw	s4,72(sp)
   11f88:	05512223          	sw	s5,68(sp)
   11f8c:	02a12823          	sw	a0,48(sp)
   11f90:	02e12a23          	sw	a4,52(sp)
   11f94:	00a12823          	sw	a0,16(sp)
   11f98:	00e12a23          	sw	a4,20(sp)
   11f9c:	00f12e23          	sw	a5,28(sp)
   11fa0:	01145413          	srli	s0,s0,0x11
   11fa4:	01f95913          	srli	s2,s2,0x1f
   11fa8:	01010e13          	addi	t3,sp,16
   11fac:	01c10593          	addi	a1,sp,28
   11fb0:	0005a783          	lw	a5,0(a1)
   11fb4:	ffc5a703          	lw	a4,-4(a1)
   11fb8:	ffc58593          	addi	a1,a1,-4
   11fbc:	00379793          	slli	a5,a5,0x3
   11fc0:	01d75713          	srli	a4,a4,0x1d
   11fc4:	00e7e7b3          	or	a5,a5,a4
   11fc8:	00f5a223          	sw	a5,4(a1)
   11fcc:	febe12e3          	bne	t3,a1,11fb0 <__subtf3+0x80>
   11fd0:	01012703          	lw	a4,16(sp)
   11fd4:	01081793          	slli	a5,a6,0x10
   11fd8:	00181613          	slli	a2,a6,0x1
   11fdc:	00371713          	slli	a4,a4,0x3
   11fe0:	0107d793          	srli	a5,a5,0x10
   11fe4:	02612823          	sw	t1,48(sp)
   11fe8:	03112a23          	sw	a7,52(sp)
   11fec:	03012e23          	sw	a6,60(sp)
   11ff0:	02612023          	sw	t1,32(sp)
   11ff4:	03112223          	sw	a7,36(sp)
   11ff8:	00e12823          	sw	a4,16(sp)
   11ffc:	02d12c23          	sw	a3,56(sp)
   12000:	02d12423          	sw	a3,40(sp)
   12004:	02f12623          	sw	a5,44(sp)
   12008:	01165613          	srli	a2,a2,0x11
   1200c:	01f85813          	srli	a6,a6,0x1f
   12010:	02010313          	addi	t1,sp,32
   12014:	02c10893          	addi	a7,sp,44
   12018:	0008a783          	lw	a5,0(a7)
   1201c:	ffc8a683          	lw	a3,-4(a7)
   12020:	ffc88893          	addi	a7,a7,-4
   12024:	00379793          	slli	a5,a5,0x3
   12028:	01d6d693          	srli	a3,a3,0x1d
   1202c:	00d7e7b3          	or	a5,a5,a3
   12030:	00f8a223          	sw	a5,4(a7)
   12034:	ff1312e3          	bne	t1,a7,12018 <__subtf3+0xe8>
   12038:	02012783          	lw	a5,32(sp)
   1203c:	000086b7          	lui	a3,0x8
   12040:	fff68693          	addi	a3,a3,-1 # 7fff <_svfprintf_r+0x8ef>
   12044:	00379793          	slli	a5,a5,0x3
   12048:	02f12023          	sw	a5,32(sp)
   1204c:	02d61063          	bne	a2,a3,1206c <__subtf3+0x13c>
   12050:	02812503          	lw	a0,40(sp)
   12054:	02412683          	lw	a3,36(sp)
   12058:	00a6e6b3          	or	a3,a3,a0
   1205c:	02c12503          	lw	a0,44(sp)
   12060:	00a6e6b3          	or	a3,a3,a0
   12064:	00f6e6b3          	or	a3,a3,a5
   12068:	00069463          	bnez	a3,12070 <__subtf3+0x140>
   1206c:	00184813          	xori	a6,a6,1
   12070:	40c40533          	sub	a0,s0,a2
   12074:	152810e3          	bne	a6,s2,129b4 <__subtf3+0xa84>
   12078:	30a05463          	blez	a0,12380 <__subtf3+0x450>
   1207c:	0c061663          	bnez	a2,12148 <__subtf3+0x218>
   12080:	02412583          	lw	a1,36(sp)
   12084:	02812603          	lw	a2,40(sp)
   12088:	02c12803          	lw	a6,44(sp)
   1208c:	00c5e6b3          	or	a3,a1,a2
   12090:	0106e6b3          	or	a3,a3,a6
   12094:	00f6e6b3          	or	a3,a3,a5
   12098:	02069063          	bnez	a3,120b8 <__subtf3+0x188>
   1209c:	01412783          	lw	a5,20(sp)
   120a0:	02e12823          	sw	a4,48(sp)
   120a4:	02f12a23          	sw	a5,52(sp)
   120a8:	01812783          	lw	a5,24(sp)
   120ac:	02f12c23          	sw	a5,56(sp)
   120b0:	01c12783          	lw	a5,28(sp)
   120b4:	30c0006f          	j	123c0 <__subtf3+0x490>
   120b8:	fff50693          	addi	a3,a0,-1
   120bc:	06069063          	bnez	a3,1211c <__subtf3+0x1ec>
   120c0:	01412683          	lw	a3,20(sp)
   120c4:	00f707b3          	add	a5,a4,a5
   120c8:	00e7b733          	sltu	a4,a5,a4
   120cc:	00d585b3          	add	a1,a1,a3
   120d0:	02f12823          	sw	a5,48(sp)
   120d4:	00e587b3          	add	a5,a1,a4
   120d8:	00e7b733          	sltu	a4,a5,a4
   120dc:	02f12a23          	sw	a5,52(sp)
   120e0:	01812783          	lw	a5,24(sp)
   120e4:	00d5b6b3          	sltu	a3,a1,a3
   120e8:	00e6e733          	or	a4,a3,a4
   120ec:	00f606b3          	add	a3,a2,a5
   120f0:	00e68633          	add	a2,a3,a4
   120f4:	00e63733          	sltu	a4,a2,a4
   120f8:	00f6b7b3          	sltu	a5,a3,a5
   120fc:	00e7e7b3          	or	a5,a5,a4
   12100:	01c12703          	lw	a4,28(sp)
   12104:	02c12c23          	sw	a2,56(sp)
   12108:	00e80833          	add	a6,a6,a4
   1210c:	010787b3          	add	a5,a5,a6
   12110:	02f12e23          	sw	a5,60(sp)
   12114:	00100413          	li	s0,1
   12118:	1dc0006f          	j	122f4 <__subtf3+0x3c4>
   1211c:	000087b7          	lui	a5,0x8
   12120:	fff78793          	addi	a5,a5,-1 # 7fff <_svfprintf_r+0x8ef>
   12124:	f6f50ce3          	beq	a0,a5,1209c <__subtf3+0x16c>
   12128:	07400793          	li	a5,116
   1212c:	06d7d263          	bge	a5,a3,12190 <__subtf3+0x260>
   12130:	00100793          	li	a5,1
   12134:	02012623          	sw	zero,44(sp)
   12138:	02012423          	sw	zero,40(sp)
   1213c:	02012223          	sw	zero,36(sp)
   12140:	02f12023          	sw	a5,32(sp)
   12144:	1480006f          	j	1228c <__subtf3+0x35c>
   12148:	000087b7          	lui	a5,0x8
   1214c:	fff78793          	addi	a5,a5,-1 # 7fff <_svfprintf_r+0x8ef>
   12150:	02f41263          	bne	s0,a5,12174 <__subtf3+0x244>
   12154:	01412783          	lw	a5,20(sp)
   12158:	02e12823          	sw	a4,48(sp)
   1215c:	02f12a23          	sw	a5,52(sp)
   12160:	01812783          	lw	a5,24(sp)
   12164:	02f12c23          	sw	a5,56(sp)
   12168:	01c12783          	lw	a5,28(sp)
   1216c:	02f12e23          	sw	a5,60(sp)
   12170:	2580006f          	j	123c8 <__subtf3+0x498>
   12174:	02c12783          	lw	a5,44(sp)
   12178:	00080737          	lui	a4,0x80
   1217c:	00e7e7b3          	or	a5,a5,a4
   12180:	02f12623          	sw	a5,44(sp)
   12184:	07400793          	li	a5,116
   12188:	faa7c4e3          	blt	a5,a0,12130 <__subtf3+0x200>
   1218c:	00050693          	mv	a3,a0
   12190:	4056de13          	srai	t3,a3,0x5
   12194:	01f6f793          	andi	a5,a3,31
   12198:	00000613          	li	a2,0
   1219c:	00000713          	li	a4,0
   121a0:	00271693          	slli	a3,a4,0x2
   121a4:	03c71863          	bne	a4,t3,121d4 <__subtf3+0x2a4>
   121a8:	04079063          	bnez	a5,121e8 <__subtf3+0x2b8>
   121ac:	00300593          	li	a1,3
   121b0:	40e58733          	sub	a4,a1,a4
   121b4:	00d885b3          	add	a1,a7,a3
   121b8:	0005a583          	lw	a1,0(a1)
   121bc:	00178793          	addi	a5,a5,1
   121c0:	00488893          	addi	a7,a7,4
   121c4:	feb8ae23          	sw	a1,-4(a7)
   121c8:	fef756e3          	bge	a4,a5,121b4 <__subtf3+0x284>
   121cc:	00400693          	li	a3,4
   121d0:	0a80006f          	j	12278 <__subtf3+0x348>
   121d4:	00d306b3          	add	a3,t1,a3
   121d8:	0006a683          	lw	a3,0(a3)
   121dc:	00170713          	addi	a4,a4,1 # 80001 <__trunctfdf2+0x6c699>
   121e0:	00d66633          	or	a2,a2,a3
   121e4:	fbdff06f          	j	121a0 <__subtf3+0x270>
   121e8:	04010713          	addi	a4,sp,64
   121ec:	00d70733          	add	a4,a4,a3
   121f0:	fe072703          	lw	a4,-32(a4)
   121f4:	02000813          	li	a6,32
   121f8:	40f80833          	sub	a6,a6,a5
   121fc:	01071733          	sll	a4,a4,a6
   12200:	00e66633          	or	a2,a2,a4
   12204:	00300713          	li	a4,3
   12208:	00d306b3          	add	a3,t1,a3
   1220c:	00000513          	li	a0,0
   12210:	41c70733          	sub	a4,a4,t3
   12214:	00468693          	addi	a3,a3,4
   12218:	02e54463          	blt	a0,a4,12240 <__subtf3+0x310>
   1221c:	04010693          	addi	a3,sp,64
   12220:	00271713          	slli	a4,a4,0x2
   12224:	00e68733          	add	a4,a3,a4
   12228:	02c12683          	lw	a3,44(sp)
   1222c:	00f6d7b3          	srl	a5,a3,a5
   12230:	fef72023          	sw	a5,-32(a4)
   12234:	00400793          	li	a5,4
   12238:	41c787b3          	sub	a5,a5,t3
   1223c:	f91ff06f          	j	121cc <__subtf3+0x29c>
   12240:	ffc6a583          	lw	a1,-4(a3)
   12244:	0006ae83          	lw	t4,0(a3)
   12248:	00251893          	slli	a7,a0,0x2
   1224c:	00f5d5b3          	srl	a1,a1,a5
   12250:	010e9eb3          	sll	t4,t4,a6
   12254:	011308b3          	add	a7,t1,a7
   12258:	01d5e5b3          	or	a1,a1,t4
   1225c:	00b8a023          	sw	a1,0(a7)
   12260:	00150513          	addi	a0,a0,1
   12264:	fb1ff06f          	j	12214 <__subtf3+0x2e4>
   12268:	00279713          	slli	a4,a5,0x2
   1226c:	00e30733          	add	a4,t1,a4
   12270:	00072023          	sw	zero,0(a4)
   12274:	00178793          	addi	a5,a5,1
   12278:	fed798e3          	bne	a5,a3,12268 <__subtf3+0x338>
   1227c:	02012783          	lw	a5,32(sp)
   12280:	00c03633          	snez	a2,a2
   12284:	00c7e633          	or	a2,a5,a2
   12288:	02c12023          	sw	a2,32(sp)
   1228c:	01012683          	lw	a3,16(sp)
   12290:	02012783          	lw	a5,32(sp)
   12294:	01412703          	lw	a4,20(sp)
   12298:	02812583          	lw	a1,40(sp)
   1229c:	00f687b3          	add	a5,a3,a5
   122a0:	00d7b6b3          	sltu	a3,a5,a3
   122a4:	02f12823          	sw	a5,48(sp)
   122a8:	02412783          	lw	a5,36(sp)
   122ac:	02c12503          	lw	a0,44(sp)
   122b0:	00f707b3          	add	a5,a4,a5
   122b4:	00d78633          	add	a2,a5,a3
   122b8:	00e7b733          	sltu	a4,a5,a4
   122bc:	00d637b3          	sltu	a5,a2,a3
   122c0:	00f767b3          	or	a5,a4,a5
   122c4:	01812703          	lw	a4,24(sp)
   122c8:	01c12683          	lw	a3,28(sp)
   122cc:	02c12a23          	sw	a2,52(sp)
   122d0:	00b705b3          	add	a1,a4,a1
   122d4:	00f58633          	add	a2,a1,a5
   122d8:	00e5b733          	sltu	a4,a1,a4
   122dc:	00f637b3          	sltu	a5,a2,a5
   122e0:	00a686b3          	add	a3,a3,a0
   122e4:	00f76733          	or	a4,a4,a5
   122e8:	00e68733          	add	a4,a3,a4
   122ec:	02c12c23          	sw	a2,56(sp)
   122f0:	02e12e23          	sw	a4,60(sp)
   122f4:	03c12783          	lw	a5,60(sp)
   122f8:	00c79713          	slli	a4,a5,0xc
   122fc:	0c075663          	bgez	a4,123c8 <__subtf3+0x498>
   12300:	fff80737          	lui	a4,0xfff80
   12304:	fff70713          	addi	a4,a4,-1 # fff7ffff <__stack_top+0x7ff091af>
   12308:	00e7f7b3          	and	a5,a5,a4
   1230c:	02f12e23          	sw	a5,60(sp)
   12310:	03012783          	lw	a5,48(sp)
   12314:	00140413          	addi	s0,s0,1
   12318:	03c10593          	addi	a1,sp,60
   1231c:	01f79713          	slli	a4,a5,0x1f
   12320:	03010793          	addi	a5,sp,48
   12324:	0007a683          	lw	a3,0(a5)
   12328:	0047a603          	lw	a2,4(a5)
   1232c:	00478793          	addi	a5,a5,4
   12330:	0016d693          	srli	a3,a3,0x1
   12334:	01f61613          	slli	a2,a2,0x1f
   12338:	00c6e6b3          	or	a3,a3,a2
   1233c:	fed7ae23          	sw	a3,-4(a5)
   12340:	fef592e3          	bne	a1,a5,12324 <__subtf3+0x3f4>
   12344:	03c12783          	lw	a5,60(sp)
   12348:	0017d793          	srli	a5,a5,0x1
   1234c:	02f12e23          	sw	a5,60(sp)
   12350:	00e037b3          	snez	a5,a4
   12354:	03012703          	lw	a4,48(sp)
   12358:	00f767b3          	or	a5,a4,a5
   1235c:	02f12823          	sw	a5,48(sp)
   12360:	000087b7          	lui	a5,0x8
   12364:	fff78793          	addi	a5,a5,-1 # 7fff <_svfprintf_r+0x8ef>
   12368:	06f41063          	bne	s0,a5,123c8 <__subtf3+0x498>
   1236c:	02012e23          	sw	zero,60(sp)
   12370:	02012c23          	sw	zero,56(sp)
   12374:	02012a23          	sw	zero,52(sp)
   12378:	02012823          	sw	zero,48(sp)
   1237c:	04c0006f          	j	123c8 <__subtf3+0x498>
   12380:	40050c63          	beqz	a0,12798 <__subtf3+0x868>
   12384:	40860533          	sub	a0,a2,s0
   12388:	24041063          	bnez	s0,125c8 <__subtf3+0x698>
   1238c:	01412883          	lw	a7,20(sp)
   12390:	01812803          	lw	a6,24(sp)
   12394:	01c12303          	lw	t1,28(sp)
   12398:	0108e6b3          	or	a3,a7,a6
   1239c:	0066e6b3          	or	a3,a3,t1
   123a0:	00e6e6b3          	or	a3,a3,a4
   123a4:	18069c63          	bnez	a3,1253c <__subtf3+0x60c>
   123a8:	02f12823          	sw	a5,48(sp)
   123ac:	02412783          	lw	a5,36(sp)
   123b0:	02f12a23          	sw	a5,52(sp)
   123b4:	02812783          	lw	a5,40(sp)
   123b8:	02f12c23          	sw	a5,56(sp)
   123bc:	02c12783          	lw	a5,44(sp)
   123c0:	02f12e23          	sw	a5,60(sp)
   123c4:	00050413          	mv	s0,a0
   123c8:	03012783          	lw	a5,48(sp)
   123cc:	0077f713          	andi	a4,a5,7
   123d0:	04070463          	beqz	a4,12418 <__subtf3+0x4e8>
   123d4:	00f7f713          	andi	a4,a5,15
   123d8:	00400693          	li	a3,4
   123dc:	02d70e63          	beq	a4,a3,12418 <__subtf3+0x4e8>
   123e0:	03412703          	lw	a4,52(sp)
   123e4:	00478793          	addi	a5,a5,4
   123e8:	02f12823          	sw	a5,48(sp)
   123ec:	0047b793          	sltiu	a5,a5,4
   123f0:	00e78733          	add	a4,a5,a4
   123f4:	00f737b3          	sltu	a5,a4,a5
   123f8:	02e12a23          	sw	a4,52(sp)
   123fc:	03812703          	lw	a4,56(sp)
   12400:	00e78733          	add	a4,a5,a4
   12404:	02e12c23          	sw	a4,56(sp)
   12408:	00f73733          	sltu	a4,a4,a5
   1240c:	03c12783          	lw	a5,60(sp)
   12410:	00f70733          	add	a4,a4,a5
   12414:	02e12e23          	sw	a4,60(sp)
   12418:	03c12783          	lw	a5,60(sp)
   1241c:	00c79713          	slli	a4,a5,0xc
   12420:	02075463          	bgez	a4,12448 <__subtf3+0x518>
   12424:	00008737          	lui	a4,0x8
   12428:	00140413          	addi	s0,s0,1
   1242c:	fff70713          	addi	a4,a4,-1 # 7fff <_svfprintf_r+0x8ef>
   12430:	00e41463          	bne	s0,a4,12438 <__subtf3+0x508>
   12434:	0180106f          	j	1344c <__subtf3+0x151c>
   12438:	fff80737          	lui	a4,0xfff80
   1243c:	fff70713          	addi	a4,a4,-1 # fff7ffff <__stack_top+0x7ff091af>
   12440:	00e7f7b3          	and	a5,a5,a4
   12444:	02f12e23          	sw	a5,60(sp)
   12448:	03010793          	addi	a5,sp,48
   1244c:	03c10613          	addi	a2,sp,60
   12450:	0007a703          	lw	a4,0(a5)
   12454:	0047a683          	lw	a3,4(a5)
   12458:	00478793          	addi	a5,a5,4
   1245c:	00375713          	srli	a4,a4,0x3
   12460:	01d69693          	slli	a3,a3,0x1d
   12464:	00d76733          	or	a4,a4,a3
   12468:	fee7ae23          	sw	a4,-4(a5)
   1246c:	fef612e3          	bne	a2,a5,12450 <__subtf3+0x520>
   12470:	03c12783          	lw	a5,60(sp)
   12474:	000086b7          	lui	a3,0x8
   12478:	0037d713          	srli	a4,a5,0x3
   1247c:	02e12e23          	sw	a4,60(sp)
   12480:	fff68793          	addi	a5,a3,-1 # 7fff <_svfprintf_r+0x8ef>
   12484:	02f41a63          	bne	s0,a5,124b8 <__subtf3+0x588>
   12488:	03412603          	lw	a2,52(sp)
   1248c:	03012783          	lw	a5,48(sp)
   12490:	00c7e7b3          	or	a5,a5,a2
   12494:	03812603          	lw	a2,56(sp)
   12498:	00c7e7b3          	or	a5,a5,a2
   1249c:	00e7e7b3          	or	a5,a5,a4
   124a0:	00078c63          	beqz	a5,124b8 <__subtf3+0x588>
   124a4:	02d12e23          	sw	a3,60(sp)
   124a8:	02012c23          	sw	zero,56(sp)
   124ac:	02012a23          	sw	zero,52(sp)
   124b0:	02012823          	sw	zero,48(sp)
   124b4:	00000913          	li	s2,0
   124b8:	03c12783          	lw	a5,60(sp)
   124bc:	80010737          	lui	a4,0x80010
   124c0:	fff70713          	addi	a4,a4,-1 # 8000ffff <__stack_top+0xfff991af>
   124c4:	00f11623          	sh	a5,12(sp)
   124c8:	000087b7          	lui	a5,0x8
   124cc:	fff78793          	addi	a5,a5,-1 # 7fff <_svfprintf_r+0x8ef>
   124d0:	00f47433          	and	s0,s0,a5
   124d4:	01041793          	slli	a5,s0,0x10
   124d8:	00c12403          	lw	s0,12(sp)
   124dc:	05c12083          	lw	ra,92(sp)
   124e0:	00048513          	mv	a0,s1
   124e4:	00e47433          	and	s0,s0,a4
   124e8:	00f46433          	or	s0,s0,a5
   124ec:	01f91793          	slli	a5,s2,0x1f
   124f0:	80000937          	lui	s2,0x80000
   124f4:	fff94913          	not	s2,s2
   124f8:	01247433          	and	s0,s0,s2
   124fc:	00f46933          	or	s2,s0,a5
   12500:	03012783          	lw	a5,48(sp)
   12504:	05812403          	lw	s0,88(sp)
   12508:	0124a623          	sw	s2,12(s1)
   1250c:	00f4a023          	sw	a5,0(s1)
   12510:	03412783          	lw	a5,52(sp)
   12514:	05012903          	lw	s2,80(sp)
   12518:	04c12983          	lw	s3,76(sp)
   1251c:	00f4a223          	sw	a5,4(s1)
   12520:	03812783          	lw	a5,56(sp)
   12524:	04812a03          	lw	s4,72(sp)
   12528:	04412a83          	lw	s5,68(sp)
   1252c:	00f4a423          	sw	a5,8(s1)
   12530:	05412483          	lw	s1,84(sp)
   12534:	06010113          	addi	sp,sp,96
   12538:	00008067          	ret
   1253c:	fff50693          	addi	a3,a0,-1
   12540:	04069e63          	bnez	a3,1259c <__subtf3+0x66c>
   12544:	02412683          	lw	a3,36(sp)
   12548:	00f70733          	add	a4,a4,a5
   1254c:	00f737b3          	sltu	a5,a4,a5
   12550:	00d88633          	add	a2,a7,a3
   12554:	02e12823          	sw	a4,48(sp)
   12558:	00f60733          	add	a4,a2,a5
   1255c:	00f737b3          	sltu	a5,a4,a5
   12560:	02e12a23          	sw	a4,52(sp)
   12564:	02812703          	lw	a4,40(sp)
   12568:	00d636b3          	sltu	a3,a2,a3
   1256c:	00f6e7b3          	or	a5,a3,a5
   12570:	00e806b3          	add	a3,a6,a4
   12574:	00f68633          	add	a2,a3,a5
   12578:	00f637b3          	sltu	a5,a2,a5
   1257c:	00e6b733          	sltu	a4,a3,a4
   12580:	00f76733          	or	a4,a4,a5
   12584:	02c12783          	lw	a5,44(sp)
   12588:	02c12c23          	sw	a2,56(sp)
   1258c:	00f30333          	add	t1,t1,a5
   12590:	00670733          	add	a4,a4,t1
   12594:	02e12e23          	sw	a4,60(sp)
   12598:	b7dff06f          	j	12114 <__subtf3+0x1e4>
   1259c:	00008737          	lui	a4,0x8
   125a0:	fff70713          	addi	a4,a4,-1 # 7fff <_svfprintf_r+0x8ef>
   125a4:	e0e502e3          	beq	a0,a4,123a8 <__subtf3+0x478>
   125a8:	07400793          	li	a5,116
   125ac:	06d7d463          	bge	a5,a3,12614 <__subtf3+0x6e4>
   125b0:	00100793          	li	a5,1
   125b4:	00012e23          	sw	zero,28(sp)
   125b8:	00012c23          	sw	zero,24(sp)
   125bc:	00012a23          	sw	zero,20(sp)
   125c0:	00f12823          	sw	a5,16(sp)
   125c4:	1640006f          	j	12728 <__subtf3+0x7f8>
   125c8:	00008737          	lui	a4,0x8
   125cc:	fff70713          	addi	a4,a4,-1 # 7fff <_svfprintf_r+0x8ef>
   125d0:	02e61463          	bne	a2,a4,125f8 <__subtf3+0x6c8>
   125d4:	02f12823          	sw	a5,48(sp)
   125d8:	02412783          	lw	a5,36(sp)
   125dc:	00060413          	mv	s0,a2
   125e0:	02f12a23          	sw	a5,52(sp)
   125e4:	02812783          	lw	a5,40(sp)
   125e8:	02f12c23          	sw	a5,56(sp)
   125ec:	02c12783          	lw	a5,44(sp)
   125f0:	02f12e23          	sw	a5,60(sp)
   125f4:	dd5ff06f          	j	123c8 <__subtf3+0x498>
   125f8:	01c12783          	lw	a5,28(sp)
   125fc:	00080737          	lui	a4,0x80
   12600:	00e7e7b3          	or	a5,a5,a4
   12604:	00f12e23          	sw	a5,28(sp)
   12608:	07400793          	li	a5,116
   1260c:	faa7c2e3          	blt	a5,a0,125b0 <__subtf3+0x680>
   12610:	00050693          	mv	a3,a0
   12614:	02000793          	li	a5,32
   12618:	02f6c533          	div	a0,a3,a5
   1261c:	00000713          	li	a4,0
   12620:	02f6e7b3          	rem	a5,a3,a5
   12624:	00000693          	li	a3,0
   12628:	04a74063          	blt	a4,a0,12668 <__subtf3+0x738>
   1262c:	00050813          	mv	a6,a0
   12630:	00055463          	bgez	a0,12638 <__subtf3+0x708>
   12634:	00000813          	li	a6,0
   12638:	00251713          	slli	a4,a0,0x2
   1263c:	04079263          	bnez	a5,12680 <__subtf3+0x750>
   12640:	00300813          	li	a6,3
   12644:	40a80533          	sub	a0,a6,a0
   12648:	00e58833          	add	a6,a1,a4
   1264c:	00082803          	lw	a6,0(a6)
   12650:	00178793          	addi	a5,a5,1
   12654:	00458593          	addi	a1,a1,4
   12658:	ff05ae23          	sw	a6,-4(a1)
   1265c:	fef556e3          	bge	a0,a5,12648 <__subtf3+0x718>
   12660:	00300593          	li	a1,3
   12664:	0b00006f          	j	12714 <__subtf3+0x7e4>
   12668:	00271813          	slli	a6,a4,0x2
   1266c:	010e0833          	add	a6,t3,a6
   12670:	00082803          	lw	a6,0(a6)
   12674:	00170713          	addi	a4,a4,1 # 80001 <__trunctfdf2+0x6c699>
   12678:	0106e6b3          	or	a3,a3,a6
   1267c:	fadff06f          	j	12628 <__subtf3+0x6f8>
   12680:	04010593          	addi	a1,sp,64
   12684:	00281813          	slli	a6,a6,0x2
   12688:	01058833          	add	a6,a1,a6
   1268c:	fd082583          	lw	a1,-48(a6)
   12690:	02000313          	li	t1,32
   12694:	40f30333          	sub	t1,t1,a5
   12698:	006595b3          	sll	a1,a1,t1
   1269c:	00b6e6b3          	or	a3,a3,a1
   126a0:	00ee05b3          	add	a1,t3,a4
   126a4:	00300713          	li	a4,3
   126a8:	00000893          	li	a7,0
   126ac:	40a70733          	sub	a4,a4,a0
   126b0:	00458593          	addi	a1,a1,4
   126b4:	02e8c463          	blt	a7,a4,126dc <__subtf3+0x7ac>
   126b8:	04010593          	addi	a1,sp,64
   126bc:	00271713          	slli	a4,a4,0x2
   126c0:	00e58733          	add	a4,a1,a4
   126c4:	01c12583          	lw	a1,28(sp)
   126c8:	00f5d7b3          	srl	a5,a1,a5
   126cc:	fcf72823          	sw	a5,-48(a4)
   126d0:	00400793          	li	a5,4
   126d4:	40a787b3          	sub	a5,a5,a0
   126d8:	f89ff06f          	j	12660 <__subtf3+0x730>
   126dc:	ffc5a803          	lw	a6,-4(a1)
   126e0:	0005af03          	lw	t5,0(a1)
   126e4:	00289e93          	slli	t4,a7,0x2
   126e8:	00f85833          	srl	a6,a6,a5
   126ec:	006f1f33          	sll	t5,t5,t1
   126f0:	01de0eb3          	add	t4,t3,t4
   126f4:	01e86833          	or	a6,a6,t5
   126f8:	010ea023          	sw	a6,0(t4)
   126fc:	00188893          	addi	a7,a7,1
   12700:	fb1ff06f          	j	126b0 <__subtf3+0x780>
   12704:	00279713          	slli	a4,a5,0x2
   12708:	00ee0733          	add	a4,t3,a4
   1270c:	00072023          	sw	zero,0(a4)
   12710:	00178793          	addi	a5,a5,1
   12714:	fef5d8e3          	bge	a1,a5,12704 <__subtf3+0x7d4>
   12718:	01012783          	lw	a5,16(sp)
   1271c:	00d036b3          	snez	a3,a3
   12720:	00d7e6b3          	or	a3,a5,a3
   12724:	00d12823          	sw	a3,16(sp)
   12728:	02012683          	lw	a3,32(sp)
   1272c:	01012783          	lw	a5,16(sp)
   12730:	02412703          	lw	a4,36(sp)
   12734:	01812503          	lw	a0,24(sp)
   12738:	00f687b3          	add	a5,a3,a5
   1273c:	00d7b6b3          	sltu	a3,a5,a3
   12740:	02f12823          	sw	a5,48(sp)
   12744:	01412783          	lw	a5,20(sp)
   12748:	01c12803          	lw	a6,28(sp)
   1274c:	00060413          	mv	s0,a2
   12750:	00f707b3          	add	a5,a4,a5
   12754:	00d785b3          	add	a1,a5,a3
   12758:	00e7b733          	sltu	a4,a5,a4
   1275c:	00d5b7b3          	sltu	a5,a1,a3
   12760:	00f767b3          	or	a5,a4,a5
   12764:	02812703          	lw	a4,40(sp)
   12768:	02c12683          	lw	a3,44(sp)
   1276c:	02b12a23          	sw	a1,52(sp)
   12770:	00a70533          	add	a0,a4,a0
   12774:	00f505b3          	add	a1,a0,a5
   12778:	00e53733          	sltu	a4,a0,a4
   1277c:	00f5b7b3          	sltu	a5,a1,a5
   12780:	010686b3          	add	a3,a3,a6
   12784:	00f76733          	or	a4,a4,a5
   12788:	00e68733          	add	a4,a3,a4
   1278c:	02b12c23          	sw	a1,56(sp)
   12790:	02e12e23          	sw	a4,60(sp)
   12794:	b61ff06f          	j	122f4 <__subtf3+0x3c4>
   12798:	00008fb7          	lui	t6,0x8
   1279c:	00140f13          	addi	t5,s0,1
   127a0:	ffef8613          	addi	a2,t6,-2 # 7ffe <_svfprintf_r+0x8ee>
   127a4:	00cf7633          	and	a2,t5,a2
   127a8:	02412683          	lw	a3,36(sp)
   127ac:	02812583          	lw	a1,40(sp)
   127b0:	02c12503          	lw	a0,44(sp)
   127b4:	01412303          	lw	t1,20(sp)
   127b8:	01812883          	lw	a7,24(sp)
   127bc:	01c12e03          	lw	t3,28(sp)
   127c0:	03010813          	addi	a6,sp,48
   127c4:	03c10e93          	addi	t4,sp,60
   127c8:	14061663          	bnez	a2,12914 <__subtf3+0x9e4>
   127cc:	01136633          	or	a2,t1,a7
   127d0:	01c66633          	or	a2,a2,t3
   127d4:	00e66633          	or	a2,a2,a4
   127d8:	0a041663          	bnez	s0,12884 <__subtf3+0x954>
   127dc:	00061c63          	bnez	a2,127f4 <__subtf3+0x8c4>
   127e0:	02f12823          	sw	a5,48(sp)
   127e4:	02d12a23          	sw	a3,52(sp)
   127e8:	02b12c23          	sw	a1,56(sp)
   127ec:	02a12e23          	sw	a0,60(sp)
   127f0:	bd9ff06f          	j	123c8 <__subtf3+0x498>
   127f4:	00b6e633          	or	a2,a3,a1
   127f8:	00a66633          	or	a2,a2,a0
   127fc:	00f66633          	or	a2,a2,a5
   12800:	00061c63          	bnez	a2,12818 <__subtf3+0x8e8>
   12804:	02e12823          	sw	a4,48(sp)
   12808:	02612a23          	sw	t1,52(sp)
   1280c:	03112c23          	sw	a7,56(sp)
   12810:	03c12e23          	sw	t3,60(sp)
   12814:	bb5ff06f          	j	123c8 <__subtf3+0x498>
   12818:	00f707b3          	add	a5,a4,a5
   1281c:	00e7b733          	sltu	a4,a5,a4
   12820:	006686b3          	add	a3,a3,t1
   12824:	02f12823          	sw	a5,48(sp)
   12828:	00e687b3          	add	a5,a3,a4
   1282c:	00e7b733          	sltu	a4,a5,a4
   12830:	0066b6b3          	sltu	a3,a3,t1
   12834:	00e6e733          	or	a4,a3,a4
   12838:	011585b3          	add	a1,a1,a7
   1283c:	02f12a23          	sw	a5,52(sp)
   12840:	00e587b3          	add	a5,a1,a4
   12844:	0115b633          	sltu	a2,a1,a7
   12848:	00e7b733          	sltu	a4,a5,a4
   1284c:	00e66733          	or	a4,a2,a4
   12850:	01c50633          	add	a2,a0,t3
   12854:	00c70633          	add	a2,a4,a2
   12858:	02f12c23          	sw	a5,56(sp)
   1285c:	00c61793          	slli	a5,a2,0xc
   12860:	0007c663          	bltz	a5,1286c <__subtf3+0x93c>
   12864:	02c12e23          	sw	a2,60(sp)
   12868:	b61ff06f          	j	123c8 <__subtf3+0x498>
   1286c:	fff80737          	lui	a4,0xfff80
   12870:	fff70713          	addi	a4,a4,-1 # fff7ffff <__stack_top+0x7ff091af>
   12874:	00e67633          	and	a2,a2,a4
   12878:	02c12e23          	sw	a2,60(sp)
   1287c:	00100413          	li	s0,1
   12880:	b49ff06f          	j	123c8 <__subtf3+0x498>
   12884:	00061e63          	bnez	a2,128a0 <__subtf3+0x970>
   12888:	02f12823          	sw	a5,48(sp)
   1288c:	02d12a23          	sw	a3,52(sp)
   12890:	02b12c23          	sw	a1,56(sp)
   12894:	02a12e23          	sw	a0,60(sp)
   12898:	ffff8413          	addi	s0,t6,-1
   1289c:	b2dff06f          	j	123c8 <__subtf3+0x498>
   128a0:	00b6e633          	or	a2,a3,a1
   128a4:	00a66633          	or	a2,a2,a0
   128a8:	00f667b3          	or	a5,a2,a5
   128ac:	00079c63          	bnez	a5,128c4 <__subtf3+0x994>
   128b0:	02e12823          	sw	a4,48(sp)
   128b4:	02612a23          	sw	t1,52(sp)
   128b8:	03112c23          	sw	a7,56(sp)
   128bc:	03c12e23          	sw	t3,60(sp)
   128c0:	fd9ff06f          	j	12898 <__subtf3+0x968>
   128c4:	03f12e23          	sw	t6,60(sp)
   128c8:	02012c23          	sw	zero,56(sp)
   128cc:	02012a23          	sw	zero,52(sp)
   128d0:	02012823          	sw	zero,48(sp)
   128d4:	000e8793          	mv	a5,t4
   128d8:	0007a703          	lw	a4,0(a5)
   128dc:	ffc7a683          	lw	a3,-4(a5)
   128e0:	ffc78793          	addi	a5,a5,-4
   128e4:	00371713          	slli	a4,a4,0x3
   128e8:	01d6d693          	srli	a3,a3,0x1d
   128ec:	00d76733          	or	a4,a4,a3
   128f0:	00e7a223          	sw	a4,4(a5)
   128f4:	fef812e3          	bne	a6,a5,128d8 <__subtf3+0x9a8>
   128f8:	03012783          	lw	a5,48(sp)
   128fc:	00008437          	lui	s0,0x8
   12900:	00000913          	li	s2,0
   12904:	00379793          	slli	a5,a5,0x3
   12908:	02f12823          	sw	a5,48(sp)
   1290c:	fff40413          	addi	s0,s0,-1 # 7fff <_svfprintf_r+0x8ef>
   12910:	ab9ff06f          	j	123c8 <__subtf3+0x498>
   12914:	00f707b3          	add	a5,a4,a5
   12918:	00e7b733          	sltu	a4,a5,a4
   1291c:	006686b3          	add	a3,a3,t1
   12920:	02f12823          	sw	a5,48(sp)
   12924:	00e687b3          	add	a5,a3,a4
   12928:	00e7b733          	sltu	a4,a5,a4
   1292c:	0066b6b3          	sltu	a3,a3,t1
   12930:	00e6e733          	or	a4,a3,a4
   12934:	01158633          	add	a2,a1,a7
   12938:	00e606b3          	add	a3,a2,a4
   1293c:	00e6b733          	sltu	a4,a3,a4
   12940:	01163633          	sltu	a2,a2,a7
   12944:	00e66633          	or	a2,a2,a4
   12948:	01c50733          	add	a4,a0,t3
   1294c:	00e60633          	add	a2,a2,a4
   12950:	02f12a23          	sw	a5,52(sp)
   12954:	02d12c23          	sw	a3,56(sp)
   12958:	02c12e23          	sw	a2,60(sp)
   1295c:	00080793          	mv	a5,a6
   12960:	0007a703          	lw	a4,0(a5)
   12964:	0047a683          	lw	a3,4(a5)
   12968:	00478793          	addi	a5,a5,4
   1296c:	00175713          	srli	a4,a4,0x1
   12970:	01f69693          	slli	a3,a3,0x1f
   12974:	00d76733          	or	a4,a4,a3
   12978:	fee7ae23          	sw	a4,-4(a5)
   1297c:	fefe92e3          	bne	t4,a5,12960 <__subtf3+0xa30>
   12980:	000087b7          	lui	a5,0x8
   12984:	fff78793          	addi	a5,a5,-1 # 7fff <_svfprintf_r+0x8ef>
   12988:	00ff0c63          	beq	t5,a5,129a0 <__subtf3+0xa70>
   1298c:	03c12783          	lw	a5,60(sp)
   12990:	0017d793          	srli	a5,a5,0x1
   12994:	02f12e23          	sw	a5,60(sp)
   12998:	000f0413          	mv	s0,t5
   1299c:	a2dff06f          	j	123c8 <__subtf3+0x498>
   129a0:	02012e23          	sw	zero,60(sp)
   129a4:	02012c23          	sw	zero,56(sp)
   129a8:	02012a23          	sw	zero,52(sp)
   129ac:	02012823          	sw	zero,48(sp)
   129b0:	fe9ff06f          	j	12998 <__subtf3+0xa68>
   129b4:	28a05263          	blez	a0,12c38 <__subtf3+0xd08>
   129b8:	0c061263          	bnez	a2,12a7c <__subtf3+0xb4c>
   129bc:	02412803          	lw	a6,36(sp)
   129c0:	02812603          	lw	a2,40(sp)
   129c4:	02c12e03          	lw	t3,44(sp)
   129c8:	00c865b3          	or	a1,a6,a2
   129cc:	01c5e5b3          	or	a1,a1,t3
   129d0:	00f5e5b3          	or	a1,a1,a5
   129d4:	ec058463          	beqz	a1,1209c <__subtf3+0x16c>
   129d8:	fff50693          	addi	a3,a0,-1
   129dc:	06069a63          	bnez	a3,12a50 <__subtf3+0xb20>
   129e0:	01412883          	lw	a7,20(sp)
   129e4:	40f707b3          	sub	a5,a4,a5
   129e8:	00f735b3          	sltu	a1,a4,a5
   129ec:	41088533          	sub	a0,a7,a6
   129f0:	00a8b333          	sltu	t1,a7,a0
   129f4:	40b50533          	sub	a0,a0,a1
   129f8:	02f12823          	sw	a5,48(sp)
   129fc:	02a12a23          	sw	a0,52(sp)
   12a00:	00000593          	li	a1,0
   12a04:	00f77663          	bgeu	a4,a5,12a10 <__subtf3+0xae0>
   12a08:	411805b3          	sub	a1,a6,a7
   12a0c:	0015b593          	seqz	a1,a1
   12a10:	01812803          	lw	a6,24(sp)
   12a14:	0065e5b3          	or	a1,a1,t1
   12a18:	40c80533          	sub	a0,a6,a2
   12a1c:	00a837b3          	sltu	a5,a6,a0
   12a20:	40b50533          	sub	a0,a0,a1
   12a24:	02a12c23          	sw	a0,56(sp)
   12a28:	00058663          	beqz	a1,12a34 <__subtf3+0xb04>
   12a2c:	41060633          	sub	a2,a2,a6
   12a30:	00163693          	seqz	a3,a2
   12a34:	01c12703          	lw	a4,28(sp)
   12a38:	00f6e7b3          	or	a5,a3,a5
   12a3c:	41c70733          	sub	a4,a4,t3
   12a40:	40f707b3          	sub	a5,a4,a5
   12a44:	02f12e23          	sw	a5,60(sp)
   12a48:	00100413          	li	s0,1
   12a4c:	1cc0006f          	j	12c18 <__subtf3+0xce8>
   12a50:	000087b7          	lui	a5,0x8
   12a54:	fff78793          	addi	a5,a5,-1 # 7fff <_svfprintf_r+0x8ef>
   12a58:	e4f50263          	beq	a0,a5,1209c <__subtf3+0x16c>
   12a5c:	07400793          	li	a5,116
   12a60:	04d7d263          	bge	a5,a3,12aa4 <__subtf3+0xb74>
   12a64:	00100793          	li	a5,1
   12a68:	02012623          	sw	zero,44(sp)
   12a6c:	02012423          	sw	zero,40(sp)
   12a70:	02012223          	sw	zero,36(sp)
   12a74:	02f12023          	sw	a5,32(sp)
   12a78:	1280006f          	j	12ba0 <__subtf3+0xc70>
   12a7c:	000087b7          	lui	a5,0x8
   12a80:	fff78793          	addi	a5,a5,-1 # 7fff <_svfprintf_r+0x8ef>
   12a84:	ecf40863          	beq	s0,a5,12154 <__subtf3+0x224>
   12a88:	02c12783          	lw	a5,44(sp)
   12a8c:	00080737          	lui	a4,0x80
   12a90:	00e7e7b3          	or	a5,a5,a4
   12a94:	02f12623          	sw	a5,44(sp)
   12a98:	07400793          	li	a5,116
   12a9c:	fca7c4e3          	blt	a5,a0,12a64 <__subtf3+0xb34>
   12aa0:	00050693          	mv	a3,a0
   12aa4:	4056de13          	srai	t3,a3,0x5
   12aa8:	01f6f793          	andi	a5,a3,31
   12aac:	00000613          	li	a2,0
   12ab0:	00000713          	li	a4,0
   12ab4:	00271693          	slli	a3,a4,0x2
   12ab8:	03c71863          	bne	a4,t3,12ae8 <__subtf3+0xbb8>
   12abc:	04079063          	bnez	a5,12afc <__subtf3+0xbcc>
   12ac0:	00300593          	li	a1,3
   12ac4:	40e58733          	sub	a4,a1,a4
   12ac8:	00d885b3          	add	a1,a7,a3
   12acc:	0005a583          	lw	a1,0(a1)
   12ad0:	00178793          	addi	a5,a5,1
   12ad4:	00488893          	addi	a7,a7,4
   12ad8:	feb8ae23          	sw	a1,-4(a7)
   12adc:	fef756e3          	bge	a4,a5,12ac8 <__subtf3+0xb98>
   12ae0:	00400693          	li	a3,4
   12ae4:	0a80006f          	j	12b8c <__subtf3+0xc5c>
   12ae8:	00d306b3          	add	a3,t1,a3
   12aec:	0006a683          	lw	a3,0(a3)
   12af0:	00170713          	addi	a4,a4,1 # 80001 <__trunctfdf2+0x6c699>
   12af4:	00d66633          	or	a2,a2,a3
   12af8:	fbdff06f          	j	12ab4 <__subtf3+0xb84>
   12afc:	04010713          	addi	a4,sp,64
   12b00:	00d70733          	add	a4,a4,a3
   12b04:	fe072703          	lw	a4,-32(a4)
   12b08:	02000813          	li	a6,32
   12b0c:	40f80833          	sub	a6,a6,a5
   12b10:	01071733          	sll	a4,a4,a6
   12b14:	00e66633          	or	a2,a2,a4
   12b18:	00300713          	li	a4,3
   12b1c:	00d306b3          	add	a3,t1,a3
   12b20:	00000513          	li	a0,0
   12b24:	41c70733          	sub	a4,a4,t3
   12b28:	00468693          	addi	a3,a3,4
   12b2c:	02e54463          	blt	a0,a4,12b54 <__subtf3+0xc24>
   12b30:	04010693          	addi	a3,sp,64
   12b34:	00271713          	slli	a4,a4,0x2
   12b38:	00e68733          	add	a4,a3,a4
   12b3c:	02c12683          	lw	a3,44(sp)
   12b40:	00f6d7b3          	srl	a5,a3,a5
   12b44:	fef72023          	sw	a5,-32(a4)
   12b48:	00400793          	li	a5,4
   12b4c:	41c787b3          	sub	a5,a5,t3
   12b50:	f91ff06f          	j	12ae0 <__subtf3+0xbb0>
   12b54:	ffc6a583          	lw	a1,-4(a3)
   12b58:	0006ae83          	lw	t4,0(a3)
   12b5c:	00251893          	slli	a7,a0,0x2
   12b60:	00f5d5b3          	srl	a1,a1,a5
   12b64:	010e9eb3          	sll	t4,t4,a6
   12b68:	011308b3          	add	a7,t1,a7
   12b6c:	01d5e5b3          	or	a1,a1,t4
   12b70:	00b8a023          	sw	a1,0(a7)
   12b74:	00150513          	addi	a0,a0,1
   12b78:	fb1ff06f          	j	12b28 <__subtf3+0xbf8>
   12b7c:	00279713          	slli	a4,a5,0x2
   12b80:	00e30733          	add	a4,t1,a4
   12b84:	00072023          	sw	zero,0(a4)
   12b88:	00178793          	addi	a5,a5,1
   12b8c:	fed798e3          	bne	a5,a3,12b7c <__subtf3+0xc4c>
   12b90:	02012783          	lw	a5,32(sp)
   12b94:	00c03633          	snez	a2,a2
   12b98:	00c7e633          	or	a2,a5,a2
   12b9c:	02c12023          	sw	a2,32(sp)
   12ba0:	01412683          	lw	a3,20(sp)
   12ba4:	01012583          	lw	a1,16(sp)
   12ba8:	02012703          	lw	a4,32(sp)
   12bac:	02412783          	lw	a5,36(sp)
   12bb0:	40e58733          	sub	a4,a1,a4
   12bb4:	40f687b3          	sub	a5,a3,a5
   12bb8:	00f6b633          	sltu	a2,a3,a5
   12bbc:	00e5b6b3          	sltu	a3,a1,a4
   12bc0:	40d786b3          	sub	a3,a5,a3
   12bc4:	02d12a23          	sw	a3,52(sp)
   12bc8:	02e12823          	sw	a4,48(sp)
   12bcc:	00000693          	li	a3,0
   12bd0:	00e5f463          	bgeu	a1,a4,12bd8 <__subtf3+0xca8>
   12bd4:	0017b693          	seqz	a3,a5
   12bd8:	00c6e6b3          	or	a3,a3,a2
   12bdc:	02812703          	lw	a4,40(sp)
   12be0:	01812603          	lw	a2,24(sp)
   12be4:	40e60733          	sub	a4,a2,a4
   12be8:	40d707b3          	sub	a5,a4,a3
   12bec:	02f12c23          	sw	a5,56(sp)
   12bf0:	00e635b3          	sltu	a1,a2,a4
   12bf4:	00000613          	li	a2,0
   12bf8:	00068463          	beqz	a3,12c00 <__subtf3+0xcd0>
   12bfc:	00173613          	seqz	a2,a4
   12c00:	01c12783          	lw	a5,28(sp)
   12c04:	02c12703          	lw	a4,44(sp)
   12c08:	00b66633          	or	a2,a2,a1
   12c0c:	40e787b3          	sub	a5,a5,a4
   12c10:	40c787b3          	sub	a5,a5,a2
   12c14:	02f12e23          	sw	a5,60(sp)
   12c18:	03c12783          	lw	a5,60(sp)
   12c1c:	00c79713          	slli	a4,a5,0xc
   12c20:	fa075463          	bgez	a4,123c8 <__subtf3+0x498>
   12c24:	00080737          	lui	a4,0x80
   12c28:	fff70713          	addi	a4,a4,-1 # 7ffff <__trunctfdf2+0x6c697>
   12c2c:	00e7f7b3          	and	a5,a5,a4
   12c30:	02f12e23          	sw	a5,60(sp)
   12c34:	59c0006f          	j	131d0 <__subtf3+0x12a0>
   12c38:	2c050e63          	beqz	a0,12f14 <__subtf3+0xfe4>
   12c3c:	408606b3          	sub	a3,a2,s0
   12c40:	0e041663          	bnez	s0,12d2c <__subtf3+0xdfc>
   12c44:	01412303          	lw	t1,20(sp)
   12c48:	01812883          	lw	a7,24(sp)
   12c4c:	01c12f03          	lw	t5,28(sp)
   12c50:	01136eb3          	or	t4,t1,a7
   12c54:	01eeeeb3          	or	t4,t4,t5
   12c58:	00eeeeb3          	or	t4,t4,a4
   12c5c:	020e9663          	bnez	t4,12c88 <__subtf3+0xd58>
   12c60:	02f12823          	sw	a5,48(sp)
   12c64:	02412783          	lw	a5,36(sp)
   12c68:	00068413          	mv	s0,a3
   12c6c:	02f12a23          	sw	a5,52(sp)
   12c70:	02812783          	lw	a5,40(sp)
   12c74:	02f12c23          	sw	a5,56(sp)
   12c78:	02c12783          	lw	a5,44(sp)
   12c7c:	02f12e23          	sw	a5,60(sp)
   12c80:	00080913          	mv	s2,a6
   12c84:	f44ff06f          	j	123c8 <__subtf3+0x498>
   12c88:	fff68513          	addi	a0,a3,-1
   12c8c:	06051a63          	bnez	a0,12d00 <__subtf3+0xdd0>
   12c90:	02412583          	lw	a1,36(sp)
   12c94:	40e78733          	sub	a4,a5,a4
   12c98:	00e7b6b3          	sltu	a3,a5,a4
   12c9c:	40658633          	sub	a2,a1,t1
   12ca0:	00c5be33          	sltu	t3,a1,a2
   12ca4:	40d60633          	sub	a2,a2,a3
   12ca8:	02e12823          	sw	a4,48(sp)
   12cac:	02c12a23          	sw	a2,52(sp)
   12cb0:	00000693          	li	a3,0
   12cb4:	00e7f663          	bgeu	a5,a4,12cc0 <__subtf3+0xd90>
   12cb8:	40b306b3          	sub	a3,t1,a1
   12cbc:	0016b693          	seqz	a3,a3
   12cc0:	02812583          	lw	a1,40(sp)
   12cc4:	01c6e733          	or	a4,a3,t3
   12cc8:	411586b3          	sub	a3,a1,a7
   12ccc:	00d5b633          	sltu	a2,a1,a3
   12cd0:	40e686b3          	sub	a3,a3,a4
   12cd4:	02d12c23          	sw	a3,56(sp)
   12cd8:	00070663          	beqz	a4,12ce4 <__subtf3+0xdb4>
   12cdc:	40b888b3          	sub	a7,a7,a1
   12ce0:	0018b513          	seqz	a0,a7
   12ce4:	02c12783          	lw	a5,44(sp)
   12ce8:	00c56533          	or	a0,a0,a2
   12cec:	00080913          	mv	s2,a6
   12cf0:	41e787b3          	sub	a5,a5,t5
   12cf4:	40a78533          	sub	a0,a5,a0
   12cf8:	02a12e23          	sw	a0,60(sp)
   12cfc:	d4dff06f          	j	12a48 <__subtf3+0xb18>
   12d00:	00008737          	lui	a4,0x8
   12d04:	fff70713          	addi	a4,a4,-1 # 7fff <_svfprintf_r+0x8ef>
   12d08:	f4e68ce3          	beq	a3,a4,12c60 <__subtf3+0xd30>
   12d0c:	07400793          	li	a5,116
   12d10:	0aa7dc63          	bge	a5,a0,12dc8 <__subtf3+0xe98>
   12d14:	00100793          	li	a5,1
   12d18:	00012e23          	sw	zero,28(sp)
   12d1c:	00012c23          	sw	zero,24(sp)
   12d20:	00012a23          	sw	zero,20(sp)
   12d24:	00f12823          	sw	a5,16(sp)
   12d28:	1680006f          	j	12e90 <__subtf3+0xf60>
   12d2c:	00008737          	lui	a4,0x8
   12d30:	fff70713          	addi	a4,a4,-1 # 7fff <_svfprintf_r+0x8ef>
   12d34:	02e61463          	bne	a2,a4,12d5c <__subtf3+0xe2c>
   12d38:	02f12823          	sw	a5,48(sp)
   12d3c:	02412783          	lw	a5,36(sp)
   12d40:	00060413          	mv	s0,a2
   12d44:	02f12a23          	sw	a5,52(sp)
   12d48:	02812783          	lw	a5,40(sp)
   12d4c:	02f12c23          	sw	a5,56(sp)
   12d50:	02c12783          	lw	a5,44(sp)
   12d54:	02f12e23          	sw	a5,60(sp)
   12d58:	f29ff06f          	j	12c80 <__subtf3+0xd50>
   12d5c:	01c12783          	lw	a5,28(sp)
   12d60:	00080737          	lui	a4,0x80
   12d64:	00e7e7b3          	or	a5,a5,a4
   12d68:	00f12e23          	sw	a5,28(sp)
   12d6c:	07400793          	li	a5,116
   12d70:	fad7c2e3          	blt	a5,a3,12d14 <__subtf3+0xde4>
   12d74:	02000793          	li	a5,32
   12d78:	02f6c533          	div	a0,a3,a5
   12d7c:	00000713          	li	a4,0
   12d80:	02f6e7b3          	rem	a5,a3,a5
   12d84:	00000693          	li	a3,0
   12d88:	04a74463          	blt	a4,a0,12dd0 <__subtf3+0xea0>
   12d8c:	00050893          	mv	a7,a0
   12d90:	00055463          	bgez	a0,12d98 <__subtf3+0xe68>
   12d94:	00000893          	li	a7,0
   12d98:	00251713          	slli	a4,a0,0x2
   12d9c:	04079663          	bnez	a5,12de8 <__subtf3+0xeb8>
   12da0:	00300893          	li	a7,3
   12da4:	40a88533          	sub	a0,a7,a0
   12da8:	00e588b3          	add	a7,a1,a4
   12dac:	0008a883          	lw	a7,0(a7)
   12db0:	00178793          	addi	a5,a5,1
   12db4:	00458593          	addi	a1,a1,4
   12db8:	ff15ae23          	sw	a7,-4(a1)
   12dbc:	fef556e3          	bge	a0,a5,12da8 <__subtf3+0xe78>
   12dc0:	00300593          	li	a1,3
   12dc4:	0b80006f          	j	12e7c <__subtf3+0xf4c>
   12dc8:	00050693          	mv	a3,a0
   12dcc:	fa9ff06f          	j	12d74 <__subtf3+0xe44>
   12dd0:	00271893          	slli	a7,a4,0x2
   12dd4:	011e08b3          	add	a7,t3,a7
   12dd8:	0008a883          	lw	a7,0(a7)
   12ddc:	00170713          	addi	a4,a4,1 # 80001 <__trunctfdf2+0x6c699>
   12de0:	0116e6b3          	or	a3,a3,a7
   12de4:	fa5ff06f          	j	12d88 <__subtf3+0xe58>
   12de8:	04010593          	addi	a1,sp,64
   12dec:	00289893          	slli	a7,a7,0x2
   12df0:	011588b3          	add	a7,a1,a7
   12df4:	fd08a583          	lw	a1,-48(a7)
   12df8:	02000e93          	li	t4,32
   12dfc:	40fe8eb3          	sub	t4,t4,a5
   12e00:	01d595b3          	sll	a1,a1,t4
   12e04:	00b6e6b3          	or	a3,a3,a1
   12e08:	00ee05b3          	add	a1,t3,a4
   12e0c:	00300713          	li	a4,3
   12e10:	00000313          	li	t1,0
   12e14:	40a70733          	sub	a4,a4,a0
   12e18:	00458593          	addi	a1,a1,4
   12e1c:	02e34463          	blt	t1,a4,12e44 <__subtf3+0xf14>
   12e20:	04010593          	addi	a1,sp,64
   12e24:	00271713          	slli	a4,a4,0x2
   12e28:	00e58733          	add	a4,a1,a4
   12e2c:	01c12583          	lw	a1,28(sp)
   12e30:	00f5d7b3          	srl	a5,a1,a5
   12e34:	fcf72823          	sw	a5,-48(a4)
   12e38:	00400793          	li	a5,4
   12e3c:	40a787b3          	sub	a5,a5,a0
   12e40:	f81ff06f          	j	12dc0 <__subtf3+0xe90>
   12e44:	ffc5a883          	lw	a7,-4(a1)
   12e48:	0005af83          	lw	t6,0(a1)
   12e4c:	00231f13          	slli	t5,t1,0x2
   12e50:	00f8d8b3          	srl	a7,a7,a5
   12e54:	01df9fb3          	sll	t6,t6,t4
   12e58:	01ee0f33          	add	t5,t3,t5
   12e5c:	01f8e8b3          	or	a7,a7,t6
   12e60:	011f2023          	sw	a7,0(t5)
   12e64:	00130313          	addi	t1,t1,1
   12e68:	fb1ff06f          	j	12e18 <__subtf3+0xee8>
   12e6c:	00279713          	slli	a4,a5,0x2
   12e70:	00ee0733          	add	a4,t3,a4
   12e74:	00072023          	sw	zero,0(a4)
   12e78:	00178793          	addi	a5,a5,1
   12e7c:	fef5d8e3          	bge	a1,a5,12e6c <__subtf3+0xf3c>
   12e80:	01012783          	lw	a5,16(sp)
   12e84:	00d036b3          	snez	a3,a3
   12e88:	00d7e6b3          	or	a3,a5,a3
   12e8c:	00d12823          	sw	a3,16(sp)
   12e90:	02412683          	lw	a3,36(sp)
   12e94:	02012503          	lw	a0,32(sp)
   12e98:	01012703          	lw	a4,16(sp)
   12e9c:	01412783          	lw	a5,20(sp)
   12ea0:	40e50733          	sub	a4,a0,a4
   12ea4:	40f687b3          	sub	a5,a3,a5
   12ea8:	00f6b5b3          	sltu	a1,a3,a5
   12eac:	00e536b3          	sltu	a3,a0,a4
   12eb0:	40d786b3          	sub	a3,a5,a3
   12eb4:	02d12a23          	sw	a3,52(sp)
   12eb8:	02e12823          	sw	a4,48(sp)
   12ebc:	00000693          	li	a3,0
   12ec0:	00e57463          	bgeu	a0,a4,12ec8 <__subtf3+0xf98>
   12ec4:	0017b693          	seqz	a3,a5
   12ec8:	00b6e6b3          	or	a3,a3,a1
   12ecc:	01812703          	lw	a4,24(sp)
   12ed0:	02812583          	lw	a1,40(sp)
   12ed4:	40e58733          	sub	a4,a1,a4
   12ed8:	40d707b3          	sub	a5,a4,a3
   12edc:	02f12c23          	sw	a5,56(sp)
   12ee0:	00e5b533          	sltu	a0,a1,a4
   12ee4:	00000593          	li	a1,0
   12ee8:	00068463          	beqz	a3,12ef0 <__subtf3+0xfc0>
   12eec:	00173593          	seqz	a1,a4
   12ef0:	02c12783          	lw	a5,44(sp)
   12ef4:	01c12703          	lw	a4,28(sp)
   12ef8:	00a5e5b3          	or	a1,a1,a0
   12efc:	00060413          	mv	s0,a2
   12f00:	40e787b3          	sub	a5,a5,a4
   12f04:	40b787b3          	sub	a5,a5,a1
   12f08:	02f12e23          	sw	a5,60(sp)
   12f0c:	00080913          	mv	s2,a6
   12f10:	d09ff06f          	j	12c18 <__subtf3+0xce8>
   12f14:	00008fb7          	lui	t6,0x8
   12f18:	ffef8693          	addi	a3,t6,-2 # 7ffe <_svfprintf_r+0x8ee>
   12f1c:	00140593          	addi	a1,s0,1
   12f20:	00d5f5b3          	and	a1,a1,a3
   12f24:	02412603          	lw	a2,36(sp)
   12f28:	01412683          	lw	a3,20(sp)
   12f2c:	01812883          	lw	a7,24(sp)
   12f30:	01c12e83          	lw	t4,28(sp)
   12f34:	02812303          	lw	t1,40(sp)
   12f38:	02c12e03          	lw	t3,44(sp)
   12f3c:	1c059c63          	bnez	a1,13114 <__subtf3+0x11e4>
   12f40:	006665b3          	or	a1,a2,t1
   12f44:	0116ef33          	or	t5,a3,a7
   12f48:	01c5e5b3          	or	a1,a1,t3
   12f4c:	01df6f33          	or	t5,t5,t4
   12f50:	00f5e5b3          	or	a1,a1,a5
   12f54:	00ef6f33          	or	t5,t5,a4
   12f58:	10041863          	bnez	s0,13068 <__subtf3+0x1138>
   12f5c:	020f1463          	bnez	t5,12f84 <__subtf3+0x1054>
   12f60:	02f12823          	sw	a5,48(sp)
   12f64:	02c12a23          	sw	a2,52(sp)
   12f68:	02612c23          	sw	t1,56(sp)
   12f6c:	03c12e23          	sw	t3,60(sp)
   12f70:	00080913          	mv	s2,a6
   12f74:	c4059a63          	bnez	a1,123c8 <__subtf3+0x498>
   12f78:	00000413          	li	s0,0
   12f7c:	00000913          	li	s2,0
   12f80:	c48ff06f          	j	123c8 <__subtf3+0x498>
   12f84:	00059c63          	bnez	a1,12f9c <__subtf3+0x106c>
   12f88:	02e12823          	sw	a4,48(sp)
   12f8c:	02d12a23          	sw	a3,52(sp)
   12f90:	03112c23          	sw	a7,56(sp)
   12f94:	03d12e23          	sw	t4,60(sp)
   12f98:	c30ff06f          	j	123c8 <__subtf3+0x498>
   12f9c:	40f705b3          	sub	a1,a4,a5
   12fa0:	40c682b3          	sub	t0,a3,a2
   12fa4:	00b73fb3          	sltu	t6,a4,a1
   12fa8:	0056bf33          	sltu	t5,a3,t0
   12fac:	41f282b3          	sub	t0,t0,t6
   12fb0:	02b12823          	sw	a1,48(sp)
   12fb4:	02512a23          	sw	t0,52(sp)
   12fb8:	00000f93          	li	t6,0
   12fbc:	00b77663          	bgeu	a4,a1,12fc8 <__subtf3+0x1098>
   12fc0:	40d60fb3          	sub	t6,a2,a3
   12fc4:	001fbf93          	seqz	t6,t6
   12fc8:	406883b3          	sub	t2,a7,t1
   12fcc:	01efefb3          	or	t6,t6,t5
   12fd0:	41f38a33          	sub	s4,t2,t6
   12fd4:	03412c23          	sw	s4,56(sp)
   12fd8:	0078bab3          	sltu	s5,a7,t2
   12fdc:	00000993          	li	s3,0
   12fe0:	000f8463          	beqz	t6,12fe8 <__subtf3+0x10b8>
   12fe4:	0013b993          	seqz	s3,t2
   12fe8:	41ce8f33          	sub	t5,t4,t3
   12fec:	0159e9b3          	or	s3,s3,s5
   12ff0:	413f0f33          	sub	t5,t5,s3
   12ff4:	03e12e23          	sw	t5,60(sp)
   12ff8:	00cf1f93          	slli	t6,t5,0xc
   12ffc:	040fde63          	bgez	t6,13058 <__subtf3+0x1128>
   13000:	40e78733          	sub	a4,a5,a4
   13004:	40d606b3          	sub	a3,a2,a3
   13008:	00e7b5b3          	sltu	a1,a5,a4
   1300c:	40b685b3          	sub	a1,a3,a1
   13010:	02b12a23          	sw	a1,52(sp)
   13014:	02e12823          	sw	a4,48(sp)
   13018:	00d63633          	sltu	a2,a2,a3
   1301c:	00000593          	li	a1,0
   13020:	00e7f463          	bgeu	a5,a4,13028 <__subtf3+0x10f8>
   13024:	0016b593          	seqz	a1,a3
   13028:	41130733          	sub	a4,t1,a7
   1302c:	00c5e633          	or	a2,a1,a2
   13030:	00e337b3          	sltu	a5,t1,a4
   13034:	40c70733          	sub	a4,a4,a2
   13038:	02e12c23          	sw	a4,56(sp)
   1303c:	00060463          	beqz	a2,13044 <__subtf3+0x1114>
   13040:	0013b513          	seqz	a0,t2
   13044:	41de0733          	sub	a4,t3,t4
   13048:	00f567b3          	or	a5,a0,a5
   1304c:	40f70e33          	sub	t3,a4,a5
   13050:	03c12e23          	sw	t3,60(sp)
   13054:	c2dff06f          	j	12c80 <__subtf3+0xd50>
   13058:	0055e5b3          	or	a1,a1,t0
   1305c:	0145e5b3          	or	a1,a1,s4
   13060:	01e5e5b3          	or	a1,a1,t5
   13064:	f11ff06f          	j	12f74 <__subtf3+0x1044>
   13068:	03010513          	addi	a0,sp,48
   1306c:	040f1c63          	bnez	t5,130c4 <__subtf3+0x1194>
   13070:	02059e63          	bnez	a1,130ac <__subtf3+0x117c>
   13074:	03f12e23          	sw	t6,60(sp)
   13078:	02012c23          	sw	zero,56(sp)
   1307c:	02012a23          	sw	zero,52(sp)
   13080:	02012823          	sw	zero,48(sp)
   13084:	03c10793          	addi	a5,sp,60
   13088:	0007a703          	lw	a4,0(a5)
   1308c:	ffc7a683          	lw	a3,-4(a5)
   13090:	ffc78793          	addi	a5,a5,-4
   13094:	00371713          	slli	a4,a4,0x3
   13098:	01d6d693          	srli	a3,a3,0x1d
   1309c:	00d76733          	or	a4,a4,a3
   130a0:	00e7a223          	sw	a4,4(a5)
   130a4:	fef512e3          	bne	a0,a5,13088 <__subtf3+0x1158>
   130a8:	851ff06f          	j	128f8 <__subtf3+0x9c8>
   130ac:	02f12823          	sw	a5,48(sp)
   130b0:	02c12a23          	sw	a2,52(sp)
   130b4:	02612c23          	sw	t1,56(sp)
   130b8:	03c12e23          	sw	t3,60(sp)
   130bc:	00080913          	mv	s2,a6
   130c0:	fd8ff06f          	j	12898 <__subtf3+0x968>
   130c4:	00059c63          	bnez	a1,130dc <__subtf3+0x11ac>
   130c8:	02e12823          	sw	a4,48(sp)
   130cc:	02d12a23          	sw	a3,52(sp)
   130d0:	03112c23          	sw	a7,56(sp)
   130d4:	03d12e23          	sw	t4,60(sp)
   130d8:	fc0ff06f          	j	12898 <__subtf3+0x968>
   130dc:	03f12e23          	sw	t6,60(sp)
   130e0:	02012c23          	sw	zero,56(sp)
   130e4:	02012a23          	sw	zero,52(sp)
   130e8:	02012823          	sw	zero,48(sp)
   130ec:	03c10793          	addi	a5,sp,60
   130f0:	0007a703          	lw	a4,0(a5)
   130f4:	ffc7a683          	lw	a3,-4(a5)
   130f8:	ffc78793          	addi	a5,a5,-4
   130fc:	00371713          	slli	a4,a4,0x3
   13100:	01d6d693          	srli	a3,a3,0x1d
   13104:	00d76733          	or	a4,a4,a3
   13108:	00e7a223          	sw	a4,4(a5)
   1310c:	fef512e3          	bne	a0,a5,130f0 <__subtf3+0x11c0>
   13110:	fe8ff06f          	j	128f8 <__subtf3+0x9c8>
   13114:	40f705b3          	sub	a1,a4,a5
   13118:	40c682b3          	sub	t0,a3,a2
   1311c:	00b73fb3          	sltu	t6,a4,a1
   13120:	0056bf33          	sltu	t5,a3,t0
   13124:	41f282b3          	sub	t0,t0,t6
   13128:	02b12823          	sw	a1,48(sp)
   1312c:	02512a23          	sw	t0,52(sp)
   13130:	00000f93          	li	t6,0
   13134:	00b77663          	bgeu	a4,a1,13140 <__subtf3+0x1210>
   13138:	40d60fb3          	sub	t6,a2,a3
   1313c:	001fbf93          	seqz	t6,t6
   13140:	406883b3          	sub	t2,a7,t1
   13144:	01efefb3          	or	t6,t6,t5
   13148:	41f38a33          	sub	s4,t2,t6
   1314c:	03412c23          	sw	s4,56(sp)
   13150:	0078bab3          	sltu	s5,a7,t2
   13154:	00000993          	li	s3,0
   13158:	000f8463          	beqz	t6,13160 <__subtf3+0x1230>
   1315c:	0013b993          	seqz	s3,t2
   13160:	41ce8f33          	sub	t5,t4,t3
   13164:	0159e9b3          	or	s3,s3,s5
   13168:	413f0f33          	sub	t5,t5,s3
   1316c:	03e12e23          	sw	t5,60(sp)
   13170:	00cf1f93          	slli	t6,t5,0xc
   13174:	0c0fd063          	bgez	t6,13234 <__subtf3+0x1304>
   13178:	40e78733          	sub	a4,a5,a4
   1317c:	40d606b3          	sub	a3,a2,a3
   13180:	00e7b5b3          	sltu	a1,a5,a4
   13184:	40b685b3          	sub	a1,a3,a1
   13188:	02b12a23          	sw	a1,52(sp)
   1318c:	02e12823          	sw	a4,48(sp)
   13190:	00d63633          	sltu	a2,a2,a3
   13194:	00000593          	li	a1,0
   13198:	00e7f463          	bgeu	a5,a4,131a0 <__subtf3+0x1270>
   1319c:	0016b593          	seqz	a1,a3
   131a0:	41130733          	sub	a4,t1,a7
   131a4:	00c5e633          	or	a2,a1,a2
   131a8:	00e336b3          	sltu	a3,t1,a4
   131ac:	40c70733          	sub	a4,a4,a2
   131b0:	02e12c23          	sw	a4,56(sp)
   131b4:	00060463          	beqz	a2,131bc <__subtf3+0x128c>
   131b8:	0013b513          	seqz	a0,t2
   131bc:	41de0733          	sub	a4,t3,t4
   131c0:	00d567b3          	or	a5,a0,a3
   131c4:	40f707b3          	sub	a5,a4,a5
   131c8:	02f12e23          	sw	a5,60(sp)
   131cc:	00080913          	mv	s2,a6
   131d0:	03c12503          	lw	a0,60(sp)
   131d4:	06050a63          	beqz	a0,13248 <__subtf3+0x1318>
   131d8:	ffff2097          	auipc	ra,0xffff2
   131dc:	d9c080e7          	jalr	-612(ra) # 4f74 <__clzsi2>
   131e0:	ff450513          	addi	a0,a0,-12
   131e4:	02000693          	li	a3,32
   131e8:	02d56833          	rem	a6,a0,a3
   131ec:	02d547b3          	div	a5,a0,a3
   131f0:	08080e63          	beqz	a6,1328c <__subtf3+0x135c>
   131f4:	ffc00713          	li	a4,-4
   131f8:	03010313          	addi	t1,sp,48
   131fc:	00279593          	slli	a1,a5,0x2
   13200:	410686b3          	sub	a3,a3,a6
   13204:	02e78733          	mul	a4,a5,a4
   13208:	00c70713          	addi	a4,a4,12
   1320c:	00e30733          	add	a4,t1,a4
   13210:	0ae31663          	bne	t1,a4,132bc <__subtf3+0x138c>
   13214:	04010713          	addi	a4,sp,64
   13218:	00b705b3          	add	a1,a4,a1
   1321c:	03012703          	lw	a4,48(sp)
   13220:	fff78793          	addi	a5,a5,-1
   13224:	01071833          	sll	a6,a4,a6
   13228:	ff05a823          	sw	a6,-16(a1)
   1322c:	fff00693          	li	a3,-1
   13230:	0c40006f          	j	132f4 <__subtf3+0x13c4>
   13234:	0055e5b3          	or	a1,a1,t0
   13238:	0145e5b3          	or	a1,a1,s4
   1323c:	01e5e5b3          	or	a1,a1,t5
   13240:	d2058ce3          	beqz	a1,12f78 <__subtf3+0x1048>
   13244:	f8dff06f          	j	131d0 <__subtf3+0x12a0>
   13248:	03812503          	lw	a0,56(sp)
   1324c:	00050a63          	beqz	a0,13260 <__subtf3+0x1330>
   13250:	ffff2097          	auipc	ra,0xffff2
   13254:	d24080e7          	jalr	-732(ra) # 4f74 <__clzsi2>
   13258:	02050513          	addi	a0,a0,32
   1325c:	f85ff06f          	j	131e0 <__subtf3+0x12b0>
   13260:	03412503          	lw	a0,52(sp)
   13264:	00050a63          	beqz	a0,13278 <__subtf3+0x1348>
   13268:	ffff2097          	auipc	ra,0xffff2
   1326c:	d0c080e7          	jalr	-756(ra) # 4f74 <__clzsi2>
   13270:	04050513          	addi	a0,a0,64
   13274:	f6dff06f          	j	131e0 <__subtf3+0x12b0>
   13278:	03012503          	lw	a0,48(sp)
   1327c:	ffff2097          	auipc	ra,0xffff2
   13280:	cf8080e7          	jalr	-776(ra) # 4f74 <__clzsi2>
   13284:	06050513          	addi	a0,a0,96
   13288:	f59ff06f          	j	131e0 <__subtf3+0x12b0>
   1328c:	ffc00613          	li	a2,-4
   13290:	02c78633          	mul	a2,a5,a2
   13294:	03c10713          	addi	a4,sp,60
   13298:	00300693          	li	a3,3
   1329c:	00c705b3          	add	a1,a4,a2
   132a0:	0005a583          	lw	a1,0(a1)
   132a4:	fff68693          	addi	a3,a3,-1
   132a8:	ffc70713          	addi	a4,a4,-4
   132ac:	00b72223          	sw	a1,4(a4)
   132b0:	fef6d6e3          	bge	a3,a5,1329c <__subtf3+0x136c>
   132b4:	fff78793          	addi	a5,a5,-1
   132b8:	f75ff06f          	j	1322c <__subtf3+0x12fc>
   132bc:	ffc72603          	lw	a2,-4(a4)
   132c0:	00072883          	lw	a7,0(a4)
   132c4:	00b70e33          	add	t3,a4,a1
   132c8:	00d65633          	srl	a2,a2,a3
   132cc:	010898b3          	sll	a7,a7,a6
   132d0:	01166633          	or	a2,a2,a7
   132d4:	00ce2023          	sw	a2,0(t3)
   132d8:	ffc70713          	addi	a4,a4,-4
   132dc:	f35ff06f          	j	13210 <__subtf3+0x12e0>
   132e0:	00279713          	slli	a4,a5,0x2
   132e4:	03010613          	addi	a2,sp,48
   132e8:	00e60733          	add	a4,a2,a4
   132ec:	00072023          	sw	zero,0(a4)
   132f0:	fff78793          	addi	a5,a5,-1
   132f4:	fed796e3          	bne	a5,a3,132e0 <__subtf3+0x13b0>
   132f8:	12854e63          	blt	a0,s0,13434 <__subtf3+0x1504>
   132fc:	40850433          	sub	s0,a0,s0
   13300:	00140413          	addi	s0,s0,1
   13304:	02000793          	li	a5,32
   13308:	02f44833          	div	a6,s0,a5
   1330c:	00000513          	li	a0,0
   13310:	00000713          	li	a4,0
   13314:	02f46433          	rem	s0,s0,a5
   13318:	05074263          	blt	a4,a6,1335c <__subtf3+0x142c>
   1331c:	00080693          	mv	a3,a6
   13320:	00085463          	bgez	a6,13328 <__subtf3+0x13f8>
   13324:	00000693          	li	a3,0
   13328:	00281713          	slli	a4,a6,0x2
   1332c:	04041663          	bnez	s0,13378 <__subtf3+0x1448>
   13330:	00300793          	li	a5,3
   13334:	03010693          	addi	a3,sp,48
   13338:	41078833          	sub	a6,a5,a6
   1333c:	00e687b3          	add	a5,a3,a4
   13340:	0007a783          	lw	a5,0(a5)
   13344:	00140413          	addi	s0,s0,1
   13348:	00468693          	addi	a3,a3,4
   1334c:	fef6ae23          	sw	a5,-4(a3)
   13350:	fe8856e3          	bge	a6,s0,1333c <__subtf3+0x140c>
   13354:	00300713          	li	a4,3
   13358:	0c00006f          	j	13418 <__subtf3+0x14e8>
   1335c:	00271793          	slli	a5,a4,0x2
   13360:	03010693          	addi	a3,sp,48
   13364:	00f687b3          	add	a5,a3,a5
   13368:	0007a783          	lw	a5,0(a5)
   1336c:	00170713          	addi	a4,a4,1
   13370:	00f56533          	or	a0,a0,a5
   13374:	fa5ff06f          	j	13318 <__subtf3+0x13e8>
   13378:	04010793          	addi	a5,sp,64
   1337c:	00269693          	slli	a3,a3,0x2
   13380:	00d786b3          	add	a3,a5,a3
   13384:	ff06a783          	lw	a5,-16(a3)
   13388:	02000593          	li	a1,32
   1338c:	408585b3          	sub	a1,a1,s0
   13390:	00b797b3          	sll	a5,a5,a1
   13394:	00f56533          	or	a0,a0,a5
   13398:	03010793          	addi	a5,sp,48
   1339c:	00e78733          	add	a4,a5,a4
   133a0:	00300793          	li	a5,3
   133a4:	00000613          	li	a2,0
   133a8:	410787b3          	sub	a5,a5,a6
   133ac:	00470713          	addi	a4,a4,4
   133b0:	02f64463          	blt	a2,a5,133d8 <__subtf3+0x14a8>
   133b4:	04010713          	addi	a4,sp,64
   133b8:	00279793          	slli	a5,a5,0x2
   133bc:	00f707b3          	add	a5,a4,a5
   133c0:	03c12703          	lw	a4,60(sp)
   133c4:	00875433          	srl	s0,a4,s0
   133c8:	fe87a823          	sw	s0,-16(a5)
   133cc:	00400413          	li	s0,4
   133d0:	41040433          	sub	s0,s0,a6
   133d4:	f81ff06f          	j	13354 <__subtf3+0x1424>
   133d8:	00261893          	slli	a7,a2,0x2
   133dc:	03010693          	addi	a3,sp,48
   133e0:	011688b3          	add	a7,a3,a7
   133e4:	00072303          	lw	t1,0(a4)
   133e8:	ffc72683          	lw	a3,-4(a4)
   133ec:	00160613          	addi	a2,a2,1
   133f0:	00b31333          	sll	t1,t1,a1
   133f4:	0086d6b3          	srl	a3,a3,s0
   133f8:	0066e6b3          	or	a3,a3,t1
   133fc:	00d8a023          	sw	a3,0(a7)
   13400:	fadff06f          	j	133ac <__subtf3+0x147c>
   13404:	00241793          	slli	a5,s0,0x2
   13408:	03010693          	addi	a3,sp,48
   1340c:	00f687b3          	add	a5,a3,a5
   13410:	0007a023          	sw	zero,0(a5)
   13414:	00140413          	addi	s0,s0,1
   13418:	fe8756e3          	bge	a4,s0,13404 <__subtf3+0x14d4>
   1341c:	03012703          	lw	a4,48(sp)
   13420:	00a037b3          	snez	a5,a0
   13424:	00000413          	li	s0,0
   13428:	00f767b3          	or	a5,a4,a5
   1342c:	02f12823          	sw	a5,48(sp)
   13430:	f99fe06f          	j	123c8 <__subtf3+0x498>
   13434:	03c12783          	lw	a5,60(sp)
   13438:	fff80737          	lui	a4,0xfff80
   1343c:	fff70713          	addi	a4,a4,-1 # fff7ffff <__stack_top+0x7ff091af>
   13440:	40a40433          	sub	s0,s0,a0
   13444:	00e7f7b3          	and	a5,a5,a4
   13448:	d25fe06f          	j	1216c <__subtf3+0x23c>
   1344c:	02012e23          	sw	zero,60(sp)
   13450:	02012c23          	sw	zero,56(sp)
   13454:	02012a23          	sw	zero,52(sp)
   13458:	02012823          	sw	zero,48(sp)
   1345c:	fedfe06f          	j	12448 <__subtf3+0x518>

00013460 <__fixtfsi>:
   13460:	00c52703          	lw	a4,12(a0)
   13464:	00852783          	lw	a5,8(a0)
   13468:	00452683          	lw	a3,4(a0)
   1346c:	00052603          	lw	a2,0(a0)
   13470:	fe010113          	addi	sp,sp,-32
   13474:	00f12423          	sw	a5,8(sp)
   13478:	00e12623          	sw	a4,12(sp)
   1347c:	00f12c23          	sw	a5,24(sp)
   13480:	01071593          	slli	a1,a4,0x10
   13484:	00171793          	slli	a5,a4,0x1
   13488:	01f75813          	srli	a6,a4,0x1f
   1348c:	00004737          	lui	a4,0x4
   13490:	00d12223          	sw	a3,4(sp)
   13494:	00d12a23          	sw	a3,20(sp)
   13498:	00c12023          	sw	a2,0(sp)
   1349c:	0117d693          	srli	a3,a5,0x11
   134a0:	00c12823          	sw	a2,16(sp)
   134a4:	ffe70793          	addi	a5,a4,-2 # 3ffe <_ZN6tflite19LinearMemoryPlanner20GetMaximumMemorySizeEv+0x6>
   134a8:	00000513          	li	a0,0
   134ac:	00d7dc63          	bge	a5,a3,134c4 <__fixtfsi+0x64>
   134b0:	01d70793          	addi	a5,a4,29
   134b4:	00d7dc63          	bge	a5,a3,134cc <__fixtfsi+0x6c>
   134b8:	80000537          	lui	a0,0x80000
   134bc:	fff54513          	not	a0,a0
   134c0:	00a80533          	add	a0,a6,a0
   134c4:	02010113          	addi	sp,sp,32
   134c8:	00008067          	ret
   134cc:	000107b7          	lui	a5,0x10
   134d0:	0105d593          	srli	a1,a1,0x10
   134d4:	00f5e5b3          	or	a1,a1,a5
   134d8:	06f70793          	addi	a5,a4,111
   134dc:	40d787b3          	sub	a5,a5,a3
   134e0:	4057d713          	srai	a4,a5,0x5
   134e4:	00b12e23          	sw	a1,28(sp)
   134e8:	01f7f793          	andi	a5,a5,31
   134ec:	08079863          	bnez	a5,1357c <__fixtfsi+0x11c>
   134f0:	00271793          	slli	a5,a4,0x2
   134f4:	02010693          	addi	a3,sp,32
   134f8:	00f687b3          	add	a5,a3,a5
   134fc:	ff07a783          	lw	a5,-16(a5) # fff0 <_exit+0x10>
   13500:	00200613          	li	a2,2
   13504:	00f12823          	sw	a5,16(sp)
   13508:	00200793          	li	a5,2
   1350c:	00e78463          	beq	a5,a4,13514 <__fixtfsi+0xb4>
   13510:	00100613          	li	a2,1
   13514:	00400713          	li	a4,4
   13518:	00261793          	slli	a5,a2,0x2
   1351c:	01010693          	addi	a3,sp,16
   13520:	00f687b3          	add	a5,a3,a5
   13524:	0007a023          	sw	zero,0(a5)
   13528:	00160613          	addi	a2,a2,1
   1352c:	fee616e3          	bne	a2,a4,13518 <__fixtfsi+0xb8>
   13530:	01012503          	lw	a0,16(sp)
   13534:	f80808e3          	beqz	a6,134c4 <__fixtfsi+0x64>
   13538:	40a00533          	neg	a0,a0
   1353c:	f89ff06f          	j	134c4 <__fixtfsi+0x64>
   13540:	ff062683          	lw	a3,-16(a2)
   13544:	ff072303          	lw	t1,-16(a4)
   13548:	011696b3          	sll	a3,a3,a7
   1354c:	00f35333          	srl	t1,t1,a5
   13550:	0066e6b3          	or	a3,a3,t1
   13554:	00d12823          	sw	a3,16(sp)
   13558:	00100693          	li	a3,1
   1355c:	fea6c2e3          	blt	a3,a0,13540 <__fixtfsi+0xe0>
   13560:	00168613          	addi	a2,a3,1
   13564:	02010713          	addi	a4,sp,32
   13568:	00269693          	slli	a3,a3,0x2
   1356c:	00d706b3          	add	a3,a4,a3
   13570:	00f5d7b3          	srl	a5,a1,a5
   13574:	fef6a823          	sw	a5,-16(a3)
   13578:	f9dff06f          	j	13514 <__fixtfsi+0xb4>
   1357c:	00170613          	addi	a2,a4,1
   13580:	02010893          	addi	a7,sp,32
   13584:	00300513          	li	a0,3
   13588:	00261613          	slli	a2,a2,0x2
   1358c:	40e50533          	sub	a0,a0,a4
   13590:	00c88633          	add	a2,a7,a2
   13594:	00271713          	slli	a4,a4,0x2
   13598:	02000893          	li	a7,32
   1359c:	02010313          	addi	t1,sp,32
   135a0:	00000693          	li	a3,0
   135a4:	40f888b3          	sub	a7,a7,a5
   135a8:	00e30733          	add	a4,t1,a4
   135ac:	fb1ff06f          	j	1355c <__fixtfsi+0xfc>

000135b0 <__floatsitf>:
   135b0:	fd010113          	addi	sp,sp,-48
   135b4:	02912223          	sw	s1,36(sp)
   135b8:	02112623          	sw	ra,44(sp)
   135bc:	02812423          	sw	s0,40(sp)
   135c0:	03212023          	sw	s2,32(sp)
   135c4:	00050493          	mv	s1,a0
   135c8:	16058263          	beqz	a1,1372c <__floatsitf+0x17c>
   135cc:	00058413          	mv	s0,a1
   135d0:	01f5d913          	srli	s2,a1,0x1f
   135d4:	0005d463          	bgez	a1,135dc <__floatsitf+0x2c>
   135d8:	40b00433          	neg	s0,a1
   135dc:	00040513          	mv	a0,s0
   135e0:	ffff2097          	auipc	ra,0xffff2
   135e4:	994080e7          	jalr	-1644(ra) # 4f74 <__clzsi2>
   135e8:	000047b7          	lui	a5,0x4
   135ec:	01e78793          	addi	a5,a5,30 # 401e <_ZN6tflite19LinearMemoryPlanner9AddBufferEiii+0x6>
   135f0:	40a787b3          	sub	a5,a5,a0
   135f4:	05150513          	addi	a0,a0,81 # 80000051 <__stack_top+0xfff89201>
   135f8:	00812823          	sw	s0,16(sp)
   135fc:	00012a23          	sw	zero,20(sp)
   13600:	00012c23          	sw	zero,24(sp)
   13604:	00012e23          	sw	zero,28(sp)
   13608:	01f57593          	andi	a1,a0,31
   1360c:	04058063          	beqz	a1,1364c <__floatsitf+0x9c>
   13610:	05f00693          	li	a3,95
   13614:	00300713          	li	a4,3
   13618:	00a6cc63          	blt	a3,a0,13630 <__floatsitf+0x80>
   1361c:	02000713          	li	a4,32
   13620:	40b70733          	sub	a4,a4,a1
   13624:	00e45733          	srl	a4,s0,a4
   13628:	00e12e23          	sw	a4,28(sp)
   1362c:	00200713          	li	a4,2
   13630:	fff70693          	addi	a3,a4,-1
   13634:	02010613          	addi	a2,sp,32
   13638:	00271713          	slli	a4,a4,0x2
   1363c:	00e60733          	add	a4,a2,a4
   13640:	00b41433          	sll	s0,s0,a1
   13644:	fe872823          	sw	s0,-16(a4)
   13648:	0500006f          	j	13698 <__floatsitf+0xe8>
   1364c:	40555613          	srai	a2,a0,0x5
   13650:	00300693          	li	a3,3
   13654:	40c686b3          	sub	a3,a3,a2
   13658:	02010713          	addi	a4,sp,32
   1365c:	00269693          	slli	a3,a3,0x2
   13660:	00d706b3          	add	a3,a4,a3
   13664:	ff06a703          	lw	a4,-16(a3)
   13668:	00200693          	li	a3,2
   1366c:	00e12e23          	sw	a4,28(sp)
   13670:	05f00713          	li	a4,95
   13674:	02a74263          	blt	a4,a0,13698 <__floatsitf+0xe8>
   13678:	00200713          	li	a4,2
   1367c:	40c70733          	sub	a4,a4,a2
   13680:	02010693          	addi	a3,sp,32
   13684:	00271713          	slli	a4,a4,0x2
   13688:	00e68733          	add	a4,a3,a4
   1368c:	ff072703          	lw	a4,-16(a4)
   13690:	00100693          	li	a3,1
   13694:	00e12c23          	sw	a4,24(sp)
   13698:	fff00613          	li	a2,-1
   1369c:	00269713          	slli	a4,a3,0x2
   136a0:	01010593          	addi	a1,sp,16
   136a4:	00e58733          	add	a4,a1,a4
   136a8:	00072023          	sw	zero,0(a4)
   136ac:	fff68693          	addi	a3,a3,-1
   136b0:	fec696e3          	bne	a3,a2,1369c <__floatsitf+0xec>
   136b4:	01c12703          	lw	a4,28(sp)
   136b8:	800106b7          	lui	a3,0x80010
   136bc:	fff68693          	addi	a3,a3,-1 # 8000ffff <__stack_top+0xfff991af>
   136c0:	00e11623          	sh	a4,12(sp)
   136c4:	00008737          	lui	a4,0x8
   136c8:	fff70713          	addi	a4,a4,-1 # 7fff <_svfprintf_r+0x8ef>
   136cc:	00e7f7b3          	and	a5,a5,a4
   136d0:	01079713          	slli	a4,a5,0x10
   136d4:	00c12783          	lw	a5,12(sp)
   136d8:	01f91913          	slli	s2,s2,0x1f
   136dc:	02c12083          	lw	ra,44(sp)
   136e0:	00d7f7b3          	and	a5,a5,a3
   136e4:	00e7e7b3          	or	a5,a5,a4
   136e8:	80000737          	lui	a4,0x80000
   136ec:	fff74713          	not	a4,a4
   136f0:	00e7f7b3          	and	a5,a5,a4
   136f4:	01012703          	lw	a4,16(sp)
   136f8:	02812403          	lw	s0,40(sp)
   136fc:	0127e7b3          	or	a5,a5,s2
   13700:	00e4a023          	sw	a4,0(s1)
   13704:	01412703          	lw	a4,20(sp)
   13708:	00f4a623          	sw	a5,12(s1)
   1370c:	00048513          	mv	a0,s1
   13710:	00e4a223          	sw	a4,4(s1)
   13714:	01812703          	lw	a4,24(sp)
   13718:	02012903          	lw	s2,32(sp)
   1371c:	00e4a423          	sw	a4,8(s1)
   13720:	02412483          	lw	s1,36(sp)
   13724:	03010113          	addi	sp,sp,48
   13728:	00008067          	ret
   1372c:	00012e23          	sw	zero,28(sp)
   13730:	00012c23          	sw	zero,24(sp)
   13734:	00012a23          	sw	zero,20(sp)
   13738:	00012823          	sw	zero,16(sp)
   1373c:	00000793          	li	a5,0
   13740:	00000913          	li	s2,0
   13744:	f71ff06f          	j	136b4 <__floatsitf+0x104>

00013748 <__extenddftf2>:
   13748:	00100737          	lui	a4,0x100
   1374c:	01465793          	srli	a5,a2,0x14
   13750:	fff70713          	addi	a4,a4,-1 # fffff <__trunctfdf2+0xec697>
   13754:	7ff7f793          	andi	a5,a5,2047
   13758:	fd010113          	addi	sp,sp,-48
   1375c:	00c77733          	and	a4,a4,a2
   13760:	00178693          	addi	a3,a5,1
   13764:	02812423          	sw	s0,40(sp)
   13768:	02912223          	sw	s1,36(sp)
   1376c:	02112623          	sw	ra,44(sp)
   13770:	00b12823          	sw	a1,16(sp)
   13774:	00e12a23          	sw	a4,20(sp)
   13778:	00012e23          	sw	zero,28(sp)
   1377c:	00012c23          	sw	zero,24(sp)
   13780:	7fe6f693          	andi	a3,a3,2046
   13784:	00050493          	mv	s1,a0
   13788:	01f65413          	srli	s0,a2,0x1f
   1378c:	0a068463          	beqz	a3,13834 <__extenddftf2+0xec>
   13790:	000046b7          	lui	a3,0x4
   13794:	c0068693          	addi	a3,a3,-1024 # 3c00 <_ZN6tflite19GreedyMemoryPlanner24CalculateOffsetsIfNeededEv+0x248>
   13798:	0045d513          	srli	a0,a1,0x4
   1379c:	00d787b3          	add	a5,a5,a3
   137a0:	00475693          	srli	a3,a4,0x4
   137a4:	01c71713          	slli	a4,a4,0x1c
   137a8:	00a76733          	or	a4,a4,a0
   137ac:	01c59593          	slli	a1,a1,0x1c
   137b0:	00d12e23          	sw	a3,28(sp)
   137b4:	00e12c23          	sw	a4,24(sp)
   137b8:	00b12a23          	sw	a1,20(sp)
   137bc:	00012823          	sw	zero,16(sp)
   137c0:	01c12703          	lw	a4,28(sp)
   137c4:	00008537          	lui	a0,0x8
   137c8:	fff50513          	addi	a0,a0,-1 # 7fff <_svfprintf_r+0x8ef>
   137cc:	00e11623          	sh	a4,12(sp)
   137d0:	00c12703          	lw	a4,12(sp)
   137d4:	800106b7          	lui	a3,0x80010
   137d8:	00a7f7b3          	and	a5,a5,a0
   137dc:	fff68693          	addi	a3,a3,-1 # 8000ffff <__stack_top+0xfff991af>
   137e0:	00d77733          	and	a4,a4,a3
   137e4:	01079793          	slli	a5,a5,0x10
   137e8:	00f767b3          	or	a5,a4,a5
   137ec:	80000737          	lui	a4,0x80000
   137f0:	fff74713          	not	a4,a4
   137f4:	00e7f7b3          	and	a5,a5,a4
   137f8:	01f41413          	slli	s0,s0,0x1f
   137fc:	0087e433          	or	s0,a5,s0
   13800:	01012783          	lw	a5,16(sp)
   13804:	0084a623          	sw	s0,12(s1)
   13808:	02c12083          	lw	ra,44(sp)
   1380c:	00f4a023          	sw	a5,0(s1)
   13810:	01412783          	lw	a5,20(sp)
   13814:	02812403          	lw	s0,40(sp)
   13818:	00048513          	mv	a0,s1
   1381c:	00f4a223          	sw	a5,4(s1)
   13820:	01812783          	lw	a5,24(sp)
   13824:	00f4a423          	sw	a5,8(s1)
   13828:	02412483          	lw	s1,36(sp)
   1382c:	03010113          	addi	sp,sp,48
   13830:	00008067          	ret
   13834:	00b76533          	or	a0,a4,a1
   13838:	0e079a63          	bnez	a5,1392c <__extenddftf2+0x1e4>
   1383c:	f80502e3          	beqz	a0,137c0 <__extenddftf2+0x78>
   13840:	06070063          	beqz	a4,138a0 <__extenddftf2+0x158>
   13844:	00070513          	mv	a0,a4
   13848:	ffff1097          	auipc	ra,0xffff1
   1384c:	72c080e7          	jalr	1836(ra) # 4f74 <__clzsi2>
   13850:	03150613          	addi	a2,a0,49
   13854:	40565713          	srai	a4,a2,0x5
   13858:	01f67613          	andi	a2,a2,31
   1385c:	04060a63          	beqz	a2,138b0 <__extenddftf2+0x168>
   13860:	ffc00693          	li	a3,-4
   13864:	02d706b3          	mul	a3,a4,a3
   13868:	01010313          	addi	t1,sp,16
   1386c:	02000793          	li	a5,32
   13870:	00271813          	slli	a6,a4,0x2
   13874:	40c787b3          	sub	a5,a5,a2
   13878:	00c68693          	addi	a3,a3,12
   1387c:	00d306b3          	add	a3,t1,a3
   13880:	08d31463          	bne	t1,a3,13908 <__extenddftf2+0x1c0>
   13884:	02010793          	addi	a5,sp,32
   13888:	01078833          	add	a6,a5,a6
   1388c:	01012783          	lw	a5,16(sp)
   13890:	fff70713          	addi	a4,a4,-1 # 7fffffff <__stack_top+0xfff891af>
   13894:	00c79633          	sll	a2,a5,a2
   13898:	fec82823          	sw	a2,-16(a6)
   1389c:	0400006f          	j	138dc <__extenddftf2+0x194>
   138a0:	ffff1097          	auipc	ra,0xffff1
   138a4:	6d4080e7          	jalr	1748(ra) # 4f74 <__clzsi2>
   138a8:	02050513          	addi	a0,a0,32
   138ac:	fa5ff06f          	j	13850 <__extenddftf2+0x108>
   138b0:	ffc00613          	li	a2,-4
   138b4:	02c70633          	mul	a2,a4,a2
   138b8:	01c10693          	addi	a3,sp,28
   138bc:	00300793          	li	a5,3
   138c0:	00c685b3          	add	a1,a3,a2
   138c4:	0005a583          	lw	a1,0(a1)
   138c8:	fff78793          	addi	a5,a5,-1
   138cc:	ffc68693          	addi	a3,a3,-4
   138d0:	00b6a223          	sw	a1,4(a3)
   138d4:	fee7d6e3          	bge	a5,a4,138c0 <__extenddftf2+0x178>
   138d8:	fff70713          	addi	a4,a4,-1
   138dc:	fff00693          	li	a3,-1
   138e0:	00271793          	slli	a5,a4,0x2
   138e4:	01010613          	addi	a2,sp,16
   138e8:	00f607b3          	add	a5,a2,a5
   138ec:	0007a023          	sw	zero,0(a5)
   138f0:	fff70713          	addi	a4,a4,-1
   138f4:	fed716e3          	bne	a4,a3,138e0 <__extenddftf2+0x198>
   138f8:	000047b7          	lui	a5,0x4
   138fc:	c0c78793          	addi	a5,a5,-1012 # 3c0c <_ZN6tflite19GreedyMemoryPlanner24CalculateOffsetsIfNeededEv+0x254>
   13900:	40a787b3          	sub	a5,a5,a0
   13904:	ebdff06f          	j	137c0 <__extenddftf2+0x78>
   13908:	ffc6a583          	lw	a1,-4(a3)
   1390c:	0006a883          	lw	a7,0(a3)
   13910:	01068e33          	add	t3,a3,a6
   13914:	00f5d5b3          	srl	a1,a1,a5
   13918:	00c898b3          	sll	a7,a7,a2
   1391c:	0115e5b3          	or	a1,a1,a7
   13920:	00be2023          	sw	a1,0(t3)
   13924:	ffc68693          	addi	a3,a3,-4
   13928:	f59ff06f          	j	13880 <__extenddftf2+0x138>
   1392c:	000087b7          	lui	a5,0x8
   13930:	02050863          	beqz	a0,13960 <__extenddftf2+0x218>
   13934:	01c71793          	slli	a5,a4,0x1c
   13938:	0045d693          	srli	a3,a1,0x4
   1393c:	00d7e7b3          	or	a5,a5,a3
   13940:	00f12c23          	sw	a5,24(sp)
   13944:	00475713          	srli	a4,a4,0x4
   13948:	000087b7          	lui	a5,0x8
   1394c:	01c59593          	slli	a1,a1,0x1c
   13950:	00f76733          	or	a4,a4,a5
   13954:	00b12a23          	sw	a1,20(sp)
   13958:	00012823          	sw	zero,16(sp)
   1395c:	00e12e23          	sw	a4,28(sp)
   13960:	fff78793          	addi	a5,a5,-1 # 7fff <_svfprintf_r+0x8ef>
   13964:	e5dff06f          	j	137c0 <__extenddftf2+0x78>

00013968 <__trunctfdf2>:
   13968:	00c52583          	lw	a1,12(a0)
   1396c:	00852783          	lw	a5,8(a0)
   13970:	00452703          	lw	a4,4(a0)
   13974:	fe010113          	addi	sp,sp,-32
   13978:	00052683          	lw	a3,0(a0)
   1397c:	00f12423          	sw	a5,8(sp)
   13980:	00f12c23          	sw	a5,24(sp)
   13984:	01059793          	slli	a5,a1,0x10
   13988:	00e12223          	sw	a4,4(sp)
   1398c:	00e12a23          	sw	a4,20(sp)
   13990:	0107d793          	srli	a5,a5,0x10
   13994:	00159713          	slli	a4,a1,0x1
   13998:	00b12623          	sw	a1,12(sp)
   1399c:	00d12023          	sw	a3,0(sp)
   139a0:	00d12823          	sw	a3,16(sp)
   139a4:	00f12e23          	sw	a5,28(sp)
   139a8:	01175713          	srli	a4,a4,0x11
   139ac:	01f5d593          	srli	a1,a1,0x1f
   139b0:	01010313          	addi	t1,sp,16
   139b4:	01c10613          	addi	a2,sp,28
   139b8:	00062783          	lw	a5,0(a2)
   139bc:	ffc62683          	lw	a3,-4(a2)
   139c0:	ffc60613          	addi	a2,a2,-4
   139c4:	00379793          	slli	a5,a5,0x3
   139c8:	01d6d693          	srli	a3,a3,0x1d
   139cc:	00d7e7b3          	or	a5,a5,a3
   139d0:	00f62223          	sw	a5,4(a2)
   139d4:	fec312e3          	bne	t1,a2,139b8 <__trunctfdf2+0x50>
   139d8:	01012683          	lw	a3,16(sp)
   139dc:	00170793          	addi	a5,a4,1
   139e0:	00369513          	slli	a0,a3,0x3
   139e4:	000086b7          	lui	a3,0x8
   139e8:	ffe68693          	addi	a3,a3,-2 # 7ffe <_svfprintf_r+0x8ee>
   139ec:	00a12823          	sw	a0,16(sp)
   139f0:	00d7f7b3          	and	a5,a5,a3
   139f4:	1a078a63          	beqz	a5,13ba8 <__trunctfdf2+0x240>
   139f8:	ffffc7b7          	lui	a5,0xffffc
   139fc:	40078793          	addi	a5,a5,1024 # ffffc400 <__stack_top+0x7ff855b0>
   13a00:	00f70733          	add	a4,a4,a5
   13a04:	7fe00793          	li	a5,2046
   13a08:	1ee7cc63          	blt	a5,a4,13c00 <__trunctfdf2+0x298>
   13a0c:	06e05863          	blez	a4,13a7c <__trunctfdf2+0x114>
   13a10:	01812803          	lw	a6,24(sp)
   13a14:	01c12603          	lw	a2,28(sp)
   13a18:	01412783          	lw	a5,20(sp)
   13a1c:	01c85693          	srli	a3,a6,0x1c
   13a20:	00461613          	slli	a2,a2,0x4
   13a24:	00d66633          	or	a2,a2,a3
   13a28:	00479693          	slli	a3,a5,0x4
   13a2c:	00a6e6b3          	or	a3,a3,a0
   13a30:	01c7d793          	srli	a5,a5,0x1c
   13a34:	00481813          	slli	a6,a6,0x4
   13a38:	00d036b3          	snez	a3,a3
   13a3c:	0107e7b3          	or	a5,a5,a6
   13a40:	00f6e6b3          	or	a3,a3,a5
   13a44:	00c12a23          	sw	a2,20(sp)
   13a48:	00d12823          	sw	a3,16(sp)
   13a4c:	01012683          	lw	a3,16(sp)
   13a50:	01412783          	lw	a5,20(sp)
   13a54:	0076f613          	andi	a2,a3,7
   13a58:	1a060a63          	beqz	a2,13c0c <__trunctfdf2+0x2a4>
   13a5c:	00f6f613          	andi	a2,a3,15
   13a60:	00400513          	li	a0,4
   13a64:	1aa60463          	beq	a2,a0,13c0c <__trunctfdf2+0x2a4>
   13a68:	00468613          	addi	a2,a3,4
   13a6c:	00d636b3          	sltu	a3,a2,a3
   13a70:	00d787b3          	add	a5,a5,a3
   13a74:	00060693          	mv	a3,a2
   13a78:	1940006f          	j	13c0c <__trunctfdf2+0x2a4>
   13a7c:	fcc00793          	li	a5,-52
   13a80:	00f75c63          	bge	a4,a5,13a98 <__trunctfdf2+0x130>
   13a84:	00012a23          	sw	zero,20(sp)
   13a88:	00100793          	li	a5,1
   13a8c:	00f12823          	sw	a5,16(sp)
   13a90:	00000713          	li	a4,0
   13a94:	fb9ff06f          	j	13a4c <__trunctfdf2+0xe4>
   13a98:	01c12783          	lw	a5,28(sp)
   13a9c:	000806b7          	lui	a3,0x80
   13aa0:	00000e13          	li	t3,0
   13aa4:	00d7e7b3          	or	a5,a5,a3
   13aa8:	00f12e23          	sw	a5,28(sp)
   13aac:	03d00793          	li	a5,61
   13ab0:	40e78733          	sub	a4,a5,a4
   13ab4:	40575513          	srai	a0,a4,0x5
   13ab8:	00030693          	mv	a3,t1
   13abc:	01f77713          	andi	a4,a4,31
   13ac0:	00000793          	li	a5,0
   13ac4:	0006a803          	lw	a6,0(a3) # 80000 <__trunctfdf2+0x6c698>
   13ac8:	00178793          	addi	a5,a5,1
   13acc:	00468693          	addi	a3,a3,4
   13ad0:	010e6e33          	or	t3,t3,a6
   13ad4:	fef518e3          	bne	a0,a5,13ac4 <__trunctfdf2+0x15c>
   13ad8:	00251693          	slli	a3,a0,0x2
   13adc:	04071663          	bnez	a4,13b28 <__trunctfdf2+0x1c0>
   13ae0:	00300793          	li	a5,3
   13ae4:	40a78533          	sub	a0,a5,a0
   13ae8:	00d607b3          	add	a5,a2,a3
   13aec:	0007a783          	lw	a5,0(a5)
   13af0:	00170713          	addi	a4,a4,1
   13af4:	00460613          	addi	a2,a2,4
   13af8:	fef62e23          	sw	a5,-4(a2)
   13afc:	fee556e3          	bge	a0,a4,13ae8 <__trunctfdf2+0x180>
   13b00:	00400693          	li	a3,4
   13b04:	00271793          	slli	a5,a4,0x2
   13b08:	00f307b3          	add	a5,t1,a5
   13b0c:	0007a023          	sw	zero,0(a5)
   13b10:	00170713          	addi	a4,a4,1
   13b14:	fed718e3          	bne	a4,a3,13b04 <__trunctfdf2+0x19c>
   13b18:	01012703          	lw	a4,16(sp)
   13b1c:	01c037b3          	snez	a5,t3
   13b20:	00f767b3          	or	a5,a4,a5
   13b24:	f69ff06f          	j	13a8c <__trunctfdf2+0x124>
   13b28:	02010793          	addi	a5,sp,32
   13b2c:	00d787b3          	add	a5,a5,a3
   13b30:	ff07a783          	lw	a5,-16(a5)
   13b34:	02000893          	li	a7,32
   13b38:	40e888b3          	sub	a7,a7,a4
   13b3c:	011797b3          	sll	a5,a5,a7
   13b40:	00fe6e33          	or	t3,t3,a5
   13b44:	00300793          	li	a5,3
   13b48:	00d306b3          	add	a3,t1,a3
   13b4c:	00000813          	li	a6,0
   13b50:	40a787b3          	sub	a5,a5,a0
   13b54:	00468693          	addi	a3,a3,4
   13b58:	02f84463          	blt	a6,a5,13b80 <__trunctfdf2+0x218>
   13b5c:	02010693          	addi	a3,sp,32
   13b60:	00279793          	slli	a5,a5,0x2
   13b64:	00f687b3          	add	a5,a3,a5
   13b68:	01c12683          	lw	a3,28(sp)
   13b6c:	00e6d733          	srl	a4,a3,a4
   13b70:	fee7a823          	sw	a4,-16(a5)
   13b74:	00400713          	li	a4,4
   13b78:	40a70733          	sub	a4,a4,a0
   13b7c:	f85ff06f          	j	13b00 <__trunctfdf2+0x198>
   13b80:	ffc6a603          	lw	a2,-4(a3)
   13b84:	0006af03          	lw	t5,0(a3)
   13b88:	00281e93          	slli	t4,a6,0x2
   13b8c:	00e65633          	srl	a2,a2,a4
   13b90:	011f1f33          	sll	t5,t5,a7
   13b94:	01d30eb3          	add	t4,t1,t4
   13b98:	01e66633          	or	a2,a2,t5
   13b9c:	00cea023          	sw	a2,0(t4)
   13ba0:	00180813          	addi	a6,a6,1
   13ba4:	fb1ff06f          	j	13b54 <__trunctfdf2+0x1ec>
   13ba8:	01412603          	lw	a2,20(sp)
   13bac:	01812783          	lw	a5,24(sp)
   13bb0:	01c12803          	lw	a6,28(sp)
   13bb4:	00f666b3          	or	a3,a2,a5
   13bb8:	0106e6b3          	or	a3,a3,a6
   13bbc:	00a6e6b3          	or	a3,a3,a0
   13bc0:	00071863          	bnez	a4,13bd0 <__trunctfdf2+0x268>
   13bc4:	00d036b3          	snez	a3,a3
   13bc8:	00000793          	li	a5,0
   13bcc:	e89ff06f          	j	13a54 <__trunctfdf2+0xec>
   13bd0:	0c068a63          	beqz	a3,13ca4 <__trunctfdf2+0x33c>
   13bd4:	01c65693          	srli	a3,a2,0x1c
   13bd8:	00481813          	slli	a6,a6,0x4
   13bdc:	00479613          	slli	a2,a5,0x4
   13be0:	01c7d793          	srli	a5,a5,0x1c
   13be4:	00400737          	lui	a4,0x400
   13be8:	00c6e6b3          	or	a3,a3,a2
   13bec:	0107e7b3          	or	a5,a5,a6
   13bf0:	00e7e7b3          	or	a5,a5,a4
   13bf4:	ff86f693          	andi	a3,a3,-8
   13bf8:	7ff00713          	li	a4,2047
   13bfc:	e59ff06f          	j	13a54 <__trunctfdf2+0xec>
   13c00:	00000793          	li	a5,0
   13c04:	00000693          	li	a3,0
   13c08:	7ff00713          	li	a4,2047
   13c0c:	00879613          	slli	a2,a5,0x8
   13c10:	00065e63          	bgez	a2,13c2c <__trunctfdf2+0x2c4>
   13c14:	00170713          	addi	a4,a4,1 # 400001 <__trunctfdf2+0x3ec699>
   13c18:	7ff00613          	li	a2,2047
   13c1c:	08c70863          	beq	a4,a2,13cac <__trunctfdf2+0x344>
   13c20:	ff800637          	lui	a2,0xff800
   13c24:	fff60613          	addi	a2,a2,-1 # ff7fffff <__stack_top+0x7f7891af>
   13c28:	00c7f7b3          	and	a5,a5,a2
   13c2c:	01d79613          	slli	a2,a5,0x1d
   13c30:	0036d693          	srli	a3,a3,0x3
   13c34:	00d666b3          	or	a3,a2,a3
   13c38:	7ff00613          	li	a2,2047
   13c3c:	0037d793          	srli	a5,a5,0x3
   13c40:	00c71e63          	bne	a4,a2,13c5c <__trunctfdf2+0x2f4>
   13c44:	00f6e6b3          	or	a3,a3,a5
   13c48:	00000793          	li	a5,0
   13c4c:	00068863          	beqz	a3,13c5c <__trunctfdf2+0x2f4>
   13c50:	000807b7          	lui	a5,0x80
   13c54:	00000693          	li	a3,0
   13c58:	00000593          	li	a1,0
   13c5c:	00100637          	lui	a2,0x100
   13c60:	fff60613          	addi	a2,a2,-1 # fffff <__trunctfdf2+0xec697>
   13c64:	00c7f7b3          	and	a5,a5,a2
   13c68:	80100637          	lui	a2,0x80100
   13c6c:	7ff77713          	andi	a4,a4,2047
   13c70:	fff60613          	addi	a2,a2,-1 # 800fffff <__stack_top+0x891af>
   13c74:	01471713          	slli	a4,a4,0x14
   13c78:	00c7f7b3          	and	a5,a5,a2
   13c7c:	00e7e7b3          	or	a5,a5,a4
   13c80:	80000737          	lui	a4,0x80000
   13c84:	fff74713          	not	a4,a4
   13c88:	01f59593          	slli	a1,a1,0x1f
   13c8c:	00e7f7b3          	and	a5,a5,a4
   13c90:	00b7e733          	or	a4,a5,a1
   13c94:	00068513          	mv	a0,a3
   13c98:	00070593          	mv	a1,a4
   13c9c:	02010113          	addi	sp,sp,32
   13ca0:	00008067          	ret
   13ca4:	00000793          	li	a5,0
   13ca8:	f61ff06f          	j	13c08 <__trunctfdf2+0x2a0>
   13cac:	00000793          	li	a5,0
   13cb0:	00000693          	li	a3,0
   13cb4:	f79ff06f          	j	13c2c <__trunctfdf2+0x2c4>
