
gen/riscv32_generic_x86_64_default_gcc/bin/person_detection:     file format elf32-littleriscv


Disassembly of section .text:

00000000 <_start>:
       0:	8004a117          	auipc	sp,0x8004a
       4:	e8010113          	addi	sp,sp,-384 # 80049e80 <__stack_top+0x0>
       8:	80002517          	auipc	a0,0x80002
       c:	d7850513          	addi	a0,a0,-648 # 80001d80 <__stack_top+0xfffb7f00>
      10:	80002597          	auipc	a1,0x80002
      14:	e7058593          	addi	a1,a1,-400 # 80001e80 <__stack_top+0xfffb8000>
      18:	00b57863          	bgeu	a0,a1,28 <_start+0x28>
      1c:	00052023          	sw	zero,0(a0)
      20:	00450513          	addi	a0,a0,4
      24:	ff5ff06f          	j	18 <_start+0x18>
      28:	00000097          	auipc	ra,0x0
      2c:	00c080e7          	jalr	12(ra) # 34 <main>
      30:	0000006f          	j	30 <_start+0x30>

00000034 <main>:
      34:	ff010113          	addi	sp,sp,-16
      38:	00112623          	sw	ra,12(sp)
      3c:	00000097          	auipc	ra,0x0
      40:	164080e7          	jalr	356(ra) # 1a0 <setup>
      44:	00000097          	auipc	ra,0x0
      48:	00c080e7          	jalr	12(ra) # 50 <loop>
      4c:	0000006f          	j	4c <main+0x18>

00000050 <loop>:
      50:	406007b7          	lui	a5,0x40600
      54:	03300713          	li	a4,51
      58:	00e7a223          	sw	a4,4(a5) # 40600004 <__trunctfdf2+0x405ecfa4>
      5c:	06a00713          	li	a4,106
      60:	00e7a223          	sw	a4,4(a5)
      64:	00008067          	ret

00000068 <_ZN6tflite22MicroMutableOpResolverILj5EE10AddBuiltinENS_15BuiltinOperatorERK16TFLMRegistrationPF12TfLiteStatusPKNS_8OperatorEPNS_13ErrorReporterEPNS_20BuiltinDataAllocatorEPPvE>:
      68:	fe010113          	addi	sp,sp,-32
      6c:	00112e23          	sw	ra,28(sp)
      70:	00812c23          	sw	s0,24(sp)
      74:	00912a23          	sw	s1,20(sp)
      78:	01212823          	sw	s2,16(sp)
      7c:	01312623          	sw	s3,12(sp)
      80:	01412423          	sw	s4,8(sp)
      84:	01512223          	sw	s5,4(sp)
      88:	02000793          	li	a5,32
      8c:	04f59663          	bne	a1,a5,d8 <_ZN6tflite22MicroMutableOpResolverILj5EE10AddBuiltinENS_15BuiltinOperatorERK16TFLMRegistrationPF12TfLiteStatusPKNS_8OperatorEPNS_13ErrorReporterEPNS_20BuiltinDataAllocatorEPPvE+0x70>
      90:	80000517          	auipc	a0,0x80000
      94:	f7050513          	addi	a0,a0,-144 # 80000000 <__stack_top+0xfffb6180>
      98:	00000097          	auipc	ra,0x0
      9c:	208080e7          	jalr	520(ra) # 2a0 <_Z11MicroPrintfPKcz>
      a0:	80000517          	auipc	a0,0x80000
      a4:	f9450513          	addi	a0,a0,-108 # 80000034 <__stack_top+0xfffb61b4>
      a8:	00000097          	auipc	ra,0x0
      ac:	1f8080e7          	jalr	504(ra) # 2a0 <_Z11MicroPrintfPKcz>
      b0:	00100513          	li	a0,1
      b4:	01c12083          	lw	ra,28(sp)
      b8:	01812403          	lw	s0,24(sp)
      bc:	01412483          	lw	s1,20(sp)
      c0:	01012903          	lw	s2,16(sp)
      c4:	00c12983          	lw	s3,12(sp)
      c8:	00812a03          	lw	s4,8(sp)
      cc:	00412a83          	lw	s5,4(sp)
      d0:	02010113          	addi	sp,sp,32
      d4:	00008067          	ret
      d8:	00052783          	lw	a5,0(a0)
      dc:	00050413          	mv	s0,a0
      e0:	00058913          	mv	s2,a1
      e4:	0007a783          	lw	a5,0(a5)
      e8:	00060a93          	mv	s5,a2
      ec:	00068a13          	mv	s4,a3
      f0:	000780e7          	jalr	a5
      f4:	02050663          	beqz	a0,120 <_ZN6tflite22MicroMutableOpResolverILj5EE10AddBuiltinENS_15BuiltinOperatorERK16TFLMRegistrationPF12TfLiteStatusPKNS_8OperatorEPNS_13ErrorReporterEPNS_20BuiltinDataAllocatorEPPvE+0xb8>
      f8:	80000517          	auipc	a0,0x80000
      fc:	f5450513          	addi	a0,a0,-172 # 8000004c <__stack_top+0xfffb61cc>
     100:	00000097          	auipc	ra,0x0
     104:	1a0080e7          	jalr	416(ra) # 2a0 <_Z11MicroPrintfPKcz>
     108:	80000517          	auipc	a0,0x80000
     10c:	00090593          	mv	a1,s2
     110:	f7450513          	addi	a0,a0,-140 # 8000007c <__stack_top+0xfffb61fc>
     114:	00000097          	auipc	ra,0x0
     118:	18c080e7          	jalr	396(ra) # 2a0 <_Z11MicroPrintfPKcz>
     11c:	f95ff06f          	j	b0 <_ZN6tflite22MicroMutableOpResolverILj5EE10AddBuiltinENS_15BuiltinOperatorERK16TFLMRegistrationPF12TfLiteStatusPKNS_8OperatorEPNS_13ErrorReporterEPNS_20BuiltinDataAllocatorEPPvE+0x48>
     120:	09042983          	lw	s3,144(s0)
     124:	00400793          	li	a5,4
     128:	0337f463          	bgeu	a5,s3,150 <_ZN6tflite22MicroMutableOpResolverILj5EE10AddBuiltinENS_15BuiltinOperatorERK16TFLMRegistrationPF12TfLiteStatusPKNS_8OperatorEPNS_13ErrorReporterEPNS_20BuiltinDataAllocatorEPPvE+0xe8>
     12c:	80000517          	auipc	a0,0x80000
     130:	00090593          	mv	a1,s2
     134:	f7450513          	addi	a0,a0,-140 # 800000a0 <__stack_top+0xfffb6220>
     138:	00000097          	auipc	ra,0x0
     13c:	168080e7          	jalr	360(ra) # 2a0 <_Z11MicroPrintfPKcz>
     140:	80000517          	auipc	a0,0x80000
     144:	00500593          	li	a1,5
     148:	f9450513          	addi	a0,a0,-108 # 800000d4 <__stack_top+0xfffb6254>
     14c:	fc9ff06f          	j	114 <_ZN6tflite22MicroMutableOpResolverILj5EE10AddBuiltinENS_15BuiltinOperatorERK16TFLMRegistrationPF12TfLiteStatusPKNS_8OperatorEPNS_13ErrorReporterEPNS_20BuiltinDataAllocatorEPPvE+0xac>
     150:	01c00493          	li	s1,28
     154:	029984b3          	mul	s1,s3,s1
     158:	01c00613          	li	a2,28
     15c:	000a8593          	mv	a1,s5
     160:	00198993          	addi	s3,s3,1
     164:	009404b3          	add	s1,s0,s1
     168:	00448513          	addi	a0,s1,4
     16c:	00006097          	auipc	ra,0x6
     170:	f30080e7          	jalr	-208(ra) # 609c <memcpy>
     174:	0bc42783          	lw	a5,188(s0)
     178:	0124ac23          	sw	s2,24(s1)
     17c:	09342823          	sw	s3,144(s0)
     180:	00279713          	slli	a4,a5,0x2
     184:	00e40733          	add	a4,s0,a4
     188:	09272a23          	sw	s2,148(a4)
     18c:	0b472423          	sw	s4,168(a4)
     190:	00178793          	addi	a5,a5,1
     194:	0af42e23          	sw	a5,188(s0)
     198:	00000513          	li	a0,0
     19c:	f19ff06f          	j	b4 <_ZN6tflite22MicroMutableOpResolverILj5EE10AddBuiltinENS_15BuiltinOperatorERK16TFLMRegistrationPF12TfLiteStatusPKNS_8OperatorEPNS_13ErrorReporterEPNS_20BuiltinDataAllocatorEPPvE+0x4c>

000001a0 <setup>:
     1a0:	fd010113          	addi	sp,sp,-48
     1a4:	02112623          	sw	ra,44(sp)
     1a8:	03100793          	li	a5,49
     1ac:	02812423          	sw	s0,40(sp)
     1b0:	02912223          	sw	s1,36(sp)
     1b4:	40600437          	lui	s0,0x40600
     1b8:	00f42223          	sw	a5,4(s0) # 40600004 <__trunctfdf2+0x405ecfa4>
     1bc:	00410513          	addi	a0,sp,4
     1c0:	00002097          	auipc	ra,0x2
     1c4:	8c8080e7          	jalr	-1848(ra) # 1a88 <_ZN6tflite16Register_RESHAPEEv>
     1c8:	80002497          	auipc	s1,0x80002
     1cc:	bc848493          	addi	s1,s1,-1080 # 80001d90 <__stack_top+0xfffb7f10>
     1d0:	00000697          	auipc	a3,0x0
     1d4:	54c68693          	addi	a3,a3,1356 # 71c <_ZN6tflite12ParseReshapeEPKNS_8OperatorEPNS_13ErrorReporterEPNS_20BuiltinDataAllocatorEPPv>
     1d8:	00410613          	addi	a2,sp,4
     1dc:	01600593          	li	a1,22
     1e0:	00048513          	mv	a0,s1
     1e4:	00000097          	auipc	ra,0x0
     1e8:	e84080e7          	jalr	-380(ra) # 68 <_ZN6tflite22MicroMutableOpResolverILj5EE10AddBuiltinENS_15BuiltinOperatorERK16TFLMRegistrationPF12TfLiteStatusPKNS_8OperatorEPNS_13ErrorReporterEPNS_20BuiltinDataAllocatorEPPvE>
     1ec:	03200793          	li	a5,50
     1f0:	00f42223          	sw	a5,4(s0)
     1f4:	00410513          	addi	a0,sp,4
     1f8:	00001097          	auipc	ra,0x1
     1fc:	f3c080e7          	jalr	-196(ra) # 1134 <_ZN6tflite24Register_AVERAGE_POOL_2DEv>
     200:	07400793          	li	a5,116
     204:	00000697          	auipc	a3,0x0
     208:	00f42223          	sw	a5,4(s0)
     20c:	35c68693          	addi	a3,a3,860 # 560 <_ZN6tflite9ParsePoolEPKNS_8OperatorEPNS_13ErrorReporterEPNS_20BuiltinDataAllocatorEPPv>
     210:	00410613          	addi	a2,sp,4
     214:	00100593          	li	a1,1
     218:	00048513          	mv	a0,s1
     21c:	00000097          	auipc	ra,0x0
     220:	e4c080e7          	jalr	-436(ra) # 68 <_ZN6tflite22MicroMutableOpResolverILj5EE10AddBuiltinENS_15BuiltinOperatorERK16TFLMRegistrationPF12TfLiteStatusPKNS_8OperatorEPNS_13ErrorReporterEPNS_20BuiltinDataAllocatorEPPvE>
     224:	07a00793          	li	a5,122
     228:	00f42223          	sw	a5,4(s0)
     22c:	0000006f          	j	22c <setup+0x8c>

00000230 <_ZN12_GLOBAL__N_19VDebugLogEPKcz.constprop.0>:
     230:	fc010113          	addi	sp,sp,-64
     234:	80000517          	auipc	a0,0x80000
     238:	02b12223          	sw	a1,36(sp)
     23c:	eb450513          	addi	a0,a0,-332 # 800000e8 <__stack_top+0xfffb6268>
     240:	02410593          	addi	a1,sp,36
     244:	00112e23          	sw	ra,28(sp)
     248:	02c12423          	sw	a2,40(sp)
     24c:	02d12623          	sw	a3,44(sp)
     250:	02e12823          	sw	a4,48(sp)
     254:	02f12a23          	sw	a5,52(sp)
     258:	03012c23          	sw	a6,56(sp)
     25c:	03112e23          	sw	a7,60(sp)
     260:	00b12623          	sw	a1,12(sp)
     264:	00002097          	auipc	ra,0x2
     268:	d90080e7          	jalr	-624(ra) # 1ff4 <DebugLog>
     26c:	01c12083          	lw	ra,28(sp)
     270:	04010113          	addi	sp,sp,64
     274:	00008067          	ret

00000278 <_Z12VMicroPrintfPKcPv>:
     278:	ff010113          	addi	sp,sp,-16
     27c:	00112623          	sw	ra,12(sp)
     280:	00002097          	auipc	ra,0x2
     284:	d74080e7          	jalr	-652(ra) # 1ff4 <DebugLog>
     288:	00c12083          	lw	ra,12(sp)
     28c:	80000517          	auipc	a0,0x80000
     290:	e5c50513          	addi	a0,a0,-420 # 800000e8 <__stack_top+0xfffb6268>
     294:	01010113          	addi	sp,sp,16
     298:	00000317          	auipc	t1,0x0
     29c:	f9830067          	jr	-104(t1) # 230 <_ZN12_GLOBAL__N_19VDebugLogEPKcz.constprop.0>

000002a0 <_Z11MicroPrintfPKcz>:
     2a0:	fc010113          	addi	sp,sp,-64
     2a4:	02b12223          	sw	a1,36(sp)
     2a8:	02410593          	addi	a1,sp,36
     2ac:	00112e23          	sw	ra,28(sp)
     2b0:	02c12423          	sw	a2,40(sp)
     2b4:	02d12623          	sw	a3,44(sp)
     2b8:	02e12823          	sw	a4,48(sp)
     2bc:	02f12a23          	sw	a5,52(sp)
     2c0:	03012c23          	sw	a6,56(sp)
     2c4:	03112e23          	sw	a7,60(sp)
     2c8:	00b12623          	sw	a1,12(sp)
     2cc:	00000097          	auipc	ra,0x0
     2d0:	fac080e7          	jalr	-84(ra) # 278 <_Z12VMicroPrintfPKcPv>
     2d4:	01c12083          	lw	ra,28(sp)
     2d8:	04010113          	addi	sp,sp,64
     2dc:	00008067          	ret

000002e0 <_ZN6tflite12_GLOBAL__N_117ConvertActivationENS_22ActivationFunctionTypeE>:
     2e0:	fff50513          	addi	a0,a0,-1
     2e4:	0ff57513          	zext.b	a0,a0
     2e8:	00400793          	li	a5,4
     2ec:	00a7ec63          	bltu	a5,a0,304 <_ZN6tflite12_GLOBAL__N_117ConvertActivationENS_22ActivationFunctionTypeE+0x24>
     2f0:	80002797          	auipc	a5,0x80002
     2f4:	a6c78793          	addi	a5,a5,-1428 # 80001d5c <__stack_top+0xfffb7edc>
     2f8:	00a787b3          	add	a5,a5,a0
     2fc:	0007c503          	lbu	a0,0(a5)
     300:	00008067          	ret
     304:	00000513          	li	a0,0
     308:	00008067          	ret

0000030c <_ZN6tflite12_GLOBAL__N_114ConvertPaddingENS_7PaddingE>:
     30c:	00100793          	li	a5,1
     310:	00050a63          	beqz	a0,324 <_ZN6tflite12_GLOBAL__N_114ConvertPaddingENS_7PaddingE+0x18>
     314:	00100713          	li	a4,1
     318:	00200793          	li	a5,2
     31c:	00e50463          	beq	a0,a4,324 <_ZN6tflite12_GLOBAL__N_114ConvertPaddingENS_7PaddingE+0x18>
     320:	00000793          	li	a5,0
     324:	00078513          	mv	a0,a5
     328:	00008067          	ret

0000032c <_ZN6tflite12_GLOBAL__N_1L26FlatBufferIntVectorToArrayIlEE12TfLiteStatusiPKN11flatbuffers6VectorIT_mEEPS5_PNS_13ErrorReporterEPKc>:
     32c:	ff010113          	addi	sp,sp,-16
     330:	00112623          	sw	ra,12(sp)
     334:	00050793          	mv	a5,a0
     338:	00068513          	mv	a0,a3
     33c:	02059463          	bnez	a1,364 <_ZN6tflite12_GLOBAL__N_1L26FlatBufferIntVectorToArrayIlEE12TfLiteStatusiPKN11flatbuffers6VectorIT_mEEPS5_PNS_13ErrorReporterEPKc+0x38>
     340:	80000597          	auipc	a1,0x80000
     344:	00070613          	mv	a2,a4
     348:	dbc58593          	addi	a1,a1,-580 # 800000fc <__stack_top+0xfffb627c>
     34c:	00000097          	auipc	ra,0x0
     350:	514080e7          	jalr	1300(ra) # 860 <_ZN6tflite13ErrorReporter6ReportEPKcz>
     354:	00100513          	li	a0,1
     358:	00c12083          	lw	ra,12(sp)
     35c:	01010113          	addi	sp,sp,16
     360:	00008067          	ret
     364:	0005a803          	lw	a6,0(a1)
     368:	0027d793          	srli	a5,a5,0x2
     36c:	0307ee63          	bltu	a5,a6,3a8 <_ZN6tflite12_GLOBAL__N_1L26FlatBufferIntVectorToArrayIlEE12TfLiteStatusiPKN11flatbuffers6VectorIT_mEEPS5_PNS_13ErrorReporterEPKc+0x7c>
     370:	00458713          	addi	a4,a1,4
     374:	00000793          	li	a5,0
     378:	05078e63          	beq	a5,a6,3d4 <_ZN6tflite12_GLOBAL__N_1L26FlatBufferIntVectorToArrayIlEE12TfLiteStatusiPKN11flatbuffers6VectorIT_mEEPS5_PNS_13ErrorReporterEPKc+0xa8>
     37c:	0005a683          	lw	a3,0(a1)
     380:	02d7ec63          	bltu	a5,a3,3b8 <_ZN6tflite12_GLOBAL__N_1L26FlatBufferIntVectorToArrayIlEE12TfLiteStatusiPKN11flatbuffers6VectorIT_mEEPS5_PNS_13ErrorReporterEPKc+0x8c>
     384:	80000697          	auipc	a3,0x80000
     388:	80000617          	auipc	a2,0x80000
     38c:	80000517          	auipc	a0,0x80000
     390:	dec68693          	addi	a3,a3,-532 # 80000170 <__stack_top+0xfffb62f0>
     394:	ea860613          	addi	a2,a2,-344 # 80000230 <__stack_top+0xfffb63b0>
     398:	0c200593          	li	a1,194
     39c:	df050513          	addi	a0,a0,-528 # 8000017c <__stack_top+0xfffb62fc>
     3a0:	00005097          	auipc	ra,0x5
     3a4:	05c080e7          	jalr	92(ra) # 53fc <__assert_func>
     3a8:	80000597          	auipc	a1,0x80000
     3ac:	00070613          	mv	a2,a4
     3b0:	d8458593          	addi	a1,a1,-636 # 8000012c <__stack_top+0xfffb62ac>
     3b4:	f99ff06f          	j	34c <_ZN6tflite12_GLOBAL__N_1L26FlatBufferIntVectorToArrayIlEE12TfLiteStatusiPKN11flatbuffers6VectorIT_mEEPS5_PNS_13ErrorReporterEPKc+0x20>
     3b8:	00072503          	lw	a0,0(a4)
     3bc:	00279693          	slli	a3,a5,0x2
     3c0:	00d606b3          	add	a3,a2,a3
     3c4:	00a6a023          	sw	a0,0(a3)
     3c8:	00178793          	addi	a5,a5,1
     3cc:	00470713          	addi	a4,a4,4
     3d0:	fa9ff06f          	j	378 <_ZN6tflite12_GLOBAL__N_1L26FlatBufferIntVectorToArrayIlEE12TfLiteStatusiPKN11flatbuffers6VectorIT_mEEPS5_PNS_13ErrorReporterEPKc+0x4c>
     3d4:	00000513          	li	a0,0
     3d8:	f81ff06f          	j	358 <_ZN6tflite12_GLOBAL__N_1L26FlatBufferIntVectorToArrayIlEE12TfLiteStatusiPKN11flatbuffers6VectorIT_mEEPS5_PNS_13ErrorReporterEPKc+0x2c>

000003dc <_ZN6tflite12_GLOBAL__N_124SafeBuiltinDataAllocator18BuiltinDataDeleterclEPv.isra.0>:
     3dc:	00052783          	lw	a5,0(a0)
     3e0:	0047a303          	lw	t1,4(a5)
     3e4:	00030067          	jr	t1

000003e8 <_ZNK11flatbuffers5Table22GetOptionalFieldOffsetEt>:
     3e8:	00052783          	lw	a5,0(a0)
     3ec:	40f50533          	sub	a0,a0,a5
     3f0:	00055783          	lhu	a5,0(a0)
     3f4:	00f5f863          	bgeu	a1,a5,404 <_ZNK11flatbuffers5Table22GetOptionalFieldOffsetEt+0x1c>
     3f8:	00b50533          	add	a0,a0,a1
     3fc:	00055503          	lhu	a0,0(a0)
     400:	00008067          	ret
     404:	00000513          	li	a0,0
     408:	00008067          	ret

0000040c <_ZNK6tflite8Operator15builtin_optionsEv>:
     40c:	ff010113          	addi	sp,sp,-16
     410:	00c00593          	li	a1,12
     414:	00812423          	sw	s0,8(sp)
     418:	00112623          	sw	ra,12(sp)
     41c:	00050413          	mv	s0,a0
     420:	00000097          	auipc	ra,0x0
     424:	fc8080e7          	jalr	-56(ra) # 3e8 <_ZNK11flatbuffers5Table22GetOptionalFieldOffsetEt>
     428:	02050063          	beqz	a0,448 <_ZNK6tflite8Operator15builtin_optionsEv+0x3c>
     42c:	00a40533          	add	a0,s0,a0
     430:	00052783          	lw	a5,0(a0)
     434:	00f50533          	add	a0,a0,a5
     438:	00c12083          	lw	ra,12(sp)
     43c:	00812403          	lw	s0,8(sp)
     440:	01010113          	addi	sp,sp,16
     444:	00008067          	ret
     448:	00000513          	li	a0,0
     44c:	fedff06f          	j	438 <_ZNK6tflite8Operator15builtin_optionsEv+0x2c>

00000450 <_Z9AbortImplv>:
     450:	80000517          	auipc	a0,0x80000
     454:	ff010113          	addi	sp,sp,-16
     458:	c9c50513          	addi	a0,a0,-868 # 800000ec <__stack_top+0xfffb626c>
     45c:	00112623          	sw	ra,12(sp)
     460:	00000097          	auipc	ra,0x0
     464:	e40080e7          	jalr	-448(ra) # 2a0 <_Z11MicroPrintfPKcz>
     468:	0000006f          	j	468 <_Z9AbortImplv+0x18>

0000046c <_ZN6tflite12_GLOBAL__N_123CheckParsePointerParamsEPKNS_8OperatorEPNS_13ErrorReporterEPNS_20BuiltinDataAllocatorEPPv>:
     46c:	00051a63          	bnez	a0,480 <_ZN6tflite12_GLOBAL__N_123CheckParsePointerParamsEPKNS_8OperatorEPNS_13ErrorReporterEPNS_20BuiltinDataAllocatorEPPv+0x14>
     470:	ff010113          	addi	sp,sp,-16
     474:	00112623          	sw	ra,12(sp)
     478:	00000097          	auipc	ra,0x0
     47c:	fd8080e7          	jalr	-40(ra) # 450 <_Z9AbortImplv>
     480:	fe0588e3          	beqz	a1,470 <_ZN6tflite12_GLOBAL__N_123CheckParsePointerParamsEPKNS_8OperatorEPNS_13ErrorReporterEPNS_20BuiltinDataAllocatorEPPv+0x4>
     484:	fe0606e3          	beqz	a2,470 <_ZN6tflite12_GLOBAL__N_123CheckParsePointerParamsEPKNS_8OperatorEPNS_13ErrorReporterEPNS_20BuiltinDataAllocatorEPPv+0x4>
     488:	fe0684e3          	beqz	a3,470 <_ZN6tflite12_GLOBAL__N_123CheckParsePointerParamsEPKNS_8OperatorEPNS_13ErrorReporterEPNS_20BuiltinDataAllocatorEPPv+0x4>
     48c:	00008067          	ret

00000490 <_ZNK11flatbuffers5Table8GetFieldIlEET_tS2_>:
     490:	fe010113          	addi	sp,sp,-32
     494:	00812c23          	sw	s0,24(sp)
     498:	00c12623          	sw	a2,12(sp)
     49c:	00112e23          	sw	ra,28(sp)
     4a0:	00050413          	mv	s0,a0
     4a4:	00000097          	auipc	ra,0x0
     4a8:	f44080e7          	jalr	-188(ra) # 3e8 <_ZNK11flatbuffers5Table22GetOptionalFieldOffsetEt>
     4ac:	00c12603          	lw	a2,12(sp)
     4b0:	00050663          	beqz	a0,4bc <_ZNK11flatbuffers5Table8GetFieldIlEET_tS2_+0x2c>
     4b4:	00a40433          	add	s0,s0,a0
     4b8:	00042603          	lw	a2,0(s0)
     4bc:	01c12083          	lw	ra,28(sp)
     4c0:	01812403          	lw	s0,24(sp)
     4c4:	00060513          	mv	a0,a2
     4c8:	02010113          	addi	sp,sp,32
     4cc:	00008067          	ret

000004d0 <_ZNK11flatbuffers5Table8GetFieldIhEET_tS2_>:
     4d0:	fe010113          	addi	sp,sp,-32
     4d4:	00812c23          	sw	s0,24(sp)
     4d8:	00c12623          	sw	a2,12(sp)
     4dc:	00112e23          	sw	ra,28(sp)
     4e0:	00050413          	mv	s0,a0
     4e4:	00000097          	auipc	ra,0x0
     4e8:	f04080e7          	jalr	-252(ra) # 3e8 <_ZNK11flatbuffers5Table22GetOptionalFieldOffsetEt>
     4ec:	00c12603          	lw	a2,12(sp)
     4f0:	00050663          	beqz	a0,4fc <_ZNK11flatbuffers5Table8GetFieldIhEET_tS2_+0x2c>
     4f4:	00a40433          	add	s0,s0,a0
     4f8:	00044603          	lbu	a2,0(s0)
     4fc:	01c12083          	lw	ra,28(sp)
     500:	01812403          	lw	s0,24(sp)
     504:	00060513          	mv	a0,a2
     508:	02010113          	addi	sp,sp,32
     50c:	00008067          	ret

00000510 <_ZNK6tflite8Operator20builtin_options_typeEv>:
     510:	00000613          	li	a2,0
     514:	00a00593          	li	a1,10
     518:	00000317          	auipc	t1,0x0
     51c:	fb830067          	jr	-72(t1) # 4d0 <_ZNK11flatbuffers5Table8GetFieldIhEET_tS2_>

00000520 <_ZNK11flatbuffers5Table8GetFieldIaEET_tS2_>:
     520:	fe010113          	addi	sp,sp,-32
     524:	00812c23          	sw	s0,24(sp)
     528:	00c12623          	sw	a2,12(sp)
     52c:	00112e23          	sw	ra,28(sp)
     530:	00050413          	mv	s0,a0
     534:	00000097          	auipc	ra,0x0
     538:	eb4080e7          	jalr	-332(ra) # 3e8 <_ZNK11flatbuffers5Table22GetOptionalFieldOffsetEt>
     53c:	00c12603          	lw	a2,12(sp)
     540:	00050663          	beqz	a0,54c <_ZNK11flatbuffers5Table8GetFieldIaEET_tS2_+0x2c>
     544:	00a40433          	add	s0,s0,a0
     548:	00040603          	lb	a2,0(s0)
     54c:	01c12083          	lw	ra,28(sp)
     550:	01812403          	lw	s0,24(sp)
     554:	00060513          	mv	a0,a2
     558:	02010113          	addi	sp,sp,32
     55c:	00008067          	ret

00000560 <_ZN6tflite9ParsePoolEPKNS_8OperatorEPNS_13ErrorReporterEPNS_20BuiltinDataAllocatorEPPv>:
     560:	fe010113          	addi	sp,sp,-32
     564:	00112e23          	sw	ra,28(sp)
     568:	00812c23          	sw	s0,24(sp)
     56c:	00912a23          	sw	s1,20(sp)
     570:	00060413          	mv	s0,a2
     574:	01212823          	sw	s2,16(sp)
     578:	01312623          	sw	s3,12(sp)
     57c:	00050493          	mv	s1,a0
     580:	00058993          	mv	s3,a1
     584:	00068913          	mv	s2,a3
     588:	00000097          	auipc	ra,0x0
     58c:	ee4080e7          	jalr	-284(ra) # 46c <_ZN6tflite12_GLOBAL__N_123CheckParsePointerParamsEPKNS_8OperatorEPNS_13ErrorReporterEPNS_20BuiltinDataAllocatorEPPv>
     590:	00042783          	lw	a5,0(s0)
     594:	00400613          	li	a2,4
     598:	02800593          	li	a1,40
     59c:	0007a783          	lw	a5,0(a5)
     5a0:	00040513          	mv	a0,s0
     5a4:	000780e7          	jalr	a5
     5a8:	00050413          	mv	s0,a0
     5ac:	02800613          	li	a2,40
     5b0:	00000593          	li	a1,0
     5b4:	00006097          	auipc	ra,0x6
     5b8:	c1c080e7          	jalr	-996(ra) # 61d0 <memset>
     5bc:	04041863          	bnez	s0,60c <_ZN6tflite9ParsePoolEPKNS_8OperatorEPNS_13ErrorReporterEPNS_20BuiltinDataAllocatorEPPv+0xac>
     5c0:	80000797          	auipc	a5,0x80000
     5c4:	80000697          	auipc	a3,0x80000
     5c8:	80000617          	auipc	a2,0x80000
     5cc:	c1078793          	addi	a5,a5,-1008 # 800001d0 <__stack_top+0xfffb6350>
     5d0:	7a700713          	li	a4,1959
     5d4:	c2068693          	addi	a3,a3,-992 # 800001e4 <__stack_top+0xfffb6364>
     5d8:	c5060613          	addi	a2,a2,-944 # 80000218 <__stack_top+0xfffb6398>
     5dc:	00098593          	mv	a1,s3
     5e0:	00098513          	mv	a0,s3
     5e4:	00000097          	auipc	ra,0x0
     5e8:	2bc080e7          	jalr	700(ra) # 8a0 <_ZN6tflite13ErrorReporter11ReportErrorEPvPKcz>
     5ec:	00100513          	li	a0,1
     5f0:	01c12083          	lw	ra,28(sp)
     5f4:	01812403          	lw	s0,24(sp)
     5f8:	01412483          	lw	s1,20(sp)
     5fc:	01012903          	lw	s2,16(sp)
     600:	00c12983          	lw	s3,12(sp)
     604:	02010113          	addi	sp,sp,32
     608:	00008067          	ret
     60c:	00048513          	mv	a0,s1
     610:	00000097          	auipc	ra,0x0
     614:	f00080e7          	jalr	-256(ra) # 510 <_ZNK6tflite8Operator20builtin_options_typeEv>
     618:	00500793          	li	a5,5
     61c:	0af51a63          	bne	a0,a5,6d0 <_ZN6tflite9ParsePoolEPKNS_8OperatorEPNS_13ErrorReporterEPNS_20BuiltinDataAllocatorEPPv+0x170>
     620:	00048513          	mv	a0,s1
     624:	00000097          	auipc	ra,0x0
     628:	de8080e7          	jalr	-536(ra) # 40c <_ZNK6tflite8Operator15builtin_optionsEv>
     62c:	00050493          	mv	s1,a0
     630:	0a050063          	beqz	a0,6d0 <_ZN6tflite9ParsePoolEPKNS_8OperatorEPNS_13ErrorReporterEPNS_20BuiltinDataAllocatorEPPv+0x170>
     634:	00000613          	li	a2,0
     638:	00400593          	li	a1,4
     63c:	00000097          	auipc	ra,0x0
     640:	ee4080e7          	jalr	-284(ra) # 520 <_ZNK11flatbuffers5Table8GetFieldIaEET_tS2_>
     644:	00000097          	auipc	ra,0x0
     648:	cc8080e7          	jalr	-824(ra) # 30c <_ZN6tflite12_GLOBAL__N_114ConvertPaddingENS_7PaddingE>
     64c:	00a42023          	sw	a0,0(s0)
     650:	00000613          	li	a2,0
     654:	00600593          	li	a1,6
     658:	00048513          	mv	a0,s1
     65c:	00000097          	auipc	ra,0x0
     660:	e34080e7          	jalr	-460(ra) # 490 <_ZNK11flatbuffers5Table8GetFieldIlEET_tS2_>
     664:	00a42223          	sw	a0,4(s0)
     668:	00000613          	li	a2,0
     66c:	00800593          	li	a1,8
     670:	00048513          	mv	a0,s1
     674:	00000097          	auipc	ra,0x0
     678:	e1c080e7          	jalr	-484(ra) # 490 <_ZNK11flatbuffers5Table8GetFieldIlEET_tS2_>
     67c:	00a42423          	sw	a0,8(s0)
     680:	00000613          	li	a2,0
     684:	00a00593          	li	a1,10
     688:	00048513          	mv	a0,s1
     68c:	00000097          	auipc	ra,0x0
     690:	e04080e7          	jalr	-508(ra) # 490 <_ZNK11flatbuffers5Table8GetFieldIlEET_tS2_>
     694:	00a42623          	sw	a0,12(s0)
     698:	00000613          	li	a2,0
     69c:	00c00593          	li	a1,12
     6a0:	00048513          	mv	a0,s1
     6a4:	00000097          	auipc	ra,0x0
     6a8:	dec080e7          	jalr	-532(ra) # 490 <_ZNK11flatbuffers5Table8GetFieldIlEET_tS2_>
     6ac:	00a42823          	sw	a0,16(s0)
     6b0:	00000613          	li	a2,0
     6b4:	00e00593          	li	a1,14
     6b8:	00048513          	mv	a0,s1
     6bc:	00000097          	auipc	ra,0x0
     6c0:	e64080e7          	jalr	-412(ra) # 520 <_ZNK11flatbuffers5Table8GetFieldIaEET_tS2_>
     6c4:	00000097          	auipc	ra,0x0
     6c8:	c1c080e7          	jalr	-996(ra) # 2e0 <_ZN6tflite12_GLOBAL__N_117ConvertActivationENS_22ActivationFunctionTypeE>
     6cc:	00a42a23          	sw	a0,20(s0)
     6d0:	00892023          	sw	s0,0(s2)
     6d4:	00000513          	li	a0,0
     6d8:	f19ff06f          	j	5f0 <_ZN6tflite9ParsePoolEPKNS_8OperatorEPNS_13ErrorReporterEPNS_20BuiltinDataAllocatorEPPv+0x90>

000006dc <_ZN11flatbuffers5Table10GetPointerIPKNS_6VectorIlmEEmEET_t>:
     6dc:	ff010113          	addi	sp,sp,-16
     6e0:	00812423          	sw	s0,8(sp)
     6e4:	00112623          	sw	ra,12(sp)
     6e8:	00050413          	mv	s0,a0
     6ec:	00000097          	auipc	ra,0x0
     6f0:	cfc080e7          	jalr	-772(ra) # 3e8 <_ZNK11flatbuffers5Table22GetOptionalFieldOffsetEt>
     6f4:	02050063          	beqz	a0,714 <_ZN11flatbuffers5Table10GetPointerIPKNS_6VectorIlmEEmEET_t+0x38>
     6f8:	00a40533          	add	a0,s0,a0
     6fc:	00052783          	lw	a5,0(a0)
     700:	00f50533          	add	a0,a0,a5
     704:	00c12083          	lw	ra,12(sp)
     708:	00812403          	lw	s0,8(sp)
     70c:	01010113          	addi	sp,sp,16
     710:	00008067          	ret
     714:	00000513          	li	a0,0
     718:	fedff06f          	j	704 <_ZN11flatbuffers5Table10GetPointerIPKNS_6VectorIlmEEmEET_t+0x28>

0000071c <_ZN6tflite12ParseReshapeEPKNS_8OperatorEPNS_13ErrorReporterEPNS_20BuiltinDataAllocatorEPPv>:
     71c:	fe010113          	addi	sp,sp,-32
     720:	00112e23          	sw	ra,28(sp)
     724:	00812c23          	sw	s0,24(sp)
     728:	00912a23          	sw	s1,20(sp)
     72c:	01212823          	sw	s2,16(sp)
     730:	01312623          	sw	s3,12(sp)
     734:	00060913          	mv	s2,a2
     738:	01412423          	sw	s4,8(sp)
     73c:	00050993          	mv	s3,a0
     740:	00058493          	mv	s1,a1
     744:	00068a13          	mv	s4,a3
     748:	00000097          	auipc	ra,0x0
     74c:	d24080e7          	jalr	-732(ra) # 46c <_ZN6tflite12_GLOBAL__N_123CheckParsePointerParamsEPKNS_8OperatorEPNS_13ErrorReporterEPNS_20BuiltinDataAllocatorEPPv>
     750:	00092783          	lw	a5,0(s2)
     754:	00400613          	li	a2,4
     758:	02400593          	li	a1,36
     75c:	0007a783          	lw	a5,0(a5)
     760:	00090513          	mv	a0,s2
     764:	000780e7          	jalr	a5
     768:	00050413          	mv	s0,a0
     76c:	02400613          	li	a2,36
     770:	00000593          	li	a1,0
     774:	00006097          	auipc	ra,0x6
     778:	a5c080e7          	jalr	-1444(ra) # 61d0 <memset>
     77c:	04041e63          	bnez	s0,7d8 <_ZN6tflite12ParseReshapeEPKNS_8OperatorEPNS_13ErrorReporterEPNS_20BuiltinDataAllocatorEPPv+0xbc>
     780:	80000797          	auipc	a5,0x80000
     784:	00001737          	lui	a4,0x1
     788:	80000697          	auipc	a3,0x80000
     78c:	80000617          	auipc	a2,0x80000
     790:	00048593          	mv	a1,s1
     794:	00048513          	mv	a0,s1
     798:	a5078793          	addi	a5,a5,-1456 # 800001d0 <__stack_top+0xfffb6350>
     79c:	81170713          	addi	a4,a4,-2031 # 811 <_ZN6tflite12ParseReshapeEPKNS_8OperatorEPNS_13ErrorReporterEPNS_20BuiltinDataAllocatorEPPv+0xf5>
     7a0:	a5c68693          	addi	a3,a3,-1444 # 800001e4 <__stack_top+0xfffb6364>
     7a4:	a8c60613          	addi	a2,a2,-1396 # 80000218 <__stack_top+0xfffb6398>
     7a8:	00000097          	auipc	ra,0x0
     7ac:	0f8080e7          	jalr	248(ra) # 8a0 <_ZN6tflite13ErrorReporter11ReportErrorEPvPKcz>
     7b0:	00100493          	li	s1,1
     7b4:	01c12083          	lw	ra,28(sp)
     7b8:	01812403          	lw	s0,24(sp)
     7bc:	00048513          	mv	a0,s1
     7c0:	01012903          	lw	s2,16(sp)
     7c4:	01412483          	lw	s1,20(sp)
     7c8:	00c12983          	lw	s3,12(sp)
     7cc:	00812a03          	lw	s4,8(sp)
     7d0:	02010113          	addi	sp,sp,32
     7d4:	00008067          	ret
     7d8:	00098513          	mv	a0,s3
     7dc:	00000097          	auipc	ra,0x0
     7e0:	d34080e7          	jalr	-716(ra) # 510 <_ZNK6tflite8Operator20builtin_options_typeEv>
     7e4:	01100793          	li	a5,17
     7e8:	04f51c63          	bne	a0,a5,840 <_ZN6tflite12ParseReshapeEPKNS_8OperatorEPNS_13ErrorReporterEPNS_20BuiltinDataAllocatorEPPv+0x124>
     7ec:	00098513          	mv	a0,s3
     7f0:	00000097          	auipc	ra,0x0
     7f4:	c1c080e7          	jalr	-996(ra) # 40c <_ZNK6tflite8Operator15builtin_optionsEv>
     7f8:	04050463          	beqz	a0,840 <_ZN6tflite12ParseReshapeEPKNS_8OperatorEPNS_13ErrorReporterEPNS_20BuiltinDataAllocatorEPPv+0x124>
     7fc:	00400593          	li	a1,4
     800:	00000097          	auipc	ra,0x0
     804:	edc080e7          	jalr	-292(ra) # 6dc <_ZN11flatbuffers5Table10GetPointerIPKNS_6VectorIlmEEmEET_t>
     808:	00050993          	mv	s3,a0
     80c:	02050a63          	beqz	a0,840 <_ZN6tflite12ParseReshapeEPKNS_8OperatorEPNS_13ErrorReporterEPNS_20BuiltinDataAllocatorEPPv+0x124>
     810:	80000717          	auipc	a4,0x80000
     814:	00048693          	mv	a3,s1
     818:	00050593          	mv	a1,a0
     81c:	8e470713          	addi	a4,a4,-1820 # 800000f4 <__stack_top+0xfffb6274>
     820:	00040613          	mv	a2,s0
     824:	02000513          	li	a0,32
     828:	00000097          	auipc	ra,0x0
     82c:	b04080e7          	jalr	-1276(ra) # 32c <_ZN6tflite12_GLOBAL__N_1L26FlatBufferIntVectorToArrayIlEE12TfLiteStatusiPKN11flatbuffers6VectorIT_mEEPS5_PNS_13ErrorReporterEPKc>
     830:	00050493          	mv	s1,a0
     834:	00051c63          	bnez	a0,84c <_ZN6tflite12ParseReshapeEPKNS_8OperatorEPNS_13ErrorReporterEPNS_20BuiltinDataAllocatorEPPv+0x130>
     838:	0009a783          	lw	a5,0(s3)
     83c:	02f42023          	sw	a5,32(s0)
     840:	008a2023          	sw	s0,0(s4)
     844:	00000493          	li	s1,0
     848:	f6dff06f          	j	7b4 <_ZN6tflite12ParseReshapeEPKNS_8OperatorEPNS_13ErrorReporterEPNS_20BuiltinDataAllocatorEPPv+0x98>
     84c:	00040593          	mv	a1,s0
     850:	00090513          	mv	a0,s2
     854:	00000097          	auipc	ra,0x0
     858:	b88080e7          	jalr	-1144(ra) # 3dc <_ZN6tflite12_GLOBAL__N_124SafeBuiltinDataAllocator18BuiltinDataDeleterclEPv.isra.0>
     85c:	f59ff06f          	j	7b4 <_ZN6tflite12ParseReshapeEPKNS_8OperatorEPNS_13ErrorReporterEPNS_20BuiltinDataAllocatorEPPv+0x98>

00000860 <_ZN6tflite13ErrorReporter6ReportEPKcz>:
     860:	fc010113          	addi	sp,sp,-64
     864:	02c12423          	sw	a2,40(sp)
     868:	02d12623          	sw	a3,44(sp)
     86c:	02e12823          	sw	a4,48(sp)
     870:	02f12a23          	sw	a5,52(sp)
     874:	03012c23          	sw	a6,56(sp)
     878:	03112e23          	sw	a7,60(sp)
     87c:	00052783          	lw	a5,0(a0)
     880:	02810613          	addi	a2,sp,40
     884:	00112e23          	sw	ra,28(sp)
     888:	0087a783          	lw	a5,8(a5)
     88c:	00c12623          	sw	a2,12(sp)
     890:	000780e7          	jalr	a5
     894:	01c12083          	lw	ra,28(sp)
     898:	04010113          	addi	sp,sp,64
     89c:	00008067          	ret

000008a0 <_ZN6tflite13ErrorReporter11ReportErrorEPvPKcz>:
     8a0:	fc010113          	addi	sp,sp,-64
     8a4:	02d12623          	sw	a3,44(sp)
     8a8:	02e12823          	sw	a4,48(sp)
     8ac:	02f12a23          	sw	a5,52(sp)
     8b0:	03012c23          	sw	a6,56(sp)
     8b4:	03112e23          	sw	a7,60(sp)
     8b8:	00052783          	lw	a5,0(a0)
     8bc:	00060593          	mv	a1,a2
     8c0:	02c10613          	addi	a2,sp,44
     8c4:	0087a783          	lw	a5,8(a5)
     8c8:	00112e23          	sw	ra,28(sp)
     8cc:	00c12623          	sw	a2,12(sp)
     8d0:	000780e7          	jalr	a5
     8d4:	01c12083          	lw	ra,28(sp)
     8d8:	04010113          	addi	sp,sp,64
     8dc:	00008067          	ret

000008e0 <_ZN6tflite12_GLOBAL__N_18PoolInitEP13TfLiteContextPKcj>:
     8e0:	03852303          	lw	t1,56(a0)
     8e4:	00030663          	beqz	t1,8f0 <_ZN6tflite12_GLOBAL__N_18PoolInitEP13TfLiteContextPKcj+0x10>
     8e8:	02000593          	li	a1,32
     8ec:	00030067          	jr	t1
     8f0:	ff010113          	addi	sp,sp,-16
     8f4:	00112623          	sw	ra,12(sp)
     8f8:	00000097          	auipc	ra,0x0
     8fc:	b58080e7          	jalr	-1192(ra) # 450 <_Z9AbortImplv>

00000900 <_ZN6tflite12_GLOBAL__N_111AverageEvalEP13TfLiteContextP10TfLiteNode>:
     900:	ef010113          	addi	sp,sp,-272
     904:	10912223          	sw	s1,260(sp)
     908:	0105a483          	lw	s1,16(a1)
     90c:	10112623          	sw	ra,268(sp)
     910:	10812423          	sw	s0,264(sp)
     914:	11212023          	sw	s2,256(sp)
     918:	0f312e23          	sw	s3,252(sp)
     91c:	0f412c23          	sw	s4,248(sp)
     920:	0f512a23          	sw	s5,244(sp)
     924:	0f612823          	sw	s6,240(sp)
     928:	0f712623          	sw	s7,236(sp)
     92c:	0f812423          	sw	s8,232(sp)
     930:	0f912223          	sw	s9,228(sp)
     934:	0fa12023          	sw	s10,224(sp)
     938:	0db12e23          	sw	s11,220(sp)
     93c:	0e048663          	beqz	s1,a28 <_ZN6tflite12_GLOBAL__N_111AverageEvalEP13TfLiteContextP10TfLiteNode+0x128>
     940:	00c5a903          	lw	s2,12(a1)
     944:	00058413          	mv	s0,a1
     948:	0e090063          	beqz	s2,a28 <_ZN6tflite12_GLOBAL__N_111AverageEvalEP13TfLiteContextP10TfLiteNode+0x128>
     94c:	80001797          	auipc	a5,0x80001
     950:	4187a603          	lw	a2,1048(a5) # 80001d64 <__stack_top+0xfffb7ee4>
     954:	00050a93          	mv	s5,a0
     958:	00002097          	auipc	ra,0x2
     95c:	b50080e7          	jalr	-1200(ra) # 24a8 <_ZN6tflite5micro12GetEvalInputEPK13TfLiteContextPK10TfLiteNodei>
     960:	80001797          	auipc	a5,0x80001
     964:	4087a603          	lw	a2,1032(a5) # 80001d68 <__stack_top+0xfffb7ee8>
     968:	00050993          	mv	s3,a0
     96c:	00040593          	mv	a1,s0
     970:	000a8513          	mv	a0,s5
     974:	00002097          	auipc	ra,0x2
     978:	b3c080e7          	jalr	-1220(ra) # 24b0 <_ZN6tflite5micro13GetEvalOutputEPK13TfLiteContextPK10TfLiteNodei>
     97c:	00050a13          	mv	s4,a0
     980:	0089a503          	lw	a0,8(s3)
     984:	00700793          	li	a5,7
     988:	44f50a63          	beq	a0,a5,ddc <_ZN6tflite12_GLOBAL__N_111AverageEvalEP13TfLiteContextP10TfLiteNode+0x4dc>
     98c:	00900793          	li	a5,9
     990:	0cf50463          	beq	a0,a5,a58 <_ZN6tflite12_GLOBAL__N_111AverageEvalEP13TfLiteContextP10TfLiteNode+0x158>
     994:	00100793          	li	a5,1
     998:	08f50c63          	beq	a0,a5,a30 <_ZN6tflite12_GLOBAL__N_111AverageEvalEP13TfLiteContextP10TfLiteNode+0x130>
     99c:	00002097          	auipc	ra,0x2
     9a0:	a6c080e7          	jalr	-1428(ra) # 2408 <TfLiteTypeGetName>
     9a4:	00050593          	mv	a1,a0
     9a8:	80000517          	auipc	a0,0x80000
     9ac:	94c50513          	addi	a0,a0,-1716 # 800002f4 <__stack_top+0xfffb6474>
     9b0:	00000097          	auipc	ra,0x0
     9b4:	8f0080e7          	jalr	-1808(ra) # 2a0 <_Z11MicroPrintfPKcz>
     9b8:	00100513          	li	a0,1
     9bc:	10c12083          	lw	ra,268(sp)
     9c0:	10812403          	lw	s0,264(sp)
     9c4:	10412483          	lw	s1,260(sp)
     9c8:	10012903          	lw	s2,256(sp)
     9cc:	0fc12983          	lw	s3,252(sp)
     9d0:	0f812a03          	lw	s4,248(sp)
     9d4:	0f412a83          	lw	s5,244(sp)
     9d8:	0f012b03          	lw	s6,240(sp)
     9dc:	0ec12b83          	lw	s7,236(sp)
     9e0:	0e812c03          	lw	s8,232(sp)
     9e4:	0e412c83          	lw	s9,228(sp)
     9e8:	0e012d03          	lw	s10,224(sp)
     9ec:	0dc12d83          	lw	s11,220(sp)
     9f0:	11010113          	addi	sp,sp,272
     9f4:	00008067          	ret
     9f8:	0206c863          	bltz	a3,a28 <_ZN6tflite12_GLOBAL__N_111AverageEvalEP13TfLiteContextP10TfLiteNode+0x128>
     9fc:	0266d663          	bge	a3,t1,a28 <_ZN6tflite12_GLOBAL__N_111AverageEvalEP13TfLiteContextP10TfLiteNode+0x128>
     a00:	26081a63          	bnez	a6,c74 <_ZN6tflite12_GLOBAL__N_111AverageEvalEP13TfLiteContextP10TfLiteNode+0x374>
     a04:	02059263          	bnez	a1,a28 <_ZN6tflite12_GLOBAL__N_111AverageEvalEP13TfLiteContextP10TfLiteNode+0x128>
     a08:	000f8a83          	lb	s5,0(t6)
     a0c:	00d60733          	add	a4,a2,a3
     a10:	010f8fb3          	add	t6,t6,a6
     a14:	015888b3          	add	a7,a7,s5
     a18:	26d48a63          	beq	s1,a3,c8c <_ZN6tflite12_GLOBAL__N_111AverageEvalEP13TfLiteContextP10TfLiteNode+0x38c>
     a1c:	00da06b3          	add	a3,s4,a3
     a20:	22029e63          	bnez	t0,c5c <_ZN6tflite12_GLOBAL__N_111AverageEvalEP13TfLiteContextP10TfLiteNode+0x35c>
     a24:	220c8e63          	beqz	s9,c60 <_ZN6tflite12_GLOBAL__N_111AverageEvalEP13TfLiteContextP10TfLiteNode+0x360>
     a28:	00000097          	auipc	ra,0x0
     a2c:	a28080e7          	jalr	-1496(ra) # 450 <_Z9AbortImplv>
     a30:	000a8513          	mv	a0,s5
     a34:	000a0793          	mv	a5,s4
     a38:	00098713          	mv	a4,s3
     a3c:	00090693          	mv	a3,s2
     a40:	00048613          	mv	a2,s1
     a44:	00040593          	mv	a1,s0
     a48:	00001097          	auipc	ra,0x1
     a4c:	b2c080e7          	jalr	-1236(ra) # 1574 <_ZN6tflite23AveragePoolingEvalFloatEPK13TfLiteContextPK10TfLiteNodePK16TfLitePoolParamsPKNS_13OpDataPoolingEPK16TfLiteEvalTensorPSC_>
     a50:	00000513          	li	a0,0
     a54:	f69ff06f          	j	9bc <_ZN6tflite12_GLOBAL__N_111AverageEvalEP13TfLiteContextP10TfLiteNode+0xbc>
     a58:	0084a783          	lw	a5,8(s1)
     a5c:	01492403          	lw	s0,20(s2)
     a60:	00098593          	mv	a1,s3
     a64:	04f12823          	sw	a5,80(sp)
     a68:	0044a783          	lw	a5,4(s1)
     a6c:	07c10513          	addi	a0,sp,124
     a70:	01092c83          	lw	s9,16(s2)
     a74:	04f12623          	sw	a5,76(sp)
     a78:	0104a783          	lw	a5,16(s1)
     a7c:	02812023          	sw	s0,32(sp)
     a80:	04f12023          	sw	a5,64(sp)
     a84:	00c4a783          	lw	a5,12(s1)
     a88:	02f12623          	sw	a5,44(sp)
     a8c:	00491783          	lh	a5,4(s2)
     a90:	02f12e23          	sw	a5,60(sp)
     a94:	00091783          	lh	a5,0(s2)
     a98:	04f12223          	sw	a5,68(sp)
     a9c:	00002097          	auipc	ra,0x2
     aa0:	a44080e7          	jalr	-1468(ra) # 24e0 <_ZN6tflite5micro14GetTensorShapeEPK16TfLiteEvalTensor>
     aa4:	f80982e3          	beqz	s3,a28 <_ZN6tflite12_GLOBAL__N_111AverageEvalEP13TfLiteContextP10TfLiteNode+0x128>
     aa8:	0009a783          	lw	a5,0(s3)
     aac:	000a0593          	mv	a1,s4
     ab0:	06010513          	addi	a0,sp,96
     ab4:	00f12a23          	sw	a5,20(sp)
     ab8:	00002097          	auipc	ra,0x2
     abc:	a28080e7          	jalr	-1496(ra) # 24e0 <_ZN6tflite5micro14GetTensorShapeEPK16TfLiteEvalTensor>
     ac0:	f60a04e3          	beqz	s4,a28 <_ZN6tflite12_GLOBAL__N_111AverageEvalEP13TfLiteContextP10TfLiteNode+0x128>
     ac4:	000a2783          	lw	a5,0(s4)
     ac8:	00f12e23          	sw	a5,28(sp)
     acc:	f5944ee3          	blt	s0,s9,a28 <_ZN6tflite12_GLOBAL__N_111AverageEvalEP13TfLiteContextP10TfLiteNode+0x128>
     ad0:	07c12783          	lw	a5,124(sp)
     ad4:	00400713          	li	a4,4
     ad8:	f4e798e3          	bne	a5,a4,a28 <_ZN6tflite12_GLOBAL__N_111AverageEvalEP13TfLiteContextP10TfLiteNode+0x128>
     adc:	06012703          	lw	a4,96(sp)
     ae0:	f4f714e3          	bne	a4,a5,a28 <_ZN6tflite12_GLOBAL__N_111AverageEvalEP13TfLiteContextP10TfLiteNode+0x128>
     ae4:	08012703          	lw	a4,128(sp)
     ae8:	06412783          	lw	a5,100(sp)
     aec:	04e12a23          	sw	a4,84(sp)
     af0:	f2f71ce3          	bne	a4,a5,a28 <_ZN6tflite12_GLOBAL__N_111AverageEvalEP13TfLiteContextP10TfLiteNode+0x128>
     af4:	08c12783          	lw	a5,140(sp)
     af8:	00078693          	mv	a3,a5
     afc:	00f12623          	sw	a5,12(sp)
     b00:	07012783          	lw	a5,112(sp)
     b04:	f2f692e3          	bne	a3,a5,a28 <_ZN6tflite12_GLOBAL__N_111AverageEvalEP13TfLiteContextP10TfLiteNode+0x128>
     b08:	08412783          	lw	a5,132(sp)
     b0c:	00000d13          	li	s10,0
     b10:	00400d93          	li	s11,4
     b14:	04f12423          	sw	a5,72(sp)
     b18:	08812783          	lw	a5,136(sp)
     b1c:	02f12823          	sw	a5,48(sp)
     b20:	06812783          	lw	a5,104(sp)
     b24:	02f12c23          	sw	a5,56(sp)
     b28:	06c12783          	lw	a5,108(sp)
     b2c:	02f12423          	sw	a5,40(sp)
     b30:	000d0793          	mv	a5,s10
     b34:	000c8d13          	mv	s10,s9
     b38:	00078c93          	mv	s9,a5
     b3c:	24e05463          	blez	a4,d84 <_ZN6tflite12_GLOBAL__N_111AverageEvalEP13TfLiteContextP10TfLiteNode+0x484>
     b40:	03c12783          	lw	a5,60(sp)
     b44:	00000c13          	li	s8,0
     b48:	02f12a23          	sw	a5,52(sp)
     b4c:	40f00bb3          	neg	s7,a5
     b50:	03812783          	lw	a5,56(sp)
     b54:	22f05263          	blez	a5,d78 <_ZN6tflite12_GLOBAL__N_111AverageEvalEP13TfLiteContextP10TfLiteNode+0x478>
     b58:	02812783          	lw	a5,40(sp)
     b5c:	1ef05e63          	blez	a5,d58 <_ZN6tflite12_GLOBAL__N_111AverageEvalEP13TfLiteContextP10TfLiteNode+0x458>
     b60:	03412783          	lw	a5,52(sp)
     b64:	04812703          	lw	a4,72(sp)
     b68:	fff7ce93          	not	t4,a5
     b6c:	41fede93          	srai	t4,t4,0x1f
     b70:	00f70733          	add	a4,a4,a5
     b74:	01d7feb3          	and	t4,a5,t4
     b78:	04012783          	lw	a5,64(sp)
     b7c:	00e12423          	sw	a4,8(sp)
     b80:	5ae7c663          	blt	a5,a4,112c <_ZN6tflite12_GLOBAL__N_111AverageEvalEP13TfLiteContextP10TfLiteNode+0x82c>
     b84:	04412783          	lw	a5,68(sp)
     b88:	00000413          	li	s0,0
     b8c:	02f12223          	sw	a5,36(sp)
     b90:	40f003b3          	neg	t2,a5
     b94:	00812783          	lw	a5,8(sp)
     b98:	017787b3          	add	a5,a5,s7
     b9c:	00f12c23          	sw	a5,24(sp)
     ba0:	00c12783          	lw	a5,12(sp)
     ba4:	18f05a63          	blez	a5,d38 <_ZN6tflite12_GLOBAL__N_111AverageEvalEP13TfLiteContextP10TfLiteNode+0x438>
     ba8:	02412783          	lw	a5,36(sp)
     bac:	03012703          	lw	a4,48(sp)
     bb0:	fff7ce13          	not	t3,a5
     bb4:	41fe5e13          	srai	t3,t3,0x1f
     bb8:	00f70b33          	add	s6,a4,a5
     bbc:	01c7fe33          	and	t3,a5,t3
     bc0:	02c12783          	lw	a5,44(sp)
     bc4:	5567cc63          	blt	a5,s6,111c <_ZN6tflite12_GLOBAL__N_111AverageEvalEP13TfLiteContextP10TfLiteNode+0x81c>
     bc8:	00138793          	addi	a5,t2,1
     bcc:	fff38493          	addi	s1,t2,-1
     bd0:	01c787b3          	add	a5,a5,t3
     bd4:	00000593          	li	a1,0
     bd8:	016484b3          	add	s1,s1,s6
     bdc:	00f12823          	sw	a5,16(sp)
     be0:	00812783          	lw	a5,8(sp)
     be4:	1afed063          	bge	t4,a5,d84 <_ZN6tflite12_GLOBAL__N_111AverageEvalEP13TfLiteContextP10TfLiteNode+0x484>
     be8:	08412f03          	lw	t5,132(sp)
     bec:	08812303          	lw	t1,136(sp)
     bf0:	08c12803          	lw	a6,140(sp)
     bf4:	039f07b3          	mul	a5,t5,s9
     bf8:	01412683          	lw	a3,20(sp)
     bfc:	07c12983          	lw	s3,124(sp)
     c00:	08012283          	lw	t0,128(sp)
     c04:	017e8533          	add	a0,t4,s7
     c08:	00000893          	li	a7,0
     c0c:	00000713          	li	a4,0
     c10:	017787b3          	add	a5,a5,s7
     c14:	01d787b3          	add	a5,a5,t4
     c18:	026787b3          	mul	a5,a5,t1
     c1c:	007787b3          	add	a5,a5,t2
     c20:	01c787b3          	add	a5,a5,t3
     c24:	030787b3          	mul	a5,a5,a6
     c28:	03030933          	mul	s2,t1,a6
     c2c:	00b787b3          	add	a5,a5,a1
     c30:	00f687b3          	add	a5,a3,a5
     c34:	056e5c63          	bge	t3,s6,c8c <_ZN6tflite12_GLOBAL__N_111AverageEvalEP13TfLiteContextP10TfLiteNode+0x38c>
     c38:	01c386b3          	add	a3,t2,t3
     c3c:	dfb996e3          	bne	s3,s11,a28 <_ZN6tflite12_GLOBAL__N_111AverageEvalEP13TfLiteContextP10TfLiteNode+0x128>
     c40:	00100613          	li	a2,1
     c44:	40d60633          	sub	a2,a2,a3
     c48:	00e60633          	add	a2,a2,a4
     c4c:	01012703          	lw	a4,16(sp)
     c50:	00078f93          	mv	t6,a5
     c54:	40d70a33          	sub	s4,a4,a3
     c58:	dc0286e3          	beqz	t0,a24 <_ZN6tflite12_GLOBAL__N_111AverageEvalEP13TfLiteContextP10TfLiteNode+0x124>
     c5c:	dc5cd6e3          	bge	s9,t0,a28 <_ZN6tflite12_GLOBAL__N_111AverageEvalEP13TfLiteContextP10TfLiteNode+0x128>
     c60:	120f1663          	bnez	t5,d8c <_ZN6tflite12_GLOBAL__N_111AverageEvalEP13TfLiteContextP10TfLiteNode+0x48c>
     c64:	dc0512e3          	bnez	a0,a28 <_ZN6tflite12_GLOBAL__N_111AverageEvalEP13TfLiteContextP10TfLiteNode+0x128>
     c68:	d80318e3          	bnez	t1,9f8 <_ZN6tflite12_GLOBAL__N_111AverageEvalEP13TfLiteContextP10TfLiteNode+0xf8>
     c6c:	da069ee3          	bnez	a3,a28 <_ZN6tflite12_GLOBAL__N_111AverageEvalEP13TfLiteContextP10TfLiteNode+0x128>
     c70:	d8080ae3          	beqz	a6,a04 <_ZN6tflite12_GLOBAL__N_111AverageEvalEP13TfLiteContextP10TfLiteNode+0x104>
     c74:	db05dae3          	bge	a1,a6,a28 <_ZN6tflite12_GLOBAL__N_111AverageEvalEP13TfLiteContextP10TfLiteNode+0x128>
     c78:	000f8a83          	lb	s5,0(t6)
     c7c:	00d60733          	add	a4,a2,a3
     c80:	010f8fb3          	add	t6,t6,a6
     c84:	015888b3          	add	a7,a7,s5
     c88:	d8d49ae3          	bne	s1,a3,a1c <_ZN6tflite12_GLOBAL__N_111AverageEvalEP13TfLiteContextP10TfLiteNode+0x11c>
     c8c:	01812683          	lw	a3,24(sp)
     c90:	00150513          	addi	a0,a0,1
     c94:	012787b3          	add	a5,a5,s2
     c98:	f8d51ee3          	bne	a0,a3,c34 <_ZN6tflite12_GLOBAL__N_111AverageEvalEP13TfLiteContextP10TfLiteNode+0x334>
     c9c:	0e070463          	beqz	a4,d84 <_ZN6tflite12_GLOBAL__N_111AverageEvalEP13TfLiteContextP10TfLiteNode+0x484>
     ca0:	13105263          	blez	a7,dc4 <_ZN6tflite12_GLOBAL__N_111AverageEvalEP13TfLiteContextP10TfLiteNode+0x4c4>
     ca4:	40175693          	srai	a3,a4,0x1
     ca8:	011688b3          	add	a7,a3,a7
     cac:	02e8c733          	div	a4,a7,a4
     cb0:	000d0793          	mv	a5,s10
     cb4:	01a74a63          	blt	a4,s10,cc8 <_ZN6tflite12_GLOBAL__N_111AverageEvalEP13TfLiteContextP10TfLiteNode+0x3c8>
     cb8:	02012683          	lw	a3,32(sp)
     cbc:	00068793          	mv	a5,a3
     cc0:	00d75463          	bge	a4,a3,cc8 <_ZN6tflite12_GLOBAL__N_111AverageEvalEP13TfLiteContextP10TfLiteNode+0x3c8>
     cc4:	00070793          	mv	a5,a4
     cc8:	06012683          	lw	a3,96(sp)
     ccc:	01879713          	slli	a4,a5,0x18
     cd0:	41875713          	srai	a4,a4,0x18
     cd4:	d5b69ae3          	bne	a3,s11,a28 <_ZN6tflite12_GLOBAL__N_111AverageEvalEP13TfLiteContextP10TfLiteNode+0x128>
     cd8:	06412783          	lw	a5,100(sp)
     cdc:	0a079e63          	bnez	a5,d98 <_ZN6tflite12_GLOBAL__N_111AverageEvalEP13TfLiteContextP10TfLiteNode+0x498>
     ce0:	d40c94e3          	bnez	s9,a28 <_ZN6tflite12_GLOBAL__N_111AverageEvalEP13TfLiteContextP10TfLiteNode+0x128>
     ce4:	06812783          	lw	a5,104(sp)
     ce8:	0a079e63          	bnez	a5,da4 <_ZN6tflite12_GLOBAL__N_111AverageEvalEP13TfLiteContextP10TfLiteNode+0x4a4>
     cec:	d20c1ee3          	bnez	s8,a28 <_ZN6tflite12_GLOBAL__N_111AverageEvalEP13TfLiteContextP10TfLiteNode+0x128>
     cf0:	06c12503          	lw	a0,108(sp)
     cf4:	0a051e63          	bnez	a0,db0 <_ZN6tflite12_GLOBAL__N_111AverageEvalEP13TfLiteContextP10TfLiteNode+0x4b0>
     cf8:	d20418e3          	bnez	s0,a28 <_ZN6tflite12_GLOBAL__N_111AverageEvalEP13TfLiteContextP10TfLiteNode+0x128>
     cfc:	07012603          	lw	a2,112(sp)
     d00:	0a061e63          	bnez	a2,dbc <_ZN6tflite12_GLOBAL__N_111AverageEvalEP13TfLiteContextP10TfLiteNode+0x4bc>
     d04:	d20592e3          	bnez	a1,a28 <_ZN6tflite12_GLOBAL__N_111AverageEvalEP13TfLiteContextP10TfLiteNode+0x128>
     d08:	01c12683          	lw	a3,28(sp)
     d0c:	039787b3          	mul	a5,a5,s9
     d10:	00b686b3          	add	a3,a3,a1
     d14:	00158593          	addi	a1,a1,1
     d18:	018787b3          	add	a5,a5,s8
     d1c:	02a787b3          	mul	a5,a5,a0
     d20:	008787b3          	add	a5,a5,s0
     d24:	02c787b3          	mul	a5,a5,a2
     d28:	00f687b3          	add	a5,a3,a5
     d2c:	00e78023          	sb	a4,0(a5)
     d30:	00c12783          	lw	a5,12(sp)
     d34:	eaf596e3          	bne	a1,a5,be0 <_ZN6tflite12_GLOBAL__N_111AverageEvalEP13TfLiteContextP10TfLiteNode+0x2e0>
     d38:	04c12783          	lw	a5,76(sp)
     d3c:	02412703          	lw	a4,36(sp)
     d40:	00140413          	addi	s0,s0,1
     d44:	00f383b3          	add	t2,t2,a5
     d48:	40f707b3          	sub	a5,a4,a5
     d4c:	02f12223          	sw	a5,36(sp)
     d50:	02812783          	lw	a5,40(sp)
     d54:	e48796e3          	bne	a5,s0,ba0 <_ZN6tflite12_GLOBAL__N_111AverageEvalEP13TfLiteContextP10TfLiteNode+0x2a0>
     d58:	05012783          	lw	a5,80(sp)
     d5c:	03412703          	lw	a4,52(sp)
     d60:	001c0c13          	addi	s8,s8,1
     d64:	00fb8bb3          	add	s7,s7,a5
     d68:	40f707b3          	sub	a5,a4,a5
     d6c:	02f12a23          	sw	a5,52(sp)
     d70:	03812783          	lw	a5,56(sp)
     d74:	df8792e3          	bne	a5,s8,b58 <_ZN6tflite12_GLOBAL__N_111AverageEvalEP13TfLiteContextP10TfLiteNode+0x258>
     d78:	05412783          	lw	a5,84(sp)
     d7c:	001c8c93          	addi	s9,s9,1
     d80:	dcfc90e3          	bne	s9,a5,b40 <_ZN6tflite12_GLOBAL__N_111AverageEvalEP13TfLiteContextP10TfLiteNode+0x240>
     d84:	00000513          	li	a0,0
     d88:	c35ff06f          	j	9bc <_ZN6tflite12_GLOBAL__N_111AverageEvalEP13TfLiteContextP10TfLiteNode+0xbc>
     d8c:	c8054ee3          	bltz	a0,a28 <_ZN6tflite12_GLOBAL__N_111AverageEvalEP13TfLiteContextP10TfLiteNode+0x128>
     d90:	ede54ce3          	blt	a0,t5,c68 <_ZN6tflite12_GLOBAL__N_111AverageEvalEP13TfLiteContextP10TfLiteNode+0x368>
     d94:	c95ff06f          	j	a28 <_ZN6tflite12_GLOBAL__N_111AverageEvalEP13TfLiteContextP10TfLiteNode+0x128>
     d98:	c8fcd8e3          	bge	s9,a5,a28 <_ZN6tflite12_GLOBAL__N_111AverageEvalEP13TfLiteContextP10TfLiteNode+0x128>
     d9c:	06812783          	lw	a5,104(sp)
     da0:	f40786e3          	beqz	a5,cec <_ZN6tflite12_GLOBAL__N_111AverageEvalEP13TfLiteContextP10TfLiteNode+0x3ec>
     da4:	c8fc52e3          	bge	s8,a5,a28 <_ZN6tflite12_GLOBAL__N_111AverageEvalEP13TfLiteContextP10TfLiteNode+0x128>
     da8:	06c12503          	lw	a0,108(sp)
     dac:	f40506e3          	beqz	a0,cf8 <_ZN6tflite12_GLOBAL__N_111AverageEvalEP13TfLiteContextP10TfLiteNode+0x3f8>
     db0:	c6a45ce3          	bge	s0,a0,a28 <_ZN6tflite12_GLOBAL__N_111AverageEvalEP13TfLiteContextP10TfLiteNode+0x128>
     db4:	07012603          	lw	a2,112(sp)
     db8:	f40606e3          	beqz	a2,d04 <_ZN6tflite12_GLOBAL__N_111AverageEvalEP13TfLiteContextP10TfLiteNode+0x404>
     dbc:	f4c5c6e3          	blt	a1,a2,d08 <_ZN6tflite12_GLOBAL__N_111AverageEvalEP13TfLiteContextP10TfLiteNode+0x408>
     dc0:	c69ff06f          	j	a28 <_ZN6tflite12_GLOBAL__N_111AverageEvalEP13TfLiteContextP10TfLiteNode+0x128>
     dc4:	01f75693          	srli	a3,a4,0x1f
     dc8:	00e686b3          	add	a3,a3,a4
     dcc:	4016d693          	srai	a3,a3,0x1
     dd0:	40d888b3          	sub	a7,a7,a3
     dd4:	02e8c733          	div	a4,a7,a4
     dd8:	ed9ff06f          	j	cb0 <_ZN6tflite12_GLOBAL__N_111AverageEvalEP13TfLiteContextP10TfLiteNode+0x3b0>
     ddc:	0084a783          	lw	a5,8(s1)
     de0:	00098593          	mv	a1,s3
     de4:	0b410513          	addi	a0,sp,180
     de8:	04f12623          	sw	a5,76(sp)
     dec:	0044a783          	lw	a5,4(s1)
     df0:	01092c83          	lw	s9,16(s2)
     df4:	01492b83          	lw	s7,20(s2)
     df8:	04f12023          	sw	a5,64(sp)
     dfc:	0104a783          	lw	a5,16(s1)
     e00:	02f12823          	sw	a5,48(sp)
     e04:	00c4a783          	lw	a5,12(s1)
     e08:	00f12a23          	sw	a5,20(sp)
     e0c:	00491783          	lh	a5,4(s2)
     e10:	02f12c23          	sw	a5,56(sp)
     e14:	00091783          	lh	a5,0(s2)
     e18:	02f12a23          	sw	a5,52(sp)
     e1c:	00001097          	auipc	ra,0x1
     e20:	6c4080e7          	jalr	1732(ra) # 24e0 <_ZN6tflite5micro14GetTensorShapeEPK16TfLiteEvalTensor>
     e24:	c00982e3          	beqz	s3,a28 <_ZN6tflite12_GLOBAL__N_111AverageEvalEP13TfLiteContextP10TfLiteNode+0x128>
     e28:	0009a783          	lw	a5,0(s3)
     e2c:	000a0593          	mv	a1,s4
     e30:	09810513          	addi	a0,sp,152
     e34:	00f12c23          	sw	a5,24(sp)
     e38:	00001097          	auipc	ra,0x1
     e3c:	6a8080e7          	jalr	1704(ra) # 24e0 <_ZN6tflite5micro14GetTensorShapeEPK16TfLiteEvalTensor>
     e40:	be0a04e3          	beqz	s4,a28 <_ZN6tflite12_GLOBAL__N_111AverageEvalEP13TfLiteContextP10TfLiteNode+0x128>
     e44:	000a2603          	lw	a2,0(s4)
     e48:	bf9bc0e3          	blt	s7,s9,a28 <_ZN6tflite12_GLOBAL__N_111AverageEvalEP13TfLiteContextP10TfLiteNode+0x128>
     e4c:	0b412783          	lw	a5,180(sp)
     e50:	00400713          	li	a4,4
     e54:	bce79ae3          	bne	a5,a4,a28 <_ZN6tflite12_GLOBAL__N_111AverageEvalEP13TfLiteContextP10TfLiteNode+0x128>
     e58:	09812703          	lw	a4,152(sp)
     e5c:	bcf716e3          	bne	a4,a5,a28 <_ZN6tflite12_GLOBAL__N_111AverageEvalEP13TfLiteContextP10TfLiteNode+0x128>
     e60:	0b812703          	lw	a4,184(sp)
     e64:	09c12783          	lw	a5,156(sp)
     e68:	04e12823          	sw	a4,80(sp)
     e6c:	baf71ee3          	bne	a4,a5,a28 <_ZN6tflite12_GLOBAL__N_111AverageEvalEP13TfLiteContextP10TfLiteNode+0x128>
     e70:	0c412d03          	lw	s10,196(sp)
     e74:	0a812783          	lw	a5,168(sp)
     e78:	bafd18e3          	bne	s10,a5,a28 <_ZN6tflite12_GLOBAL__N_111AverageEvalEP13TfLiteContextP10TfLiteNode+0x128>
     e7c:	0a012683          	lw	a3,160(sp)
     e80:	0bc12f03          	lw	t5,188(sp)
     e84:	0c012e83          	lw	t4,192(sp)
     e88:	00d12623          	sw	a3,12(sp)
     e8c:	0a412683          	lw	a3,164(sp)
     e90:	00d12423          	sw	a3,8(sp)
     e94:	eee058e3          	blez	a4,d84 <_ZN6tflite12_GLOBAL__N_111AverageEvalEP13TfLiteContextP10TfLiteNode+0x484>
     e98:	00812583          	lw	a1,8(sp)
     e9c:	00c12703          	lw	a4,12(sp)
     ea0:	001d1c13          	slli	s8,s10,0x1
     ea4:	01860633          	add	a2,a2,s8
     ea8:	02b70733          	mul	a4,a4,a1
     eac:	02c12623          	sw	a2,44(sp)
     eb0:	00179613          	slli	a2,a5,0x1
     eb4:	41a006b3          	neg	a3,s10
     eb8:	00169693          	slli	a3,a3,0x1
     ebc:	04c12223          	sw	a2,68(sp)
     ec0:	00d12e23          	sw	a3,28(sp)
     ec4:	02012423          	sw	zero,40(sp)
     ec8:	04012a23          	sw	zero,84(sp)
     ecc:	01a12823          	sw	s10,16(sp)
     ed0:	02f70733          	mul	a4,a4,a5
     ed4:	02f587b3          	mul	a5,a1,a5
     ed8:	00171713          	slli	a4,a4,0x1
     edc:	04e12e23          	sw	a4,92(sp)
     ee0:	03dd0733          	mul	a4,s10,t4
     ee4:	00179793          	slli	a5,a5,0x1
     ee8:	04f12c23          	sw	a5,88(sp)
     eec:	00171d93          	slli	s11,a4,0x1
     ef0:	00c12783          	lw	a5,12(sp)
     ef4:	18f05c63          	blez	a5,108c <_ZN6tflite12_GLOBAL__N_111AverageEvalEP13TfLiteContextP10TfLiteNode+0x78c>
     ef8:	03812783          	lw	a5,56(sp)
     efc:	04012423          	sw	zero,72(sp)
     f00:	02f12023          	sw	a5,32(sp)
     f04:	40f004b3          	neg	s1,a5
     f08:	02c12783          	lw	a5,44(sp)
     f0c:	02f12223          	sw	a5,36(sp)
     f10:	00812783          	lw	a5,8(sp)
     f14:	14f05063          	blez	a5,1054 <_ZN6tflite12_GLOBAL__N_111AverageEvalEP13TfLiteContextP10TfLiteNode+0x754>
     f18:	02012783          	lw	a5,32(sp)
     f1c:	fff7ce13          	not	t3,a5
     f20:	41fe5e13          	srai	t3,t3,0x1f
     f24:	00ff0433          	add	s0,t5,a5
     f28:	01c7fe33          	and	t3,a5,t3
     f2c:	03012783          	lw	a5,48(sp)
     f30:	1e87ca63          	blt	a5,s0,1124 <_ZN6tflite12_GLOBAL__N_111AverageEvalEP13TfLiteContextP10TfLiteNode+0x824>
     f34:	02812783          	lw	a5,40(sp)
     f38:	02412983          	lw	s3,36(sp)
     f3c:	02012e23          	sw	zero,60(sp)
     f40:	00f48a33          	add	s4,s1,a5
     f44:	01ca0a33          	add	s4,s4,t3
     f48:	03da0a33          	mul	s4,s4,t4
     f4c:	03412783          	lw	a5,52(sp)
     f50:	00940b33          	add	s6,s0,s1
     f54:	00078d13          	mv	s10,a5
     f58:	40f00933          	neg	s2,a5
     f5c:	01012783          	lw	a5,16(sp)
     f60:	0cf05663          	blez	a5,102c <_ZN6tflite12_GLOBAL__N_111AverageEvalEP13TfLiteContextP10TfLiteNode+0x72c>
     f64:	01412783          	lw	a5,20(sp)
     f68:	fffd4313          	not	t1,s10
     f6c:	41f35313          	srai	t1,t1,0x1f
     f70:	01ae83b3          	add	t2,t4,s10
     f74:	006d7333          	and	t1,s10,t1
     f78:	1677ce63          	blt	a5,t2,10f4 <_ZN6tflite12_GLOBAL__N_111AverageEvalEP13TfLiteContextP10TfLiteNode+0x7f4>
     f7c:	012a05b3          	add	a1,s4,s2
     f80:	006585b3          	add	a1,a1,t1
     f84:	038585b3          	mul	a1,a1,s8
     f88:	01c12783          	lw	a5,28(sp)
     f8c:	40638ab3          	sub	s5,t2,t1
     f90:	01378533          	add	a0,a5,s3
     f94:	01812783          	lw	a5,24(sp)
     f98:	00b785b3          	add	a1,a5,a1
     f9c:	de8e54e3          	bge	t3,s0,d84 <_ZN6tflite12_GLOBAL__N_111AverageEvalEP13TfLiteContextP10TfLiteNode+0x484>
     fa0:	009e0733          	add	a4,t3,s1
     fa4:	00058813          	mv	a6,a1
     fa8:	00000613          	li	a2,0
     fac:	00000793          	li	a5,0
     fb0:	02735c63          	bge	t1,t2,fe8 <_ZN6tflite12_GLOBAL__N_111AverageEvalEP13TfLiteContextP10TfLiteNode+0x6e8>
     fb4:	012306b3          	add	a3,t1,s2
     fb8:	00fa8fb3          	add	t6,s5,a5
     fbc:	00080893          	mv	a7,a6
     fc0:	100f1863          	bnez	t5,10d0 <_ZN6tflite12_GLOBAL__N_111AverageEvalEP13TfLiteContextP10TfLiteNode+0x7d0>
     fc4:	a60712e3          	bnez	a4,a28 <_ZN6tflite12_GLOBAL__N_111AverageEvalEP13TfLiteContextP10TfLiteNode+0x128>
     fc8:	0e0e9e63          	bnez	t4,10c4 <_ZN6tflite12_GLOBAL__N_111AverageEvalEP13TfLiteContextP10TfLiteNode+0x7c4>
     fcc:	a4069ee3          	bnez	a3,a28 <_ZN6tflite12_GLOBAL__N_111AverageEvalEP13TfLiteContextP10TfLiteNode+0x128>
     fd0:	00089283          	lh	t0,0(a7)
     fd4:	00178793          	addi	a5,a5,1
     fd8:	018888b3          	add	a7,a7,s8
     fdc:	00560633          	add	a2,a2,t0
     fe0:	00168693          	addi	a3,a3,1
     fe4:	fdf79ee3          	bne	a5,t6,fc0 <_ZN6tflite12_GLOBAL__N_111AverageEvalEP13TfLiteContextP10TfLiteNode+0x6c0>
     fe8:	00170713          	addi	a4,a4,1
     fec:	01b80833          	add	a6,a6,s11
     ff0:	fceb10e3          	bne	s6,a4,fb0 <_ZN6tflite12_GLOBAL__N_111AverageEvalEP13TfLiteContextP10TfLiteNode+0x6b0>
     ff4:	d80788e3          	beqz	a5,d84 <_ZN6tflite12_GLOBAL__N_111AverageEvalEP13TfLiteContextP10TfLiteNode+0x484>
     ff8:	0ec05263          	blez	a2,10dc <_ZN6tflite12_GLOBAL__N_111AverageEvalEP13TfLiteContextP10TfLiteNode+0x7dc>
     ffc:	4017d713          	srai	a4,a5,0x1
    1000:	00c70633          	add	a2,a4,a2
    1004:	02f647b3          	div	a5,a2,a5
    1008:	000c8713          	mv	a4,s9
    100c:	0197c863          	blt	a5,s9,101c <_ZN6tflite12_GLOBAL__N_111AverageEvalEP13TfLiteContextP10TfLiteNode+0x71c>
    1010:	000b8713          	mv	a4,s7
    1014:	0177d463          	bge	a5,s7,101c <_ZN6tflite12_GLOBAL__N_111AverageEvalEP13TfLiteContextP10TfLiteNode+0x71c>
    1018:	00078713          	mv	a4,a5
    101c:	00e51023          	sh	a4,0(a0)
    1020:	00250513          	addi	a0,a0,2
    1024:	00258593          	addi	a1,a1,2
    1028:	f7351ae3          	bne	a0,s3,f9c <_ZN6tflite12_GLOBAL__N_111AverageEvalEP13TfLiteContextP10TfLiteNode+0x69c>
    102c:	04412703          	lw	a4,68(sp)
    1030:	03c12783          	lw	a5,60(sp)
    1034:	00e989b3          	add	s3,s3,a4
    1038:	04012703          	lw	a4,64(sp)
    103c:	00178793          	addi	a5,a5,1
    1040:	02f12e23          	sw	a5,60(sp)
    1044:	00e90933          	add	s2,s2,a4
    1048:	40ed0d33          	sub	s10,s10,a4
    104c:	00812703          	lw	a4,8(sp)
    1050:	f0f716e3          	bne	a4,a5,f5c <_ZN6tflite12_GLOBAL__N_111AverageEvalEP13TfLiteContextP10TfLiteNode+0x65c>
    1054:	02412703          	lw	a4,36(sp)
    1058:	05812683          	lw	a3,88(sp)
    105c:	04812783          	lw	a5,72(sp)
    1060:	00d70733          	add	a4,a4,a3
    1064:	02e12223          	sw	a4,36(sp)
    1068:	02012683          	lw	a3,32(sp)
    106c:	04c12703          	lw	a4,76(sp)
    1070:	00178793          	addi	a5,a5,1
    1074:	04f12423          	sw	a5,72(sp)
    1078:	00e484b3          	add	s1,s1,a4
    107c:	40e68733          	sub	a4,a3,a4
    1080:	02e12023          	sw	a4,32(sp)
    1084:	00c12703          	lw	a4,12(sp)
    1088:	e8f714e3          	bne	a4,a5,f10 <_ZN6tflite12_GLOBAL__N_111AverageEvalEP13TfLiteContextP10TfLiteNode+0x610>
    108c:	02c12703          	lw	a4,44(sp)
    1090:	05c12683          	lw	a3,92(sp)
    1094:	05412783          	lw	a5,84(sp)
    1098:	00d70733          	add	a4,a4,a3
    109c:	02e12623          	sw	a4,44(sp)
    10a0:	02812703          	lw	a4,40(sp)
    10a4:	00178793          	addi	a5,a5,1
    10a8:	04f12a23          	sw	a5,84(sp)
    10ac:	01e70733          	add	a4,a4,t5
    10b0:	02e12423          	sw	a4,40(sp)
    10b4:	05012703          	lw	a4,80(sp)
    10b8:	e2e79ce3          	bne	a5,a4,ef0 <_ZN6tflite12_GLOBAL__N_111AverageEvalEP13TfLiteContextP10TfLiteNode+0x5f0>
    10bc:	00000513          	li	a0,0
    10c0:	8fdff06f          	j	9bc <_ZN6tflite12_GLOBAL__N_111AverageEvalEP13TfLiteContextP10TfLiteNode+0xbc>
    10c4:	9606c2e3          	bltz	a3,a28 <_ZN6tflite12_GLOBAL__N_111AverageEvalEP13TfLiteContextP10TfLiteNode+0x128>
    10c8:	f1d6c4e3          	blt	a3,t4,fd0 <_ZN6tflite12_GLOBAL__N_111AverageEvalEP13TfLiteContextP10TfLiteNode+0x6d0>
    10cc:	95dff06f          	j	a28 <_ZN6tflite12_GLOBAL__N_111AverageEvalEP13TfLiteContextP10TfLiteNode+0x128>
    10d0:	94074ce3          	bltz	a4,a28 <_ZN6tflite12_GLOBAL__N_111AverageEvalEP13TfLiteContextP10TfLiteNode+0x128>
    10d4:	efe74ae3          	blt	a4,t5,fc8 <_ZN6tflite12_GLOBAL__N_111AverageEvalEP13TfLiteContextP10TfLiteNode+0x6c8>
    10d8:	951ff06f          	j	a28 <_ZN6tflite12_GLOBAL__N_111AverageEvalEP13TfLiteContextP10TfLiteNode+0x128>
    10dc:	01f7d713          	srli	a4,a5,0x1f
    10e0:	00f70733          	add	a4,a4,a5
    10e4:	40175713          	srai	a4,a4,0x1
    10e8:	40e60633          	sub	a2,a2,a4
    10ec:	02f647b3          	div	a5,a2,a5
    10f0:	f19ff06f          	j	1008 <_ZN6tflite12_GLOBAL__N_111AverageEvalEP13TfLiteContextP10TfLiteNode+0x708>
    10f4:	012a05b3          	add	a1,s4,s2
    10f8:	006585b3          	add	a1,a1,t1
    10fc:	038585b3          	mul	a1,a1,s8
    1100:	00078393          	mv	t2,a5
    1104:	01c12783          	lw	a5,28(sp)
    1108:	40638ab3          	sub	s5,t2,t1
    110c:	01378533          	add	a0,a5,s3
    1110:	01812783          	lw	a5,24(sp)
    1114:	00b785b3          	add	a1,a5,a1
    1118:	e85ff06f          	j	f9c <_ZN6tflite12_GLOBAL__N_111AverageEvalEP13TfLiteContextP10TfLiteNode+0x69c>
    111c:	00078b13          	mv	s6,a5
    1120:	aa9ff06f          	j	bc8 <_ZN6tflite12_GLOBAL__N_111AverageEvalEP13TfLiteContextP10TfLiteNode+0x2c8>
    1124:	00078413          	mv	s0,a5
    1128:	e0dff06f          	j	f34 <_ZN6tflite12_GLOBAL__N_111AverageEvalEP13TfLiteContextP10TfLiteNode+0x634>
    112c:	00f12423          	sw	a5,8(sp)
    1130:	a55ff06f          	j	b84 <_ZN6tflite12_GLOBAL__N_111AverageEvalEP13TfLiteContextP10TfLiteNode+0x284>

00001134 <_ZN6tflite24Register_AVERAGE_POOL_2DEv>:
    1134:	fffff697          	auipc	a3,0xfffff
    1138:	00000617          	auipc	a2,0x0
    113c:	fffff597          	auipc	a1,0xfffff
    1140:	ff010113          	addi	sp,sp,-16
    1144:	00000793          	li	a5,0
    1148:	00000713          	li	a4,0
    114c:	7cc68693          	addi	a3,a3,1996 # 900 <_ZN6tflite12_GLOBAL__N_111AverageEvalEP13TfLiteContextP10TfLiteNode>
    1150:	15860613          	addi	a2,a2,344 # 1290 <_ZN6tflite14PoolingPrepareEP13TfLiteContextP10TfLiteNode>
    1154:	7a458593          	addi	a1,a1,1956 # 8e0 <_ZN6tflite12_GLOBAL__N_18PoolInitEP13TfLiteContextPKcj>
    1158:	00812423          	sw	s0,8(sp)
    115c:	00112623          	sw	ra,12(sp)
    1160:	00050413          	mv	s0,a0
    1164:	00001097          	auipc	ra,0x1
    1168:	2d0080e7          	jalr	720(ra) # 2434 <_ZN6tflite5micro10RegisterOpEPFPvP13TfLiteContextPKcjEPF12TfLiteStatusS3_P10TfLiteNodeESC_PFvS3_S1_ESE_>
    116c:	00040513          	mv	a0,s0
    1170:	00c12083          	lw	ra,12(sp)
    1174:	00812403          	lw	s0,8(sp)
    1178:	01010113          	addi	sp,sp,16
    117c:	00008067          	ret

00001180 <_ZN6tflite22CalculateOpDataPoolingEPK13TfLiteContextPK16TfLitePoolParamsPK12TfLiteTensorS8_PNS_13OpDataPoolingE>:
    1180:	01462783          	lw	a5,20(a2)
    1184:	0045a683          	lw	a3,4(a1)
    1188:	0085a503          	lw	a0,8(a1)
    118c:	0087a303          	lw	t1,8(a5)
    1190:	00c7a803          	lw	a6,12(a5)
    1194:	0105ae03          	lw	t3,16(a1)
    1198:	00c5a883          	lw	a7,12(a1)
    119c:	0005a783          	lw	a5,0(a1)
    11a0:	00068a63          	beqz	a3,11b4 <_ZN6tflite22CalculateOpDataPoolingEPK13TfLiteContextPK16TfLitePoolParamsPK12TfLiteTensorS8_PNS_13OpDataPoolingE+0x34>
    11a4:	00100613          	li	a2,1
    11a8:	0ac78663          	beq	a5,a2,1254 <_ZN6tflite22CalculateOpDataPoolingEPK13TfLiteContextPK16TfLitePoolParamsPK12TfLiteTensorS8_PNS_13OpDataPoolingE+0xd4>
    11ac:	00200613          	li	a2,2
    11b0:	06c78c63          	beq	a5,a2,1228 <_ZN6tflite22CalculateOpDataPoolingEPK13TfLiteContextPK16TfLitePoolParamsPK12TfLiteTensorS8_PNS_13OpDataPoolingE+0xa8>
    11b4:	00050a63          	beqz	a0,11c8 <_ZN6tflite22CalculateOpDataPoolingEPK13TfLiteContextPK16TfLitePoolParamsPK12TfLiteTensorS8_PNS_13OpDataPoolingE+0x48>
    11b8:	00100613          	li	a2,1
    11bc:	0cc78663          	beq	a5,a2,1288 <_ZN6tflite22CalculateOpDataPoolingEPK13TfLiteContextPK16TfLitePoolParamsPK12TfLiteTensorS8_PNS_13OpDataPoolingE+0x108>
    11c0:	00200613          	li	a2,2
    11c4:	0ac78e63          	beq	a5,a2,1280 <_ZN6tflite22CalculateOpDataPoolingEPK13TfLiteContextPK16TfLitePoolParamsPK12TfLiteTensorS8_PNS_13OpDataPoolingE+0x100>
    11c8:	fff00793          	li	a5,-1
    11cc:	fff00613          	li	a2,-1
    11d0:	02c50633          	mul	a2,a0,a2
    11d4:	00000513          	li	a0,0
    11d8:	02f687b3          	mul	a5,a3,a5
    11dc:	01c60633          	add	a2,a2,t3
    11e0:	40660633          	sub	a2,a2,t1
    11e4:	fff64593          	not	a1,a2
    11e8:	41f5d593          	srai	a1,a1,0x1f
    11ec:	00b67633          	and	a2,a2,a1
    11f0:	40165693          	srai	a3,a2,0x1
    11f4:	00d72223          	sw	a3,4(a4)
    11f8:	00167613          	andi	a2,a2,1
    11fc:	00c72623          	sw	a2,12(a4)
    1200:	011787b3          	add	a5,a5,a7
    1204:	410787b3          	sub	a5,a5,a6
    1208:	fff7c693          	not	a3,a5
    120c:	41f6d693          	srai	a3,a3,0x1f
    1210:	00d7f7b3          	and	a5,a5,a3
    1214:	4017d693          	srai	a3,a5,0x1
    1218:	0017f793          	andi	a5,a5,1
    121c:	00d72023          	sw	a3,0(a4)
    1220:	00f72423          	sw	a5,8(a4)
    1224:	00008067          	ret
    1228:	010685b3          	add	a1,a3,a6
    122c:	411585b3          	sub	a1,a1,a7
    1230:	02d5c5b3          	div	a1,a1,a3
    1234:	fff00613          	li	a2,-1
    1238:	fff58793          	addi	a5,a1,-1
    123c:	f8050ae3          	beqz	a0,11d0 <_ZN6tflite22CalculateOpDataPoolingEPK13TfLiteContextPK16TfLitePoolParamsPK12TfLiteTensorS8_PNS_13OpDataPoolingE+0x50>
    1240:	006505b3          	add	a1,a0,t1
    1244:	41c585b3          	sub	a1,a1,t3
    1248:	02a5c5b3          	div	a1,a1,a0
    124c:	fff58613          	addi	a2,a1,-1
    1250:	f81ff06f          	j	11d0 <_ZN6tflite22CalculateOpDataPoolingEPK13TfLiteContextPK16TfLitePoolParamsPK12TfLiteTensorS8_PNS_13OpDataPoolingE+0x50>
    1254:	010685b3          	add	a1,a3,a6
    1258:	fff58593          	addi	a1,a1,-1
    125c:	02d5c5b3          	div	a1,a1,a3
    1260:	fff00613          	li	a2,-1
    1264:	fff58793          	addi	a5,a1,-1
    1268:	f60504e3          	beqz	a0,11d0 <_ZN6tflite22CalculateOpDataPoolingEPK13TfLiteContextPK16TfLitePoolParamsPK12TfLiteTensorS8_PNS_13OpDataPoolingE+0x50>
    126c:	006505b3          	add	a1,a0,t1
    1270:	fff58593          	addi	a1,a1,-1
    1274:	02a5c5b3          	div	a1,a1,a0
    1278:	fff58613          	addi	a2,a1,-1
    127c:	f55ff06f          	j	11d0 <_ZN6tflite22CalculateOpDataPoolingEPK13TfLiteContextPK16TfLitePoolParamsPK12TfLiteTensorS8_PNS_13OpDataPoolingE+0x50>
    1280:	fff00793          	li	a5,-1
    1284:	fbdff06f          	j	1240 <_ZN6tflite22CalculateOpDataPoolingEPK13TfLiteContextPK16TfLitePoolParamsPK12TfLiteTensorS8_PNS_13OpDataPoolingE+0xc0>
    1288:	fff00793          	li	a5,-1
    128c:	fe1ff06f          	j	126c <_ZN6tflite22CalculateOpDataPoolingEPK13TfLiteContextPK16TfLitePoolParamsPK12TfLiteTensorS8_PNS_13OpDataPoolingE+0xec>

00001290 <_ZN6tflite14PoolingPrepareEP13TfLiteContextP10TfLiteNode>:
    1290:	fe010113          	addi	sp,sp,-32
    1294:	01512223          	sw	s5,4(sp)
    1298:	0105aa83          	lw	s5,16(a1)
    129c:	00112e23          	sw	ra,28(sp)
    12a0:	00812c23          	sw	s0,24(sp)
    12a4:	00912a23          	sw	s1,20(sp)
    12a8:	01212823          	sw	s2,16(sp)
    12ac:	01312623          	sw	s3,12(sp)
    12b0:	01412423          	sw	s4,8(sp)
    12b4:	01612023          	sw	s6,0(sp)
    12b8:	2a0a8a63          	beqz	s5,156c <_ZN6tflite14PoolingPrepareEP13TfLiteContextP10TfLiteNode+0x2dc>
    12bc:	00c5aa03          	lw	s4,12(a1)
    12c0:	00058493          	mv	s1,a1
    12c4:	2a0a0463          	beqz	s4,156c <_ZN6tflite14PoolingPrepareEP13TfLiteContextP10TfLiteNode+0x2dc>
    12c8:	00c52903          	lw	s2,12(a0)
    12cc:	00050413          	mv	s0,a0
    12d0:	00000613          	li	a2,0
    12d4:	00090513          	mv	a0,s2
    12d8:	00001097          	auipc	ra,0x1
    12dc:	dd8080e7          	jalr	-552(ra) # 20b0 <_ZN6tflite12MicroContext23AllocateTempInputTensorEPK10TfLiteNodei>
    12e0:	00050993          	mv	s3,a0
    12e4:	0c050c63          	beqz	a0,13bc <_ZN6tflite14PoolingPrepareEP13TfLiteContextP10TfLiteNode+0x12c>
    12e8:	00048593          	mv	a1,s1
    12ec:	00000613          	li	a2,0
    12f0:	00090513          	mv	a0,s2
    12f4:	00001097          	auipc	ra,0x1
    12f8:	df4080e7          	jalr	-524(ra) # 20e8 <_ZN6tflite12MicroContext24AllocateTempOutputTensorEPK10TfLiteNodei>
    12fc:	00050493          	mv	s1,a0
    1300:	06050463          	beqz	a0,1368 <_ZN6tflite14PoolingPrepareEP13TfLiteContextP10TfLiteNode+0xd8>
    1304:	00050693          	mv	a3,a0
    1308:	000a0713          	mv	a4,s4
    130c:	00098613          	mv	a2,s3
    1310:	000a8593          	mv	a1,s5
    1314:	00040513          	mv	a0,s0
    1318:	00000097          	auipc	ra,0x0
    131c:	e68080e7          	jalr	-408(ra) # 1180 <_ZN6tflite22CalculateOpDataPoolingEPK13TfLiteContextPK16TfLitePoolParamsPK12TfLiteTensorS8_PNS_13OpDataPoolingE>
    1320:	06051a63          	bnez	a0,1394 <_ZN6tflite14PoolingPrepareEP13TfLiteContextP10TfLiteNode+0x104>
    1324:	01c9ab03          	lw	s6,28(s3)
    1328:	ff9b0793          	addi	a5,s6,-7
    132c:	ffd7f793          	andi	a5,a5,-3
    1330:	0e078e63          	beqz	a5,142c <_ZN6tflite14PoolingPrepareEP13TfLiteContextP10TfLiteNode+0x19c>
    1334:	00100793          	li	a5,1
    1338:	0afb0e63          	beq	s6,a5,13f4 <_ZN6tflite14PoolingPrepareEP13TfLiteContextP10TfLiteNode+0x164>
    133c:	000b0513          	mv	a0,s6
    1340:	00001097          	auipc	ra,0x1
    1344:	0c8080e7          	jalr	200(ra) # 2408 <TfLiteTypeGetName>
    1348:	01c9a603          	lw	a2,28(s3)
    134c:	00050593          	mv	a1,a0
    1350:	7ffff517          	auipc	a0,0x7ffff
    1354:	09850513          	addi	a0,a0,152 # 800003e8 <_ZZNK11flatbuffers6VectorIlmE3GetEmE19__PRETTY_FUNCTION__+0x1b8>
    1358:	fffff097          	auipc	ra,0xfffff
    135c:	f48080e7          	jalr	-184(ra) # 2a0 <_Z11MicroPrintfPKcz>
    1360:	00100513          	li	a0,1
    1364:	0300006f          	j	1394 <_ZN6tflite14PoolingPrepareEP13TfLiteContextP10TfLiteNode+0x104>
    1368:	01442783          	lw	a5,20(s0)
    136c:	7ffff717          	auipc	a4,0x7ffff
    1370:	7ffff617          	auipc	a2,0x7ffff
    1374:	7ffff597          	auipc	a1,0x7ffff
    1378:	00040513          	mv	a0,s0
    137c:	01870713          	addi	a4,a4,24 # 80000384 <_ZZNK11flatbuffers6VectorIlmE3GetEmE19__PRETTY_FUNCTION__+0x154>
    1380:	04000693          	li	a3,64
    1384:	fe460613          	addi	a2,a2,-28 # 80000354 <_ZZNK11flatbuffers6VectorIlmE3GetEmE19__PRETTY_FUNCTION__+0x124>
    1388:	ea458593          	addi	a1,a1,-348 # 80000218 <__trunctfdf2+0x7ffed1b8>
    138c:	000780e7          	jalr	a5
    1390:	00100513          	li	a0,1
    1394:	01c12083          	lw	ra,28(sp)
    1398:	01812403          	lw	s0,24(sp)
    139c:	01412483          	lw	s1,20(sp)
    13a0:	01012903          	lw	s2,16(sp)
    13a4:	00c12983          	lw	s3,12(sp)
    13a8:	00812a03          	lw	s4,8(sp)
    13ac:	00412a83          	lw	s5,4(sp)
    13b0:	00012b03          	lw	s6,0(sp)
    13b4:	02010113          	addi	sp,sp,32
    13b8:	00008067          	ret
    13bc:	01442783          	lw	a5,20(s0)
    13c0:	7ffff717          	auipc	a4,0x7ffff
    13c4:	7ffff617          	auipc	a2,0x7ffff
    13c8:	7ffff597          	auipc	a1,0x7ffff
    13cc:	00040513          	mv	a0,s0
    13d0:	f8070713          	addi	a4,a4,-128 # 80000340 <_ZZNK11flatbuffers6VectorIlmE3GetEmE19__PRETTY_FUNCTION__+0x110>
    13d4:	03d00693          	li	a3,61
    13d8:	f9060613          	addi	a2,a2,-112 # 80000354 <_ZZNK11flatbuffers6VectorIlmE3GetEmE19__PRETTY_FUNCTION__+0x124>
    13dc:	e5058593          	addi	a1,a1,-432 # 80000218 <__trunctfdf2+0x7ffed1b8>
    13e0:	000780e7          	jalr	a5
    13e4:	00100513          	li	a0,1
    13e8:	fadff06f          	j	1394 <_ZN6tflite14PoolingPrepareEP13TfLiteContextP10TfLiteNode+0x104>
    13ec:	00100793          	li	a5,1
    13f0:	0efb1263          	bne	s6,a5,14d4 <_ZN6tflite14PoolingPrepareEP13TfLiteContextP10TfLiteNode+0x244>
    13f4:	014aa783          	lw	a5,20(s5)
    13f8:	00100713          	li	a4,1
    13fc:	12e78263          	beq	a5,a4,1520 <_ZN6tflite14PoolingPrepareEP13TfLiteContextP10TfLiteNode+0x290>
    1400:	00300713          	li	a4,3
    1404:	12e78a63          	beq	a5,a4,1538 <_ZN6tflite14PoolingPrepareEP13TfLiteContextP10TfLiteNode+0x2a8>
    1408:	00200713          	li	a4,2
    140c:	14e78263          	beq	a5,a4,1550 <_ZN6tflite14PoolingPrepareEP13TfLiteContextP10TfLiteNode+0x2c0>
    1410:	7ffff797          	auipc	a5,0x7ffff
    1414:	f207a703          	lw	a4,-224(a5) # 80000330 <_ZZNK11flatbuffers6VectorIlmE3GetEmE19__PRETTY_FUNCTION__+0x100>
    1418:	7ffff797          	auipc	a5,0x7ffff
    141c:	f087a783          	lw	a5,-248(a5) # 80000320 <_ZZNK11flatbuffers6VectorIlmE3GetEmE19__PRETTY_FUNCTION__+0xf0>
    1420:	00ea2c23          	sw	a4,24(s4)
    1424:	00fa2e23          	sw	a5,28(s4)
    1428:	0c80006f          	j	14f0 <_ZN6tflite14PoolingPrepareEP13TfLiteContextP10TfLiteNode+0x260>
    142c:	0084a583          	lw	a1,8(s1)
    1430:	0089a503          	lw	a0,8(s3)
    1434:	00003097          	auipc	ra,0x3
    1438:	7f8080e7          	jalr	2040(ra) # 4c2c <__subsf3>
    143c:	800007b7          	lui	a5,0x80000
    1440:	fff7c793          	not	a5,a5
    1444:	00f57533          	and	a0,a0,a5
    1448:	00004097          	auipc	ra,0x4
    144c:	cb4080e7          	jalr	-844(ra) # 50fc <__extendsfdf2>
    1450:	7ffff797          	auipc	a5,0x7ffff
    1454:	ee87a603          	lw	a2,-280(a5) # 80000338 <_ZZNK11flatbuffers6VectorIlmE3GetEmE19__PRETTY_FUNCTION__+0x108>
    1458:	eec7a683          	lw	a3,-276(a5)
    145c:	00002097          	auipc	ra,0x2
    1460:	790080e7          	jalr	1936(ra) # 3bec <__ledf2>
    1464:	04a04063          	bgtz	a0,14a4 <_ZN6tflite14PoolingPrepareEP13TfLiteContextP10TfLiteNode+0x214>
    1468:	00c9a703          	lw	a4,12(s3)
    146c:	00c4a783          	lw	a5,12(s1)
    1470:	f6f70ee3          	beq	a4,a5,13ec <_ZN6tflite14PoolingPrepareEP13TfLiteContextP10TfLiteNode+0x15c>
    1474:	01442783          	lw	a5,20(s0)
    1478:	7ffff717          	auipc	a4,0x7ffff
    147c:	7ffff617          	auipc	a2,0x7ffff
    1480:	7ffff597          	auipc	a1,0x7ffff
    1484:	00040513          	mv	a0,s0
    1488:	f3870713          	addi	a4,a4,-200 # 800003b0 <_ZZNK11flatbuffers6VectorIlmE3GetEmE19__PRETTY_FUNCTION__+0x180>
    148c:	04b00693          	li	a3,75
    1490:	ed860613          	addi	a2,a2,-296 # 80000354 <_ZZNK11flatbuffers6VectorIlmE3GetEmE19__PRETTY_FUNCTION__+0x124>
    1494:	d9858593          	addi	a1,a1,-616 # 80000218 <__trunctfdf2+0x7ffed1b8>
    1498:	000780e7          	jalr	a5
    149c:	00100513          	li	a0,1
    14a0:	ef5ff06f          	j	1394 <_ZN6tflite14PoolingPrepareEP13TfLiteContextP10TfLiteNode+0x104>
    14a4:	01442783          	lw	a5,20(s0)
    14a8:	7ffff717          	auipc	a4,0x7ffff
    14ac:	7ffff617          	auipc	a2,0x7ffff
    14b0:	7ffff597          	auipc	a1,0x7ffff
    14b4:	00040513          	mv	a0,s0
    14b8:	ef070713          	addi	a4,a4,-272 # 80000398 <_ZZNK11flatbuffers6VectorIlmE3GetEmE19__PRETTY_FUNCTION__+0x168>
    14bc:	04900693          	li	a3,73
    14c0:	ea860613          	addi	a2,a2,-344 # 80000354 <_ZZNK11flatbuffers6VectorIlmE3GetEmE19__PRETTY_FUNCTION__+0x124>
    14c4:	d6858593          	addi	a1,a1,-664 # 80000218 <__trunctfdf2+0x7ffed1b8>
    14c8:	000780e7          	jalr	a5
    14cc:	00100513          	li	a0,1
    14d0:	ec5ff06f          	j	1394 <_ZN6tflite14PoolingPrepareEP13TfLiteContextP10TfLiteNode+0x104>
    14d4:	014aa583          	lw	a1,20(s5)
    14d8:	014a0713          	addi	a4,s4,20
    14dc:	010a0693          	addi	a3,s4,16
    14e0:	00048613          	mv	a2,s1
    14e4:	00040513          	mv	a0,s0
    14e8:	00001097          	auipc	ra,0x1
    14ec:	d40080e7          	jalr	-704(ra) # 2228 <_ZN6tflite33CalculateActivationRangeQuantizedEP13TfLiteContext21TfLiteFusedActivationP12TfLiteTensorPlS5_>
    14f0:	00092783          	lw	a5,0(s2)
    14f4:	00098593          	mv	a1,s3
    14f8:	00090513          	mv	a0,s2
    14fc:	0187a783          	lw	a5,24(a5)
    1500:	000780e7          	jalr	a5
    1504:	00092783          	lw	a5,0(s2)
    1508:	00090513          	mv	a0,s2
    150c:	00048593          	mv	a1,s1
    1510:	0187a783          	lw	a5,24(a5)
    1514:	000780e7          	jalr	a5
    1518:	00000513          	li	a0,0
    151c:	e79ff06f          	j	1394 <_ZN6tflite14PoolingPrepareEP13TfLiteContextP10TfLiteNode+0x104>
    1520:	7ffff797          	auipc	a5,0x7ffff
    1524:	e007a783          	lw	a5,-512(a5) # 80000320 <_ZZNK11flatbuffers6VectorIlmE3GetEmE19__PRETTY_FUNCTION__+0xf0>
    1528:	00000713          	li	a4,0
    152c:	00ea2c23          	sw	a4,24(s4)
    1530:	00fa2e23          	sw	a5,28(s4)
    1534:	fbdff06f          	j	14f0 <_ZN6tflite14PoolingPrepareEP13TfLiteContextP10TfLiteNode+0x260>
    1538:	7ffff797          	auipc	a5,0x7ffff
    153c:	dec7a783          	lw	a5,-532(a5) # 80000324 <_ZZNK11flatbuffers6VectorIlmE3GetEmE19__PRETTY_FUNCTION__+0xf4>
    1540:	00000713          	li	a4,0
    1544:	00ea2c23          	sw	a4,24(s4)
    1548:	00fa2e23          	sw	a5,28(s4)
    154c:	fa5ff06f          	j	14f0 <_ZN6tflite14PoolingPrepareEP13TfLiteContextP10TfLiteNode+0x260>
    1550:	7ffff797          	auipc	a5,0x7ffff
    1554:	dd87a703          	lw	a4,-552(a5) # 80000328 <_ZZNK11flatbuffers6VectorIlmE3GetEmE19__PRETTY_FUNCTION__+0xf8>
    1558:	7ffff797          	auipc	a5,0x7ffff
    155c:	dd47a783          	lw	a5,-556(a5) # 8000032c <_ZZNK11flatbuffers6VectorIlmE3GetEmE19__PRETTY_FUNCTION__+0xfc>
    1560:	00ea2c23          	sw	a4,24(s4)
    1564:	00fa2e23          	sw	a5,28(s4)
    1568:	f89ff06f          	j	14f0 <_ZN6tflite14PoolingPrepareEP13TfLiteContextP10TfLiteNode+0x260>
    156c:	fffff097          	auipc	ra,0xfffff
    1570:	ee4080e7          	jalr	-284(ra) # 450 <_Z9AbortImplv>

00001574 <_ZN6tflite23AveragePoolingEvalFloatEPK13TfLiteContextPK10TfLiteNodePK16TfLitePoolParamsPKNS_13OpDataPoolingEPK16TfLiteEvalTensorPSC_>:
    1574:	ef010113          	addi	sp,sp,-272
    1578:	10912223          	sw	s1,260(sp)
    157c:	00078493          	mv	s1,a5
    1580:	00862783          	lw	a5,8(a2)
    1584:	10812423          	sw	s0,264(sp)
    1588:	00070593          	mv	a1,a4
    158c:	06f12e23          	sw	a5,124(sp)
    1590:	00462783          	lw	a5,4(a2)
    1594:	00070413          	mv	s0,a4
    1598:	09810513          	addi	a0,sp,152
    159c:	06f12823          	sw	a5,112(sp)
    15a0:	01062783          	lw	a5,16(a2)
    15a4:	10112623          	sw	ra,268(sp)
    15a8:	11212023          	sw	s2,256(sp)
    15ac:	04f12823          	sw	a5,80(sp)
    15b0:	00c62783          	lw	a5,12(a2)
    15b4:	0f312e23          	sw	s3,252(sp)
    15b8:	0f412c23          	sw	s4,248(sp)
    15bc:	02f12e23          	sw	a5,60(sp)
    15c0:	00469783          	lh	a5,4(a3)
    15c4:	0f512a23          	sw	s5,244(sp)
    15c8:	0f612823          	sw	s6,240(sp)
    15cc:	06f12223          	sw	a5,100(sp)
    15d0:	00069783          	lh	a5,0(a3)
    15d4:	0f712623          	sw	s7,236(sp)
    15d8:	0f812423          	sw	s8,232(sp)
    15dc:	04f12a23          	sw	a5,84(sp)
    15e0:	0186a783          	lw	a5,24(a3)
    15e4:	0f912223          	sw	s9,228(sp)
    15e8:	0fa12023          	sw	s10,224(sp)
    15ec:	00f12a23          	sw	a5,20(sp)
    15f0:	01c6a783          	lw	a5,28(a3)
    15f4:	0db12e23          	sw	s11,220(sp)
    15f8:	00f12c23          	sw	a5,24(sp)
    15fc:	00001097          	auipc	ra,0x1
    1600:	ee4080e7          	jalr	-284(ra) # 24e0 <_ZN6tflite5micro14GetTensorShapeEPK16TfLiteEvalTensor>
    1604:	1c040c63          	beqz	s0,17dc <_ZN6tflite23AveragePoolingEvalFloatEPK13TfLiteContextPK10TfLiteNodePK16TfLitePoolParamsPKNS_13OpDataPoolingEPK16TfLiteEvalTensorPSC_+0x268>
    1608:	00042783          	lw	a5,0(s0)
    160c:	00048593          	mv	a1,s1
    1610:	0b410513          	addi	a0,sp,180
    1614:	04f12423          	sw	a5,72(sp)
    1618:	00001097          	auipc	ra,0x1
    161c:	ec8080e7          	jalr	-312(ra) # 24e0 <_ZN6tflite5micro14GetTensorShapeEPK16TfLiteEvalTensor>
    1620:	1a048e63          	beqz	s1,17dc <_ZN6tflite23AveragePoolingEvalFloatEPK13TfLiteContextPK10TfLiteNodePK16TfLitePoolParamsPKNS_13OpDataPoolingEPK16TfLiteEvalTensorPSC_+0x268>
    1624:	09812783          	lw	a5,152(sp)
    1628:	00400713          	li	a4,4
    162c:	0004a683          	lw	a3,0(s1)
    1630:	1ae79663          	bne	a5,a4,17dc <_ZN6tflite23AveragePoolingEvalFloatEPK13TfLiteContextPK10TfLiteNodePK16TfLitePoolParamsPKNS_13OpDataPoolingEPK16TfLiteEvalTensorPSC_+0x268>
    1634:	0b412703          	lw	a4,180(sp)
    1638:	1af71263          	bne	a4,a5,17dc <_ZN6tflite23AveragePoolingEvalFloatEPK13TfLiteContextPK10TfLiteNodePK16TfLitePoolParamsPKNS_13OpDataPoolingEPK16TfLiteEvalTensorPSC_+0x268>
    163c:	09c12703          	lw	a4,156(sp)
    1640:	0b812783          	lw	a5,184(sp)
    1644:	08e12223          	sw	a4,132(sp)
    1648:	18f71a63          	bne	a4,a5,17dc <_ZN6tflite23AveragePoolingEvalFloatEPK13TfLiteContextPK10TfLiteNodePK16TfLitePoolParamsPKNS_13OpDataPoolingEPK16TfLiteEvalTensorPSC_+0x268>
    164c:	0a812d03          	lw	s10,168(sp)
    1650:	0c412783          	lw	a5,196(sp)
    1654:	18fd1463          	bne	s10,a5,17dc <_ZN6tflite23AveragePoolingEvalFloatEPK13TfLiteContextPK10TfLiteNodePK16TfLitePoolParamsPKNS_13OpDataPoolingEPK16TfLiteEvalTensorPSC_+0x268>
    1658:	0bc12783          	lw	a5,188(sp)
    165c:	0a012b83          	lw	s7,160(sp)
    1660:	0a412d83          	lw	s11,164(sp)
    1664:	02f12623          	sw	a5,44(sp)
    1668:	0c012c83          	lw	s9,192(sp)
    166c:	30e05463          	blez	a4,1974 <_ZN6tflite23AveragePoolingEvalFloatEPK13TfLiteContextPK10TfLiteNodePK16TfLitePoolParamsPKNS_13OpDataPoolingEPK16TfLiteEvalTensorPSC_+0x400>
    1670:	039787b3          	mul	a5,a5,s9
    1674:	002d1713          	slli	a4,s10,0x2
    1678:	00e12623          	sw	a4,12(sp)
    167c:	01a12e23          	sw	s10,28(sp)
    1680:	04d12623          	sw	a3,76(sp)
    1684:	02012c23          	sw	zero,56(sp)
    1688:	08012023          	sw	zero,128(sp)
    168c:	01712423          	sw	s7,8(sp)
    1690:	03912423          	sw	s9,40(sp)
    1694:	03a787b3          	mul	a5,a5,s10
    1698:	00279793          	slli	a5,a5,0x2
    169c:	03ac8733          	mul	a4,s9,s10
    16a0:	08f12623          	sw	a5,140(sp)
    16a4:	03bd07b3          	mul	a5,s10,s11
    16a8:	00271713          	slli	a4,a4,0x2
    16ac:	08e12423          	sw	a4,136(sp)
    16b0:	000d8d13          	mv	s10,s11
    16b4:	00279793          	slli	a5,a5,0x2
    16b8:	06f12423          	sw	a5,104(sp)
    16bc:	02c12783          	lw	a5,44(sp)
    16c0:	28f05063          	blez	a5,1940 <_ZN6tflite23AveragePoolingEvalFloatEPK13TfLiteContextPK10TfLiteNodePK16TfLitePoolParamsPKNS_13OpDataPoolingEPK16TfLiteEvalTensorPSC_+0x3cc>
    16c4:	06412783          	lw	a5,100(sp)
    16c8:	06012c23          	sw	zero,120(sp)
    16cc:	02f12a23          	sw	a5,52(sp)
    16d0:	40f007b3          	neg	a5,a5
    16d4:	00f12823          	sw	a5,16(sp)
    16d8:	04c12783          	lw	a5,76(sp)
    16dc:	02f12823          	sw	a5,48(sp)
    16e0:	02812783          	lw	a5,40(sp)
    16e4:	20f05e63          	blez	a5,1900 <_ZN6tflite23AveragePoolingEvalFloatEPK13TfLiteContextPK10TfLiteNodePK16TfLitePoolParamsPKNS_13OpDataPoolingEPK16TfLiteEvalTensorPSC_+0x38c>
    16e8:	03412783          	lw	a5,52(sp)
    16ec:	00812703          	lw	a4,8(sp)
    16f0:	fff7c913          	not	s2,a5
    16f4:	41f95913          	srai	s2,s2,0x1f
    16f8:	00e78b33          	add	s6,a5,a4
    16fc:	0127f7b3          	and	a5,a5,s2
    1700:	02f12023          	sw	a5,32(sp)
    1704:	05012783          	lw	a5,80(sp)
    1708:	2b67ca63          	blt	a5,s6,19bc <_ZN6tflite23AveragePoolingEvalFloatEPK13TfLiteContextPK10TfLiteNodePK16TfLitePoolParamsPKNS_13OpDataPoolingEPK16TfLiteEvalTensorPSC_+0x448>
    170c:	01012703          	lw	a4,16(sp)
    1710:	03812783          	lw	a5,56(sp)
    1714:	02012683          	lw	a3,32(sp)
    1718:	06012623          	sw	zero,108(sp)
    171c:	00f707b3          	add	a5,a4,a5
    1720:	00d787b3          	add	a5,a5,a3
    1724:	03a787b3          	mul	a5,a5,s10
    1728:	07612023          	sw	s6,96(sp)
    172c:	04f12c23          	sw	a5,88(sp)
    1730:	05412783          	lw	a5,84(sp)
    1734:	00078a93          	mv	s5,a5
    1738:	40f00a33          	neg	s4,a5
    173c:	03012783          	lw	a5,48(sp)
    1740:	02f12223          	sw	a5,36(sp)
    1744:	00eb07b3          	add	a5,s6,a4
    1748:	04f12e23          	sw	a5,92(sp)
    174c:	01c12783          	lw	a5,28(sp)
    1750:	18f05063          	blez	a5,18d0 <_ZN6tflite23AveragePoolingEvalFloatEPK13TfLiteContextPK10TfLiteNodePK16TfLitePoolParamsPKNS_13OpDataPoolingEPK16TfLiteEvalTensorPSC_+0x35c>
    1754:	03c12783          	lw	a5,60(sp)
    1758:	fffac493          	not	s1,s5
    175c:	41f4d493          	srai	s1,s1,0x1f
    1760:	015d0933          	add	s2,s10,s5
    1764:	009af4b3          	and	s1,s5,s1
    1768:	0127d463          	bge	a5,s2,1770 <_ZN6tflite23AveragePoolingEvalFloatEPK13TfLiteContextPK10TfLiteNodePK16TfLitePoolParamsPKNS_13OpDataPoolingEPK16TfLiteEvalTensorPSC_+0x1fc>
    176c:	00078913          	mv	s2,a5
    1770:	05812783          	lw	a5,88(sp)
    1774:	02412b83          	lw	s7,36(sp)
    1778:	00000993          	li	s3,0
    177c:	00fa0433          	add	s0,s4,a5
    1780:	00c12783          	lw	a5,12(sp)
    1784:	00940433          	add	s0,s0,s1
    1788:	07512a23          	sw	s5,116(sp)
    178c:	02f40433          	mul	s0,s0,a5
    1790:	014907b3          	add	a5,s2,s4
    1794:	04f12023          	sw	a5,64(sp)
    1798:	04812783          	lw	a5,72(sp)
    179c:	00878433          	add	s0,a5,s0
    17a0:	06012703          	lw	a4,96(sp)
    17a4:	02012783          	lw	a5,32(sp)
    17a8:	1ce7d663          	bge	a5,a4,1974 <_ZN6tflite23AveragePoolingEvalFloatEPK13TfLiteContextPK10TfLiteNodePK16TfLitePoolParamsPKNS_13OpDataPoolingEPK16TfLiteEvalTensorPSC_+0x400>
    17ac:	01012703          	lw	a4,16(sp)
    17b0:	00000c13          	li	s8,0
    17b4:	000c0b13          	mv	s6,s8
    17b8:	00e78db3          	add	s11,a5,a4
    17bc:	000b8713          	mv	a4,s7
    17c0:	00040b93          	mv	s7,s0
    17c4:	0724de63          	bge	s1,s2,1840 <_ZN6tflite23AveragePoolingEvalFloatEPK13TfLiteContextPK10TfLiteNodePK16TfLitePoolParamsPKNS_13OpDataPoolingEPK16TfLiteEvalTensorPSC_+0x2cc>
    17c8:	009a0ab3          	add	s5,s4,s1
    17cc:	00040c93          	mv	s9,s0
    17d0:	00812783          	lw	a5,8(sp)
    17d4:	00079863          	bnez	a5,17e4 <_ZN6tflite23AveragePoolingEvalFloatEPK13TfLiteContextPK10TfLiteNodePK16TfLitePoolParamsPKNS_13OpDataPoolingEPK16TfLiteEvalTensorPSC_+0x270>
    17d8:	000d8c63          	beqz	s11,17f0 <_ZN6tflite23AveragePoolingEvalFloatEPK13TfLiteContextPK10TfLiteNodePK16TfLitePoolParamsPKNS_13OpDataPoolingEPK16TfLiteEvalTensorPSC_+0x27c>
    17dc:	fffff097          	auipc	ra,0xfffff
    17e0:	c74080e7          	jalr	-908(ra) # 450 <_Z9AbortImplv>
    17e4:	fe0dcce3          	bltz	s11,17dc <_ZN6tflite23AveragePoolingEvalFloatEPK13TfLiteContextPK10TfLiteNodePK16TfLitePoolParamsPKNS_13OpDataPoolingEPK16TfLiteEvalTensorPSC_+0x268>
    17e8:	00812783          	lw	a5,8(sp)
    17ec:	fefdd8e3          	bge	s11,a5,17dc <_ZN6tflite23AveragePoolingEvalFloatEPK13TfLiteContextPK10TfLiteNodePK16TfLitePoolParamsPKNS_13OpDataPoolingEPK16TfLiteEvalTensorPSC_+0x268>
    17f0:	1c0d1063          	bnez	s10,19b0 <_ZN6tflite23AveragePoolingEvalFloatEPK13TfLiteContextPK10TfLiteNodePK16TfLitePoolParamsPKNS_13OpDataPoolingEPK16TfLiteEvalTensorPSC_+0x43c>
    17f4:	fe0a94e3          	bnez	s5,17dc <_ZN6tflite23AveragePoolingEvalFloatEPK13TfLiteContextPK10TfLiteNodePK16TfLitePoolParamsPKNS_13OpDataPoolingEPK16TfLiteEvalTensorPSC_+0x268>
    17f8:	000ca583          	lw	a1,0(s9)
    17fc:	000b0513          	mv	a0,s6
    1800:	04e12223          	sw	a4,68(sp)
    1804:	00003097          	auipc	ra,0x3
    1808:	abc080e7          	jalr	-1348(ra) # 42c0 <__addsf3>
    180c:	7ffff797          	auipc	a5,0x7ffff
    1810:	b207a583          	lw	a1,-1248(a5) # 8000032c <_ZZNK11flatbuffers6VectorIlmE3GetEmE19__PRETTY_FUNCTION__+0xfc>
    1814:	00c12783          	lw	a5,12(sp)
    1818:	00050b13          	mv	s6,a0
    181c:	000c0513          	mv	a0,s8
    1820:	00fc8cb3          	add	s9,s9,a5
    1824:	00003097          	auipc	ra,0x3
    1828:	a9c080e7          	jalr	-1380(ra) # 42c0 <__addsf3>
    182c:	04012783          	lw	a5,64(sp)
    1830:	001a8a93          	addi	s5,s5,1
    1834:	00050c13          	mv	s8,a0
    1838:	04412703          	lw	a4,68(sp)
    183c:	f9579ae3          	bne	a5,s5,17d0 <_ZN6tflite23AveragePoolingEvalFloatEPK13TfLiteContextPK10TfLiteNodePK16TfLitePoolParamsPKNS_13OpDataPoolingEPK16TfLiteEvalTensorPSC_+0x25c>
    1840:	06812783          	lw	a5,104(sp)
    1844:	001d8d93          	addi	s11,s11,1
    1848:	00f40433          	add	s0,s0,a5
    184c:	05c12783          	lw	a5,92(sp)
    1850:	f7b79ae3          	bne	a5,s11,17c4 <_ZN6tflite23AveragePoolingEvalFloatEPK13TfLiteContextPK10TfLiteNodePK16TfLitePoolParamsPKNS_13OpDataPoolingEPK16TfLiteEvalTensorPSC_+0x250>
    1854:	00000593          	li	a1,0
    1858:	000c0513          	mv	a0,s8
    185c:	000b8413          	mv	s0,s7
    1860:	00070b93          	mv	s7,a4
    1864:	00003097          	auipc	ra,0x3
    1868:	1e4080e7          	jalr	484(ra) # 4a48 <__eqsf2>
    186c:	10050463          	beqz	a0,1974 <_ZN6tflite23AveragePoolingEvalFloatEPK13TfLiteContextPK10TfLiteNodePK16TfLitePoolParamsPKNS_13OpDataPoolingEPK16TfLiteEvalTensorPSC_+0x400>
    1870:	000c0593          	mv	a1,s8
    1874:	000b0513          	mv	a0,s6
    1878:	00003097          	auipc	ra,0x3
    187c:	e88080e7          	jalr	-376(ra) # 4700 <__divsf3>
    1880:	00050b13          	mv	s6,a0
    1884:	00050593          	mv	a1,a0
    1888:	01412503          	lw	a0,20(sp)
    188c:	00003097          	auipc	ra,0x3
    1890:	228080e7          	jalr	552(ra) # 4ab4 <__gesf2>
    1894:	00a05463          	blez	a0,189c <_ZN6tflite23AveragePoolingEvalFloatEPK13TfLiteContextPK10TfLiteNodePK16TfLitePoolParamsPKNS_13OpDataPoolingEPK16TfLiteEvalTensorPSC_+0x328>
    1898:	01412b03          	lw	s6,20(sp)
    189c:	01812503          	lw	a0,24(sp)
    18a0:	000b0593          	mv	a1,s6
    18a4:	00003097          	auipc	ra,0x3
    18a8:	2cc080e7          	jalr	716(ra) # 4b70 <__lesf2>
    18ac:	00055463          	bgez	a0,18b4 <_ZN6tflite23AveragePoolingEvalFloatEPK13TfLiteContextPK10TfLiteNodePK16TfLitePoolParamsPKNS_13OpDataPoolingEPK16TfLiteEvalTensorPSC_+0x340>
    18b0:	01812b03          	lw	s6,24(sp)
    18b4:	01c12783          	lw	a5,28(sp)
    18b8:	016ba023          	sw	s6,0(s7)
    18bc:	00198993          	addi	s3,s3,1
    18c0:	004b8b93          	addi	s7,s7,4
    18c4:	00440413          	addi	s0,s0,4
    18c8:	ecf99ce3          	bne	s3,a5,17a0 <_ZN6tflite23AveragePoolingEvalFloatEPK13TfLiteContextPK10TfLiteNodePK16TfLitePoolParamsPKNS_13OpDataPoolingEPK16TfLiteEvalTensorPSC_+0x22c>
    18cc:	07412a83          	lw	s5,116(sp)
    18d0:	07012703          	lw	a4,112(sp)
    18d4:	06c12783          	lw	a5,108(sp)
    18d8:	02412683          	lw	a3,36(sp)
    18dc:	00c12603          	lw	a2,12(sp)
    18e0:	00ea0a33          	add	s4,s4,a4
    18e4:	40ea8ab3          	sub	s5,s5,a4
    18e8:	02812703          	lw	a4,40(sp)
    18ec:	00178793          	addi	a5,a5,1
    18f0:	00c686b3          	add	a3,a3,a2
    18f4:	06f12623          	sw	a5,108(sp)
    18f8:	02d12223          	sw	a3,36(sp)
    18fc:	e4f718e3          	bne	a4,a5,174c <_ZN6tflite23AveragePoolingEvalFloatEPK13TfLiteContextPK10TfLiteNodePK16TfLitePoolParamsPKNS_13OpDataPoolingEPK16TfLiteEvalTensorPSC_+0x1d8>
    1900:	03012703          	lw	a4,48(sp)
    1904:	08812683          	lw	a3,136(sp)
    1908:	07812783          	lw	a5,120(sp)
    190c:	00d70733          	add	a4,a4,a3
    1910:	02e12823          	sw	a4,48(sp)
    1914:	01012683          	lw	a3,16(sp)
    1918:	07c12703          	lw	a4,124(sp)
    191c:	00178793          	addi	a5,a5,1
    1920:	06f12c23          	sw	a5,120(sp)
    1924:	00e686b3          	add	a3,a3,a4
    1928:	00d12823          	sw	a3,16(sp)
    192c:	03412683          	lw	a3,52(sp)
    1930:	40e68733          	sub	a4,a3,a4
    1934:	02e12a23          	sw	a4,52(sp)
    1938:	02c12703          	lw	a4,44(sp)
    193c:	daf712e3          	bne	a4,a5,16e0 <_ZN6tflite23AveragePoolingEvalFloatEPK13TfLiteContextPK10TfLiteNodePK16TfLitePoolParamsPKNS_13OpDataPoolingEPK16TfLiteEvalTensorPSC_+0x16c>
    1940:	04c12703          	lw	a4,76(sp)
    1944:	08c12683          	lw	a3,140(sp)
    1948:	08012783          	lw	a5,128(sp)
    194c:	00d70733          	add	a4,a4,a3
    1950:	04e12623          	sw	a4,76(sp)
    1954:	00812683          	lw	a3,8(sp)
    1958:	03812703          	lw	a4,56(sp)
    195c:	00178793          	addi	a5,a5,1
    1960:	08f12023          	sw	a5,128(sp)
    1964:	00d70733          	add	a4,a4,a3
    1968:	02e12c23          	sw	a4,56(sp)
    196c:	08412703          	lw	a4,132(sp)
    1970:	d4e796e3          	bne	a5,a4,16bc <_ZN6tflite23AveragePoolingEvalFloatEPK13TfLiteContextPK10TfLiteNodePK16TfLitePoolParamsPKNS_13OpDataPoolingEPK16TfLiteEvalTensorPSC_+0x148>
    1974:	10c12083          	lw	ra,268(sp)
    1978:	10812403          	lw	s0,264(sp)
    197c:	10412483          	lw	s1,260(sp)
    1980:	10012903          	lw	s2,256(sp)
    1984:	0fc12983          	lw	s3,252(sp)
    1988:	0f812a03          	lw	s4,248(sp)
    198c:	0f412a83          	lw	s5,244(sp)
    1990:	0f012b03          	lw	s6,240(sp)
    1994:	0ec12b83          	lw	s7,236(sp)
    1998:	0e812c03          	lw	s8,232(sp)
    199c:	0e412c83          	lw	s9,228(sp)
    19a0:	0e012d03          	lw	s10,224(sp)
    19a4:	0dc12d83          	lw	s11,220(sp)
    19a8:	11010113          	addi	sp,sp,272
    19ac:	00008067          	ret
    19b0:	e20ac6e3          	bltz	s5,17dc <_ZN6tflite23AveragePoolingEvalFloatEPK13TfLiteContextPK10TfLiteNodePK16TfLitePoolParamsPKNS_13OpDataPoolingEPK16TfLiteEvalTensorPSC_+0x268>
    19b4:	e5aac2e3          	blt	s5,s10,17f8 <_ZN6tflite23AveragePoolingEvalFloatEPK13TfLiteContextPK10TfLiteNodePK16TfLitePoolParamsPKNS_13OpDataPoolingEPK16TfLiteEvalTensorPSC_+0x284>
    19b8:	e25ff06f          	j	17dc <_ZN6tflite23AveragePoolingEvalFloatEPK13TfLiteContextPK10TfLiteNodePK16TfLitePoolParamsPKNS_13OpDataPoolingEPK16TfLiteEvalTensorPSC_+0x268>
    19bc:	00078b13          	mv	s6,a5
    19c0:	d4dff06f          	j	170c <_ZN6tflite23AveragePoolingEvalFloatEPK13TfLiteContextPK10TfLiteNodePK16TfLitePoolParamsPKNS_13OpDataPoolingEPK16TfLiteEvalTensorPSC_+0x198>

000019c4 <_ZN6tflite12_GLOBAL__N_120EvalReshapeReferenceEP13TfLiteContextP10TfLiteNode>:
    19c4:	fe010113          	addi	sp,sp,-32
    19c8:	00000613          	li	a2,0
    19cc:	00112e23          	sw	ra,28(sp)
    19d0:	00812c23          	sw	s0,24(sp)
    19d4:	00912a23          	sw	s1,20(sp)
    19d8:	00050413          	mv	s0,a0
    19dc:	01212823          	sw	s2,16(sp)
    19e0:	00058913          	mv	s2,a1
    19e4:	00001097          	auipc	ra,0x1
    19e8:	ac4080e7          	jalr	-1340(ra) # 24a8 <_ZN6tflite5micro12GetEvalInputEPK13TfLiteContextPK10TfLiteNodei>
    19ec:	00090593          	mv	a1,s2
    19f0:	00050493          	mv	s1,a0
    19f4:	00000613          	li	a2,0
    19f8:	00040513          	mv	a0,s0
    19fc:	00001097          	auipc	ra,0x1
    1a00:	ab4080e7          	jalr	-1356(ra) # 24b0 <_ZN6tflite5micro13GetEvalOutputEPK13TfLiteContextPK10TfLiteNodei>
    1a04:	00050913          	mv	s2,a0
    1a08:	0084a503          	lw	a0,8(s1)
    1a0c:	00c10593          	addi	a1,sp,12
    1a10:	00000097          	auipc	ra,0x0
    1a14:	640080e7          	jalr	1600(ra) # 2050 <_ZN6tflite16TfLiteTypeSizeOfE10TfLiteTypePj>
    1a18:	00050413          	mv	s0,a0
    1a1c:	02050063          	beqz	a0,1a3c <_ZN6tflite12_GLOBAL__N_120EvalReshapeReferenceEP13TfLiteContextP10TfLiteNode+0x78>
    1a20:	00040513          	mv	a0,s0
    1a24:	01c12083          	lw	ra,28(sp)
    1a28:	01812403          	lw	s0,24(sp)
    1a2c:	01412483          	lw	s1,20(sp)
    1a30:	01012903          	lw	s2,16(sp)
    1a34:	02010113          	addi	sp,sp,32
    1a38:	00008067          	ret
    1a3c:	0044a503          	lw	a0,4(s1)
    1a40:	00000097          	auipc	ra,0x0
    1a44:	6e0080e7          	jalr	1760(ra) # 2120 <_ZN6tflite12ElementCountERK14TfLiteIntArray>
    1a48:	00c12603          	lw	a2,12(sp)
    1a4c:	0004a583          	lw	a1,0(s1)
    1a50:	00092783          	lw	a5,0(s2)
    1a54:	02c50633          	mul	a2,a0,a2
    1a58:	00c12623          	sw	a2,12(sp)
    1a5c:	fcf582e3          	beq	a1,a5,1a20 <_ZN6tflite12_GLOBAL__N_120EvalReshapeReferenceEP13TfLiteContextP10TfLiteNode+0x5c>
    1a60:	00078513          	mv	a0,a5
    1a64:	00004097          	auipc	ra,0x4
    1a68:	638080e7          	jalr	1592(ra) # 609c <memcpy>
    1a6c:	00040513          	mv	a0,s0
    1a70:	01c12083          	lw	ra,28(sp)
    1a74:	01812403          	lw	s0,24(sp)
    1a78:	01412483          	lw	s1,20(sp)
    1a7c:	01012903          	lw	s2,16(sp)
    1a80:	02010113          	addi	sp,sp,32
    1a84:	00008067          	ret

00001a88 <_ZN6tflite16Register_RESHAPEEv>:
    1a88:	00000697          	auipc	a3,0x0
    1a8c:	00000617          	auipc	a2,0x0
    1a90:	ff010113          	addi	sp,sp,-16
    1a94:	00000793          	li	a5,0
    1a98:	00000713          	li	a4,0
    1a9c:	f3c68693          	addi	a3,a3,-196 # 19c4 <_ZN6tflite12_GLOBAL__N_120EvalReshapeReferenceEP13TfLiteContextP10TfLiteNode>
    1aa0:	42860613          	addi	a2,a2,1064 # 1eb4 <_ZN6tflite23PrepareReshapeReferenceEP13TfLiteContextP10TfLiteNode>
    1aa4:	00000593          	li	a1,0
    1aa8:	00812423          	sw	s0,8(sp)
    1aac:	00112623          	sw	ra,12(sp)
    1ab0:	00050413          	mv	s0,a0
    1ab4:	00001097          	auipc	ra,0x1
    1ab8:	980080e7          	jalr	-1664(ra) # 2434 <_ZN6tflite5micro10RegisterOpEPFPvP13TfLiteContextPKcjEPF12TfLiteStatusS3_P10TfLiteNodeESC_PFvS3_S1_ESE_>
    1abc:	00040513          	mv	a0,s0
    1ac0:	00c12083          	lw	ra,12(sp)
    1ac4:	00812403          	lw	s0,8(sp)
    1ac8:	01010113          	addi	sp,sp,16
    1acc:	00008067          	ret

00001ad0 <_ZN6tflite12_GLOBAL__N_113ReshapeOutputEP13TfLiteContextP10TfLiteNode>:
    1ad0:	fb010113          	addi	sp,sp,-80
    1ad4:	03512a23          	sw	s5,52(sp)
    1ad8:	00c52a83          	lw	s5,12(a0)
    1adc:	03412c23          	sw	s4,56(sp)
    1ae0:	00000613          	li	a2,0
    1ae4:	00050a13          	mv	s4,a0
    1ae8:	000a8513          	mv	a0,s5
    1aec:	04112623          	sw	ra,76(sp)
    1af0:	04812423          	sw	s0,72(sp)
    1af4:	04912223          	sw	s1,68(sp)
    1af8:	05212023          	sw	s2,64(sp)
    1afc:	03312e23          	sw	s3,60(sp)
    1b00:	03612823          	sw	s6,48(sp)
    1b04:	03712623          	sw	s7,44(sp)
    1b08:	03812423          	sw	s8,40(sp)
    1b0c:	03912223          	sw	s9,36(sp)
    1b10:	03a12023          	sw	s10,32(sp)
    1b14:	01b12e23          	sw	s11,28(sp)
    1b18:	00b12623          	sw	a1,12(sp)
    1b1c:	00000097          	auipc	ra,0x0
    1b20:	594080e7          	jalr	1428(ra) # 20b0 <_ZN6tflite12MicroContext23AllocateTempInputTensorEPK10TfLiteNodei>
    1b24:	22050063          	beqz	a0,1d44 <_ZN6tflite12_GLOBAL__N_113ReshapeOutputEP13TfLiteContextP10TfLiteNode+0x274>
    1b28:	00c12583          	lw	a1,12(sp)
    1b2c:	00050b13          	mv	s6,a0
    1b30:	00000613          	li	a2,0
    1b34:	000a8513          	mv	a0,s5
    1b38:	00000097          	auipc	ra,0x0
    1b3c:	5b0080e7          	jalr	1456(ra) # 20e8 <_ZN6tflite12MicroContext24AllocateTempOutputTensorEPK10TfLiteNodei>
    1b40:	00050b93          	mv	s7,a0
    1b44:	18050c63          	beqz	a0,1cdc <_ZN6tflite12_GLOBAL__N_113ReshapeOutputEP13TfLiteContextP10TfLiteNode+0x20c>
    1b48:	014b2d83          	lw	s11,20(s6)
    1b4c:	000da483          	lw	s1,0(s11)
    1b50:	32905063          	blez	s1,1e70 <_ZN6tflite12_GLOBAL__N_113ReshapeOutputEP13TfLiteContextP10TfLiteNode+0x3a0>
    1b54:	004dac83          	lw	s9,4(s11)
    1b58:	80000737          	lui	a4,0x80000
    1b5c:	fff74713          	not	a4,a4
    1b60:	41fcd793          	srai	a5,s9,0x1f
    1b64:	34ec8463          	beq	s9,a4,1eac <_ZN6tflite12_GLOBAL__N_113ReshapeOutputEP13TfLiteContextP10TfLiteNode+0x3dc>
    1b68:	80000937          	lui	s2,0x80000
    1b6c:	008d8d93          	addi	s11,s11,8
    1b70:	00100d13          	li	s10,1
    1b74:	00000413          	li	s0,0
    1b78:	00000c13          	li	s8,0
    1b7c:	fff94913          	not	s2,s2
    1b80:	00000993          	li	s3,0
    1b84:	0200006f          	j	1ba4 <_ZN6tflite12_GLOBAL__N_113ReshapeOutputEP13TfLiteContextP10TfLiteNode+0xd4>
    1b88:	1e805663          	blez	s0,1d74 <_ZN6tflite12_GLOBAL__N_113ReshapeOutputEP13TfLiteContextP10TfLiteNode+0x2a4>
    1b8c:	000dac83          	lw	s9,0(s11)
    1b90:	00001097          	auipc	ra,0x1
    1b94:	cfc080e7          	jalr	-772(ra) # 288c <__divdi3>
    1b98:	004d8d93          	addi	s11,s11,4
    1b9c:	41fcd793          	srai	a5,s9,0x1f
    1ba0:	2cb7dc63          	bge	a5,a1,1e78 <_ZN6tflite12_GLOBAL__N_113ReshapeOutputEP13TfLiteContextP10TfLiteNode+0x3a8>
    1ba4:	03940433          	mul	s0,s0,s9
    1ba8:	001c0c13          	addi	s8,s8,1
    1bac:	00090513          	mv	a0,s2
    1bb0:	00098593          	mv	a1,s3
    1bb4:	03a787b3          	mul	a5,a5,s10
    1bb8:	00f407b3          	add	a5,s0,a5
    1bbc:	039d3433          	mulhu	s0,s10,s9
    1bc0:	039d0833          	mul	a6,s10,s9
    1bc4:	00878433          	add	s0,a5,s0
    1bc8:	00040693          	mv	a3,s0
    1bcc:	00080613          	mv	a2,a6
    1bd0:	00080d13          	mv	s10,a6
    1bd4:	fb849ae3          	bne	s1,s8,1b88 <_ZN6tflite12_GLOBAL__N_113ReshapeOutputEP13TfLiteContextP10TfLiteNode+0xb8>
    1bd8:	00c12783          	lw	a5,12(sp)
    1bdc:	014ba703          	lw	a4,20(s7)
    1be0:	0007a783          	lw	a5,0(a5)
    1be4:	00072603          	lw	a2,0(a4) # 80000000 <__stack_top+0xfffb6180>
    1be8:	00078863          	beqz	a5,1bf8 <_ZN6tflite12_GLOBAL__N_113ReshapeOutputEP13TfLiteContextP10TfLiteNode+0x128>
    1bec:	0007a403          	lw	s0,0(a5)
    1bf0:	00100793          	li	a5,1
    1bf4:	18f40863          	beq	s0,a5,1d84 <_ZN6tflite12_GLOBAL__N_113ReshapeOutputEP13TfLiteContextP10TfLiteNode+0x2b4>
    1bf8:	26c05063          	blez	a2,1e58 <_ZN6tflite12_GLOBAL__N_113ReshapeOutputEP13TfLiteContextP10TfLiteNode+0x388>
    1bfc:	00472683          	lw	a3,4(a4)
    1c00:	fff00593          	li	a1,-1
    1c04:	00870713          	addi	a4,a4,8
    1c08:	fff00493          	li	s1,-1
    1c0c:	00100413          	li	s0,1
    1c10:	00000793          	li	a5,0
    1c14:	00b68e63          	beq	a3,a1,1c30 <_ZN6tflite12_GLOBAL__N_113ReshapeOutputEP13TfLiteContextP10TfLiteNode+0x160>
    1c18:	00178793          	addi	a5,a5,1
    1c1c:	02d40433          	mul	s0,s0,a3
    1c20:	02c7d063          	bge	a5,a2,1c40 <_ZN6tflite12_GLOBAL__N_113ReshapeOutputEP13TfLiteContextP10TfLiteNode+0x170>
    1c24:	00072683          	lw	a3,0(a4)
    1c28:	00470713          	addi	a4,a4,4
    1c2c:	feb696e3          	bne	a3,a1,1c18 <_ZN6tflite12_GLOBAL__N_113ReshapeOutputEP13TfLiteContextP10TfLiteNode+0x148>
    1c30:	18d49863          	bne	s1,a3,1dc0 <_ZN6tflite12_GLOBAL__N_113ReshapeOutputEP13TfLiteContextP10TfLiteNode+0x2f0>
    1c34:	00078493          	mv	s1,a5
    1c38:	00178793          	addi	a5,a5,1
    1c3c:	fec7c4e3          	blt	a5,a2,1c24 <_ZN6tflite12_GLOBAL__N_113ReshapeOutputEP13TfLiteContextP10TfLiteNode+0x154>
    1c40:	fff00793          	li	a5,-1
    1c44:	04f48463          	beq	s1,a5,1c8c <_ZN6tflite12_GLOBAL__N_113ReshapeOutputEP13TfLiteContextP10TfLiteNode+0x1bc>
    1c48:	00c12583          	lw	a1,12(sp)
    1c4c:	00000613          	li	a2,0
    1c50:	000a0513          	mv	a0,s4
    1c54:	00001097          	auipc	ra,0x1
    1c58:	85c080e7          	jalr	-1956(ra) # 24b0 <_ZN6tflite5micro13GetEvalOutputEPK13TfLiteContextPK10TfLiteNodei>
    1c5c:	00050613          	mv	a2,a0
    1c60:	000b8593          	mv	a1,s7
    1c64:	000a0513          	mv	a0,s4
    1c68:	00001097          	auipc	ra,0x1
    1c6c:	8ec080e7          	jalr	-1812(ra) # 2554 <_ZN6tflite5micro32CreateWritableTensorDimsWithCopyEP13TfLiteContextP12TfLiteTensorP16TfLiteEvalTensor>
    1c70:	08051c63          	bnez	a0,1d08 <_ZN6tflite12_GLOBAL__N_113ReshapeOutputEP13TfLiteContextP10TfLiteNode+0x238>
    1c74:	028d4733          	div	a4,s10,s0
    1c78:	014ba783          	lw	a5,20(s7)
    1c7c:	00249493          	slli	s1,s1,0x2
    1c80:	009784b3          	add	s1,a5,s1
    1c84:	02e40433          	mul	s0,s0,a4
    1c88:	00e4a223          	sw	a4,4(s1)
    1c8c:	01cb2503          	lw	a0,28(s6)
    1c90:	01cba783          	lw	a5,28(s7)
    1c94:	16f51663          	bne	a0,a5,1e00 <_ZN6tflite12_GLOBAL__N_113ReshapeOutputEP13TfLiteContextP10TfLiteNode+0x330>
    1c98:	0fa40c63          	beq	s0,s10,1d90 <_ZN6tflite12_GLOBAL__N_113ReshapeOutputEP13TfLiteContextP10TfLiteNode+0x2c0>
    1c9c:	014a2303          	lw	t1,20(s4)
    1ca0:	7ffff797          	auipc	a5,0x7ffff
    1ca4:	7ffff717          	auipc	a4,0x7ffff
    1ca8:	7fffe617          	auipc	a2,0x7fffe
    1cac:	7fffe597          	auipc	a1,0x7fffe
    1cb0:	000a0513          	mv	a0,s4
    1cb4:	00040893          	mv	a7,s0
    1cb8:	000d0813          	mv	a6,s10
    1cbc:	83078793          	addi	a5,a5,-2000 # 800004d0 <_ZZNK11flatbuffers6VectorIlmE3GetEmE19__PRETTY_FUNCTION__+0x2a0>
    1cc0:	84070713          	addi	a4,a4,-1984 # 800004e4 <_ZZNK11flatbuffers6VectorIlmE3GetEmE19__PRETTY_FUNCTION__+0x2b4>
    1cc4:	04e00693          	li	a3,78
    1cc8:	75c60613          	addi	a2,a2,1884 # 80000404 <_ZZNK11flatbuffers6VectorIlmE3GetEmE19__PRETTY_FUNCTION__+0x1d4>
    1ccc:	7d058593          	addi	a1,a1,2000 # 8000047c <_ZZNK11flatbuffers6VectorIlmE3GetEmE19__PRETTY_FUNCTION__+0x24c>
    1cd0:	000300e7          	jalr	t1
    1cd4:	00100513          	li	a0,1
    1cd8:	0300006f          	j	1d08 <_ZN6tflite12_GLOBAL__N_113ReshapeOutputEP13TfLiteContextP10TfLiteNode+0x238>
    1cdc:	014a2783          	lw	a5,20(s4)
    1ce0:	7fffe717          	auipc	a4,0x7fffe
    1ce4:	7fffe617          	auipc	a2,0x7fffe
    1ce8:	7fffe597          	auipc	a1,0x7fffe
    1cec:	000a0513          	mv	a0,s4
    1cf0:	6a470713          	addi	a4,a4,1700 # 80000384 <_ZZNK11flatbuffers6VectorIlmE3GetEmE19__PRETTY_FUNCTION__+0x154>
    1cf4:	02800693          	li	a3,40
    1cf8:	72060613          	addi	a2,a2,1824 # 80000404 <_ZZNK11flatbuffers6VectorIlmE3GetEmE19__PRETTY_FUNCTION__+0x1d4>
    1cfc:	53058593          	addi	a1,a1,1328 # 80000218 <__trunctfdf2+0x7ffed1b8>
    1d00:	000780e7          	jalr	a5
    1d04:	00100513          	li	a0,1
    1d08:	04c12083          	lw	ra,76(sp)
    1d0c:	04812403          	lw	s0,72(sp)
    1d10:	04412483          	lw	s1,68(sp)
    1d14:	04012903          	lw	s2,64(sp)
    1d18:	03c12983          	lw	s3,60(sp)
    1d1c:	03812a03          	lw	s4,56(sp)
    1d20:	03412a83          	lw	s5,52(sp)
    1d24:	03012b03          	lw	s6,48(sp)
    1d28:	02c12b83          	lw	s7,44(sp)
    1d2c:	02812c03          	lw	s8,40(sp)
    1d30:	02412c83          	lw	s9,36(sp)
    1d34:	02012d03          	lw	s10,32(sp)
    1d38:	01c12d83          	lw	s11,28(sp)
    1d3c:	05010113          	addi	sp,sp,80
    1d40:	00008067          	ret
    1d44:	014a2783          	lw	a5,20(s4)
    1d48:	7fffe717          	auipc	a4,0x7fffe
    1d4c:	7fffe617          	auipc	a2,0x7fffe
    1d50:	7fffe597          	auipc	a1,0x7fffe
    1d54:	000a0513          	mv	a0,s4
    1d58:	5f870713          	addi	a4,a4,1528 # 80000340 <_ZZNK11flatbuffers6VectorIlmE3GetEmE19__PRETTY_FUNCTION__+0x110>
    1d5c:	02500693          	li	a3,37
    1d60:	6b860613          	addi	a2,a2,1720 # 80000404 <_ZZNK11flatbuffers6VectorIlmE3GetEmE19__PRETTY_FUNCTION__+0x1d4>
    1d64:	4c858593          	addi	a1,a1,1224 # 80000218 <__trunctfdf2+0x7ffed1b8>
    1d68:	000780e7          	jalr	a5
    1d6c:	00100513          	li	a0,1
    1d70:	f99ff06f          	j	1d08 <_ZN6tflite12_GLOBAL__N_113ReshapeOutputEP13TfLiteContextP10TfLiteNode+0x238>
    1d74:	00041463          	bnez	s0,1d7c <_ZN6tflite12_GLOBAL__N_113ReshapeOutputEP13TfLiteContextP10TfLiteNode+0x2ac>
    1d78:	e00d1ae3          	bnez	s10,1b8c <_ZN6tflite12_GLOBAL__N_113ReshapeOutputEP13TfLiteContextP10TfLiteNode+0xbc>
    1d7c:	00080d13          	mv	s10,a6
    1d80:	e59ff06f          	j	1bd8 <_ZN6tflite12_GLOBAL__N_113ReshapeOutputEP13TfLiteContextP10TfLiteNode+0x108>
    1d84:	0c860e63          	beq	a2,s0,1e60 <_ZN6tflite12_GLOBAL__N_113ReshapeOutputEP13TfLiteContextP10TfLiteNode+0x390>
    1d88:	e6c04ae3          	bgtz	a2,1bfc <_ZN6tflite12_GLOBAL__N_113ReshapeOutputEP13TfLiteContextP10TfLiteNode+0x12c>
    1d8c:	f01ff06f          	j	1c8c <_ZN6tflite12_GLOBAL__N_113ReshapeOutputEP13TfLiteContextP10TfLiteNode+0x1bc>
    1d90:	000aa783          	lw	a5,0(s5)
    1d94:	000b0593          	mv	a1,s6
    1d98:	000a8513          	mv	a0,s5
    1d9c:	0187a783          	lw	a5,24(a5)
    1da0:	000780e7          	jalr	a5
    1da4:	000aa783          	lw	a5,0(s5)
    1da8:	000a8513          	mv	a0,s5
    1dac:	000b8593          	mv	a1,s7
    1db0:	0187a783          	lw	a5,24(a5)
    1db4:	000780e7          	jalr	a5
    1db8:	00000513          	li	a0,0
    1dbc:	f4dff06f          	j	1d08 <_ZN6tflite12_GLOBAL__N_113ReshapeOutputEP13TfLiteContextP10TfLiteNode+0x238>
    1dc0:	014a2303          	lw	t1,20(s4)
    1dc4:	7fffe797          	auipc	a5,0x7fffe
    1dc8:	7fffe717          	auipc	a4,0x7fffe
    1dcc:	7fffe617          	auipc	a2,0x7fffe
    1dd0:	7fffe597          	auipc	a1,0x7fffe
    1dd4:	000a0513          	mv	a0,s4
    1dd8:	fff00893          	li	a7,-1
    1ddc:	00048813          	mv	a6,s1
    1de0:	6a878793          	addi	a5,a5,1704 # 8000046c <_ZZNK11flatbuffers6VectorIlmE3GetEmE19__PRETTY_FUNCTION__+0x23c>
    1de4:	6a870713          	addi	a4,a4,1704 # 80000470 <_ZZNK11flatbuffers6VectorIlmE3GetEmE19__PRETTY_FUNCTION__+0x240>
    1de8:	03d00693          	li	a3,61
    1dec:	63860613          	addi	a2,a2,1592 # 80000404 <_ZZNK11flatbuffers6VectorIlmE3GetEmE19__PRETTY_FUNCTION__+0x1d4>
    1df0:	6ac58593          	addi	a1,a1,1708 # 8000047c <_ZZNK11flatbuffers6VectorIlmE3GetEmE19__PRETTY_FUNCTION__+0x24c>
    1df4:	000300e7          	jalr	t1
    1df8:	00100513          	li	a0,1
    1dfc:	f0dff06f          	j	1d08 <_ZN6tflite12_GLOBAL__N_113ReshapeOutputEP13TfLiteContextP10TfLiteNode+0x238>
    1e00:	014a2403          	lw	s0,20(s4)
    1e04:	00000097          	auipc	ra,0x0
    1e08:	604080e7          	jalr	1540(ra) # 2408 <TfLiteTypeGetName>
    1e0c:	00050493          	mv	s1,a0
    1e10:	01cba503          	lw	a0,28(s7)
    1e14:	00000097          	auipc	ra,0x0
    1e18:	5f4080e7          	jalr	1524(ra) # 2408 <TfLiteTypeGetName>
    1e1c:	7fffe797          	auipc	a5,0x7fffe
    1e20:	7fffe717          	auipc	a4,0x7fffe
    1e24:	7fffe617          	auipc	a2,0x7fffe
    1e28:	7fffe597          	auipc	a1,0x7fffe
    1e2c:	00050893          	mv	a7,a0
    1e30:	00048813          	mv	a6,s1
    1e34:	000a0513          	mv	a0,s4
    1e38:	67c78793          	addi	a5,a5,1660 # 80000498 <_ZZNK11flatbuffers6VectorIlmE3GetEmE19__PRETTY_FUNCTION__+0x268>
    1e3c:	68870713          	addi	a4,a4,1672 # 800004a8 <_ZZNK11flatbuffers6VectorIlmE3GetEmE19__PRETTY_FUNCTION__+0x278>
    1e40:	04d00693          	li	a3,77
    1e44:	5e060613          	addi	a2,a2,1504 # 80000404 <_ZZNK11flatbuffers6VectorIlmE3GetEmE19__PRETTY_FUNCTION__+0x1d4>
    1e48:	68c58593          	addi	a1,a1,1676 # 800004b4 <_ZZNK11flatbuffers6VectorIlmE3GetEmE19__PRETTY_FUNCTION__+0x284>
    1e4c:	000400e7          	jalr	s0
    1e50:	00100513          	li	a0,1
    1e54:	eb5ff06f          	j	1d08 <_ZN6tflite12_GLOBAL__N_113ReshapeOutputEP13TfLiteContextP10TfLiteNode+0x238>
    1e58:	00100413          	li	s0,1
    1e5c:	e31ff06f          	j	1c8c <_ZN6tflite12_GLOBAL__N_113ReshapeOutputEP13TfLiteContextP10TfLiteNode+0x1bc>
    1e60:	00472683          	lw	a3,4(a4)
    1e64:	d8069ee3          	bnez	a3,1c00 <_ZN6tflite12_GLOBAL__N_113ReshapeOutputEP13TfLiteContextP10TfLiteNode+0x130>
    1e68:	00072023          	sw	zero,0(a4)
    1e6c:	e21ff06f          	j	1c8c <_ZN6tflite12_GLOBAL__N_113ReshapeOutputEP13TfLiteContextP10TfLiteNode+0x1bc>
    1e70:	00100d13          	li	s10,1
    1e74:	d65ff06f          	j	1bd8 <_ZN6tflite12_GLOBAL__N_113ReshapeOutputEP13TfLiteContextP10TfLiteNode+0x108>
    1e78:	00f59463          	bne	a1,a5,1e80 <_ZN6tflite12_GLOBAL__N_113ReshapeOutputEP13TfLiteContextP10TfLiteNode+0x3b0>
    1e7c:	d2ace4e3          	bltu	s9,a0,1ba4 <_ZN6tflite12_GLOBAL__N_113ReshapeOutputEP13TfLiteContextP10TfLiteNode+0xd4>
    1e80:	7fffe597          	auipc	a1,0x7fffe
    1e84:	7fffe517          	auipc	a0,0x7fffe
    1e88:	5e450513          	addi	a0,a0,1508 # 80000468 <_ZZNK11flatbuffers6VectorIlmE3GetEmE19__PRETTY_FUNCTION__+0x238>
    1e8c:	5b458593          	addi	a1,a1,1460 # 80000434 <_ZZNK11flatbuffers6VectorIlmE3GetEmE19__PRETTY_FUNCTION__+0x204>
    1e90:	ffffe097          	auipc	ra,0xffffe
    1e94:	410080e7          	jalr	1040(ra) # 2a0 <_Z11MicroPrintfPKcz>
    1e98:	7fffe517          	auipc	a0,0x7fffe
    1e9c:	25450513          	addi	a0,a0,596 # 800000ec <__trunctfdf2+0x7ffed08c>
    1ea0:	ffffe097          	auipc	ra,0xffffe
    1ea4:	400080e7          	jalr	1024(ra) # 2a0 <_Z11MicroPrintfPKcz>
    1ea8:	0000006f          	j	1ea8 <_ZN6tflite12_GLOBAL__N_113ReshapeOutputEP13TfLiteContextP10TfLiteNode+0x3d8>
    1eac:	ca079ee3          	bnez	a5,1b68 <_ZN6tflite12_GLOBAL__N_113ReshapeOutputEP13TfLiteContextP10TfLiteNode+0x98>
    1eb0:	fd1ff06f          	j	1e80 <_ZN6tflite12_GLOBAL__N_113ReshapeOutputEP13TfLiteContextP10TfLiteNode+0x3b0>

00001eb4 <_ZN6tflite23PrepareReshapeReferenceEP13TfLiteContextP10TfLiteNode>:
    1eb4:	0005a783          	lw	a5,0(a1)
    1eb8:	ff010113          	addi	sp,sp,-16
    1ebc:	00812423          	sw	s0,8(sp)
    1ec0:	00112623          	sw	ra,12(sp)
    1ec4:	00912223          	sw	s1,4(sp)
    1ec8:	00050413          	mv	s0,a0
    1ecc:	00078a63          	beqz	a5,1ee0 <_ZN6tflite23PrepareReshapeReferenceEP13TfLiteContextP10TfLiteNode+0x2c>
    1ed0:	0007a783          	lw	a5,0(a5)
    1ed4:	00100713          	li	a4,1
    1ed8:	fff78793          	addi	a5,a5,-1
    1edc:	04f77463          	bgeu	a4,a5,1f24 <_ZN6tflite23PrepareReshapeReferenceEP13TfLiteContextP10TfLiteNode+0x70>
    1ee0:	01442783          	lw	a5,20(s0)
    1ee4:	7fffe717          	auipc	a4,0x7fffe
    1ee8:	7fffe617          	auipc	a2,0x7fffe
    1eec:	7fffe597          	auipc	a1,0x7fffe
    1ef0:	61470713          	addi	a4,a4,1556 # 800004f8 <_ZZNK11flatbuffers6VectorIlmE3GetEmE19__PRETTY_FUNCTION__+0x2c8>
    1ef4:	05800693          	li	a3,88
    1ef8:	51c60613          	addi	a2,a2,1308 # 80000404 <_ZZNK11flatbuffers6VectorIlmE3GetEmE19__PRETTY_FUNCTION__+0x1d4>
    1efc:	32c58593          	addi	a1,a1,812 # 80000218 <__trunctfdf2+0x7ffed1b8>
    1f00:	00040513          	mv	a0,s0
    1f04:	000780e7          	jalr	a5
    1f08:	00100793          	li	a5,1
    1f0c:	00c12083          	lw	ra,12(sp)
    1f10:	00812403          	lw	s0,8(sp)
    1f14:	00412483          	lw	s1,4(sp)
    1f18:	00078513          	mv	a0,a5
    1f1c:	01010113          	addi	sp,sp,16
    1f20:	00008067          	ret
    1f24:	0045a783          	lw	a5,4(a1)
    1f28:	00058493          	mv	s1,a1
    1f2c:	04078e63          	beqz	a5,1f88 <_ZN6tflite23PrepareReshapeReferenceEP13TfLiteContextP10TfLiteNode+0xd4>
    1f30:	0007a803          	lw	a6,0(a5)
    1f34:	06e80063          	beq	a6,a4,1f94 <_ZN6tflite23PrepareReshapeReferenceEP13TfLiteContextP10TfLiteNode+0xe0>
    1f38:	01452303          	lw	t1,20(a0)
    1f3c:	7fffe797          	auipc	a5,0x7fffe
    1f40:	7fffe717          	auipc	a4,0x7fffe
    1f44:	7fffe617          	auipc	a2,0x7fffe
    1f48:	7fffe597          	auipc	a1,0x7fffe
    1f4c:	00040513          	mv	a0,s0
    1f50:	5ec78793          	addi	a5,a5,1516 # 80000528 <_ZZNK11flatbuffers6VectorIlmE3GetEmE19__PRETTY_FUNCTION__+0x2f8>
    1f54:	00100893          	li	a7,1
    1f58:	5ec70713          	addi	a4,a4,1516 # 8000052c <_ZZNK11flatbuffers6VectorIlmE3GetEmE19__PRETTY_FUNCTION__+0x2fc>
    1f5c:	05900693          	li	a3,89
    1f60:	4c060613          	addi	a2,a2,1216 # 80000404 <_ZZNK11flatbuffers6VectorIlmE3GetEmE19__PRETTY_FUNCTION__+0x1d4>
    1f64:	53458593          	addi	a1,a1,1332 # 8000047c <_ZZNK11flatbuffers6VectorIlmE3GetEmE19__PRETTY_FUNCTION__+0x24c>
    1f68:	000300e7          	jalr	t1
    1f6c:	00c12083          	lw	ra,12(sp)
    1f70:	00812403          	lw	s0,8(sp)
    1f74:	00100793          	li	a5,1
    1f78:	00412483          	lw	s1,4(sp)
    1f7c:	00078513          	mv	a0,a5
    1f80:	01010113          	addi	sp,sp,16
    1f84:	00008067          	ret
    1f88:	01452303          	lw	t1,20(a0)
    1f8c:	00000813          	li	a6,0
    1f90:	fadff06f          	j	1f3c <_ZN6tflite23PrepareReshapeReferenceEP13TfLiteContextP10TfLiteNode+0x88>
    1f94:	00000097          	auipc	ra,0x0
    1f98:	b3c080e7          	jalr	-1220(ra) # 1ad0 <_ZN6tflite12_GLOBAL__N_113ReshapeOutputEP13TfLiteContextP10TfLiteNode>
    1f9c:	00000793          	li	a5,0
    1fa0:	f60506e3          	beqz	a0,1f0c <_ZN6tflite23PrepareReshapeReferenceEP13TfLiteContextP10TfLiteNode+0x58>
    1fa4:	00048593          	mv	a1,s1
    1fa8:	00040513          	mv	a0,s0
    1fac:	01442483          	lw	s1,20(s0)
    1fb0:	00000097          	auipc	ra,0x0
    1fb4:	b20080e7          	jalr	-1248(ra) # 1ad0 <_ZN6tflite12_GLOBAL__N_113ReshapeOutputEP13TfLiteContextP10TfLiteNode>
    1fb8:	7fffe797          	auipc	a5,0x7fffe
    1fbc:	7fffe717          	auipc	a4,0x7fffe
    1fc0:	7fffe617          	auipc	a2,0x7fffe
    1fc4:	7fffe597          	auipc	a1,0x7fffe
    1fc8:	00050813          	mv	a6,a0
    1fcc:	58878793          	addi	a5,a5,1416 # 80000540 <_ZZNK11flatbuffers6VectorIlmE3GetEmE19__PRETTY_FUNCTION__+0x310>
    1fd0:	00000893          	li	a7,0
    1fd4:	59070713          	addi	a4,a4,1424 # 8000054c <_ZZNK11flatbuffers6VectorIlmE3GetEmE19__PRETTY_FUNCTION__+0x31c>
    1fd8:	05a00693          	li	a3,90
    1fdc:	44460613          	addi	a2,a2,1092 # 80000404 <_ZZNK11flatbuffers6VectorIlmE3GetEmE19__PRETTY_FUNCTION__+0x1d4>
    1fe0:	4b858593          	addi	a1,a1,1208 # 8000047c <_ZZNK11flatbuffers6VectorIlmE3GetEmE19__PRETTY_FUNCTION__+0x24c>
    1fe4:	00040513          	mv	a0,s0
    1fe8:	000480e7          	jalr	s1
    1fec:	00100793          	li	a5,1
    1ff0:	f1dff06f          	j	1f0c <_ZN6tflite23PrepareReshapeReferenceEP13TfLiteContextP10TfLiteNode+0x58>

00001ff4 <DebugLog>:
    1ff4:	ef010113          	addi	sp,sp,-272
    1ff8:	00050613          	mv	a2,a0
    1ffc:	00058693          	mv	a3,a1
    2000:	00010513          	mv	a0,sp
    2004:	10000593          	li	a1,256
    2008:	10112623          	sw	ra,268(sp)
    200c:	00008097          	auipc	ra,0x8
    2010:	de0080e7          	jalr	-544(ra) # 9dec <vsnprintf>
    2014:	00010793          	mv	a5,sp
    2018:	00a00613          	li	a2,10
    201c:	40600737          	lui	a4,0x40600
    2020:	00d00593          	li	a1,13
    2024:	0007c683          	lbu	a3,0(a5)
    2028:	00068e63          	beqz	a3,2044 <DebugLog+0x50>
    202c:	00c69463          	bne	a3,a2,2034 <DebugLog+0x40>
    2030:	00b72223          	sw	a1,4(a4) # 40600004 <__trunctfdf2+0x405ecfa4>
    2034:	00178793          	addi	a5,a5,1
    2038:	fff7c683          	lbu	a3,-1(a5)
    203c:	00d72223          	sw	a3,4(a4)
    2040:	fe5ff06f          	j	2024 <DebugLog+0x30>
    2044:	10c12083          	lw	ra,268(sp)
    2048:	11010113          	addi	sp,sp,272
    204c:	00008067          	ret

00002050 <_ZN6tflite16TfLiteTypeSizeOfE10TfLiteTypePj>:
    2050:	fff50513          	addi	a0,a0,-1
    2054:	01200793          	li	a5,18
    2058:	04a7e863          	bltu	a5,a0,20a8 <_ZN6tflite16TfLiteTypeSizeOfE10TfLiteTypePj+0x58>
    205c:	7fffe797          	auipc	a5,0x7fffe
    2060:	51078793          	addi	a5,a5,1296 # 8000056c <_ZZNK11flatbuffers6VectorIlmE3GetEmE19__PRETTY_FUNCTION__+0x33c>
    2064:	00251513          	slli	a0,a0,0x2
    2068:	00f50533          	add	a0,a0,a5
    206c:	00052703          	lw	a4,0(a0)
    2070:	00f707b3          	add	a5,a4,a5
    2074:	00078067          	jr	a5
    2078:	00200793          	li	a5,2
    207c:	00f5a023          	sw	a5,0(a1)
    2080:	00000513          	li	a0,0
    2084:	00008067          	ret
    2088:	00400793          	li	a5,4
    208c:	ff1ff06f          	j	207c <_ZN6tflite16TfLiteTypeSizeOfE10TfLiteTypePj+0x2c>
    2090:	00800793          	li	a5,8
    2094:	fe9ff06f          	j	207c <_ZN6tflite16TfLiteTypeSizeOfE10TfLiteTypePj+0x2c>
    2098:	00100793          	li	a5,1
    209c:	fe1ff06f          	j	207c <_ZN6tflite16TfLiteTypeSizeOfE10TfLiteTypePj+0x2c>
    20a0:	01000793          	li	a5,16
    20a4:	fd9ff06f          	j	207c <_ZN6tflite16TfLiteTypeSizeOfE10TfLiteTypePj+0x2c>
    20a8:	00100513          	li	a0,1
    20ac:	00008067          	ret

000020b0 <_ZN6tflite12MicroContext23AllocateTempInputTensorEPK10TfLiteNodei>:
    20b0:	0005a783          	lw	a5,0(a1)
    20b4:	0007a683          	lw	a3,0(a5)
    20b8:	00478793          	addi	a5,a5,4
    20bc:	02064263          	bltz	a2,20e0 <_ZN6tflite12MicroContext23AllocateTempInputTensorEPK10TfLiteNodei+0x30>
    20c0:	02d65063          	bge	a2,a3,20e0 <_ZN6tflite12MicroContext23AllocateTempInputTensorEPK10TfLiteNodei+0x30>
    20c4:	00261613          	slli	a2,a2,0x2
    20c8:	00c787b3          	add	a5,a5,a2
    20cc:	0007a583          	lw	a1,0(a5)
    20d0:	0005c863          	bltz	a1,20e0 <_ZN6tflite12MicroContext23AllocateTempInputTensorEPK10TfLiteNodei+0x30>
    20d4:	00052783          	lw	a5,0(a0)
    20d8:	0147a303          	lw	t1,20(a5)
    20dc:	00030067          	jr	t1
    20e0:	00000513          	li	a0,0
    20e4:	00008067          	ret

000020e8 <_ZN6tflite12MicroContext24AllocateTempOutputTensorEPK10TfLiteNodei>:
    20e8:	0045a783          	lw	a5,4(a1)
    20ec:	0007a683          	lw	a3,0(a5)
    20f0:	00478793          	addi	a5,a5,4
    20f4:	02064263          	bltz	a2,2118 <_ZN6tflite12MicroContext24AllocateTempOutputTensorEPK10TfLiteNodei+0x30>
    20f8:	02d65063          	bge	a2,a3,2118 <_ZN6tflite12MicroContext24AllocateTempOutputTensorEPK10TfLiteNodei+0x30>
    20fc:	00261613          	slli	a2,a2,0x2
    2100:	00c787b3          	add	a5,a5,a2
    2104:	0007a583          	lw	a1,0(a5)
    2108:	0005c863          	bltz	a1,2118 <_ZN6tflite12MicroContext24AllocateTempOutputTensorEPK10TfLiteNodei+0x30>
    210c:	00052783          	lw	a5,0(a0)
    2110:	0147a303          	lw	t1,20(a5)
    2114:	00030067          	jr	t1
    2118:	00000513          	li	a0,0
    211c:	00008067          	ret

00002120 <_ZN6tflite12ElementCountERK14TfLiteIntArray>:
    2120:	00052603          	lw	a2,0(a0)
    2124:	00450793          	addi	a5,a0,4
    2128:	00000713          	li	a4,0
    212c:	00100513          	li	a0,1
    2130:	00c75c63          	bge	a4,a2,2148 <_ZN6tflite12ElementCountERK14TfLiteIntArray+0x28>
    2134:	0007a683          	lw	a3,0(a5)
    2138:	00170713          	addi	a4,a4,1
    213c:	00478793          	addi	a5,a5,4
    2140:	02d50533          	mul	a0,a0,a3
    2144:	fedff06f          	j	2130 <_ZN6tflite12ElementCountERK14TfLiteIntArray+0x10>
    2148:	00008067          	ret

0000214c <_ZN6tflite12_GLOBAL__N_18QuantizeEP13TfLiteContextflfRl>:
    214c:	fe010113          	addi	sp,sp,-32
    2150:	00912a23          	sw	s1,20(sp)
    2154:	00050493          	mv	s1,a0
    2158:	00068513          	mv	a0,a3
    215c:	00112e23          	sw	ra,28(sp)
    2160:	00812c23          	sw	s0,24(sp)
    2164:	01212823          	sw	s2,16(sp)
    2168:	00060413          	mv	s0,a2
    216c:	01312623          	sw	s3,12(sp)
    2170:	00070993          	mv	s3,a4
    2174:	00002097          	auipc	ra,0x2
    2178:	58c080e7          	jalr	1420(ra) # 4700 <__divsf3>
    217c:	00003097          	auipc	ra,0x3
    2180:	f80080e7          	jalr	-128(ra) # 50fc <__extendsfdf2>
    2184:	00000097          	auipc	ra,0x0
    2188:	604080e7          	jalr	1540(ra) # 2788 <round>
    218c:	00003097          	auipc	ra,0x3
    2190:	070080e7          	jalr	112(ra) # 51fc <__truncdfsf2>
    2194:	7fffe797          	auipc	a5,0x7fffe
    2198:	4247a583          	lw	a1,1060(a5) # 800005b8 <_ZZNK11flatbuffers6VectorIlmE3GetEmE19__PRETTY_FUNCTION__+0x388>
    219c:	00050913          	mv	s2,a0
    21a0:	00003097          	auipc	ra,0x3
    21a4:	914080e7          	jalr	-1772(ra) # 4ab4 <__gesf2>
    21a8:	04054863          	bltz	a0,21f8 <_ZN6tflite12_GLOBAL__N_18QuantizeEP13TfLiteContextflfRl+0xac>
    21ac:	7fffe797          	auipc	a5,0x7fffe
    21b0:	4107a583          	lw	a1,1040(a5) # 800005bc <_ZZNK11flatbuffers6VectorIlmE3GetEmE19__PRETTY_FUNCTION__+0x38c>
    21b4:	00090513          	mv	a0,s2
    21b8:	00003097          	auipc	ra,0x3
    21bc:	9b8080e7          	jalr	-1608(ra) # 4b70 <__lesf2>
    21c0:	02a04c63          	bgtz	a0,21f8 <_ZN6tflite12_GLOBAL__N_18QuantizeEP13TfLiteContextflfRl+0xac>
    21c4:	00090513          	mv	a0,s2
    21c8:	00003097          	auipc	ra,0x3
    21cc:	ec4080e7          	jalr	-316(ra) # 508c <__fixsfsi>
    21d0:	00850533          	add	a0,a0,s0
    21d4:	00a9a023          	sw	a0,0(s3)
    21d8:	00000513          	li	a0,0
    21dc:	01c12083          	lw	ra,28(sp)
    21e0:	01812403          	lw	s0,24(sp)
    21e4:	01412483          	lw	s1,20(sp)
    21e8:	01012903          	lw	s2,16(sp)
    21ec:	00c12983          	lw	s3,12(sp)
    21f0:	02010113          	addi	sp,sp,32
    21f4:	00008067          	ret
    21f8:	0144a783          	lw	a5,20(s1)
    21fc:	7fffe717          	auipc	a4,0x7fffe
    2200:	7fffe617          	auipc	a2,0x7fffe
    2204:	7fffe597          	auipc	a1,0x7fffe
    2208:	00048513          	mv	a0,s1
    220c:	3c470713          	addi	a4,a4,964 # 800005c0 <_ZZNK11flatbuffers6VectorIlmE3GetEmE19__PRETTY_FUNCTION__+0x390>
    2210:	15e00693          	li	a3,350
    2214:	3e860613          	addi	a2,a2,1000 # 800005e8 <_ZZNK11flatbuffers6VectorIlmE3GetEmE19__PRETTY_FUNCTION__+0x3b8>
    2218:	01458593          	addi	a1,a1,20 # 80000218 <__trunctfdf2+0x7ffed1b8>
    221c:	000780e7          	jalr	a5
    2220:	00100513          	li	a0,1
    2224:	fb9ff06f          	j	21dc <_ZN6tflite12_GLOBAL__N_18QuantizeEP13TfLiteContextflfRl+0x90>

00002228 <_ZN6tflite33CalculateActivationRangeQuantizedEP13TfLiteContext21TfLiteFusedActivationP12TfLiteTensorPlS5_>:
    2228:	01c62783          	lw	a5,28(a2)
    222c:	fd010113          	addi	sp,sp,-48
    2230:	03212023          	sw	s2,32(sp)
    2234:	01512a23          	sw	s5,20(sp)
    2238:	01612823          	sw	s6,16(sp)
    223c:	00070a93          	mv	s5,a4
    2240:	02112623          	sw	ra,44(sp)
    2244:	02812423          	sw	s0,40(sp)
    2248:	02912223          	sw	s1,36(sp)
    224c:	01312e23          	sw	s3,28(sp)
    2250:	01412c23          	sw	s4,24(sp)
    2254:	00300713          	li	a4,3
    2258:	00050913          	mv	s2,a0
    225c:	00068b13          	mv	s6,a3
    2260:	06e78263          	beq	a5,a4,22c4 <_ZN6tflite33CalculateActivationRangeQuantizedEP13TfLiteContext21TfLiteFusedActivationP12TfLiteTensorPlS5_+0x9c>
    2264:	00900713          	li	a4,9
    2268:	0ae78663          	beq	a5,a4,2314 <_ZN6tflite33CalculateActivationRangeQuantizedEP13TfLiteContext21TfLiteFusedActivationP12TfLiteTensorPlS5_+0xec>
    226c:	00700713          	li	a4,7
    2270:	0ae78863          	beq	a5,a4,2320 <_ZN6tflite33CalculateActivationRangeQuantizedEP13TfLiteContext21TfLiteFusedActivationP12TfLiteTensorPlS5_+0xf8>
    2274:	01452783          	lw	a5,20(a0)
    2278:	7fffe717          	auipc	a4,0x7fffe
    227c:	7fffe617          	auipc	a2,0x7fffe
    2280:	7fffe597          	auipc	a1,0x7fffe
    2284:	39870713          	addi	a4,a4,920 # 80000610 <_ZZNK11flatbuffers6VectorIlmE3GetEmE19__PRETTY_FUNCTION__+0x3e0>
    2288:	19600693          	li	a3,406
    228c:	36c60613          	addi	a2,a2,876 # 800005e8 <_ZZNK11flatbuffers6VectorIlmE3GetEmE19__PRETTY_FUNCTION__+0x3b8>
    2290:	f9858593          	addi	a1,a1,-104 # 80000218 <__trunctfdf2+0x7ffed1b8>
    2294:	000780e7          	jalr	a5
    2298:	00100513          	li	a0,1
    229c:	02c12083          	lw	ra,44(sp)
    22a0:	02812403          	lw	s0,40(sp)
    22a4:	02412483          	lw	s1,36(sp)
    22a8:	02012903          	lw	s2,32(sp)
    22ac:	01c12983          	lw	s3,28(sp)
    22b0:	01812a03          	lw	s4,24(sp)
    22b4:	01412a83          	lw	s5,20(sp)
    22b8:	01012b03          	lw	s6,16(sp)
    22bc:	03010113          	addi	sp,sp,48
    22c0:	00008067          	ret
    22c4:	0ff00413          	li	s0,255
    22c8:	00000493          	li	s1,0
    22cc:	00100793          	li	a5,1
    22d0:	00862983          	lw	s3,8(a2)
    22d4:	00c62a03          	lw	s4,12(a2)
    22d8:	04f59c63          	bne	a1,a5,2330 <_ZN6tflite33CalculateActivationRangeQuantizedEP13TfLiteContext21TfLiteFusedActivationP12TfLiteTensorPlS5_+0x108>
    22dc:	00c10713          	addi	a4,sp,12
    22e0:	00000693          	li	a3,0
    22e4:	000a0613          	mv	a2,s4
    22e8:	00098593          	mv	a1,s3
    22ec:	00090513          	mv	a0,s2
    22f0:	00000097          	auipc	ra,0x0
    22f4:	e5c080e7          	jalr	-420(ra) # 214c <_ZN6tflite12_GLOBAL__N_18QuantizeEP13TfLiteContextflfRl>
    22f8:	fa0512e3          	bnez	a0,229c <_ZN6tflite33CalculateActivationRangeQuantizedEP13TfLiteContext21TfLiteFusedActivationP12TfLiteTensorPlS5_+0x74>
    22fc:	00c12783          	lw	a5,12(sp)
    2300:	0097d463          	bge	a5,s1,2308 <_ZN6tflite33CalculateActivationRangeQuantizedEP13TfLiteContext21TfLiteFusedActivationP12TfLiteTensorPlS5_+0xe0>
    2304:	00048793          	mv	a5,s1
    2308:	00fb2023          	sw	a5,0(s6)
    230c:	008aa023          	sw	s0,0(s5)
    2310:	f8dff06f          	j	229c <_ZN6tflite33CalculateActivationRangeQuantizedEP13TfLiteContext21TfLiteFusedActivationP12TfLiteTensorPlS5_+0x74>
    2314:	07f00413          	li	s0,127
    2318:	f8000493          	li	s1,-128
    231c:	fb1ff06f          	j	22cc <_ZN6tflite33CalculateActivationRangeQuantizedEP13TfLiteContext21TfLiteFusedActivationP12TfLiteTensorPlS5_+0xa4>
    2320:	00008437          	lui	s0,0x8
    2324:	fff40413          	addi	s0,s0,-1 # 7fff <_svfprintf_r+0x11f7>
    2328:	ffff84b7          	lui	s1,0xffff8
    232c:	fa1ff06f          	j	22cc <_ZN6tflite33CalculateActivationRangeQuantizedEP13TfLiteContext21TfLiteFusedActivationP12TfLiteTensorPlS5_+0xa4>
    2330:	00300793          	li	a5,3
    2334:	06f59663          	bne	a1,a5,23a0 <_ZN6tflite33CalculateActivationRangeQuantizedEP13TfLiteContext21TfLiteFusedActivationP12TfLiteTensorPlS5_+0x178>
    2338:	00c10713          	addi	a4,sp,12
    233c:	00000693          	li	a3,0
    2340:	000a0613          	mv	a2,s4
    2344:	00098593          	mv	a1,s3
    2348:	00090513          	mv	a0,s2
    234c:	00000097          	auipc	ra,0x0
    2350:	e00080e7          	jalr	-512(ra) # 214c <_ZN6tflite12_GLOBAL__N_18QuantizeEP13TfLiteContextflfRl>
    2354:	f40514e3          	bnez	a0,229c <_ZN6tflite33CalculateActivationRangeQuantizedEP13TfLiteContext21TfLiteFusedActivationP12TfLiteTensorPlS5_+0x74>
    2358:	00c12783          	lw	a5,12(sp)
    235c:	0097d463          	bge	a5,s1,2364 <_ZN6tflite33CalculateActivationRangeQuantizedEP13TfLiteContext21TfLiteFusedActivationP12TfLiteTensorPlS5_+0x13c>
    2360:	00048793          	mv	a5,s1
    2364:	00fb2023          	sw	a5,0(s6)
    2368:	7fffe797          	auipc	a5,0x7fffe
    236c:	fbc7a683          	lw	a3,-68(a5) # 80000324 <_ZZNK11flatbuffers6VectorIlmE3GetEmE19__PRETTY_FUNCTION__+0xf4>
    2370:	00c10713          	addi	a4,sp,12
    2374:	000a0613          	mv	a2,s4
    2378:	00098593          	mv	a1,s3
    237c:	00090513          	mv	a0,s2
    2380:	00000097          	auipc	ra,0x0
    2384:	dcc080e7          	jalr	-564(ra) # 214c <_ZN6tflite12_GLOBAL__N_18QuantizeEP13TfLiteContextflfRl>
    2388:	f0051ae3          	bnez	a0,229c <_ZN6tflite33CalculateActivationRangeQuantizedEP13TfLiteContext21TfLiteFusedActivationP12TfLiteTensorPlS5_+0x74>
    238c:	00c12783          	lw	a5,12(sp)
    2390:	00f45463          	bge	s0,a5,2398 <_ZN6tflite33CalculateActivationRangeQuantizedEP13TfLiteContext21TfLiteFusedActivationP12TfLiteTensorPlS5_+0x170>
    2394:	00040793          	mv	a5,s0
    2398:	00faa023          	sw	a5,0(s5)
    239c:	f01ff06f          	j	229c <_ZN6tflite33CalculateActivationRangeQuantizedEP13TfLiteContext21TfLiteFusedActivationP12TfLiteTensorPlS5_+0x74>
    23a0:	00200793          	li	a5,2
    23a4:	04f59463          	bne	a1,a5,23ec <_ZN6tflite33CalculateActivationRangeQuantizedEP13TfLiteContext21TfLiteFusedActivationP12TfLiteTensorPlS5_+0x1c4>
    23a8:	7fffe797          	auipc	a5,0x7fffe
    23ac:	f807a683          	lw	a3,-128(a5) # 80000328 <_ZZNK11flatbuffers6VectorIlmE3GetEmE19__PRETTY_FUNCTION__+0xf8>
    23b0:	00c10713          	addi	a4,sp,12
    23b4:	000a0613          	mv	a2,s4
    23b8:	00098593          	mv	a1,s3
    23bc:	00090513          	mv	a0,s2
    23c0:	00000097          	auipc	ra,0x0
    23c4:	d8c080e7          	jalr	-628(ra) # 214c <_ZN6tflite12_GLOBAL__N_18QuantizeEP13TfLiteContextflfRl>
    23c8:	ec051ae3          	bnez	a0,229c <_ZN6tflite33CalculateActivationRangeQuantizedEP13TfLiteContext21TfLiteFusedActivationP12TfLiteTensorPlS5_+0x74>
    23cc:	00c12783          	lw	a5,12(sp)
    23d0:	0097d463          	bge	a5,s1,23d8 <_ZN6tflite33CalculateActivationRangeQuantizedEP13TfLiteContext21TfLiteFusedActivationP12TfLiteTensorPlS5_+0x1b0>
    23d4:	00048793          	mv	a5,s1
    23d8:	00fb2023          	sw	a5,0(s6)
    23dc:	7fffe797          	auipc	a5,0x7fffe
    23e0:	00c10713          	addi	a4,sp,12
    23e4:	f507a683          	lw	a3,-176(a5) # 8000032c <_ZZNK11flatbuffers6VectorIlmE3GetEmE19__PRETTY_FUNCTION__+0xfc>
    23e8:	f8dff06f          	j	2374 <_ZN6tflite33CalculateActivationRangeQuantizedEP13TfLiteContext21TfLiteFusedActivationP12TfLiteTensorPlS5_+0x14c>
    23ec:	009b2023          	sw	s1,0(s6)
    23f0:	008aa023          	sw	s0,0(s5)
    23f4:	00000513          	li	a0,0
    23f8:	ea5ff06f          	j	229c <_ZN6tflite33CalculateActivationRangeQuantizedEP13TfLiteContext21TfLiteFusedActivationP12TfLiteTensorPlS5_+0x74>

000023fc <TfLiteIntArrayGetSizeInBytes>:
    23fc:	00150513          	addi	a0,a0,1
    2400:	00251513          	slli	a0,a0,0x2
    2404:	00008067          	ret

00002408 <TfLiteTypeGetName>:
    2408:	01500793          	li	a5,21
    240c:	00a7ee63          	bltu	a5,a0,2428 <TfLiteTypeGetName+0x20>
    2410:	7fffe797          	auipc	a5,0x7fffe
    2414:	00251513          	slli	a0,a0,0x2
    2418:	20878793          	addi	a5,a5,520 # 80000618 <CSWTCH.3>
    241c:	00a787b3          	add	a5,a5,a0
    2420:	0007a503          	lw	a0,0(a5)
    2424:	00008067          	ret
    2428:	7fffe517          	auipc	a0,0x7fffe
    242c:	24850513          	addi	a0,a0,584 # 80000670 <CSWTCH.3+0x58>
    2430:	00008067          	ret

00002434 <_ZN6tflite5micro10RegisterOpEPFPvP13TfLiteContextPKcjEPF12TfLiteStatusS3_P10TfLiteNodeESC_PFvS3_S1_ESE_>:
    2434:	00b52023          	sw	a1,0(a0)
    2438:	00e52223          	sw	a4,4(a0)
    243c:	00c52423          	sw	a2,8(a0)
    2440:	00d52623          	sw	a3,12(a0)
    2444:	00f52823          	sw	a5,16(a0)
    2448:	00052a23          	sw	zero,20(a0)
    244c:	00052c23          	sw	zero,24(a0)
    2450:	00008067          	ret

00002454 <_ZN6tflite5micro19GetMutableEvalInputEPK13TfLiteContextPK10TfLiteNodei>:
    2454:	04050263          	beqz	a0,2498 <_ZN6tflite5micro19GetMutableEvalInputEPK13TfLiteContextPK10TfLiteNodei+0x44>
    2458:	04058063          	beqz	a1,2498 <_ZN6tflite5micro19GetMutableEvalInputEPK13TfLiteContextPK10TfLiteNodei+0x44>
    245c:	0005a783          	lw	a5,0(a1)
    2460:	0007a583          	lw	a1,0(a5)
    2464:	00478713          	addi	a4,a5,4
    2468:	02064463          	bltz	a2,2490 <_ZN6tflite5micro19GetMutableEvalInputEPK13TfLiteContextPK10TfLiteNodei+0x3c>
    246c:	02b65263          	bge	a2,a1,2490 <_ZN6tflite5micro19GetMutableEvalInputEPK13TfLiteContextPK10TfLiteNodei+0x3c>
    2470:	00261613          	slli	a2,a2,0x2
    2474:	00c70733          	add	a4,a4,a2
    2478:	00072703          	lw	a4,0(a4)
    247c:	00074a63          	bltz	a4,2490 <_ZN6tflite5micro19GetMutableEvalInputEPK13TfLiteContextPK10TfLiteNodei+0x3c>
    2480:	00c78633          	add	a2,a5,a2
    2484:	05452303          	lw	t1,84(a0)
    2488:	00462583          	lw	a1,4(a2)
    248c:	00030067          	jr	t1
    2490:	00000513          	li	a0,0
    2494:	00008067          	ret
    2498:	ff010113          	addi	sp,sp,-16
    249c:	00112623          	sw	ra,12(sp)
    24a0:	ffffe097          	auipc	ra,0xffffe
    24a4:	fb0080e7          	jalr	-80(ra) # 450 <_Z9AbortImplv>

000024a8 <_ZN6tflite5micro12GetEvalInputEPK13TfLiteContextPK10TfLiteNodei>:
    24a8:	00000317          	auipc	t1,0x0
    24ac:	fac30067          	jr	-84(t1) # 2454 <_ZN6tflite5micro19GetMutableEvalInputEPK13TfLiteContextPK10TfLiteNodei>

000024b0 <_ZN6tflite5micro13GetEvalOutputEPK13TfLiteContextPK10TfLiteNodei>:
    24b0:	02050063          	beqz	a0,24d0 <_ZN6tflite5micro13GetEvalOutputEPK13TfLiteContextPK10TfLiteNodei+0x20>
    24b4:	00058e63          	beqz	a1,24d0 <_ZN6tflite5micro13GetEvalOutputEPK13TfLiteContextPK10TfLiteNodei+0x20>
    24b8:	0045a783          	lw	a5,4(a1)
    24bc:	00261613          	slli	a2,a2,0x2
    24c0:	05452303          	lw	t1,84(a0)
    24c4:	00c78633          	add	a2,a5,a2
    24c8:	00462583          	lw	a1,4(a2)
    24cc:	00030067          	jr	t1
    24d0:	ff010113          	addi	sp,sp,-16
    24d4:	00112623          	sw	ra,12(sp)
    24d8:	ffffe097          	auipc	ra,0xffffe
    24dc:	f78080e7          	jalr	-136(ra) # 450 <_Z9AbortImplv>

000024e0 <_ZN6tflite5micro14GetTensorShapeEPK16TfLiteEvalTensor>:
    24e0:	ff010113          	addi	sp,sp,-16
    24e4:	00812423          	sw	s0,8(sp)
    24e8:	00112623          	sw	ra,12(sp)
    24ec:	00050413          	mv	s0,a0
    24f0:	04058263          	beqz	a1,2534 <_ZN6tflite5micro14GetTensorShapeEPK16TfLiteEvalTensor+0x54>
    24f4:	0045a583          	lw	a1,4(a1)
    24f8:	02058e63          	beqz	a1,2534 <_ZN6tflite5micro14GetTensorShapeEPK16TfLiteEvalTensor+0x54>
    24fc:	0005a603          	lw	a2,0(a1)
    2500:	00600793          	li	a5,6
    2504:	00458593          	addi	a1,a1,4
    2508:	00c52023          	sw	a2,0(a0)
    250c:	04c7c063          	blt	a5,a2,254c <_ZN6tflite5micro14GetTensorShapeEPK16TfLiteEvalTensor+0x6c>
    2510:	00261613          	slli	a2,a2,0x2
    2514:	00450513          	addi	a0,a0,4
    2518:	00004097          	auipc	ra,0x4
    251c:	b84080e7          	jalr	-1148(ra) # 609c <memcpy>
    2520:	00040513          	mv	a0,s0
    2524:	00c12083          	lw	ra,12(sp)
    2528:	00812403          	lw	s0,8(sp)
    252c:	01010113          	addi	sp,sp,16
    2530:	00008067          	ret
    2534:	00042023          	sw	zero,0(s0)
    2538:	00040513          	mv	a0,s0
    253c:	00c12083          	lw	ra,12(sp)
    2540:	00812403          	lw	s0,8(sp)
    2544:	01010113          	addi	sp,sp,16
    2548:	00008067          	ret
    254c:	ffffe097          	auipc	ra,0xffffe
    2550:	f04080e7          	jalr	-252(ra) # 450 <_Z9AbortImplv>

00002554 <_ZN6tflite5micro32CreateWritableTensorDimsWithCopyEP13TfLiteContextP12TfLiteTensorP16TfLiteEvalTensor>:
    2554:	fe010113          	addi	sp,sp,-32
    2558:	01212823          	sw	s2,16(sp)
    255c:	00112e23          	sw	ra,28(sp)
    2560:	00812c23          	sw	s0,24(sp)
    2564:	00912a23          	sw	s1,20(sp)
    2568:	01312623          	sw	s3,12(sp)
    256c:	00050913          	mv	s2,a0
    2570:	0c058c63          	beqz	a1,2648 <_ZN6tflite5micro32CreateWritableTensorDimsWithCopyEP13TfLiteContextP12TfLiteTensorP16TfLiteEvalTensor+0xf4>
    2574:	00060993          	mv	s3,a2
    2578:	10060a63          	beqz	a2,268c <_ZN6tflite5micro32CreateWritableTensorDimsWithCopyEP13TfLiteContextP12TfLiteTensorP16TfLiteEvalTensor+0x138>
    257c:	03852783          	lw	a5,56(a0)
    2580:	08078263          	beqz	a5,2604 <_ZN6tflite5micro32CreateWritableTensorDimsWithCopyEP13TfLiteContextP12TfLiteTensorP16TfLiteEvalTensor+0xb0>
    2584:	0145a783          	lw	a5,20(a1)
    2588:	00058493          	mv	s1,a1
    258c:	0007a403          	lw	s0,0(a5)
    2590:	00040513          	mv	a0,s0
    2594:	00000097          	auipc	ra,0x0
    2598:	e68080e7          	jalr	-408(ra) # 23fc <TfLiteIntArrayGetSizeInBytes>
    259c:	03892783          	lw	a5,56(s2) # 80000038 <__stack_top+0xfffb61b8>
    25a0:	00050593          	mv	a1,a0
    25a4:	00090513          	mv	a0,s2
    25a8:	000780e7          	jalr	a5
    25ac:	0144a783          	lw	a5,20(s1) # ffff8014 <__stack_top+0x7ffae194>
    25b0:	00852023          	sw	s0,0(a0)
    25b4:	00a4aa23          	sw	a0,20(s1)
    25b8:	00a9a223          	sw	a0,4(s3)
    25bc:	02805463          	blez	s0,25e4 <_ZN6tflite5micro32CreateWritableTensorDimsWithCopyEP13TfLiteContextP12TfLiteTensorP16TfLiteEvalTensor+0x90>
    25c0:	00478793          	addi	a5,a5,4
    25c4:	00450513          	addi	a0,a0,4
    25c8:	00000713          	li	a4,0
    25cc:	0007a683          	lw	a3,0(a5)
    25d0:	00170713          	addi	a4,a4,1
    25d4:	00478793          	addi	a5,a5,4
    25d8:	00d52023          	sw	a3,0(a0)
    25dc:	00450513          	addi	a0,a0,4
    25e0:	fee416e3          	bne	s0,a4,25cc <_ZN6tflite5micro32CreateWritableTensorDimsWithCopyEP13TfLiteContextP12TfLiteTensorP16TfLiteEvalTensor+0x78>
    25e4:	01c12083          	lw	ra,28(sp)
    25e8:	01812403          	lw	s0,24(sp)
    25ec:	01412483          	lw	s1,20(sp)
    25f0:	01012903          	lw	s2,16(sp)
    25f4:	00c12983          	lw	s3,12(sp)
    25f8:	00000513          	li	a0,0
    25fc:	02010113          	addi	sp,sp,32
    2600:	00008067          	ret
    2604:	01452783          	lw	a5,20(a0)
    2608:	7fffe717          	auipc	a4,0x7fffe
    260c:	7fffe617          	auipc	a2,0x7fffe
    2610:	7fffe597          	auipc	a1,0x7fffe
    2614:	19470713          	addi	a4,a4,404 # 8000079c <CSWTCH.3+0x184>
    2618:	08500693          	li	a3,133
    261c:	14860613          	addi	a2,a2,328 # 80000754 <CSWTCH.3+0x13c>
    2620:	c0858593          	addi	a1,a1,-1016 # 80000218 <__trunctfdf2+0x7ffed1b8>
    2624:	000780e7          	jalr	a5
    2628:	01c12083          	lw	ra,28(sp)
    262c:	01812403          	lw	s0,24(sp)
    2630:	01412483          	lw	s1,20(sp)
    2634:	01012903          	lw	s2,16(sp)
    2638:	00c12983          	lw	s3,12(sp)
    263c:	00100513          	li	a0,1
    2640:	02010113          	addi	sp,sp,32
    2644:	00008067          	ret
    2648:	01452783          	lw	a5,20(a0)
    264c:	7fffe717          	auipc	a4,0x7fffe
    2650:	7fffe617          	auipc	a2,0x7fffe
    2654:	7fffe597          	auipc	a1,0x7fffe
    2658:	0f470713          	addi	a4,a4,244 # 80000740 <CSWTCH.3+0x128>
    265c:	08300693          	li	a3,131
    2660:	10460613          	addi	a2,a2,260 # 80000754 <CSWTCH.3+0x13c>
    2664:	bc458593          	addi	a1,a1,-1084 # 80000218 <__trunctfdf2+0x7ffed1b8>
    2668:	000780e7          	jalr	a5
    266c:	01c12083          	lw	ra,28(sp)
    2670:	01812403          	lw	s0,24(sp)
    2674:	01412483          	lw	s1,20(sp)
    2678:	01012903          	lw	s2,16(sp)
    267c:	00c12983          	lw	s3,12(sp)
    2680:	00100513          	li	a0,1
    2684:	02010113          	addi	sp,sp,32
    2688:	00008067          	ret
    268c:	01452783          	lw	a5,20(a0)
    2690:	7fffe717          	auipc	a4,0x7fffe
    2694:	7fffe617          	auipc	a2,0x7fffe
    2698:	7fffe597          	auipc	a1,0x7fffe
    269c:	0f470713          	addi	a4,a4,244 # 80000784 <CSWTCH.3+0x16c>
    26a0:	08400693          	li	a3,132
    26a4:	0c060613          	addi	a2,a2,192 # 80000754 <CSWTCH.3+0x13c>
    26a8:	b8058593          	addi	a1,a1,-1152 # 80000218 <__trunctfdf2+0x7ffed1b8>
    26ac:	000780e7          	jalr	a5
    26b0:	01c12083          	lw	ra,28(sp)
    26b4:	01812403          	lw	s0,24(sp)
    26b8:	01412483          	lw	s1,20(sp)
    26bc:	01012903          	lw	s2,16(sp)
    26c0:	00c12983          	lw	s3,12(sp)
    26c4:	00100513          	li	a0,1
    26c8:	02010113          	addi	sp,sp,32
    26cc:	00008067          	ret

000026d0 <frexp>:
    26d0:	ff010113          	addi	sp,sp,-16
    26d4:	00912223          	sw	s1,4(sp)
    26d8:	800004b7          	lui	s1,0x80000
    26dc:	00812423          	sw	s0,8(sp)
    26e0:	00112623          	sw	ra,12(sp)
    26e4:	fff4c493          	not	s1,s1
    26e8:	00b4f733          	and	a4,s1,a1
    26ec:	00062023          	sw	zero,0(a2)
    26f0:	7ff00837          	lui	a6,0x7ff00
    26f4:	00050693          	mv	a3,a0
    26f8:	00058793          	mv	a5,a1
    26fc:	00060413          	mv	s0,a2
    2700:	07075663          	bge	a4,a6,276c <frexp+0x9c>
    2704:	00a768b3          	or	a7,a4,a0
    2708:	06088263          	beqz	a7,276c <frexp+0x9c>
    270c:	0105f833          	and	a6,a1,a6
    2710:	00058613          	mv	a2,a1
    2714:	02081863          	bnez	a6,2744 <frexp+0x74>
    2718:	7ffff797          	auipc	a5,0x7ffff
    271c:	c8078793          	addi	a5,a5,-896 # 80001398 <_ctype_+0x144>
    2720:	0007a603          	lw	a2,0(a5)
    2724:	0047a683          	lw	a3,4(a5)
    2728:	00001097          	auipc	ra,0x1
    272c:	5ac080e7          	jalr	1452(ra) # 3cd4 <__muldf3>
    2730:	fca00793          	li	a5,-54
    2734:	00050693          	mv	a3,a0
    2738:	00058613          	mv	a2,a1
    273c:	00b4f733          	and	a4,s1,a1
    2740:	00f42023          	sw	a5,0(s0)
    2744:	00042783          	lw	a5,0(s0)
    2748:	41475713          	srai	a4,a4,0x14
    274c:	c0270713          	addi	a4,a4,-1022
    2750:	00e78733          	add	a4,a5,a4
    2754:	801007b7          	lui	a5,0x80100
    2758:	fff78793          	addi	a5,a5,-1 # 800fffff <__stack_top+0xb617f>
    275c:	00f67633          	and	a2,a2,a5
    2760:	3fe007b7          	lui	a5,0x3fe00
    2764:	00e42023          	sw	a4,0(s0)
    2768:	00f667b3          	or	a5,a2,a5
    276c:	00c12083          	lw	ra,12(sp)
    2770:	00812403          	lw	s0,8(sp)
    2774:	00412483          	lw	s1,4(sp)
    2778:	00068513          	mv	a0,a3
    277c:	00078593          	mv	a1,a5
    2780:	01010113          	addi	sp,sp,16
    2784:	00008067          	ret

00002788 <round>:
    2788:	4145d693          	srai	a3,a1,0x14
    278c:	7ff6f693          	andi	a3,a3,2047
    2790:	c0168613          	addi	a2,a3,-1023
    2794:	01300713          	li	a4,19
    2798:	00050893          	mv	a7,a0
    279c:	00058813          	mv	a6,a1
    27a0:	00058793          	mv	a5,a1
    27a4:	06c74663          	blt	a4,a2,2810 <round+0x88>
    27a8:	02065a63          	bgez	a2,27dc <round+0x54>
    27ac:	80000737          	lui	a4,0x80000
    27b0:	fff00693          	li	a3,-1
    27b4:	00e5f7b3          	and	a5,a1,a4
    27b8:	00000713          	li	a4,0
    27bc:	00d61663          	bne	a2,a3,27c8 <round+0x40>
    27c0:	3ff006b7          	lui	a3,0x3ff00
    27c4:	00d7e7b3          	or	a5,a5,a3
    27c8:	00070893          	mv	a7,a4
    27cc:	00078813          	mv	a6,a5
    27d0:	00088513          	mv	a0,a7
    27d4:	00080593          	mv	a1,a6
    27d8:	00008067          	ret
    27dc:	00100737          	lui	a4,0x100
    27e0:	fff70713          	addi	a4,a4,-1 # fffff <__trunctfdf2+0xecf9f>
    27e4:	40c75733          	sra	a4,a4,a2
    27e8:	00b776b3          	and	a3,a4,a1
    27ec:	00a6e333          	or	t1,a3,a0
    27f0:	fe0300e3          	beqz	t1,27d0 <round+0x48>
    27f4:	000806b7          	lui	a3,0x80
    27f8:	40c6d633          	sra	a2,a3,a2
    27fc:	fff74713          	not	a4,a4
    2800:	00b607b3          	add	a5,a2,a1
    2804:	00e7f7b3          	and	a5,a5,a4
    2808:	00000713          	li	a4,0
    280c:	fbdff06f          	j	27c8 <round+0x40>
    2810:	03300e13          	li	t3,51
    2814:	04ce5063          	bge	t3,a2,2854 <round+0xcc>
    2818:	40000793          	li	a5,1024
    281c:	faf61ae3          	bne	a2,a5,27d0 <round+0x48>
    2820:	ff010113          	addi	sp,sp,-16
    2824:	00050613          	mv	a2,a0
    2828:	00058693          	mv	a3,a1
    282c:	00112623          	sw	ra,12(sp)
    2830:	00000097          	auipc	ra,0x0
    2834:	4dc080e7          	jalr	1244(ra) # 2d0c <__adddf3>
    2838:	00c12083          	lw	ra,12(sp)
    283c:	00050893          	mv	a7,a0
    2840:	00058813          	mv	a6,a1
    2844:	00088513          	mv	a0,a7
    2848:	00080593          	mv	a1,a6
    284c:	01010113          	addi	sp,sp,16
    2850:	00008067          	ret
    2854:	bed68713          	addi	a4,a3,-1043 # 7fbed <__trunctfdf2+0x6cb8d>
    2858:	fff00693          	li	a3,-1
    285c:	00e6d6b3          	srl	a3,a3,a4
    2860:	00d57733          	and	a4,a0,a3
    2864:	f60706e3          	beqz	a4,27d0 <round+0x48>
    2868:	40ce0e33          	sub	t3,t3,a2
    286c:	00100613          	li	a2,1
    2870:	01c61633          	sll	a2,a2,t3
    2874:	00a60633          	add	a2,a2,a0
    2878:	00a67463          	bgeu	a2,a0,2880 <round+0xf8>
    287c:	00158793          	addi	a5,a1,1
    2880:	fff6c713          	not	a4,a3
    2884:	00c77733          	and	a4,a4,a2
    2888:	f41ff06f          	j	27c8 <round+0x40>

0000288c <__divdi3>:
    288c:	00000893          	li	a7,0
    2890:	0005dc63          	bgez	a1,28a8 <__divdi3+0x1c>
    2894:	40a00533          	neg	a0,a0
    2898:	00a037b3          	snez	a5,a0
    289c:	40b005b3          	neg	a1,a1
    28a0:	40f585b3          	sub	a1,a1,a5
    28a4:	fff00893          	li	a7,-1
    28a8:	0006dc63          	bgez	a3,28c0 <__divdi3+0x34>
    28ac:	40c00633          	neg	a2,a2
    28b0:	00c037b3          	snez	a5,a2
    28b4:	40d006b3          	neg	a3,a3
    28b8:	fff8c893          	not	a7,a7
    28bc:	40f686b3          	sub	a3,a3,a5
    28c0:	00060813          	mv	a6,a2
    28c4:	00068713          	mv	a4,a3
    28c8:	00050313          	mv	t1,a0
    28cc:	00058e13          	mv	t3,a1
    28d0:	2a069263          	bnez	a3,2b74 <__divdi3+0x2e8>
    28d4:	7fffe697          	auipc	a3,0x7fffe
    28d8:	fac68693          	addi	a3,a3,-84 # 80000880 <__clz_tab>
    28dc:	0ec5f663          	bgeu	a1,a2,29c8 <__divdi3+0x13c>
    28e0:	000107b7          	lui	a5,0x10
    28e4:	0cf67863          	bgeu	a2,a5,29b4 <__divdi3+0x128>
    28e8:	0ff00793          	li	a5,255
    28ec:	00c7b7b3          	sltu	a5,a5,a2
    28f0:	00379793          	slli	a5,a5,0x3
    28f4:	00f65733          	srl	a4,a2,a5
    28f8:	00e686b3          	add	a3,a3,a4
    28fc:	0006c703          	lbu	a4,0(a3)
    2900:	00f707b3          	add	a5,a4,a5
    2904:	02000713          	li	a4,32
    2908:	40f70733          	sub	a4,a4,a5
    290c:	00070c63          	beqz	a4,2924 <__divdi3+0x98>
    2910:	00e595b3          	sll	a1,a1,a4
    2914:	00f557b3          	srl	a5,a0,a5
    2918:	00e61833          	sll	a6,a2,a4
    291c:	00b7ee33          	or	t3,a5,a1
    2920:	00e51333          	sll	t1,a0,a4
    2924:	01085613          	srli	a2,a6,0x10
    2928:	02ce77b3          	remu	a5,t3,a2
    292c:	01081593          	slli	a1,a6,0x10
    2930:	0105d593          	srli	a1,a1,0x10
    2934:	01035713          	srli	a4,t1,0x10
    2938:	02ce5e33          	divu	t3,t3,a2
    293c:	01079793          	slli	a5,a5,0x10
    2940:	00e7e733          	or	a4,a5,a4
    2944:	03c586b3          	mul	a3,a1,t3
    2948:	000e0793          	mv	a5,t3
    294c:	00d77e63          	bgeu	a4,a3,2968 <__divdi3+0xdc>
    2950:	01070733          	add	a4,a4,a6
    2954:	fffe0793          	addi	a5,t3,-1
    2958:	01076863          	bltu	a4,a6,2968 <__divdi3+0xdc>
    295c:	00d77663          	bgeu	a4,a3,2968 <__divdi3+0xdc>
    2960:	ffee0793          	addi	a5,t3,-2
    2964:	01070733          	add	a4,a4,a6
    2968:	40d70733          	sub	a4,a4,a3
    296c:	02c776b3          	remu	a3,a4,a2
    2970:	01031313          	slli	t1,t1,0x10
    2974:	01035313          	srli	t1,t1,0x10
    2978:	02c75733          	divu	a4,a4,a2
    297c:	01069693          	slli	a3,a3,0x10
    2980:	0066e333          	or	t1,a3,t1
    2984:	02e585b3          	mul	a1,a1,a4
    2988:	00070513          	mv	a0,a4
    298c:	00b37c63          	bgeu	t1,a1,29a4 <__divdi3+0x118>
    2990:	00680333          	add	t1,a6,t1
    2994:	fff70513          	addi	a0,a4,-1
    2998:	01036663          	bltu	t1,a6,29a4 <__divdi3+0x118>
    299c:	00b37463          	bgeu	t1,a1,29a4 <__divdi3+0x118>
    29a0:	ffe70513          	addi	a0,a4,-2
    29a4:	01079793          	slli	a5,a5,0x10
    29a8:	00a7e7b3          	or	a5,a5,a0
    29ac:	00000e13          	li	t3,0
    29b0:	0e40006f          	j	2a94 <__divdi3+0x208>
    29b4:	01000737          	lui	a4,0x1000
    29b8:	01000793          	li	a5,16
    29bc:	f2e66ce3          	bltu	a2,a4,28f4 <__divdi3+0x68>
    29c0:	01800793          	li	a5,24
    29c4:	f31ff06f          	j	28f4 <__divdi3+0x68>
    29c8:	00061663          	bnez	a2,29d4 <__divdi3+0x148>
    29cc:	00100813          	li	a6,1
    29d0:	02e85833          	divu	a6,a6,a4
    29d4:	000107b7          	lui	a5,0x10
    29d8:	0cf87e63          	bgeu	a6,a5,2ab4 <__divdi3+0x228>
    29dc:	0ff00793          	li	a5,255
    29e0:	0107f463          	bgeu	a5,a6,29e8 <__divdi3+0x15c>
    29e4:	00800713          	li	a4,8
    29e8:	00e857b3          	srl	a5,a6,a4
    29ec:	00f686b3          	add	a3,a3,a5
    29f0:	0006c783          	lbu	a5,0(a3)
    29f4:	02000693          	li	a3,32
    29f8:	00e787b3          	add	a5,a5,a4
    29fc:	40f686b3          	sub	a3,a3,a5
    2a00:	0c069463          	bnez	a3,2ac8 <__divdi3+0x23c>
    2a04:	410585b3          	sub	a1,a1,a6
    2a08:	00100e13          	li	t3,1
    2a0c:	01085513          	srli	a0,a6,0x10
    2a10:	01081613          	slli	a2,a6,0x10
    2a14:	01065613          	srli	a2,a2,0x10
    2a18:	01035693          	srli	a3,t1,0x10
    2a1c:	02a5d733          	divu	a4,a1,a0
    2a20:	02a5f7b3          	remu	a5,a1,a0
    2a24:	02e605b3          	mul	a1,a2,a4
    2a28:	01079793          	slli	a5,a5,0x10
    2a2c:	00d7e6b3          	or	a3,a5,a3
    2a30:	00070793          	mv	a5,a4
    2a34:	00b6fe63          	bgeu	a3,a1,2a50 <__divdi3+0x1c4>
    2a38:	010686b3          	add	a3,a3,a6
    2a3c:	fff70793          	addi	a5,a4,-1 # ffffff <__trunctfdf2+0xfecf9f>
    2a40:	0106e863          	bltu	a3,a6,2a50 <__divdi3+0x1c4>
    2a44:	00b6f663          	bgeu	a3,a1,2a50 <__divdi3+0x1c4>
    2a48:	ffe70793          	addi	a5,a4,-2
    2a4c:	010686b3          	add	a3,a3,a6
    2a50:	40b686b3          	sub	a3,a3,a1
    2a54:	02a6f733          	remu	a4,a3,a0
    2a58:	01031313          	slli	t1,t1,0x10
    2a5c:	01035313          	srli	t1,t1,0x10
    2a60:	02a6d6b3          	divu	a3,a3,a0
    2a64:	01071713          	slli	a4,a4,0x10
    2a68:	00676333          	or	t1,a4,t1
    2a6c:	02d605b3          	mul	a1,a2,a3
    2a70:	00068513          	mv	a0,a3
    2a74:	00b37c63          	bgeu	t1,a1,2a8c <__divdi3+0x200>
    2a78:	00680333          	add	t1,a6,t1
    2a7c:	fff68513          	addi	a0,a3,-1
    2a80:	01036663          	bltu	t1,a6,2a8c <__divdi3+0x200>
    2a84:	00b37463          	bgeu	t1,a1,2a8c <__divdi3+0x200>
    2a88:	ffe68513          	addi	a0,a3,-2
    2a8c:	01079793          	slli	a5,a5,0x10
    2a90:	00a7e7b3          	or	a5,a5,a0
    2a94:	00078513          	mv	a0,a5
    2a98:	000e0593          	mv	a1,t3
    2a9c:	00088a63          	beqz	a7,2ab0 <__divdi3+0x224>
    2aa0:	40f00533          	neg	a0,a5
    2aa4:	00a037b3          	snez	a5,a0
    2aa8:	41c005b3          	neg	a1,t3
    2aac:	40f585b3          	sub	a1,a1,a5
    2ab0:	00008067          	ret
    2ab4:	010007b7          	lui	a5,0x1000
    2ab8:	01000713          	li	a4,16
    2abc:	f2f866e3          	bltu	a6,a5,29e8 <__divdi3+0x15c>
    2ac0:	01800713          	li	a4,24
    2ac4:	f25ff06f          	j	29e8 <__divdi3+0x15c>
    2ac8:	00d81833          	sll	a6,a6,a3
    2acc:	00f5d733          	srl	a4,a1,a5
    2ad0:	00d51333          	sll	t1,a0,a3
    2ad4:	00d595b3          	sll	a1,a1,a3
    2ad8:	00f557b3          	srl	a5,a0,a5
    2adc:	01085513          	srli	a0,a6,0x10
    2ae0:	00b7e633          	or	a2,a5,a1
    2ae4:	02a777b3          	remu	a5,a4,a0
    2ae8:	01081593          	slli	a1,a6,0x10
    2aec:	0105d593          	srli	a1,a1,0x10
    2af0:	01065e13          	srli	t3,a2,0x10
    2af4:	02a75733          	divu	a4,a4,a0
    2af8:	01079793          	slli	a5,a5,0x10
    2afc:	01c7e7b3          	or	a5,a5,t3
    2b00:	02e586b3          	mul	a3,a1,a4
    2b04:	00070e13          	mv	t3,a4
    2b08:	00d7fe63          	bgeu	a5,a3,2b24 <__divdi3+0x298>
    2b0c:	010787b3          	add	a5,a5,a6
    2b10:	fff70e13          	addi	t3,a4,-1
    2b14:	0107e863          	bltu	a5,a6,2b24 <__divdi3+0x298>
    2b18:	00d7f663          	bgeu	a5,a3,2b24 <__divdi3+0x298>
    2b1c:	ffe70e13          	addi	t3,a4,-2
    2b20:	010787b3          	add	a5,a5,a6
    2b24:	40d786b3          	sub	a3,a5,a3
    2b28:	02a6f7b3          	remu	a5,a3,a0
    2b2c:	01061613          	slli	a2,a2,0x10
    2b30:	01065613          	srli	a2,a2,0x10
    2b34:	02a6d6b3          	divu	a3,a3,a0
    2b38:	01079793          	slli	a5,a5,0x10
    2b3c:	02d58733          	mul	a4,a1,a3
    2b40:	00c7e5b3          	or	a1,a5,a2
    2b44:	00068793          	mv	a5,a3
    2b48:	00e5fe63          	bgeu	a1,a4,2b64 <__divdi3+0x2d8>
    2b4c:	010585b3          	add	a1,a1,a6
    2b50:	fff68793          	addi	a5,a3,-1
    2b54:	0105e863          	bltu	a1,a6,2b64 <__divdi3+0x2d8>
    2b58:	00e5f663          	bgeu	a1,a4,2b64 <__divdi3+0x2d8>
    2b5c:	ffe68793          	addi	a5,a3,-2
    2b60:	010585b3          	add	a1,a1,a6
    2b64:	010e1e13          	slli	t3,t3,0x10
    2b68:	40e585b3          	sub	a1,a1,a4
    2b6c:	00fe6e33          	or	t3,t3,a5
    2b70:	e9dff06f          	j	2a0c <__divdi3+0x180>
    2b74:	18d5e663          	bltu	a1,a3,2d00 <__divdi3+0x474>
    2b78:	000107b7          	lui	a5,0x10
    2b7c:	04f6f463          	bgeu	a3,a5,2bc4 <__divdi3+0x338>
    2b80:	0ff00813          	li	a6,255
    2b84:	00d83733          	sltu	a4,a6,a3
    2b88:	00371713          	slli	a4,a4,0x3
    2b8c:	00e6d833          	srl	a6,a3,a4
    2b90:	7fffe797          	auipc	a5,0x7fffe
    2b94:	cf078793          	addi	a5,a5,-784 # 80000880 <__clz_tab>
    2b98:	010787b3          	add	a5,a5,a6
    2b9c:	0007c803          	lbu	a6,0(a5)
    2ba0:	02000e13          	li	t3,32
    2ba4:	00e80833          	add	a6,a6,a4
    2ba8:	410e0e33          	sub	t3,t3,a6
    2bac:	020e1663          	bnez	t3,2bd8 <__divdi3+0x34c>
    2bb0:	00100793          	li	a5,1
    2bb4:	eeb6e0e3          	bltu	a3,a1,2a94 <__divdi3+0x208>
    2bb8:	00c53533          	sltu	a0,a0,a2
    2bbc:	00154793          	xori	a5,a0,1
    2bc0:	ed5ff06f          	j	2a94 <__divdi3+0x208>
    2bc4:	010007b7          	lui	a5,0x1000
    2bc8:	01000713          	li	a4,16
    2bcc:	fcf6e0e3          	bltu	a3,a5,2b8c <__divdi3+0x300>
    2bd0:	01800713          	li	a4,24
    2bd4:	fb9ff06f          	j	2b8c <__divdi3+0x300>
    2bd8:	010657b3          	srl	a5,a2,a6
    2bdc:	01c696b3          	sll	a3,a3,t3
    2be0:	00d7e6b3          	or	a3,a5,a3
    2be4:	01c59733          	sll	a4,a1,t3
    2be8:	0105d7b3          	srl	a5,a1,a6
    2bec:	0106df93          	srli	t6,a3,0x10
    2bf0:	01055833          	srl	a6,a0,a6
    2bf4:	00e865b3          	or	a1,a6,a4
    2bf8:	03f7f833          	remu	a6,a5,t6
    2bfc:	01069f13          	slli	t5,a3,0x10
    2c00:	010f5f13          	srli	t5,t5,0x10
    2c04:	0105d713          	srli	a4,a1,0x10
    2c08:	01c61633          	sll	a2,a2,t3
    2c0c:	03f7d7b3          	divu	a5,a5,t6
    2c10:	01081813          	slli	a6,a6,0x10
    2c14:	00e86733          	or	a4,a6,a4
    2c18:	02ff0333          	mul	t1,t5,a5
    2c1c:	00078e93          	mv	t4,a5
    2c20:	00677e63          	bgeu	a4,t1,2c3c <__divdi3+0x3b0>
    2c24:	00d70733          	add	a4,a4,a3
    2c28:	fff78e93          	addi	t4,a5,-1 # ffffff <__trunctfdf2+0xfecf9f>
    2c2c:	00d76863          	bltu	a4,a3,2c3c <__divdi3+0x3b0>
    2c30:	00677663          	bgeu	a4,t1,2c3c <__divdi3+0x3b0>
    2c34:	ffe78e93          	addi	t4,a5,-2
    2c38:	00d70733          	add	a4,a4,a3
    2c3c:	40670733          	sub	a4,a4,t1
    2c40:	03f77333          	remu	t1,a4,t6
    2c44:	01059593          	slli	a1,a1,0x10
    2c48:	0105d593          	srli	a1,a1,0x10
    2c4c:	03f75733          	divu	a4,a4,t6
    2c50:	01031313          	slli	t1,t1,0x10
    2c54:	00b36833          	or	a6,t1,a1
    2c58:	02ef0f33          	mul	t5,t5,a4
    2c5c:	00070793          	mv	a5,a4
    2c60:	01e87e63          	bgeu	a6,t5,2c7c <__divdi3+0x3f0>
    2c64:	00d80833          	add	a6,a6,a3
    2c68:	fff70793          	addi	a5,a4,-1
    2c6c:	00d86863          	bltu	a6,a3,2c7c <__divdi3+0x3f0>
    2c70:	01e87663          	bgeu	a6,t5,2c7c <__divdi3+0x3f0>
    2c74:	ffe70793          	addi	a5,a4,-2
    2c78:	00d80833          	add	a6,a6,a3
    2c7c:	010e9e93          	slli	t4,t4,0x10
    2c80:	41e80833          	sub	a6,a6,t5
    2c84:	00010f37          	lui	t5,0x10
    2c88:	00fee7b3          	or	a5,t4,a5
    2c8c:	ffff0693          	addi	a3,t5,-1 # ffff <__umoddi3+0x177>
    2c90:	00d7f333          	and	t1,a5,a3
    2c94:	0107d593          	srli	a1,a5,0x10
    2c98:	00d676b3          	and	a3,a2,a3
    2c9c:	01065613          	srli	a2,a2,0x10
    2ca0:	02d30eb3          	mul	t4,t1,a3
    2ca4:	02d586b3          	mul	a3,a1,a3
    2ca8:	010ed713          	srli	a4,t4,0x10
    2cac:	02c30333          	mul	t1,t1,a2
    2cb0:	00d30333          	add	t1,t1,a3
    2cb4:	00670733          	add	a4,a4,t1
    2cb8:	02c585b3          	mul	a1,a1,a2
    2cbc:	00d77463          	bgeu	a4,a3,2cc4 <__divdi3+0x438>
    2cc0:	01e585b3          	add	a1,a1,t5
    2cc4:	01075693          	srli	a3,a4,0x10
    2cc8:	00b685b3          	add	a1,a3,a1
    2ccc:	02b86663          	bltu	a6,a1,2cf8 <__divdi3+0x46c>
    2cd0:	ccb81ee3          	bne	a6,a1,29ac <__divdi3+0x120>
    2cd4:	000106b7          	lui	a3,0x10
    2cd8:	fff68693          	addi	a3,a3,-1 # ffff <__umoddi3+0x177>
    2cdc:	00d77733          	and	a4,a4,a3
    2ce0:	01071713          	slli	a4,a4,0x10
    2ce4:	00defeb3          	and	t4,t4,a3
    2ce8:	01c51533          	sll	a0,a0,t3
    2cec:	01d70733          	add	a4,a4,t4
    2cf0:	00000e13          	li	t3,0
    2cf4:	dae570e3          	bgeu	a0,a4,2a94 <__divdi3+0x208>
    2cf8:	fff78793          	addi	a5,a5,-1
    2cfc:	cb1ff06f          	j	29ac <__divdi3+0x120>
    2d00:	00000e13          	li	t3,0
    2d04:	00000793          	li	a5,0
    2d08:	d8dff06f          	j	2a94 <__divdi3+0x208>

00002d0c <__adddf3>:
    2d0c:	00100837          	lui	a6,0x100
    2d10:	fff80813          	addi	a6,a6,-1 # fffff <__trunctfdf2+0xecf9f>
    2d14:	00b878b3          	and	a7,a6,a1
    2d18:	00389893          	slli	a7,a7,0x3
    2d1c:	01d55793          	srli	a5,a0,0x1d
    2d20:	fe010113          	addi	sp,sp,-32
    2d24:	0145d713          	srli	a4,a1,0x14
    2d28:	00d87833          	and	a6,a6,a3
    2d2c:	0117e7b3          	or	a5,a5,a7
    2d30:	0146d893          	srli	a7,a3,0x14
    2d34:	00381813          	slli	a6,a6,0x3
    2d38:	00912a23          	sw	s1,20(sp)
    2d3c:	01212823          	sw	s2,16(sp)
    2d40:	7ff77493          	andi	s1,a4,2047
    2d44:	7ff8f893          	andi	a7,a7,2047
    2d48:	01d65713          	srli	a4,a2,0x1d
    2d4c:	00112e23          	sw	ra,28(sp)
    2d50:	00812c23          	sw	s0,24(sp)
    2d54:	01312623          	sw	s3,12(sp)
    2d58:	01f5d913          	srli	s2,a1,0x1f
    2d5c:	01f6d693          	srli	a3,a3,0x1f
    2d60:	01076733          	or	a4,a4,a6
    2d64:	00351513          	slli	a0,a0,0x3
    2d68:	00361613          	slli	a2,a2,0x3
    2d6c:	41148833          	sub	a6,s1,a7
    2d70:	2cd91463          	bne	s2,a3,3038 <__adddf3+0x32c>
    2d74:	11005e63          	blez	a6,2e90 <__adddf3+0x184>
    2d78:	04089063          	bnez	a7,2db8 <__adddf3+0xac>
    2d7c:	00c766b3          	or	a3,a4,a2
    2d80:	72068263          	beqz	a3,34a4 <__adddf3+0x798>
    2d84:	fff80593          	addi	a1,a6,-1
    2d88:	02059063          	bnez	a1,2da8 <__adddf3+0x9c>
    2d8c:	00c50633          	add	a2,a0,a2
    2d90:	00a63533          	sltu	a0,a2,a0
    2d94:	00e787b3          	add	a5,a5,a4
    2d98:	00a787b3          	add	a5,a5,a0
    2d9c:	00060513          	mv	a0,a2
    2da0:	00100493          	li	s1,1
    2da4:	0700006f          	j	2e14 <__adddf3+0x108>
    2da8:	7ff00693          	li	a3,2047
    2dac:	02d81063          	bne	a6,a3,2dcc <__adddf3+0xc0>
    2db0:	7ff00493          	li	s1,2047
    2db4:	20c0006f          	j	2fc0 <__adddf3+0x2b4>
    2db8:	7ff00693          	li	a3,2047
    2dbc:	20d48263          	beq	s1,a3,2fc0 <__adddf3+0x2b4>
    2dc0:	008006b7          	lui	a3,0x800
    2dc4:	00d76733          	or	a4,a4,a3
    2dc8:	00080593          	mv	a1,a6
    2dcc:	03800693          	li	a3,56
    2dd0:	0ab6ca63          	blt	a3,a1,2e84 <__adddf3+0x178>
    2dd4:	01f00693          	li	a3,31
    2dd8:	06b6cc63          	blt	a3,a1,2e50 <__adddf3+0x144>
    2ddc:	02000813          	li	a6,32
    2de0:	40b80833          	sub	a6,a6,a1
    2de4:	010716b3          	sll	a3,a4,a6
    2de8:	00b658b3          	srl	a7,a2,a1
    2dec:	01061633          	sll	a2,a2,a6
    2df0:	0116e6b3          	or	a3,a3,a7
    2df4:	00c03633          	snez	a2,a2
    2df8:	00c6e633          	or	a2,a3,a2
    2dfc:	00b75733          	srl	a4,a4,a1
    2e00:	00a60633          	add	a2,a2,a0
    2e04:	00f70733          	add	a4,a4,a5
    2e08:	00a637b3          	sltu	a5,a2,a0
    2e0c:	00f707b3          	add	a5,a4,a5
    2e10:	00060513          	mv	a0,a2
    2e14:	00879713          	slli	a4,a5,0x8
    2e18:	1a075463          	bgez	a4,2fc0 <__adddf3+0x2b4>
    2e1c:	00148493          	addi	s1,s1,1 # 80000001 <__stack_top+0xfffb6181>
    2e20:	7ff00713          	li	a4,2047
    2e24:	5ce48863          	beq	s1,a4,33f4 <__adddf3+0x6e8>
    2e28:	ff8006b7          	lui	a3,0xff800
    2e2c:	fff68693          	addi	a3,a3,-1 # ff7fffff <__stack_top+0x7f7b617f>
    2e30:	00d7f6b3          	and	a3,a5,a3
    2e34:	00155593          	srli	a1,a0,0x1
    2e38:	00157513          	andi	a0,a0,1
    2e3c:	01f69793          	slli	a5,a3,0x1f
    2e40:	00a5e533          	or	a0,a1,a0
    2e44:	00a7e533          	or	a0,a5,a0
    2e48:	0016d793          	srli	a5,a3,0x1
    2e4c:	1740006f          	j	2fc0 <__adddf3+0x2b4>
    2e50:	fe058693          	addi	a3,a1,-32
    2e54:	02000893          	li	a7,32
    2e58:	00d756b3          	srl	a3,a4,a3
    2e5c:	00000813          	li	a6,0
    2e60:	01158863          	beq	a1,a7,2e70 <__adddf3+0x164>
    2e64:	04000813          	li	a6,64
    2e68:	40b805b3          	sub	a1,a6,a1
    2e6c:	00b71833          	sll	a6,a4,a1
    2e70:	00c86633          	or	a2,a6,a2
    2e74:	00c03633          	snez	a2,a2
    2e78:	00c6e633          	or	a2,a3,a2
    2e7c:	00000713          	li	a4,0
    2e80:	f81ff06f          	j	2e00 <__adddf3+0xf4>
    2e84:	00c76633          	or	a2,a4,a2
    2e88:	00c03633          	snez	a2,a2
    2e8c:	ff1ff06f          	j	2e7c <__adddf3+0x170>
    2e90:	0e080263          	beqz	a6,2f74 <__adddf3+0x268>
    2e94:	409885b3          	sub	a1,a7,s1
    2e98:	02049e63          	bnez	s1,2ed4 <__adddf3+0x1c8>
    2e9c:	00a7e6b3          	or	a3,a5,a0
    2ea0:	52068a63          	beqz	a3,33d4 <__adddf3+0x6c8>
    2ea4:	fff58693          	addi	a3,a1,-1
    2ea8:	00069c63          	bnez	a3,2ec0 <__adddf3+0x1b4>
    2eac:	00c50533          	add	a0,a0,a2
    2eb0:	00e787b3          	add	a5,a5,a4
    2eb4:	00c53633          	sltu	a2,a0,a2
    2eb8:	00c787b3          	add	a5,a5,a2
    2ebc:	ee5ff06f          	j	2da0 <__adddf3+0x94>
    2ec0:	7ff00813          	li	a6,2047
    2ec4:	03059263          	bne	a1,a6,2ee8 <__adddf3+0x1dc>
    2ec8:	00070793          	mv	a5,a4
    2ecc:	00060513          	mv	a0,a2
    2ed0:	ee1ff06f          	j	2db0 <__adddf3+0xa4>
    2ed4:	7ff00693          	li	a3,2047
    2ed8:	fed888e3          	beq	a7,a3,2ec8 <__adddf3+0x1bc>
    2edc:	008006b7          	lui	a3,0x800
    2ee0:	00d7e7b3          	or	a5,a5,a3
    2ee4:	00058693          	mv	a3,a1
    2ee8:	03800593          	li	a1,56
    2eec:	06d5ce63          	blt	a1,a3,2f68 <__adddf3+0x25c>
    2ef0:	01f00593          	li	a1,31
    2ef4:	04d5c063          	blt	a1,a3,2f34 <__adddf3+0x228>
    2ef8:	02000813          	li	a6,32
    2efc:	40d80833          	sub	a6,a6,a3
    2f00:	00d55333          	srl	t1,a0,a3
    2f04:	010795b3          	sll	a1,a5,a6
    2f08:	01051533          	sll	a0,a0,a6
    2f0c:	0065e5b3          	or	a1,a1,t1
    2f10:	00a03533          	snez	a0,a0
    2f14:	00a5e533          	or	a0,a1,a0
    2f18:	00d7d6b3          	srl	a3,a5,a3
    2f1c:	00c50533          	add	a0,a0,a2
    2f20:	00e687b3          	add	a5,a3,a4
    2f24:	00c53633          	sltu	a2,a0,a2
    2f28:	00c787b3          	add	a5,a5,a2
    2f2c:	00088493          	mv	s1,a7
    2f30:	ee5ff06f          	j	2e14 <__adddf3+0x108>
    2f34:	fe068593          	addi	a1,a3,-32 # 7fffe0 <__trunctfdf2+0x7ecf80>
    2f38:	02000313          	li	t1,32
    2f3c:	00b7d5b3          	srl	a1,a5,a1
    2f40:	00000813          	li	a6,0
    2f44:	00668863          	beq	a3,t1,2f54 <__adddf3+0x248>
    2f48:	04000813          	li	a6,64
    2f4c:	40d806b3          	sub	a3,a6,a3
    2f50:	00d79833          	sll	a6,a5,a3
    2f54:	00a86533          	or	a0,a6,a0
    2f58:	00a03533          	snez	a0,a0
    2f5c:	00a5e533          	or	a0,a1,a0
    2f60:	00000693          	li	a3,0
    2f64:	fb9ff06f          	j	2f1c <__adddf3+0x210>
    2f68:	00a7e533          	or	a0,a5,a0
    2f6c:	00a03533          	snez	a0,a0
    2f70:	ff1ff06f          	j	2f60 <__adddf3+0x254>
    2f74:	00148693          	addi	a3,s1,1
    2f78:	7fe6f593          	andi	a1,a3,2046
    2f7c:	08059663          	bnez	a1,3008 <__adddf3+0x2fc>
    2f80:	00a7e6b3          	or	a3,a5,a0
    2f84:	06049263          	bnez	s1,2fe8 <__adddf3+0x2dc>
    2f88:	44068e63          	beqz	a3,33e4 <__adddf3+0x6d8>
    2f8c:	00c766b3          	or	a3,a4,a2
    2f90:	02068863          	beqz	a3,2fc0 <__adddf3+0x2b4>
    2f94:	00c50633          	add	a2,a0,a2
    2f98:	00e787b3          	add	a5,a5,a4
    2f9c:	00a63533          	sltu	a0,a2,a0
    2fa0:	00a787b3          	add	a5,a5,a0
    2fa4:	00879713          	slli	a4,a5,0x8
    2fa8:	00060513          	mv	a0,a2
    2fac:	00075a63          	bgez	a4,2fc0 <__adddf3+0x2b4>
    2fb0:	ff800737          	lui	a4,0xff800
    2fb4:	fff70713          	addi	a4,a4,-1 # ff7fffff <__stack_top+0x7f7b617f>
    2fb8:	00e7f7b3          	and	a5,a5,a4
    2fbc:	00100493          	li	s1,1
    2fc0:	00757713          	andi	a4,a0,7
    2fc4:	42070c63          	beqz	a4,33fc <__adddf3+0x6f0>
    2fc8:	00f57713          	andi	a4,a0,15
    2fcc:	00400693          	li	a3,4
    2fd0:	42d70663          	beq	a4,a3,33fc <__adddf3+0x6f0>
    2fd4:	00450693          	addi	a3,a0,4
    2fd8:	00a6b533          	sltu	a0,a3,a0
    2fdc:	00a787b3          	add	a5,a5,a0
    2fe0:	00068513          	mv	a0,a3
    2fe4:	4180006f          	j	33fc <__adddf3+0x6f0>
    2fe8:	ee0680e3          	beqz	a3,2ec8 <__adddf3+0x1bc>
    2fec:	00c76633          	or	a2,a4,a2
    2ff0:	dc0600e3          	beqz	a2,2db0 <__adddf3+0xa4>
    2ff4:	00000913          	li	s2,0
    2ff8:	004007b7          	lui	a5,0x400
    2ffc:	00000513          	li	a0,0
    3000:	7ff00493          	li	s1,2047
    3004:	3f80006f          	j	33fc <__adddf3+0x6f0>
    3008:	7ff00593          	li	a1,2047
    300c:	3eb68263          	beq	a3,a1,33f0 <__adddf3+0x6e4>
    3010:	00c50633          	add	a2,a0,a2
    3014:	00e78733          	add	a4,a5,a4
    3018:	00a637b3          	sltu	a5,a2,a0
    301c:	00f70733          	add	a4,a4,a5
    3020:	01f71513          	slli	a0,a4,0x1f
    3024:	00165613          	srli	a2,a2,0x1
    3028:	00c56533          	or	a0,a0,a2
    302c:	00175793          	srli	a5,a4,0x1
    3030:	00068493          	mv	s1,a3
    3034:	f8dff06f          	j	2fc0 <__adddf3+0x2b4>
    3038:	0f005c63          	blez	a6,3130 <__adddf3+0x424>
    303c:	08089e63          	bnez	a7,30d8 <__adddf3+0x3cc>
    3040:	00c766b3          	or	a3,a4,a2
    3044:	46068063          	beqz	a3,34a4 <__adddf3+0x798>
    3048:	fff80593          	addi	a1,a6,-1
    304c:	02059063          	bnez	a1,306c <__adddf3+0x360>
    3050:	40c50633          	sub	a2,a0,a2
    3054:	00c53533          	sltu	a0,a0,a2
    3058:	40e787b3          	sub	a5,a5,a4
    305c:	40a787b3          	sub	a5,a5,a0
    3060:	00060513          	mv	a0,a2
    3064:	00100493          	li	s1,1
    3068:	0540006f          	j	30bc <__adddf3+0x3b0>
    306c:	7ff00693          	li	a3,2047
    3070:	d4d800e3          	beq	a6,a3,2db0 <__adddf3+0xa4>
    3074:	03800693          	li	a3,56
    3078:	0ab6c663          	blt	a3,a1,3124 <__adddf3+0x418>
    307c:	01f00693          	li	a3,31
    3080:	06b6c863          	blt	a3,a1,30f0 <__adddf3+0x3e4>
    3084:	02000813          	li	a6,32
    3088:	40b80833          	sub	a6,a6,a1
    308c:	010716b3          	sll	a3,a4,a6
    3090:	00b658b3          	srl	a7,a2,a1
    3094:	01061633          	sll	a2,a2,a6
    3098:	0116e6b3          	or	a3,a3,a7
    309c:	00c03633          	snez	a2,a2
    30a0:	00c6e633          	or	a2,a3,a2
    30a4:	00b75733          	srl	a4,a4,a1
    30a8:	40c50633          	sub	a2,a0,a2
    30ac:	40e78733          	sub	a4,a5,a4
    30b0:	00c537b3          	sltu	a5,a0,a2
    30b4:	40f707b3          	sub	a5,a4,a5
    30b8:	00060513          	mv	a0,a2
    30bc:	00879713          	slli	a4,a5,0x8
    30c0:	f00750e3          	bgez	a4,2fc0 <__adddf3+0x2b4>
    30c4:	00800437          	lui	s0,0x800
    30c8:	fff40413          	addi	s0,s0,-1 # 7fffff <__trunctfdf2+0x7ecf9f>
    30cc:	0087f433          	and	s0,a5,s0
    30d0:	00050993          	mv	s3,a0
    30d4:	20c0006f          	j	32e0 <__adddf3+0x5d4>
    30d8:	7ff00693          	li	a3,2047
    30dc:	eed482e3          	beq	s1,a3,2fc0 <__adddf3+0x2b4>
    30e0:	008006b7          	lui	a3,0x800
    30e4:	00d76733          	or	a4,a4,a3
    30e8:	00080593          	mv	a1,a6
    30ec:	f89ff06f          	j	3074 <__adddf3+0x368>
    30f0:	fe058693          	addi	a3,a1,-32
    30f4:	02000893          	li	a7,32
    30f8:	00d756b3          	srl	a3,a4,a3
    30fc:	00000813          	li	a6,0
    3100:	01158863          	beq	a1,a7,3110 <__adddf3+0x404>
    3104:	04000813          	li	a6,64
    3108:	40b805b3          	sub	a1,a6,a1
    310c:	00b71833          	sll	a6,a4,a1
    3110:	00c86633          	or	a2,a6,a2
    3114:	00c03633          	snez	a2,a2
    3118:	00c6e633          	or	a2,a3,a2
    311c:	00000713          	li	a4,0
    3120:	f89ff06f          	j	30a8 <__adddf3+0x39c>
    3124:	00c76633          	or	a2,a4,a2
    3128:	00c03633          	snez	a2,a2
    312c:	ff1ff06f          	j	311c <__adddf3+0x410>
    3130:	0e080863          	beqz	a6,3220 <__adddf3+0x514>
    3134:	40988833          	sub	a6,a7,s1
    3138:	04049263          	bnez	s1,317c <__adddf3+0x470>
    313c:	00a7e5b3          	or	a1,a5,a0
    3140:	36058663          	beqz	a1,34ac <__adddf3+0x7a0>
    3144:	fff80593          	addi	a1,a6,-1
    3148:	00059e63          	bnez	a1,3164 <__adddf3+0x458>
    314c:	40a60533          	sub	a0,a2,a0
    3150:	40f707b3          	sub	a5,a4,a5
    3154:	00a63633          	sltu	a2,a2,a0
    3158:	40c787b3          	sub	a5,a5,a2
    315c:	00068913          	mv	s2,a3
    3160:	f05ff06f          	j	3064 <__adddf3+0x358>
    3164:	7ff00313          	li	t1,2047
    3168:	02681463          	bne	a6,t1,3190 <__adddf3+0x484>
    316c:	00070793          	mv	a5,a4
    3170:	00060513          	mv	a0,a2
    3174:	7ff00493          	li	s1,2047
    3178:	0d00006f          	j	3248 <__adddf3+0x53c>
    317c:	7ff00593          	li	a1,2047
    3180:	feb886e3          	beq	a7,a1,316c <__adddf3+0x460>
    3184:	008005b7          	lui	a1,0x800
    3188:	00b7e7b3          	or	a5,a5,a1
    318c:	00080593          	mv	a1,a6
    3190:	03800813          	li	a6,56
    3194:	08b84063          	blt	a6,a1,3214 <__adddf3+0x508>
    3198:	01f00813          	li	a6,31
    319c:	04b84263          	blt	a6,a1,31e0 <__adddf3+0x4d4>
    31a0:	02000313          	li	t1,32
    31a4:	40b30333          	sub	t1,t1,a1
    31a8:	00b55e33          	srl	t3,a0,a1
    31ac:	00679833          	sll	a6,a5,t1
    31b0:	00651533          	sll	a0,a0,t1
    31b4:	01c86833          	or	a6,a6,t3
    31b8:	00a03533          	snez	a0,a0
    31bc:	00a86533          	or	a0,a6,a0
    31c0:	00b7d5b3          	srl	a1,a5,a1
    31c4:	40a60533          	sub	a0,a2,a0
    31c8:	40b707b3          	sub	a5,a4,a1
    31cc:	00a63633          	sltu	a2,a2,a0
    31d0:	40c787b3          	sub	a5,a5,a2
    31d4:	00088493          	mv	s1,a7
    31d8:	00068913          	mv	s2,a3
    31dc:	ee1ff06f          	j	30bc <__adddf3+0x3b0>
    31e0:	fe058813          	addi	a6,a1,-32 # 7fffe0 <__trunctfdf2+0x7ecf80>
    31e4:	02000e13          	li	t3,32
    31e8:	0107d833          	srl	a6,a5,a6
    31ec:	00000313          	li	t1,0
    31f0:	01c58863          	beq	a1,t3,3200 <__adddf3+0x4f4>
    31f4:	04000313          	li	t1,64
    31f8:	40b305b3          	sub	a1,t1,a1
    31fc:	00b79333          	sll	t1,a5,a1
    3200:	00a36533          	or	a0,t1,a0
    3204:	00a03533          	snez	a0,a0
    3208:	00a86533          	or	a0,a6,a0
    320c:	00000593          	li	a1,0
    3210:	fb5ff06f          	j	31c4 <__adddf3+0x4b8>
    3214:	00a7e533          	or	a0,a5,a0
    3218:	00a03533          	snez	a0,a0
    321c:	ff1ff06f          	j	320c <__adddf3+0x500>
    3220:	00148593          	addi	a1,s1,1
    3224:	7fe5f593          	andi	a1,a1,2046
    3228:	08059663          	bnez	a1,32b4 <__adddf3+0x5a8>
    322c:	00a7e833          	or	a6,a5,a0
    3230:	00c765b3          	or	a1,a4,a2
    3234:	06049063          	bnez	s1,3294 <__adddf3+0x588>
    3238:	00081c63          	bnez	a6,3250 <__adddf3+0x544>
    323c:	28058063          	beqz	a1,34bc <__adddf3+0x7b0>
    3240:	00070793          	mv	a5,a4
    3244:	00060513          	mv	a0,a2
    3248:	00068913          	mv	s2,a3
    324c:	d75ff06f          	j	2fc0 <__adddf3+0x2b4>
    3250:	d60588e3          	beqz	a1,2fc0 <__adddf3+0x2b4>
    3254:	40c50833          	sub	a6,a0,a2
    3258:	010538b3          	sltu	a7,a0,a6
    325c:	40e785b3          	sub	a1,a5,a4
    3260:	411585b3          	sub	a1,a1,a7
    3264:	00859893          	slli	a7,a1,0x8
    3268:	0008dc63          	bgez	a7,3280 <__adddf3+0x574>
    326c:	40a60533          	sub	a0,a2,a0
    3270:	40f707b3          	sub	a5,a4,a5
    3274:	00a63633          	sltu	a2,a2,a0
    3278:	40c787b3          	sub	a5,a5,a2
    327c:	fcdff06f          	j	3248 <__adddf3+0x53c>
    3280:	00b86533          	or	a0,a6,a1
    3284:	24050463          	beqz	a0,34cc <__adddf3+0x7c0>
    3288:	00058793          	mv	a5,a1
    328c:	00080513          	mv	a0,a6
    3290:	d31ff06f          	j	2fc0 <__adddf3+0x2b4>
    3294:	00081c63          	bnez	a6,32ac <__adddf3+0x5a0>
    3298:	22058e63          	beqz	a1,34d4 <__adddf3+0x7c8>
    329c:	00070793          	mv	a5,a4
    32a0:	00060513          	mv	a0,a2
    32a4:	00068913          	mv	s2,a3
    32a8:	b09ff06f          	j	2db0 <__adddf3+0xa4>
    32ac:	b00582e3          	beqz	a1,2db0 <__adddf3+0xa4>
    32b0:	d45ff06f          	j	2ff4 <__adddf3+0x2e8>
    32b4:	40c509b3          	sub	s3,a0,a2
    32b8:	013535b3          	sltu	a1,a0,s3
    32bc:	40e78433          	sub	s0,a5,a4
    32c0:	40b40433          	sub	s0,s0,a1
    32c4:	00841593          	slli	a1,s0,0x8
    32c8:	0805d663          	bgez	a1,3354 <__adddf3+0x648>
    32cc:	40a609b3          	sub	s3,a2,a0
    32d0:	40f707b3          	sub	a5,a4,a5
    32d4:	01363633          	sltu	a2,a2,s3
    32d8:	40c78433          	sub	s0,a5,a2
    32dc:	00068913          	mv	s2,a3
    32e0:	08040463          	beqz	s0,3368 <__adddf3+0x65c>
    32e4:	00040513          	mv	a0,s0
    32e8:	00002097          	auipc	ra,0x2
    32ec:	0a8080e7          	jalr	168(ra) # 5390 <__clzsi2>
    32f0:	ff850713          	addi	a4,a0,-8
    32f4:	01f00793          	li	a5,31
    32f8:	08e7c263          	blt	a5,a4,337c <__adddf3+0x670>
    32fc:	02000793          	li	a5,32
    3300:	40e787b3          	sub	a5,a5,a4
    3304:	00e41433          	sll	s0,s0,a4
    3308:	00f9d7b3          	srl	a5,s3,a5
    330c:	0087e433          	or	s0,a5,s0
    3310:	00e99533          	sll	a0,s3,a4
    3314:	0a974663          	blt	a4,s1,33c0 <__adddf3+0x6b4>
    3318:	40970733          	sub	a4,a4,s1
    331c:	00170793          	addi	a5,a4,1
    3320:	01f00693          	li	a3,31
    3324:	06f6c463          	blt	a3,a5,338c <__adddf3+0x680>
    3328:	02000713          	li	a4,32
    332c:	40f70733          	sub	a4,a4,a5
    3330:	00f55633          	srl	a2,a0,a5
    3334:	00e416b3          	sll	a3,s0,a4
    3338:	00e51533          	sll	a0,a0,a4
    333c:	00c6e6b3          	or	a3,a3,a2
    3340:	00a03533          	snez	a0,a0
    3344:	00a6e533          	or	a0,a3,a0
    3348:	00f457b3          	srl	a5,s0,a5
    334c:	00000493          	li	s1,0
    3350:	c71ff06f          	j	2fc0 <__adddf3+0x2b4>
    3354:	0089e533          	or	a0,s3,s0
    3358:	f80514e3          	bnez	a0,32e0 <__adddf3+0x5d4>
    335c:	00000793          	li	a5,0
    3360:	00000493          	li	s1,0
    3364:	1600006f          	j	34c4 <__adddf3+0x7b8>
    3368:	00098513          	mv	a0,s3
    336c:	00002097          	auipc	ra,0x2
    3370:	024080e7          	jalr	36(ra) # 5390 <__clzsi2>
    3374:	02050513          	addi	a0,a0,32
    3378:	f79ff06f          	j	32f0 <__adddf3+0x5e4>
    337c:	fd850413          	addi	s0,a0,-40
    3380:	00899433          	sll	s0,s3,s0
    3384:	00000513          	li	a0,0
    3388:	f8dff06f          	j	3314 <__adddf3+0x608>
    338c:	fe170713          	addi	a4,a4,-31
    3390:	02000613          	li	a2,32
    3394:	00e45733          	srl	a4,s0,a4
    3398:	00000693          	li	a3,0
    339c:	00c78863          	beq	a5,a2,33ac <__adddf3+0x6a0>
    33a0:	04000693          	li	a3,64
    33a4:	40f686b3          	sub	a3,a3,a5
    33a8:	00d416b3          	sll	a3,s0,a3
    33ac:	00d56533          	or	a0,a0,a3
    33b0:	00a03533          	snez	a0,a0
    33b4:	00a76533          	or	a0,a4,a0
    33b8:	00000793          	li	a5,0
    33bc:	f91ff06f          	j	334c <__adddf3+0x640>
    33c0:	ff8007b7          	lui	a5,0xff800
    33c4:	fff78793          	addi	a5,a5,-1 # ff7fffff <__stack_top+0x7f7b617f>
    33c8:	40e484b3          	sub	s1,s1,a4
    33cc:	00f477b3          	and	a5,s0,a5
    33d0:	bf1ff06f          	j	2fc0 <__adddf3+0x2b4>
    33d4:	00070793          	mv	a5,a4
    33d8:	00060513          	mv	a0,a2
    33dc:	00058493          	mv	s1,a1
    33e0:	be1ff06f          	j	2fc0 <__adddf3+0x2b4>
    33e4:	00070793          	mv	a5,a4
    33e8:	00060513          	mv	a0,a2
    33ec:	bd5ff06f          	j	2fc0 <__adddf3+0x2b4>
    33f0:	7ff00493          	li	s1,2047
    33f4:	00000793          	li	a5,0
    33f8:	00000513          	li	a0,0
    33fc:	00879713          	slli	a4,a5,0x8
    3400:	00075e63          	bgez	a4,341c <__adddf3+0x710>
    3404:	00148493          	addi	s1,s1,1
    3408:	7ff00713          	li	a4,2047
    340c:	0ce48c63          	beq	s1,a4,34e4 <__adddf3+0x7d8>
    3410:	ff800737          	lui	a4,0xff800
    3414:	fff70713          	addi	a4,a4,-1 # ff7fffff <__stack_top+0x7f7b617f>
    3418:	00e7f7b3          	and	a5,a5,a4
    341c:	01d79713          	slli	a4,a5,0x1d
    3420:	00355513          	srli	a0,a0,0x3
    3424:	00a76533          	or	a0,a4,a0
    3428:	7ff00713          	li	a4,2047
    342c:	0037d793          	srli	a5,a5,0x3
    3430:	00e49e63          	bne	s1,a4,344c <__adddf3+0x740>
    3434:	00f56533          	or	a0,a0,a5
    3438:	00000793          	li	a5,0
    343c:	00050863          	beqz	a0,344c <__adddf3+0x740>
    3440:	000807b7          	lui	a5,0x80
    3444:	00000513          	li	a0,0
    3448:	00000913          	li	s2,0
    344c:	00100737          	lui	a4,0x100
    3450:	fff70713          	addi	a4,a4,-1 # fffff <__trunctfdf2+0xecf9f>
    3454:	801006b7          	lui	a3,0x80100
    3458:	00e7f7b3          	and	a5,a5,a4
    345c:	fff68693          	addi	a3,a3,-1 # 800fffff <__stack_top+0xb617f>
    3460:	7ff4f713          	andi	a4,s1,2047
    3464:	01471713          	slli	a4,a4,0x14
    3468:	00d7f7b3          	and	a5,a5,a3
    346c:	00e7e7b3          	or	a5,a5,a4
    3470:	80000737          	lui	a4,0x80000
    3474:	fff74713          	not	a4,a4
    3478:	01c12083          	lw	ra,28(sp)
    347c:	01812403          	lw	s0,24(sp)
    3480:	01f91593          	slli	a1,s2,0x1f
    3484:	00e7f7b3          	and	a5,a5,a4
    3488:	00b7e733          	or	a4,a5,a1
    348c:	01412483          	lw	s1,20(sp)
    3490:	01012903          	lw	s2,16(sp)
    3494:	00c12983          	lw	s3,12(sp)
    3498:	00070593          	mv	a1,a4
    349c:	02010113          	addi	sp,sp,32
    34a0:	00008067          	ret
    34a4:	00080493          	mv	s1,a6
    34a8:	b19ff06f          	j	2fc0 <__adddf3+0x2b4>
    34ac:	00070793          	mv	a5,a4
    34b0:	00060513          	mv	a0,a2
    34b4:	00080493          	mv	s1,a6
    34b8:	d91ff06f          	j	3248 <__adddf3+0x53c>
    34bc:	00000793          	li	a5,0
    34c0:	00000513          	li	a0,0
    34c4:	00000913          	li	s2,0
    34c8:	f35ff06f          	j	33fc <__adddf3+0x6f0>
    34cc:	00000793          	li	a5,0
    34d0:	ff5ff06f          	j	34c4 <__adddf3+0x7b8>
    34d4:	00000513          	li	a0,0
    34d8:	00000913          	li	s2,0
    34dc:	004007b7          	lui	a5,0x400
    34e0:	b21ff06f          	j	3000 <__adddf3+0x2f4>
    34e4:	00000793          	li	a5,0
    34e8:	00000513          	li	a0,0
    34ec:	f31ff06f          	j	341c <__adddf3+0x710>

000034f0 <__divdf3>:
    34f0:	fd010113          	addi	sp,sp,-48
    34f4:	02812423          	sw	s0,40(sp)
    34f8:	02912223          	sw	s1,36(sp)
    34fc:	01612823          	sw	s6,16(sp)
    3500:	00050413          	mv	s0,a0
    3504:	00050b13          	mv	s6,a0
    3508:	001004b7          	lui	s1,0x100
    350c:	0145d513          	srli	a0,a1,0x14
    3510:	03212023          	sw	s2,32(sp)
    3514:	01312e23          	sw	s3,28(sp)
    3518:	01712623          	sw	s7,12(sp)
    351c:	fff48493          	addi	s1,s1,-1 # fffff <__trunctfdf2+0xecf9f>
    3520:	02112623          	sw	ra,44(sp)
    3524:	01412c23          	sw	s4,24(sp)
    3528:	01512a23          	sw	s5,20(sp)
    352c:	7ff57513          	andi	a0,a0,2047
    3530:	00060b93          	mv	s7,a2
    3534:	00068993          	mv	s3,a3
    3538:	00b4f4b3          	and	s1,s1,a1
    353c:	01f5d913          	srli	s2,a1,0x1f
    3540:	0a050663          	beqz	a0,35ec <__divdf3+0xfc>
    3544:	7ff00793          	li	a5,2047
    3548:	10f50a63          	beq	a0,a5,365c <__divdf3+0x16c>
    354c:	01db5a93          	srli	s5,s6,0x1d
    3550:	00349493          	slli	s1,s1,0x3
    3554:	009ae4b3          	or	s1,s5,s1
    3558:	00800ab7          	lui	s5,0x800
    355c:	0154eab3          	or	s5,s1,s5
    3560:	003b1413          	slli	s0,s6,0x3
    3564:	c0150a13          	addi	s4,a0,-1023
    3568:	00000b13          	li	s6,0
    356c:	0149d513          	srli	a0,s3,0x14
    3570:	001004b7          	lui	s1,0x100
    3574:	fff48493          	addi	s1,s1,-1 # fffff <__trunctfdf2+0xecf9f>
    3578:	7ff57513          	andi	a0,a0,2047
    357c:	0134f4b3          	and	s1,s1,s3
    3580:	000b8813          	mv	a6,s7
    3584:	01f9d993          	srli	s3,s3,0x1f
    3588:	10050663          	beqz	a0,3694 <__divdf3+0x1a4>
    358c:	7ff00793          	li	a5,2047
    3590:	16f50a63          	beq	a0,a5,3704 <__divdf3+0x214>
    3594:	01dbd793          	srli	a5,s7,0x1d
    3598:	00349493          	slli	s1,s1,0x3
    359c:	0097e7b3          	or	a5,a5,s1
    35a0:	008008b7          	lui	a7,0x800
    35a4:	0117e8b3          	or	a7,a5,a7
    35a8:	003b9813          	slli	a6,s7,0x3
    35ac:	c0150513          	addi	a0,a0,-1023
    35b0:	00000793          	li	a5,0
    35b4:	002b1713          	slli	a4,s6,0x2
    35b8:	00f76733          	or	a4,a4,a5
    35bc:	fff70713          	addi	a4,a4,-1 # 7fffffff <__stack_top+0xfffb617f>
    35c0:	00e00693          	li	a3,14
    35c4:	01394633          	xor	a2,s2,s3
    35c8:	40aa0533          	sub	a0,s4,a0
    35cc:	16e6e863          	bltu	a3,a4,373c <__divdf3+0x24c>
    35d0:	7fffd697          	auipc	a3,0x7fffd
    35d4:	1fc68693          	addi	a3,a3,508 # 800007cc <CSWTCH.3+0x1b4>
    35d8:	00271713          	slli	a4,a4,0x2
    35dc:	00d70733          	add	a4,a4,a3
    35e0:	00072703          	lw	a4,0(a4)
    35e4:	00d70733          	add	a4,a4,a3
    35e8:	00070067          	jr	a4
    35ec:	0164eab3          	or	s5,s1,s6
    35f0:	080a8263          	beqz	s5,3674 <__divdf3+0x184>
    35f4:	04048263          	beqz	s1,3638 <__divdf3+0x148>
    35f8:	00048513          	mv	a0,s1
    35fc:	00002097          	auipc	ra,0x2
    3600:	d94080e7          	jalr	-620(ra) # 5390 <__clzsi2>
    3604:	ff550793          	addi	a5,a0,-11
    3608:	01c00713          	li	a4,28
    360c:	04f74063          	blt	a4,a5,364c <__divdf3+0x15c>
    3610:	01d00a93          	li	s5,29
    3614:	ff850413          	addi	s0,a0,-8
    3618:	40fa8ab3          	sub	s5,s5,a5
    361c:	008494b3          	sll	s1,s1,s0
    3620:	015b5ab3          	srl	s5,s6,s5
    3624:	009aeab3          	or	s5,s5,s1
    3628:	008b1433          	sll	s0,s6,s0
    362c:	c0d00a13          	li	s4,-1011
    3630:	40aa0a33          	sub	s4,s4,a0
    3634:	f35ff06f          	j	3568 <__divdf3+0x78>
    3638:	000b0513          	mv	a0,s6
    363c:	00002097          	auipc	ra,0x2
    3640:	d54080e7          	jalr	-684(ra) # 5390 <__clzsi2>
    3644:	02050513          	addi	a0,a0,32
    3648:	fbdff06f          	j	3604 <__divdf3+0x114>
    364c:	fd850493          	addi	s1,a0,-40
    3650:	009b1ab3          	sll	s5,s6,s1
    3654:	00000413          	li	s0,0
    3658:	fd5ff06f          	j	362c <__divdf3+0x13c>
    365c:	0164eab3          	or	s5,s1,s6
    3660:	020a8263          	beqz	s5,3684 <__divdf3+0x194>
    3664:	00048a93          	mv	s5,s1
    3668:	7ff00a13          	li	s4,2047
    366c:	00300b13          	li	s6,3
    3670:	efdff06f          	j	356c <__divdf3+0x7c>
    3674:	00000413          	li	s0,0
    3678:	00000a13          	li	s4,0
    367c:	00100b13          	li	s6,1
    3680:	eedff06f          	j	356c <__divdf3+0x7c>
    3684:	00000413          	li	s0,0
    3688:	7ff00a13          	li	s4,2047
    368c:	00200b13          	li	s6,2
    3690:	eddff06f          	j	356c <__divdf3+0x7c>
    3694:	0174e8b3          	or	a7,s1,s7
    3698:	08088263          	beqz	a7,371c <__divdf3+0x22c>
    369c:	04048263          	beqz	s1,36e0 <__divdf3+0x1f0>
    36a0:	00048513          	mv	a0,s1
    36a4:	00002097          	auipc	ra,0x2
    36a8:	cec080e7          	jalr	-788(ra) # 5390 <__clzsi2>
    36ac:	ff550893          	addi	a7,a0,-11
    36b0:	01c00793          	li	a5,28
    36b4:	0517c063          	blt	a5,a7,36f4 <__divdf3+0x204>
    36b8:	01d00793          	li	a5,29
    36bc:	ff850813          	addi	a6,a0,-8
    36c0:	411787b3          	sub	a5,a5,a7
    36c4:	010494b3          	sll	s1,s1,a6
    36c8:	00fbd7b3          	srl	a5,s7,a5
    36cc:	0097e8b3          	or	a7,a5,s1
    36d0:	010b9833          	sll	a6,s7,a6
    36d4:	c0d00793          	li	a5,-1011
    36d8:	40a78533          	sub	a0,a5,a0
    36dc:	ed5ff06f          	j	35b0 <__divdf3+0xc0>
    36e0:	000b8513          	mv	a0,s7
    36e4:	00002097          	auipc	ra,0x2
    36e8:	cac080e7          	jalr	-852(ra) # 5390 <__clzsi2>
    36ec:	02050513          	addi	a0,a0,32
    36f0:	fbdff06f          	j	36ac <__divdf3+0x1bc>
    36f4:	fd850793          	addi	a5,a0,-40
    36f8:	00fb98b3          	sll	a7,s7,a5
    36fc:	00000813          	li	a6,0
    3700:	fd5ff06f          	j	36d4 <__divdf3+0x1e4>
    3704:	0174e8b3          	or	a7,s1,s7
    3708:	02088263          	beqz	a7,372c <__divdf3+0x23c>
    370c:	00048893          	mv	a7,s1
    3710:	7ff00513          	li	a0,2047
    3714:	00300793          	li	a5,3
    3718:	e9dff06f          	j	35b4 <__divdf3+0xc4>
    371c:	00000813          	li	a6,0
    3720:	00000513          	li	a0,0
    3724:	00100793          	li	a5,1
    3728:	e8dff06f          	j	35b4 <__divdf3+0xc4>
    372c:	00000813          	li	a6,0
    3730:	7ff00513          	li	a0,2047
    3734:	00200793          	li	a5,2
    3738:	e7dff06f          	j	35b4 <__divdf3+0xc4>
    373c:	0158e663          	bltu	a7,s5,3748 <__divdf3+0x258>
    3740:	371a9063          	bne	s5,a7,3aa0 <__divdf3+0x5b0>
    3744:	35046e63          	bltu	s0,a6,3aa0 <__divdf3+0x5b0>
    3748:	01fa9713          	slli	a4,s5,0x1f
    374c:	00145793          	srli	a5,s0,0x1
    3750:	01f41293          	slli	t0,s0,0x1f
    3754:	001ada93          	srli	s5,s5,0x1
    3758:	00f76433          	or	s0,a4,a5
    375c:	00889793          	slli	a5,a7,0x8
    3760:	01885893          	srli	a7,a6,0x18
    3764:	00f8e7b3          	or	a5,a7,a5
    3768:	0107de13          	srli	t3,a5,0x10
    376c:	00881593          	slli	a1,a6,0x8
    3770:	03cad833          	divu	a6,s5,t3
    3774:	01079313          	slli	t1,a5,0x10
    3778:	01035313          	srli	t1,t1,0x10
    377c:	01045713          	srli	a4,s0,0x10
    3780:	03caf4b3          	remu	s1,s5,t3
    3784:	00080f93          	mv	t6,a6
    3788:	030306b3          	mul	a3,t1,a6
    378c:	01049a93          	slli	s5,s1,0x10
    3790:	01576733          	or	a4,a4,s5
    3794:	00d77e63          	bgeu	a4,a3,37b0 <__divdf3+0x2c0>
    3798:	00f70733          	add	a4,a4,a5
    379c:	fff80f93          	addi	t6,a6,-1
    37a0:	00f76863          	bltu	a4,a5,37b0 <__divdf3+0x2c0>
    37a4:	00d77663          	bgeu	a4,a3,37b0 <__divdf3+0x2c0>
    37a8:	ffe80f93          	addi	t6,a6,-2
    37ac:	00f70733          	add	a4,a4,a5
    37b0:	40d70733          	sub	a4,a4,a3
    37b4:	03c758b3          	divu	a7,a4,t3
    37b8:	01041413          	slli	s0,s0,0x10
    37bc:	01045413          	srli	s0,s0,0x10
    37c0:	03c77733          	remu	a4,a4,t3
    37c4:	00088693          	mv	a3,a7
    37c8:	03130833          	mul	a6,t1,a7
    37cc:	01071713          	slli	a4,a4,0x10
    37d0:	00e46733          	or	a4,s0,a4
    37d4:	01077e63          	bgeu	a4,a6,37f0 <__divdf3+0x300>
    37d8:	00f70733          	add	a4,a4,a5
    37dc:	fff88693          	addi	a3,a7,-1 # 7fffff <__trunctfdf2+0x7ecf9f>
    37e0:	00f76863          	bltu	a4,a5,37f0 <__divdf3+0x300>
    37e4:	01077663          	bgeu	a4,a6,37f0 <__divdf3+0x300>
    37e8:	ffe88693          	addi	a3,a7,-2
    37ec:	00f70733          	add	a4,a4,a5
    37f0:	010f9f93          	slli	t6,t6,0x10
    37f4:	00dfefb3          	or	t6,t6,a3
    37f8:	000106b7          	lui	a3,0x10
    37fc:	fff68e93          	addi	t4,a3,-1 # ffff <__umoddi3+0x177>
    3800:	41070433          	sub	s0,a4,a6
    3804:	0105df13          	srli	t5,a1,0x10
    3808:	010fd713          	srli	a4,t6,0x10
    380c:	01dff833          	and	a6,t6,t4
    3810:	01d5feb3          	and	t4,a1,t4
    3814:	03d803b3          	mul	t2,a6,t4
    3818:	03d704b3          	mul	s1,a4,t4
    381c:	030f0833          	mul	a6,t5,a6
    3820:	03e708b3          	mul	a7,a4,t5
    3824:	00980733          	add	a4,a6,s1
    3828:	0103d813          	srli	a6,t2,0x10
    382c:	00e80833          	add	a6,a6,a4
    3830:	00987463          	bgeu	a6,s1,3838 <__divdf3+0x348>
    3834:	00d888b3          	add	a7,a7,a3
    3838:	01085713          	srli	a4,a6,0x10
    383c:	01170733          	add	a4,a4,a7
    3840:	000108b7          	lui	a7,0x10
    3844:	fff88893          	addi	a7,a7,-1 # ffff <__umoddi3+0x177>
    3848:	011876b3          	and	a3,a6,a7
    384c:	01069693          	slli	a3,a3,0x10
    3850:	0113f3b3          	and	t2,t2,a7
    3854:	007686b3          	add	a3,a3,t2
    3858:	00e46863          	bltu	s0,a4,3868 <__divdf3+0x378>
    385c:	000f8893          	mv	a7,t6
    3860:	04e41463          	bne	s0,a4,38a8 <__divdf3+0x3b8>
    3864:	04d2f263          	bgeu	t0,a3,38a8 <__divdf3+0x3b8>
    3868:	00b282b3          	add	t0,t0,a1
    386c:	00b2b833          	sltu	a6,t0,a1
    3870:	00f80833          	add	a6,a6,a5
    3874:	01040433          	add	s0,s0,a6
    3878:	ffff8893          	addi	a7,t6,-1
    387c:	0087e663          	bltu	a5,s0,3888 <__divdf3+0x398>
    3880:	02879463          	bne	a5,s0,38a8 <__divdf3+0x3b8>
    3884:	02b2e263          	bltu	t0,a1,38a8 <__divdf3+0x3b8>
    3888:	00e46663          	bltu	s0,a4,3894 <__divdf3+0x3a4>
    388c:	00871e63          	bne	a4,s0,38a8 <__divdf3+0x3b8>
    3890:	00d2fc63          	bgeu	t0,a3,38a8 <__divdf3+0x3b8>
    3894:	00b282b3          	add	t0,t0,a1
    3898:	00b2b833          	sltu	a6,t0,a1
    389c:	00f80833          	add	a6,a6,a5
    38a0:	ffef8893          	addi	a7,t6,-2
    38a4:	01040433          	add	s0,s0,a6
    38a8:	40d286b3          	sub	a3,t0,a3
    38ac:	40e40433          	sub	s0,s0,a4
    38b0:	00d2b733          	sltu	a4,t0,a3
    38b4:	40e40433          	sub	s0,s0,a4
    38b8:	fff00813          	li	a6,-1
    38bc:	12878463          	beq	a5,s0,39e4 <__divdf3+0x4f4>
    38c0:	03c452b3          	divu	t0,s0,t3
    38c4:	0106d713          	srli	a4,a3,0x10
    38c8:	03c47433          	remu	s0,s0,t3
    38cc:	00028813          	mv	a6,t0
    38d0:	02530fb3          	mul	t6,t1,t0
    38d4:	01041413          	slli	s0,s0,0x10
    38d8:	00876433          	or	s0,a4,s0
    38dc:	01f47e63          	bgeu	s0,t6,38f8 <__divdf3+0x408>
    38e0:	00f40433          	add	s0,s0,a5
    38e4:	fff28813          	addi	a6,t0,-1
    38e8:	00f46863          	bltu	s0,a5,38f8 <__divdf3+0x408>
    38ec:	01f47663          	bgeu	s0,t6,38f8 <__divdf3+0x408>
    38f0:	ffe28813          	addi	a6,t0,-2
    38f4:	00f40433          	add	s0,s0,a5
    38f8:	41f40433          	sub	s0,s0,t6
    38fc:	03c45fb3          	divu	t6,s0,t3
    3900:	01069693          	slli	a3,a3,0x10
    3904:	0106d693          	srli	a3,a3,0x10
    3908:	03c47433          	remu	s0,s0,t3
    390c:	000f8713          	mv	a4,t6
    3910:	03f30333          	mul	t1,t1,t6
    3914:	01041413          	slli	s0,s0,0x10
    3918:	0086e433          	or	s0,a3,s0
    391c:	00647e63          	bgeu	s0,t1,3938 <__divdf3+0x448>
    3920:	00f40433          	add	s0,s0,a5
    3924:	ffff8713          	addi	a4,t6,-1
    3928:	00f46863          	bltu	s0,a5,3938 <__divdf3+0x448>
    392c:	00647663          	bgeu	s0,t1,3938 <__divdf3+0x448>
    3930:	ffef8713          	addi	a4,t6,-2
    3934:	00f40433          	add	s0,s0,a5
    3938:	01081813          	slli	a6,a6,0x10
    393c:	00e86833          	or	a6,a6,a4
    3940:	01081693          	slli	a3,a6,0x10
    3944:	0106d693          	srli	a3,a3,0x10
    3948:	40640433          	sub	s0,s0,t1
    394c:	01085313          	srli	t1,a6,0x10
    3950:	03d68fb3          	mul	t6,a3,t4
    3954:	026f0e33          	mul	t3,t5,t1
    3958:	03d30eb3          	mul	t4,t1,t4
    395c:	02df0f33          	mul	t5,t5,a3
    3960:	010fd693          	srli	a3,t6,0x10
    3964:	01df0f33          	add	t5,t5,t4
    3968:	01e686b3          	add	a3,a3,t5
    396c:	01d6f663          	bgeu	a3,t4,3978 <__divdf3+0x488>
    3970:	00010737          	lui	a4,0x10
    3974:	00ee0e33          	add	t3,t3,a4
    3978:	0106d313          	srli	t1,a3,0x10
    397c:	01c30333          	add	t1,t1,t3
    3980:	00010e37          	lui	t3,0x10
    3984:	fffe0e13          	addi	t3,t3,-1 # ffff <__umoddi3+0x177>
    3988:	01c6f733          	and	a4,a3,t3
    398c:	01071713          	slli	a4,a4,0x10
    3990:	01cfffb3          	and	t6,t6,t3
    3994:	01f70733          	add	a4,a4,t6
    3998:	00646663          	bltu	s0,t1,39a4 <__divdf3+0x4b4>
    399c:	24641463          	bne	s0,t1,3be4 <__divdf3+0x6f4>
    39a0:	04070263          	beqz	a4,39e4 <__divdf3+0x4f4>
    39a4:	00878433          	add	s0,a5,s0
    39a8:	fff80693          	addi	a3,a6,-1
    39ac:	02f46463          	bltu	s0,a5,39d4 <__divdf3+0x4e4>
    39b0:	00646663          	bltu	s0,t1,39bc <__divdf3+0x4cc>
    39b4:	22641663          	bne	s0,t1,3be0 <__divdf3+0x6f0>
    39b8:	02e5f063          	bgeu	a1,a4,39d8 <__divdf3+0x4e8>
    39bc:	ffe80693          	addi	a3,a6,-2
    39c0:	00159813          	slli	a6,a1,0x1
    39c4:	00b835b3          	sltu	a1,a6,a1
    39c8:	00f587b3          	add	a5,a1,a5
    39cc:	00f40433          	add	s0,s0,a5
    39d0:	00080593          	mv	a1,a6
    39d4:	00641663          	bne	s0,t1,39e0 <__divdf3+0x4f0>
    39d8:	00068813          	mv	a6,a3
    39dc:	00b70463          	beq	a4,a1,39e4 <__divdf3+0x4f4>
    39e0:	0016e813          	ori	a6,a3,1
    39e4:	3ff50693          	addi	a3,a0,1023
    39e8:	10d05a63          	blez	a3,3afc <__divdf3+0x60c>
    39ec:	00787793          	andi	a5,a6,7
    39f0:	02078063          	beqz	a5,3a10 <__divdf3+0x520>
    39f4:	00f87793          	andi	a5,a6,15
    39f8:	00400713          	li	a4,4
    39fc:	00e78a63          	beq	a5,a4,3a10 <__divdf3+0x520>
    3a00:	00480793          	addi	a5,a6,4
    3a04:	0107b833          	sltu	a6,a5,a6
    3a08:	010888b3          	add	a7,a7,a6
    3a0c:	00078813          	mv	a6,a5
    3a10:	00789793          	slli	a5,a7,0x7
    3a14:	0007da63          	bgez	a5,3a28 <__divdf3+0x538>
    3a18:	ff0007b7          	lui	a5,0xff000
    3a1c:	fff78793          	addi	a5,a5,-1 # feffffff <__stack_top+0x7efb617f>
    3a20:	00f8f8b3          	and	a7,a7,a5
    3a24:	40050693          	addi	a3,a0,1024
    3a28:	7fe00793          	li	a5,2046
    3a2c:	18d7ca63          	blt	a5,a3,3bc0 <__divdf3+0x6d0>
    3a30:	00385813          	srli	a6,a6,0x3
    3a34:	01d89713          	slli	a4,a7,0x1d
    3a38:	01076733          	or	a4,a4,a6
    3a3c:	0038d793          	srli	a5,a7,0x3
    3a40:	001005b7          	lui	a1,0x100
    3a44:	fff58593          	addi	a1,a1,-1 # fffff <__trunctfdf2+0xecf9f>
    3a48:	00b7f7b3          	and	a5,a5,a1
    3a4c:	801005b7          	lui	a1,0x80100
    3a50:	fff58593          	addi	a1,a1,-1 # 800fffff <__stack_top+0xb617f>
    3a54:	7ff6f693          	andi	a3,a3,2047
    3a58:	01469693          	slli	a3,a3,0x14
    3a5c:	00b7f7b3          	and	a5,a5,a1
    3a60:	02c12083          	lw	ra,44(sp)
    3a64:	02812403          	lw	s0,40(sp)
    3a68:	01f61613          	slli	a2,a2,0x1f
    3a6c:	00d7e7b3          	or	a5,a5,a3
    3a70:	00c7e6b3          	or	a3,a5,a2
    3a74:	02412483          	lw	s1,36(sp)
    3a78:	02012903          	lw	s2,32(sp)
    3a7c:	01c12983          	lw	s3,28(sp)
    3a80:	01812a03          	lw	s4,24(sp)
    3a84:	01412a83          	lw	s5,20(sp)
    3a88:	01012b03          	lw	s6,16(sp)
    3a8c:	00c12b83          	lw	s7,12(sp)
    3a90:	00070513          	mv	a0,a4
    3a94:	00068593          	mv	a1,a3
    3a98:	03010113          	addi	sp,sp,48
    3a9c:	00008067          	ret
    3aa0:	fff50513          	addi	a0,a0,-1
    3aa4:	00000293          	li	t0,0
    3aa8:	cb5ff06f          	j	375c <__divdf3+0x26c>
    3aac:	00090613          	mv	a2,s2
    3ab0:	000a8893          	mv	a7,s5
    3ab4:	00040813          	mv	a6,s0
    3ab8:	000b0793          	mv	a5,s6
    3abc:	00200713          	li	a4,2
    3ac0:	10e78063          	beq	a5,a4,3bc0 <__divdf3+0x6d0>
    3ac4:	00300713          	li	a4,3
    3ac8:	0ee78263          	beq	a5,a4,3bac <__divdf3+0x6bc>
    3acc:	00100713          	li	a4,1
    3ad0:	f0e79ae3          	bne	a5,a4,39e4 <__divdf3+0x4f4>
    3ad4:	00000793          	li	a5,0
    3ad8:	00000713          	li	a4,0
    3adc:	0940006f          	j	3b70 <__divdf3+0x680>
    3ae0:	00098613          	mv	a2,s3
    3ae4:	fd9ff06f          	j	3abc <__divdf3+0x5cc>
    3ae8:	000808b7          	lui	a7,0x80
    3aec:	00000813          	li	a6,0
    3af0:	00000613          	li	a2,0
    3af4:	00300793          	li	a5,3
    3af8:	fc5ff06f          	j	3abc <__divdf3+0x5cc>
    3afc:	00100793          	li	a5,1
    3b00:	40d787b3          	sub	a5,a5,a3
    3b04:	03800713          	li	a4,56
    3b08:	fcf746e3          	blt	a4,a5,3ad4 <__divdf3+0x5e4>
    3b0c:	01f00713          	li	a4,31
    3b10:	06f74463          	blt	a4,a5,3b78 <__divdf3+0x688>
    3b14:	41e50513          	addi	a0,a0,1054
    3b18:	00a89733          	sll	a4,a7,a0
    3b1c:	00f856b3          	srl	a3,a6,a5
    3b20:	00a81533          	sll	a0,a6,a0
    3b24:	00d76733          	or	a4,a4,a3
    3b28:	00a03533          	snez	a0,a0
    3b2c:	00a76733          	or	a4,a4,a0
    3b30:	00f8d7b3          	srl	a5,a7,a5
    3b34:	00777693          	andi	a3,a4,7
    3b38:	02068063          	beqz	a3,3b58 <__divdf3+0x668>
    3b3c:	00f77693          	andi	a3,a4,15
    3b40:	00400593          	li	a1,4
    3b44:	00b68a63          	beq	a3,a1,3b58 <__divdf3+0x668>
    3b48:	00470693          	addi	a3,a4,4 # 10004 <__umoddi3+0x17c>
    3b4c:	00e6b733          	sltu	a4,a3,a4
    3b50:	00e787b3          	add	a5,a5,a4
    3b54:	00068713          	mv	a4,a3
    3b58:	00879693          	slli	a3,a5,0x8
    3b5c:	0606ca63          	bltz	a3,3bd0 <__divdf3+0x6e0>
    3b60:	01d79813          	slli	a6,a5,0x1d
    3b64:	00375713          	srli	a4,a4,0x3
    3b68:	00e86733          	or	a4,a6,a4
    3b6c:	0037d793          	srli	a5,a5,0x3
    3b70:	00000693          	li	a3,0
    3b74:	ecdff06f          	j	3a40 <__divdf3+0x550>
    3b78:	fe100713          	li	a4,-31
    3b7c:	40d70733          	sub	a4,a4,a3
    3b80:	02000593          	li	a1,32
    3b84:	00e8d733          	srl	a4,a7,a4
    3b88:	00000693          	li	a3,0
    3b8c:	00b78663          	beq	a5,a1,3b98 <__divdf3+0x6a8>
    3b90:	43e50513          	addi	a0,a0,1086
    3b94:	00a896b3          	sll	a3,a7,a0
    3b98:	0106e6b3          	or	a3,a3,a6
    3b9c:	00d036b3          	snez	a3,a3
    3ba0:	00d76733          	or	a4,a4,a3
    3ba4:	00000793          	li	a5,0
    3ba8:	f8dff06f          	j	3b34 <__divdf3+0x644>
    3bac:	000807b7          	lui	a5,0x80
    3bb0:	00000713          	li	a4,0
    3bb4:	7ff00693          	li	a3,2047
    3bb8:	00000613          	li	a2,0
    3bbc:	e85ff06f          	j	3a40 <__divdf3+0x550>
    3bc0:	00000793          	li	a5,0
    3bc4:	00000713          	li	a4,0
    3bc8:	7ff00693          	li	a3,2047
    3bcc:	e75ff06f          	j	3a40 <__divdf3+0x550>
    3bd0:	00000793          	li	a5,0
    3bd4:	00000713          	li	a4,0
    3bd8:	00100693          	li	a3,1
    3bdc:	e65ff06f          	j	3a40 <__divdf3+0x550>
    3be0:	00068813          	mv	a6,a3
    3be4:	00080693          	mv	a3,a6
    3be8:	df9ff06f          	j	39e0 <__divdf3+0x4f0>

00003bec <__ledf2>:
    3bec:	0145d813          	srli	a6,a1,0x14
    3bf0:	001007b7          	lui	a5,0x100
    3bf4:	fff78793          	addi	a5,a5,-1 # fffff <__trunctfdf2+0xecf9f>
    3bf8:	0146d713          	srli	a4,a3,0x14
    3bfc:	00050313          	mv	t1,a0
    3c00:	00050e93          	mv	t4,a0
    3c04:	7ff87813          	andi	a6,a6,2047
    3c08:	7ff00513          	li	a0,2047
    3c0c:	00b7f8b3          	and	a7,a5,a1
    3c10:	00060f13          	mv	t5,a2
    3c14:	00d7f7b3          	and	a5,a5,a3
    3c18:	01f5d593          	srli	a1,a1,0x1f
    3c1c:	7ff77713          	andi	a4,a4,2047
    3c20:	01f6d693          	srli	a3,a3,0x1f
    3c24:	00a81a63          	bne	a6,a0,3c38 <__ledf2+0x4c>
    3c28:	0068ee33          	or	t3,a7,t1
    3c2c:	00200513          	li	a0,2
    3c30:	080e0a63          	beqz	t3,3cc4 <__ledf2+0xd8>
    3c34:	00008067          	ret
    3c38:	00a71863          	bne	a4,a0,3c48 <__ledf2+0x5c>
    3c3c:	00c7ee33          	or	t3,a5,a2
    3c40:	00200513          	li	a0,2
    3c44:	020e1663          	bnez	t3,3c70 <__ledf2+0x84>
    3c48:	08081063          	bnez	a6,3cc8 <__ledf2+0xdc>
    3c4c:	0068e533          	or	a0,a7,t1
    3c50:	00153513          	seqz	a0,a0
    3c54:	00071663          	bnez	a4,3c60 <__ledf2+0x74>
    3c58:	00c7e633          	or	a2,a5,a2
    3c5c:	04060a63          	beqz	a2,3cb0 <__ledf2+0xc4>
    3c60:	00051a63          	bnez	a0,3c74 <__ledf2+0x88>
    3c64:	00d58e63          	beq	a1,a3,3c80 <__ledf2+0x94>
    3c68:	00100513          	li	a0,1
    3c6c:	00059663          	bnez	a1,3c78 <__ledf2+0x8c>
    3c70:	00008067          	ret
    3c74:	fe069ee3          	bnez	a3,3c70 <__ledf2+0x84>
    3c78:	fff00513          	li	a0,-1
    3c7c:	00008067          	ret
    3c80:	ff0744e3          	blt	a4,a6,3c68 <__ledf2+0x7c>
    3c84:	00e85a63          	bge	a6,a4,3c98 <__ledf2+0xac>
    3c88:	fff00513          	li	a0,-1
    3c8c:	fe0582e3          	beqz	a1,3c70 <__ledf2+0x84>
    3c90:	00100513          	li	a0,1
    3c94:	00008067          	ret
    3c98:	fd17e8e3          	bltu	a5,a7,3c68 <__ledf2+0x7c>
    3c9c:	02f89063          	bne	a7,a5,3cbc <__ledf2+0xd0>
    3ca0:	fddf64e3          	bltu	t5,t4,3c68 <__ledf2+0x7c>
    3ca4:	00000513          	li	a0,0
    3ca8:	fdeef4e3          	bgeu	t4,t5,3c70 <__ledf2+0x84>
    3cac:	fddff06f          	j	3c88 <__ledf2+0x9c>
    3cb0:	fa050ce3          	beqz	a0,3c68 <__ledf2+0x7c>
    3cb4:	00000513          	li	a0,0
    3cb8:	00008067          	ret
    3cbc:	fcf8e6e3          	bltu	a7,a5,3c88 <__ledf2+0x9c>
    3cc0:	ff5ff06f          	j	3cb4 <__ledf2+0xc8>
    3cc4:	f7070ce3          	beq	a4,a6,3c3c <__ledf2+0x50>
    3cc8:	f8071ee3          	bnez	a4,3c64 <__ledf2+0x78>
    3ccc:	00000513          	li	a0,0
    3cd0:	f89ff06f          	j	3c58 <__ledf2+0x6c>

00003cd4 <__muldf3>:
    3cd4:	fd010113          	addi	sp,sp,-48
    3cd8:	03212023          	sw	s2,32(sp)
    3cdc:	01512a23          	sw	s5,20(sp)
    3ce0:	00100937          	lui	s2,0x100
    3ce4:	0145da93          	srli	s5,a1,0x14
    3ce8:	01312e23          	sw	s3,28(sp)
    3cec:	01412c23          	sw	s4,24(sp)
    3cf0:	01612823          	sw	s6,16(sp)
    3cf4:	01712623          	sw	s7,12(sp)
    3cf8:	fff90913          	addi	s2,s2,-1 # fffff <__trunctfdf2+0xecf9f>
    3cfc:	02112623          	sw	ra,44(sp)
    3d00:	02812423          	sw	s0,40(sp)
    3d04:	02912223          	sw	s1,36(sp)
    3d08:	7ffafa93          	andi	s5,s5,2047
    3d0c:	00050b13          	mv	s6,a0
    3d10:	00060b93          	mv	s7,a2
    3d14:	00068a13          	mv	s4,a3
    3d18:	00b97933          	and	s2,s2,a1
    3d1c:	01f5d993          	srli	s3,a1,0x1f
    3d20:	0a0a8863          	beqz	s5,3dd0 <__muldf3+0xfc>
    3d24:	7ff00793          	li	a5,2047
    3d28:	10fa8a63          	beq	s5,a5,3e3c <__muldf3+0x168>
    3d2c:	01d55413          	srli	s0,a0,0x1d
    3d30:	00391913          	slli	s2,s2,0x3
    3d34:	01246933          	or	s2,s0,s2
    3d38:	00800437          	lui	s0,0x800
    3d3c:	00896433          	or	s0,s2,s0
    3d40:	00351493          	slli	s1,a0,0x3
    3d44:	c01a8a93          	addi	s5,s5,-1023 # 7ffc01 <__trunctfdf2+0x7ecba1>
    3d48:	00000b13          	li	s6,0
    3d4c:	014a5513          	srli	a0,s4,0x14
    3d50:	00100937          	lui	s2,0x100
    3d54:	fff90913          	addi	s2,s2,-1 # fffff <__trunctfdf2+0xecf9f>
    3d58:	7ff57513          	andi	a0,a0,2047
    3d5c:	01497933          	and	s2,s2,s4
    3d60:	000b8713          	mv	a4,s7
    3d64:	01fa5a13          	srli	s4,s4,0x1f
    3d68:	10050863          	beqz	a0,3e78 <__muldf3+0x1a4>
    3d6c:	7ff00793          	li	a5,2047
    3d70:	16f50c63          	beq	a0,a5,3ee8 <__muldf3+0x214>
    3d74:	01dbd793          	srli	a5,s7,0x1d
    3d78:	00391913          	slli	s2,s2,0x3
    3d7c:	0127e933          	or	s2,a5,s2
    3d80:	008007b7          	lui	a5,0x800
    3d84:	00f967b3          	or	a5,s2,a5
    3d88:	003b9713          	slli	a4,s7,0x3
    3d8c:	c0150513          	addi	a0,a0,-1023
    3d90:	00000693          	li	a3,0
    3d94:	002b1593          	slli	a1,s6,0x2
    3d98:	00d5e5b3          	or	a1,a1,a3
    3d9c:	00aa8533          	add	a0,s5,a0
    3da0:	fff58593          	addi	a1,a1,-1
    3da4:	00e00893          	li	a7,14
    3da8:	0149c633          	xor	a2,s3,s4
    3dac:	00150813          	addi	a6,a0,1
    3db0:	16b8e863          	bltu	a7,a1,3f20 <__muldf3+0x24c>
    3db4:	7fffd517          	auipc	a0,0x7fffd
    3db8:	a5450513          	addi	a0,a0,-1452 # 80000808 <CSWTCH.3+0x1f0>
    3dbc:	00259593          	slli	a1,a1,0x2
    3dc0:	00a585b3          	add	a1,a1,a0
    3dc4:	0005a583          	lw	a1,0(a1)
    3dc8:	00a585b3          	add	a1,a1,a0
    3dcc:	00058067          	jr	a1
    3dd0:	00a96433          	or	s0,s2,a0
    3dd4:	08040263          	beqz	s0,3e58 <__muldf3+0x184>
    3dd8:	04090263          	beqz	s2,3e1c <__muldf3+0x148>
    3ddc:	00090513          	mv	a0,s2
    3de0:	00001097          	auipc	ra,0x1
    3de4:	5b0080e7          	jalr	1456(ra) # 5390 <__clzsi2>
    3de8:	ff550793          	addi	a5,a0,-11
    3dec:	01c00713          	li	a4,28
    3df0:	02f74e63          	blt	a4,a5,3e2c <__muldf3+0x158>
    3df4:	01d00413          	li	s0,29
    3df8:	ff850493          	addi	s1,a0,-8
    3dfc:	40f40433          	sub	s0,s0,a5
    3e00:	00991933          	sll	s2,s2,s1
    3e04:	008b5433          	srl	s0,s6,s0
    3e08:	01246433          	or	s0,s0,s2
    3e0c:	009b14b3          	sll	s1,s6,s1
    3e10:	c0d00a93          	li	s5,-1011
    3e14:	40aa8ab3          	sub	s5,s5,a0
    3e18:	f31ff06f          	j	3d48 <__muldf3+0x74>
    3e1c:	00001097          	auipc	ra,0x1
    3e20:	574080e7          	jalr	1396(ra) # 5390 <__clzsi2>
    3e24:	02050513          	addi	a0,a0,32
    3e28:	fc1ff06f          	j	3de8 <__muldf3+0x114>
    3e2c:	fd850413          	addi	s0,a0,-40
    3e30:	008b1433          	sll	s0,s6,s0
    3e34:	00000493          	li	s1,0
    3e38:	fd9ff06f          	j	3e10 <__muldf3+0x13c>
    3e3c:	00a96433          	or	s0,s2,a0
    3e40:	02040463          	beqz	s0,3e68 <__muldf3+0x194>
    3e44:	00050493          	mv	s1,a0
    3e48:	00090413          	mv	s0,s2
    3e4c:	7ff00a93          	li	s5,2047
    3e50:	00300b13          	li	s6,3
    3e54:	ef9ff06f          	j	3d4c <__muldf3+0x78>
    3e58:	00000493          	li	s1,0
    3e5c:	00000a93          	li	s5,0
    3e60:	00100b13          	li	s6,1
    3e64:	ee9ff06f          	j	3d4c <__muldf3+0x78>
    3e68:	00000493          	li	s1,0
    3e6c:	7ff00a93          	li	s5,2047
    3e70:	00200b13          	li	s6,2
    3e74:	ed9ff06f          	j	3d4c <__muldf3+0x78>
    3e78:	017967b3          	or	a5,s2,s7
    3e7c:	08078263          	beqz	a5,3f00 <__muldf3+0x22c>
    3e80:	04090263          	beqz	s2,3ec4 <__muldf3+0x1f0>
    3e84:	00090513          	mv	a0,s2
    3e88:	00001097          	auipc	ra,0x1
    3e8c:	508080e7          	jalr	1288(ra) # 5390 <__clzsi2>
    3e90:	ff550693          	addi	a3,a0,-11
    3e94:	01c00793          	li	a5,28
    3e98:	04d7c063          	blt	a5,a3,3ed8 <__muldf3+0x204>
    3e9c:	01d00793          	li	a5,29
    3ea0:	ff850713          	addi	a4,a0,-8
    3ea4:	40d787b3          	sub	a5,a5,a3
    3ea8:	00e91933          	sll	s2,s2,a4
    3eac:	00fbd7b3          	srl	a5,s7,a5
    3eb0:	0127e7b3          	or	a5,a5,s2
    3eb4:	00eb9733          	sll	a4,s7,a4
    3eb8:	c0d00693          	li	a3,-1011
    3ebc:	40a68533          	sub	a0,a3,a0
    3ec0:	ed1ff06f          	j	3d90 <__muldf3+0xbc>
    3ec4:	000b8513          	mv	a0,s7
    3ec8:	00001097          	auipc	ra,0x1
    3ecc:	4c8080e7          	jalr	1224(ra) # 5390 <__clzsi2>
    3ed0:	02050513          	addi	a0,a0,32
    3ed4:	fbdff06f          	j	3e90 <__muldf3+0x1bc>
    3ed8:	fd850793          	addi	a5,a0,-40
    3edc:	00fb97b3          	sll	a5,s7,a5
    3ee0:	00000713          	li	a4,0
    3ee4:	fd5ff06f          	j	3eb8 <__muldf3+0x1e4>
    3ee8:	017967b3          	or	a5,s2,s7
    3eec:	02078263          	beqz	a5,3f10 <__muldf3+0x23c>
    3ef0:	00090793          	mv	a5,s2
    3ef4:	7ff00513          	li	a0,2047
    3ef8:	00300693          	li	a3,3
    3efc:	e99ff06f          	j	3d94 <__muldf3+0xc0>
    3f00:	00000713          	li	a4,0
    3f04:	00000513          	li	a0,0
    3f08:	00100693          	li	a3,1
    3f0c:	e89ff06f          	j	3d94 <__muldf3+0xc0>
    3f10:	00000713          	li	a4,0
    3f14:	7ff00513          	li	a0,2047
    3f18:	00200693          	li	a3,2
    3f1c:	e79ff06f          	j	3d94 <__muldf3+0xc0>
    3f20:	00010f37          	lui	t5,0x10
    3f24:	ffff0393          	addi	t2,t5,-1 # ffff <__umoddi3+0x177>
    3f28:	0104d693          	srli	a3,s1,0x10
    3f2c:	01075e13          	srli	t3,a4,0x10
    3f30:	0074f4b3          	and	s1,s1,t2
    3f34:	00777733          	and	a4,a4,t2
    3f38:	029e0333          	mul	t1,t3,s1
    3f3c:	029705b3          	mul	a1,a4,s1
    3f40:	02e68fb3          	mul	t6,a3,a4
    3f44:	01f30eb3          	add	t4,t1,t6
    3f48:	0105d313          	srli	t1,a1,0x10
    3f4c:	01d30333          	add	t1,t1,t4
    3f50:	03c688b3          	mul	a7,a3,t3
    3f54:	01f37463          	bgeu	t1,t6,3f5c <__muldf3+0x288>
    3f58:	01e888b3          	add	a7,a7,t5
    3f5c:	01035913          	srli	s2,t1,0x10
    3f60:	00737333          	and	t1,t1,t2
    3f64:	0075f5b3          	and	a1,a1,t2
    3f68:	0107df93          	srli	t6,a5,0x10
    3f6c:	0077f3b3          	and	t2,a5,t2
    3f70:	01031313          	slli	t1,t1,0x10
    3f74:	00b30333          	add	t1,t1,a1
    3f78:	027687b3          	mul	a5,a3,t2
    3f7c:	029385b3          	mul	a1,t2,s1
    3f80:	029f84b3          	mul	s1,t6,s1
    3f84:	00f48eb3          	add	t4,s1,a5
    3f88:	0105d493          	srli	s1,a1,0x10
    3f8c:	01d484b3          	add	s1,s1,t4
    3f90:	03f686b3          	mul	a3,a3,t6
    3f94:	00f4f663          	bgeu	s1,a5,3fa0 <__muldf3+0x2cc>
    3f98:	000107b7          	lui	a5,0x10
    3f9c:	00f686b3          	add	a3,a3,a5
    3fa0:	0104df13          	srli	t5,s1,0x10
    3fa4:	000109b7          	lui	s3,0x10
    3fa8:	00df0f33          	add	t5,t5,a3
    3fac:	fff98693          	addi	a3,s3,-1 # ffff <__umoddi3+0x177>
    3fb0:	00d4f4b3          	and	s1,s1,a3
    3fb4:	00d5f5b3          	and	a1,a1,a3
    3fb8:	01045793          	srli	a5,s0,0x10
    3fbc:	01049493          	slli	s1,s1,0x10
    3fc0:	00d47433          	and	s0,s0,a3
    3fc4:	00b484b3          	add	s1,s1,a1
    3fc8:	028706b3          	mul	a3,a4,s0
    3fcc:	00990933          	add	s2,s2,s1
    3fd0:	02e78eb3          	mul	t4,a5,a4
    3fd4:	028e05b3          	mul	a1,t3,s0
    3fd8:	02fe0733          	mul	a4,t3,a5
    3fdc:	01d58e33          	add	t3,a1,t4
    3fe0:	0106d593          	srli	a1,a3,0x10
    3fe4:	01c585b3          	add	a1,a1,t3
    3fe8:	01d5f463          	bgeu	a1,t4,3ff0 <__muldf3+0x31c>
    3fec:	01370733          	add	a4,a4,s3
    3ff0:	0105de13          	srli	t3,a1,0x10
    3ff4:	000109b7          	lui	s3,0x10
    3ff8:	00ee02b3          	add	t0,t3,a4
    3ffc:	fff98713          	addi	a4,s3,-1 # ffff <__umoddi3+0x177>
    4000:	00e5f5b3          	and	a1,a1,a4
    4004:	00e6f6b3          	and	a3,a3,a4
    4008:	02838e33          	mul	t3,t2,s0
    400c:	01059593          	slli	a1,a1,0x10
    4010:	00d585b3          	add	a1,a1,a3
    4014:	02778733          	mul	a4,a5,t2
    4018:	028f8433          	mul	s0,t6,s0
    401c:	02ff8eb3          	mul	t4,t6,a5
    4020:	00e40433          	add	s0,s0,a4
    4024:	010e5793          	srli	a5,t3,0x10
    4028:	00878433          	add	s0,a5,s0
    402c:	00e47463          	bgeu	s0,a4,4034 <__muldf3+0x360>
    4030:	013e8eb3          	add	t4,t4,s3
    4034:	000107b7          	lui	a5,0x10
    4038:	fff78793          	addi	a5,a5,-1 # ffff <__umoddi3+0x177>
    403c:	00f476b3          	and	a3,s0,a5
    4040:	00fe7e33          	and	t3,t3,a5
    4044:	01069693          	slli	a3,a3,0x10
    4048:	012888b3          	add	a7,a7,s2
    404c:	01c686b3          	add	a3,a3,t3
    4050:	0098b4b3          	sltu	s1,a7,s1
    4054:	01e686b3          	add	a3,a3,t5
    4058:	009687b3          	add	a5,a3,s1
    405c:	00b888b3          	add	a7,a7,a1
    4060:	00b8b5b3          	sltu	a1,a7,a1
    4064:	00578e33          	add	t3,a5,t0
    4068:	00be0fb3          	add	t6,t3,a1
    406c:	01e6b6b3          	sltu	a3,a3,t5
    4070:	0097b7b3          	sltu	a5,a5,s1
    4074:	00f6e7b3          	or	a5,a3,a5
    4078:	01045413          	srli	s0,s0,0x10
    407c:	005e3e33          	sltu	t3,t3,t0
    4080:	00bfb5b3          	sltu	a1,t6,a1
    4084:	008787b3          	add	a5,a5,s0
    4088:	00be65b3          	or	a1,t3,a1
    408c:	00b787b3          	add	a5,a5,a1
    4090:	01d787b3          	add	a5,a5,t4
    4094:	017fd713          	srli	a4,t6,0x17
    4098:	00979793          	slli	a5,a5,0x9
    409c:	00e7e7b3          	or	a5,a5,a4
    40a0:	00989713          	slli	a4,a7,0x9
    40a4:	00676733          	or	a4,a4,t1
    40a8:	00e03733          	snez	a4,a4
    40ac:	0178d893          	srli	a7,a7,0x17
    40b0:	009f9693          	slli	a3,t6,0x9
    40b4:	01176733          	or	a4,a4,a7
    40b8:	00d76733          	or	a4,a4,a3
    40bc:	00779693          	slli	a3,a5,0x7
    40c0:	1006da63          	bgez	a3,41d4 <__muldf3+0x500>
    40c4:	00175693          	srli	a3,a4,0x1
    40c8:	00177713          	andi	a4,a4,1
    40cc:	00e6e733          	or	a4,a3,a4
    40d0:	01f79693          	slli	a3,a5,0x1f
    40d4:	00d76733          	or	a4,a4,a3
    40d8:	0017d793          	srli	a5,a5,0x1
    40dc:	3ff80593          	addi	a1,a6,1023
    40e0:	0eb05e63          	blez	a1,41dc <__muldf3+0x508>
    40e4:	00777693          	andi	a3,a4,7
    40e8:	02068063          	beqz	a3,4108 <__muldf3+0x434>
    40ec:	00f77693          	andi	a3,a4,15
    40f0:	00400513          	li	a0,4
    40f4:	00a68a63          	beq	a3,a0,4108 <__muldf3+0x434>
    40f8:	00470693          	addi	a3,a4,4
    40fc:	00e6b733          	sltu	a4,a3,a4
    4100:	00e787b3          	add	a5,a5,a4
    4104:	00068713          	mv	a4,a3
    4108:	00779693          	slli	a3,a5,0x7
    410c:	0006da63          	bgez	a3,4120 <__muldf3+0x44c>
    4110:	ff0006b7          	lui	a3,0xff000
    4114:	fff68693          	addi	a3,a3,-1 # feffffff <__stack_top+0x7efb617f>
    4118:	00d7f7b3          	and	a5,a5,a3
    411c:	40080593          	addi	a1,a6,1024
    4120:	7fe00693          	li	a3,2046
    4124:	16b6ce63          	blt	a3,a1,42a0 <__muldf3+0x5cc>
    4128:	00375693          	srli	a3,a4,0x3
    412c:	01d79713          	slli	a4,a5,0x1d
    4130:	00d76733          	or	a4,a4,a3
    4134:	0037d793          	srli	a5,a5,0x3
    4138:	001006b7          	lui	a3,0x100
    413c:	fff68693          	addi	a3,a3,-1 # fffff <__trunctfdf2+0xecf9f>
    4140:	00d7f7b3          	and	a5,a5,a3
    4144:	7ff5f693          	andi	a3,a1,2047
    4148:	801005b7          	lui	a1,0x80100
    414c:	fff58593          	addi	a1,a1,-1 # 800fffff <__stack_top+0xb617f>
    4150:	01469693          	slli	a3,a3,0x14
    4154:	00b7f7b3          	and	a5,a5,a1
    4158:	02c12083          	lw	ra,44(sp)
    415c:	02812403          	lw	s0,40(sp)
    4160:	01f61613          	slli	a2,a2,0x1f
    4164:	00d7e7b3          	or	a5,a5,a3
    4168:	00c7e6b3          	or	a3,a5,a2
    416c:	02412483          	lw	s1,36(sp)
    4170:	02012903          	lw	s2,32(sp)
    4174:	01c12983          	lw	s3,28(sp)
    4178:	01812a03          	lw	s4,24(sp)
    417c:	01412a83          	lw	s5,20(sp)
    4180:	01012b03          	lw	s6,16(sp)
    4184:	00c12b83          	lw	s7,12(sp)
    4188:	00070513          	mv	a0,a4
    418c:	00068593          	mv	a1,a3
    4190:	03010113          	addi	sp,sp,48
    4194:	00008067          	ret
    4198:	00098613          	mv	a2,s3
    419c:	00040793          	mv	a5,s0
    41a0:	00048713          	mv	a4,s1
    41a4:	000b0693          	mv	a3,s6
    41a8:	00200593          	li	a1,2
    41ac:	0eb68a63          	beq	a3,a1,42a0 <__muldf3+0x5cc>
    41b0:	00300593          	li	a1,3
    41b4:	0cb68c63          	beq	a3,a1,428c <__muldf3+0x5b8>
    41b8:	00100593          	li	a1,1
    41bc:	f2b690e3          	bne	a3,a1,40dc <__muldf3+0x408>
    41c0:	00000793          	li	a5,0
    41c4:	00000713          	li	a4,0
    41c8:	0880006f          	j	4250 <__muldf3+0x57c>
    41cc:	000a0613          	mv	a2,s4
    41d0:	fd9ff06f          	j	41a8 <__muldf3+0x4d4>
    41d4:	00050813          	mv	a6,a0
    41d8:	f05ff06f          	j	40dc <__muldf3+0x408>
    41dc:	00100513          	li	a0,1
    41e0:	40b50533          	sub	a0,a0,a1
    41e4:	03800693          	li	a3,56
    41e8:	fca6cce3          	blt	a3,a0,41c0 <__muldf3+0x4ec>
    41ec:	01f00693          	li	a3,31
    41f0:	06a6c463          	blt	a3,a0,4258 <__muldf3+0x584>
    41f4:	41e80813          	addi	a6,a6,1054
    41f8:	010796b3          	sll	a3,a5,a6
    41fc:	00a755b3          	srl	a1,a4,a0
    4200:	01071733          	sll	a4,a4,a6
    4204:	00b6e6b3          	or	a3,a3,a1
    4208:	00e03733          	snez	a4,a4
    420c:	00e6e733          	or	a4,a3,a4
    4210:	00a7d7b3          	srl	a5,a5,a0
    4214:	00777693          	andi	a3,a4,7
    4218:	02068063          	beqz	a3,4238 <__muldf3+0x564>
    421c:	00f77693          	andi	a3,a4,15
    4220:	00400593          	li	a1,4
    4224:	00b68a63          	beq	a3,a1,4238 <__muldf3+0x564>
    4228:	00470693          	addi	a3,a4,4
    422c:	00e6b733          	sltu	a4,a3,a4
    4230:	00e787b3          	add	a5,a5,a4
    4234:	00068713          	mv	a4,a3
    4238:	00879693          	slli	a3,a5,0x8
    423c:	0606ca63          	bltz	a3,42b0 <__muldf3+0x5dc>
    4240:	01d79693          	slli	a3,a5,0x1d
    4244:	00375713          	srli	a4,a4,0x3
    4248:	00e6e733          	or	a4,a3,a4
    424c:	0037d793          	srli	a5,a5,0x3
    4250:	00000593          	li	a1,0
    4254:	ee5ff06f          	j	4138 <__muldf3+0x464>
    4258:	fe100693          	li	a3,-31
    425c:	40b686b3          	sub	a3,a3,a1
    4260:	02000893          	li	a7,32
    4264:	00d7d6b3          	srl	a3,a5,a3
    4268:	00000593          	li	a1,0
    426c:	01150663          	beq	a0,a7,4278 <__muldf3+0x5a4>
    4270:	43e80813          	addi	a6,a6,1086
    4274:	010795b3          	sll	a1,a5,a6
    4278:	00e5e733          	or	a4,a1,a4
    427c:	00e03733          	snez	a4,a4
    4280:	00e6e733          	or	a4,a3,a4
    4284:	00000793          	li	a5,0
    4288:	f8dff06f          	j	4214 <__muldf3+0x540>
    428c:	000807b7          	lui	a5,0x80
    4290:	00000713          	li	a4,0
    4294:	7ff00593          	li	a1,2047
    4298:	00000613          	li	a2,0
    429c:	e9dff06f          	j	4138 <__muldf3+0x464>
    42a0:	00000793          	li	a5,0
    42a4:	00000713          	li	a4,0
    42a8:	7ff00593          	li	a1,2047
    42ac:	e8dff06f          	j	4138 <__muldf3+0x464>
    42b0:	00000793          	li	a5,0
    42b4:	00000713          	li	a4,0
    42b8:	00100593          	li	a1,1
    42bc:	e7dff06f          	j	4138 <__muldf3+0x464>

000042c0 <__addsf3>:
    42c0:	00800737          	lui	a4,0x800
    42c4:	ff010113          	addi	sp,sp,-16
    42c8:	fff70713          	addi	a4,a4,-1 # 7fffff <__trunctfdf2+0x7ecf9f>
    42cc:	00a777b3          	and	a5,a4,a0
    42d0:	00912223          	sw	s1,4(sp)
    42d4:	01212023          	sw	s2,0(sp)
    42d8:	01f55493          	srli	s1,a0,0x1f
    42dc:	01755913          	srli	s2,a0,0x17
    42e0:	0175d513          	srli	a0,a1,0x17
    42e4:	00b77733          	and	a4,a4,a1
    42e8:	0ff97913          	zext.b	s2,s2
    42ec:	0ff57513          	zext.b	a0,a0
    42f0:	00112623          	sw	ra,12(sp)
    42f4:	00812423          	sw	s0,8(sp)
    42f8:	01f5d593          	srli	a1,a1,0x1f
    42fc:	00379793          	slli	a5,a5,0x3
    4300:	00371713          	slli	a4,a4,0x3
    4304:	40a906b3          	sub	a3,s2,a0
    4308:	18b49463          	bne	s1,a1,4490 <__addsf3+0x1d0>
    430c:	08d05c63          	blez	a3,43a4 <__addsf3+0xe4>
    4310:	04051c63          	bnez	a0,4368 <__addsf3+0xa8>
    4314:	34070863          	beqz	a4,4664 <__addsf3+0x3a4>
    4318:	fff68693          	addi	a3,a3,-1
    431c:	02069e63          	bnez	a3,4358 <__addsf3+0x98>
    4320:	00e787b3          	add	a5,a5,a4
    4324:	00090513          	mv	a0,s2
    4328:	00579713          	slli	a4,a5,0x5
    432c:	10075c63          	bgez	a4,4444 <__addsf3+0x184>
    4330:	00150513          	addi	a0,a0,1
    4334:	0ff00713          	li	a4,255
    4338:	34e50063          	beq	a0,a4,4678 <__addsf3+0x3b8>
    433c:	7e000737          	lui	a4,0x7e000
    4340:	0017f693          	andi	a3,a5,1
    4344:	fff70713          	addi	a4,a4,-1 # 7dffffff <__trunctfdf2+0x7dfecf9f>
    4348:	0017d793          	srli	a5,a5,0x1
    434c:	00e7f7b3          	and	a5,a5,a4
    4350:	00d7e7b3          	or	a5,a5,a3
    4354:	0f00006f          	j	4444 <__addsf3+0x184>
    4358:	0ff00613          	li	a2,255
    435c:	00c91e63          	bne	s2,a2,4378 <__addsf3+0xb8>
    4360:	0ff00513          	li	a0,255
    4364:	0e00006f          	j	4444 <__addsf3+0x184>
    4368:	0ff00613          	li	a2,255
    436c:	fec90ae3          	beq	s2,a2,4360 <__addsf3+0xa0>
    4370:	04000637          	lui	a2,0x4000
    4374:	00c76733          	or	a4,a4,a2
    4378:	01b00613          	li	a2,27
    437c:	00d65663          	bge	a2,a3,4388 <__addsf3+0xc8>
    4380:	00100713          	li	a4,1
    4384:	f9dff06f          	j	4320 <__addsf3+0x60>
    4388:	02000613          	li	a2,32
    438c:	00d755b3          	srl	a1,a4,a3
    4390:	40d606b3          	sub	a3,a2,a3
    4394:	00d71733          	sll	a4,a4,a3
    4398:	00e03733          	snez	a4,a4
    439c:	00e5e733          	or	a4,a1,a4
    43a0:	f81ff06f          	j	4320 <__addsf3+0x60>
    43a4:	06068663          	beqz	a3,4410 <__addsf3+0x150>
    43a8:	41250633          	sub	a2,a0,s2
    43ac:	02091463          	bnez	s2,43d4 <__addsf3+0x114>
    43b0:	00078e63          	beqz	a5,43cc <__addsf3+0x10c>
    43b4:	fff60613          	addi	a2,a2,-1 # 3ffffff <__trunctfdf2+0x3fecf9f>
    43b8:	00061663          	bnez	a2,43c4 <__addsf3+0x104>
    43bc:	00e787b3          	add	a5,a5,a4
    43c0:	f69ff06f          	j	4328 <__addsf3+0x68>
    43c4:	0ff00693          	li	a3,255
    43c8:	00d51e63          	bne	a0,a3,43e4 <__addsf3+0x124>
    43cc:	00070793          	mv	a5,a4
    43d0:	0740006f          	j	4444 <__addsf3+0x184>
    43d4:	0ff00693          	li	a3,255
    43d8:	fed50ae3          	beq	a0,a3,43cc <__addsf3+0x10c>
    43dc:	040006b7          	lui	a3,0x4000
    43e0:	00d7e7b3          	or	a5,a5,a3
    43e4:	01b00693          	li	a3,27
    43e8:	00c6d663          	bge	a3,a2,43f4 <__addsf3+0x134>
    43ec:	00100793          	li	a5,1
    43f0:	fcdff06f          	j	43bc <__addsf3+0xfc>
    43f4:	02000693          	li	a3,32
    43f8:	40c686b3          	sub	a3,a3,a2
    43fc:	00c7d5b3          	srl	a1,a5,a2
    4400:	00d797b3          	sll	a5,a5,a3
    4404:	00f037b3          	snez	a5,a5
    4408:	00f5e7b3          	or	a5,a1,a5
    440c:	fb1ff06f          	j	43bc <__addsf3+0xfc>
    4410:	00190693          	addi	a3,s2,1
    4414:	0fe6f513          	andi	a0,a3,254
    4418:	06051063          	bnez	a0,4478 <__addsf3+0x1b8>
    441c:	04091263          	bnez	s2,4460 <__addsf3+0x1a0>
    4420:	fa0786e3          	beqz	a5,43cc <__addsf3+0x10c>
    4424:	02070063          	beqz	a4,4444 <__addsf3+0x184>
    4428:	00e787b3          	add	a5,a5,a4
    442c:	00579713          	slli	a4,a5,0x5
    4430:	00075a63          	bgez	a4,4444 <__addsf3+0x184>
    4434:	fc000737          	lui	a4,0xfc000
    4438:	fff70713          	addi	a4,a4,-1 # fbffffff <__stack_top+0x7bfb617f>
    443c:	00e7f7b3          	and	a5,a5,a4
    4440:	00100513          	li	a0,1
    4444:	0077f713          	andi	a4,a5,7
    4448:	22070a63          	beqz	a4,467c <__addsf3+0x3bc>
    444c:	00f7f713          	andi	a4,a5,15
    4450:	00400693          	li	a3,4
    4454:	22d70463          	beq	a4,a3,467c <__addsf3+0x3bc>
    4458:	00478793          	addi	a5,a5,4 # 80004 <__trunctfdf2+0x6cfa4>
    445c:	2200006f          	j	467c <__addsf3+0x3bc>
    4460:	20078663          	beqz	a5,466c <__addsf3+0x3ac>
    4464:	ee070ee3          	beqz	a4,4360 <__addsf3+0xa0>
    4468:	00000493          	li	s1,0
    446c:	020007b7          	lui	a5,0x2000
    4470:	0ff00513          	li	a0,255
    4474:	2080006f          	j	467c <__addsf3+0x3bc>
    4478:	0ff00613          	li	a2,255
    447c:	1ec68c63          	beq	a3,a2,4674 <__addsf3+0x3b4>
    4480:	00e787b3          	add	a5,a5,a4
    4484:	0017d793          	srli	a5,a5,0x1
    4488:	00068513          	mv	a0,a3
    448c:	fb9ff06f          	j	4444 <__addsf3+0x184>
    4490:	08d05863          	blez	a3,4520 <__addsf3+0x260>
    4494:	04051863          	bnez	a0,44e4 <__addsf3+0x224>
    4498:	00090513          	mv	a0,s2
    449c:	fa0704e3          	beqz	a4,4444 <__addsf3+0x184>
    44a0:	fff68693          	addi	a3,a3,-1 # 3ffffff <__trunctfdf2+0x3fecf9f>
    44a4:	02069263          	bnez	a3,44c8 <__addsf3+0x208>
    44a8:	40e787b3          	sub	a5,a5,a4
    44ac:	00579713          	slli	a4,a5,0x5
    44b0:	f8075ae3          	bgez	a4,4444 <__addsf3+0x184>
    44b4:	04000437          	lui	s0,0x4000
    44b8:	fff40413          	addi	s0,s0,-1 # 3ffffff <__trunctfdf2+0x3fecf9f>
    44bc:	0087f433          	and	s0,a5,s0
    44c0:	00050913          	mv	s2,a0
    44c4:	13c0006f          	j	4600 <__addsf3+0x340>
    44c8:	0ff00613          	li	a2,255
    44cc:	0ff00513          	li	a0,255
    44d0:	f6c90ae3          	beq	s2,a2,4444 <__addsf3+0x184>
    44d4:	01b00613          	li	a2,27
    44d8:	02d65263          	bge	a2,a3,44fc <__addsf3+0x23c>
    44dc:	00100713          	li	a4,1
    44e0:	0340006f          	j	4514 <__addsf3+0x254>
    44e4:	0ff00613          	li	a2,255
    44e8:	0ff00513          	li	a0,255
    44ec:	f4c90ce3          	beq	s2,a2,4444 <__addsf3+0x184>
    44f0:	04000637          	lui	a2,0x4000
    44f4:	00c76733          	or	a4,a4,a2
    44f8:	fddff06f          	j	44d4 <__addsf3+0x214>
    44fc:	02000613          	li	a2,32
    4500:	00d755b3          	srl	a1,a4,a3
    4504:	40d606b3          	sub	a3,a2,a3
    4508:	00d71733          	sll	a4,a4,a3
    450c:	00e03733          	snez	a4,a4
    4510:	00e5e733          	or	a4,a1,a4
    4514:	40e787b3          	sub	a5,a5,a4
    4518:	00090513          	mv	a0,s2
    451c:	f91ff06f          	j	44ac <__addsf3+0x1ec>
    4520:	06068a63          	beqz	a3,4594 <__addsf3+0x2d4>
    4524:	41250633          	sub	a2,a0,s2
    4528:	02091863          	bnez	s2,4558 <__addsf3+0x298>
    452c:	02078063          	beqz	a5,454c <__addsf3+0x28c>
    4530:	fff60613          	addi	a2,a2,-1 # 3ffffff <__trunctfdf2+0x3fecf9f>
    4534:	00061863          	bnez	a2,4544 <__addsf3+0x284>
    4538:	40f707b3          	sub	a5,a4,a5
    453c:	00058493          	mv	s1,a1
    4540:	f6dff06f          	j	44ac <__addsf3+0x1ec>
    4544:	0ff00693          	li	a3,255
    4548:	02d51063          	bne	a0,a3,4568 <__addsf3+0x2a8>
    454c:	00070793          	mv	a5,a4
    4550:	00058493          	mv	s1,a1
    4554:	ef1ff06f          	j	4444 <__addsf3+0x184>
    4558:	0ff00693          	li	a3,255
    455c:	fed508e3          	beq	a0,a3,454c <__addsf3+0x28c>
    4560:	040006b7          	lui	a3,0x4000
    4564:	00d7e7b3          	or	a5,a5,a3
    4568:	01b00693          	li	a3,27
    456c:	00c6d663          	bge	a3,a2,4578 <__addsf3+0x2b8>
    4570:	00100793          	li	a5,1
    4574:	fc5ff06f          	j	4538 <__addsf3+0x278>
    4578:	02000693          	li	a3,32
    457c:	40c686b3          	sub	a3,a3,a2
    4580:	00c7d833          	srl	a6,a5,a2
    4584:	00d797b3          	sll	a5,a5,a3
    4588:	00f037b3          	snez	a5,a5
    458c:	00f867b3          	or	a5,a6,a5
    4590:	fa9ff06f          	j	4538 <__addsf3+0x278>
    4594:	00190513          	addi	a0,s2,1
    4598:	0fe57513          	andi	a0,a0,254
    459c:	04051863          	bnez	a0,45ec <__addsf3+0x32c>
    45a0:	02091c63          	bnez	s2,45d8 <__addsf3+0x318>
    45a4:	00079a63          	bnez	a5,45b8 <__addsf3+0x2f8>
    45a8:	fa0712e3          	bnez	a4,454c <__addsf3+0x28c>
    45ac:	00000793          	li	a5,0
    45b0:	00000493          	li	s1,0
    45b4:	0c80006f          	j	467c <__addsf3+0x3bc>
    45b8:	e80706e3          	beqz	a4,4444 <__addsf3+0x184>
    45bc:	40e786b3          	sub	a3,a5,a4
    45c0:	00569613          	slli	a2,a3,0x5
    45c4:	40f707b3          	sub	a5,a4,a5
    45c8:	f80644e3          	bltz	a2,4550 <__addsf3+0x290>
    45cc:	fe0680e3          	beqz	a3,45ac <__addsf3+0x2ec>
    45d0:	00068793          	mv	a5,a3
    45d4:	e71ff06f          	j	4444 <__addsf3+0x184>
    45d8:	e80796e3          	bnez	a5,4464 <__addsf3+0x1a4>
    45dc:	e80706e3          	beqz	a4,4468 <__addsf3+0x1a8>
    45e0:	00070793          	mv	a5,a4
    45e4:	00058493          	mv	s1,a1
    45e8:	d79ff06f          	j	4360 <__addsf3+0xa0>
    45ec:	40e78433          	sub	s0,a5,a4
    45f0:	00541693          	slli	a3,s0,0x5
    45f4:	0406d663          	bgez	a3,4640 <__addsf3+0x380>
    45f8:	40f70433          	sub	s0,a4,a5
    45fc:	00058493          	mv	s1,a1
    4600:	00040513          	mv	a0,s0
    4604:	00001097          	auipc	ra,0x1
    4608:	d8c080e7          	jalr	-628(ra) # 5390 <__clzsi2>
    460c:	ffb50513          	addi	a0,a0,-5
    4610:	00a41433          	sll	s0,s0,a0
    4614:	03254e63          	blt	a0,s2,4650 <__addsf3+0x390>
    4618:	41250533          	sub	a0,a0,s2
    461c:	00150513          	addi	a0,a0,1
    4620:	02000713          	li	a4,32
    4624:	00a457b3          	srl	a5,s0,a0
    4628:	40a70533          	sub	a0,a4,a0
    462c:	00a41433          	sll	s0,s0,a0
    4630:	00803433          	snez	s0,s0
    4634:	0087e7b3          	or	a5,a5,s0
    4638:	00000513          	li	a0,0
    463c:	e09ff06f          	j	4444 <__addsf3+0x184>
    4640:	fc0410e3          	bnez	s0,4600 <__addsf3+0x340>
    4644:	00000793          	li	a5,0
    4648:	00000513          	li	a0,0
    464c:	f65ff06f          	j	45b0 <__addsf3+0x2f0>
    4650:	fc0007b7          	lui	a5,0xfc000
    4654:	fff78793          	addi	a5,a5,-1 # fbffffff <__stack_top+0x7bfb617f>
    4658:	40a90533          	sub	a0,s2,a0
    465c:	00f477b3          	and	a5,s0,a5
    4660:	de5ff06f          	j	4444 <__addsf3+0x184>
    4664:	00090513          	mv	a0,s2
    4668:	dddff06f          	j	4444 <__addsf3+0x184>
    466c:	00070793          	mv	a5,a4
    4670:	cf1ff06f          	j	4360 <__addsf3+0xa0>
    4674:	0ff00513          	li	a0,255
    4678:	00000793          	li	a5,0
    467c:	00579713          	slli	a4,a5,0x5
    4680:	00075e63          	bgez	a4,469c <__addsf3+0x3dc>
    4684:	00150513          	addi	a0,a0,1
    4688:	0ff00713          	li	a4,255
    468c:	06e50663          	beq	a0,a4,46f8 <__addsf3+0x438>
    4690:	fc000737          	lui	a4,0xfc000
    4694:	fff70713          	addi	a4,a4,-1 # fbffffff <__stack_top+0x7bfb617f>
    4698:	00e7f7b3          	and	a5,a5,a4
    469c:	0ff00713          	li	a4,255
    46a0:	0037d793          	srli	a5,a5,0x3
    46a4:	00e51863          	bne	a0,a4,46b4 <__addsf3+0x3f4>
    46a8:	00078663          	beqz	a5,46b4 <__addsf3+0x3f4>
    46ac:	004007b7          	lui	a5,0x400
    46b0:	00000493          	li	s1,0
    46b4:	00800737          	lui	a4,0x800
    46b8:	fff70713          	addi	a4,a4,-1 # 7fffff <__trunctfdf2+0x7ecf9f>
    46bc:	0ff57513          	zext.b	a0,a0
    46c0:	00e7f7b3          	and	a5,a5,a4
    46c4:	01751713          	slli	a4,a0,0x17
    46c8:	80800537          	lui	a0,0x80800
    46cc:	00c12083          	lw	ra,12(sp)
    46d0:	00812403          	lw	s0,8(sp)
    46d4:	fff50513          	addi	a0,a0,-1 # 807fffff <__stack_top+0x7b617f>
    46d8:	00a7f533          	and	a0,a5,a0
    46dc:	01f49493          	slli	s1,s1,0x1f
    46e0:	00e56533          	or	a0,a0,a4
    46e4:	00956533          	or	a0,a0,s1
    46e8:	00012903          	lw	s2,0(sp)
    46ec:	00412483          	lw	s1,4(sp)
    46f0:	01010113          	addi	sp,sp,16
    46f4:	00008067          	ret
    46f8:	00000793          	li	a5,0
    46fc:	fa1ff06f          	j	469c <__addsf3+0x3dc>

00004700 <__divsf3>:
    4700:	fe010113          	addi	sp,sp,-32
    4704:	00912a23          	sw	s1,20(sp)
    4708:	01312623          	sw	s3,12(sp)
    470c:	01755493          	srli	s1,a0,0x17
    4710:	008009b7          	lui	s3,0x800
    4714:	01212823          	sw	s2,16(sp)
    4718:	01412423          	sw	s4,8(sp)
    471c:	fff98993          	addi	s3,s3,-1 # 7fffff <__trunctfdf2+0x7ecf9f>
    4720:	00112e23          	sw	ra,28(sp)
    4724:	00812c23          	sw	s0,24(sp)
    4728:	01512223          	sw	s5,4(sp)
    472c:	0ff4f493          	zext.b	s1,s1
    4730:	00058a13          	mv	s4,a1
    4734:	00a9f9b3          	and	s3,s3,a0
    4738:	01f55913          	srli	s2,a0,0x1f
    473c:	08048863          	beqz	s1,47cc <__divsf3+0xcc>
    4740:	0ff00793          	li	a5,255
    4744:	0af48663          	beq	s1,a5,47f0 <__divsf3+0xf0>
    4748:	00399993          	slli	s3,s3,0x3
    474c:	040007b7          	lui	a5,0x4000
    4750:	00f9e9b3          	or	s3,s3,a5
    4754:	f8148493          	addi	s1,s1,-127
    4758:	00000a93          	li	s5,0
    475c:	017a5513          	srli	a0,s4,0x17
    4760:	00800437          	lui	s0,0x800
    4764:	fff40413          	addi	s0,s0,-1 # 7fffff <__trunctfdf2+0x7ecf9f>
    4768:	0ff57513          	zext.b	a0,a0
    476c:	01447433          	and	s0,s0,s4
    4770:	01fa5a13          	srli	s4,s4,0x1f
    4774:	08050e63          	beqz	a0,4810 <__divsf3+0x110>
    4778:	0ff00793          	li	a5,255
    477c:	0af50c63          	beq	a0,a5,4834 <__divsf3+0x134>
    4780:	00341413          	slli	s0,s0,0x3
    4784:	040007b7          	lui	a5,0x4000
    4788:	00f46433          	or	s0,s0,a5
    478c:	f8150513          	addi	a0,a0,-127
    4790:	00000793          	li	a5,0
    4794:	002a9693          	slli	a3,s5,0x2
    4798:	00f6e6b3          	or	a3,a3,a5
    479c:	fff68693          	addi	a3,a3,-1 # 3ffffff <__trunctfdf2+0x3fecf9f>
    47a0:	00e00713          	li	a4,14
    47a4:	01494633          	xor	a2,s2,s4
    47a8:	40a48533          	sub	a0,s1,a0
    47ac:	0ad76463          	bltu	a4,a3,4854 <__divsf3+0x154>
    47b0:	7fffc597          	auipc	a1,0x7fffc
    47b4:	09458593          	addi	a1,a1,148 # 80000844 <CSWTCH.3+0x22c>
    47b8:	00269693          	slli	a3,a3,0x2
    47bc:	00b686b3          	add	a3,a3,a1
    47c0:	0006a703          	lw	a4,0(a3)
    47c4:	00b70733          	add	a4,a4,a1
    47c8:	00070067          	jr	a4
    47cc:	02098c63          	beqz	s3,4804 <__divsf3+0x104>
    47d0:	00098513          	mv	a0,s3
    47d4:	00001097          	auipc	ra,0x1
    47d8:	bbc080e7          	jalr	-1092(ra) # 5390 <__clzsi2>
    47dc:	ffb50793          	addi	a5,a0,-5
    47e0:	f8a00493          	li	s1,-118
    47e4:	00f999b3          	sll	s3,s3,a5
    47e8:	40a484b3          	sub	s1,s1,a0
    47ec:	f6dff06f          	j	4758 <__divsf3+0x58>
    47f0:	0ff00493          	li	s1,255
    47f4:	00200a93          	li	s5,2
    47f8:	f60982e3          	beqz	s3,475c <__divsf3+0x5c>
    47fc:	00300a93          	li	s5,3
    4800:	f5dff06f          	j	475c <__divsf3+0x5c>
    4804:	00000493          	li	s1,0
    4808:	00100a93          	li	s5,1
    480c:	f51ff06f          	j	475c <__divsf3+0x5c>
    4810:	02040c63          	beqz	s0,4848 <__divsf3+0x148>
    4814:	00040513          	mv	a0,s0
    4818:	00001097          	auipc	ra,0x1
    481c:	b78080e7          	jalr	-1160(ra) # 5390 <__clzsi2>
    4820:	ffb50793          	addi	a5,a0,-5
    4824:	00f41433          	sll	s0,s0,a5
    4828:	f8a00793          	li	a5,-118
    482c:	40a78533          	sub	a0,a5,a0
    4830:	f61ff06f          	j	4790 <__divsf3+0x90>
    4834:	0ff00513          	li	a0,255
    4838:	00200793          	li	a5,2
    483c:	f4040ce3          	beqz	s0,4794 <__divsf3+0x94>
    4840:	00300793          	li	a5,3
    4844:	f51ff06f          	j	4794 <__divsf3+0x94>
    4848:	00000513          	li	a0,0
    484c:	00100793          	li	a5,1
    4850:	f45ff06f          	j	4794 <__divsf3+0x94>
    4854:	00541813          	slli	a6,s0,0x5
    4858:	0e89f663          	bgeu	s3,s0,4944 <__divsf3+0x244>
    485c:	fff50513          	addi	a0,a0,-1
    4860:	00000693          	li	a3,0
    4864:	01085413          	srli	s0,a6,0x10
    4868:	0289d333          	divu	t1,s3,s0
    486c:	000107b7          	lui	a5,0x10
    4870:	fff78793          	addi	a5,a5,-1 # ffff <__umoddi3+0x177>
    4874:	00f877b3          	and	a5,a6,a5
    4878:	0106d693          	srli	a3,a3,0x10
    487c:	0289f733          	remu	a4,s3,s0
    4880:	00030593          	mv	a1,t1
    4884:	026788b3          	mul	a7,a5,t1
    4888:	01071713          	slli	a4,a4,0x10
    488c:	00e6e733          	or	a4,a3,a4
    4890:	01177e63          	bgeu	a4,a7,48ac <__divsf3+0x1ac>
    4894:	01070733          	add	a4,a4,a6
    4898:	fff30593          	addi	a1,t1,-1
    489c:	01076863          	bltu	a4,a6,48ac <__divsf3+0x1ac>
    48a0:	01177663          	bgeu	a4,a7,48ac <__divsf3+0x1ac>
    48a4:	ffe30593          	addi	a1,t1,-2
    48a8:	01070733          	add	a4,a4,a6
    48ac:	41170733          	sub	a4,a4,a7
    48b0:	028758b3          	divu	a7,a4,s0
    48b4:	02877733          	remu	a4,a4,s0
    48b8:	031786b3          	mul	a3,a5,a7
    48bc:	01071793          	slli	a5,a4,0x10
    48c0:	00088713          	mv	a4,a7
    48c4:	00d7fe63          	bgeu	a5,a3,48e0 <__divsf3+0x1e0>
    48c8:	010787b3          	add	a5,a5,a6
    48cc:	fff88713          	addi	a4,a7,-1 # 7ffff <__trunctfdf2+0x6cf9f>
    48d0:	0107e863          	bltu	a5,a6,48e0 <__divsf3+0x1e0>
    48d4:	00d7f663          	bgeu	a5,a3,48e0 <__divsf3+0x1e0>
    48d8:	ffe88713          	addi	a4,a7,-2
    48dc:	010787b3          	add	a5,a5,a6
    48e0:	01059413          	slli	s0,a1,0x10
    48e4:	40d787b3          	sub	a5,a5,a3
    48e8:	00e46433          	or	s0,s0,a4
    48ec:	00f037b3          	snez	a5,a5
    48f0:	00f46433          	or	s0,s0,a5
    48f4:	07f50713          	addi	a4,a0,127
    48f8:	0ee05663          	blez	a4,49e4 <__divsf3+0x2e4>
    48fc:	00747793          	andi	a5,s0,7
    4900:	00078a63          	beqz	a5,4914 <__divsf3+0x214>
    4904:	00f47793          	andi	a5,s0,15
    4908:	00400693          	li	a3,4
    490c:	00d78463          	beq	a5,a3,4914 <__divsf3+0x214>
    4910:	00440413          	addi	s0,s0,4
    4914:	00441793          	slli	a5,s0,0x4
    4918:	0007da63          	bgez	a5,492c <__divsf3+0x22c>
    491c:	f80007b7          	lui	a5,0xf8000
    4920:	fff78793          	addi	a5,a5,-1 # f7ffffff <__stack_top+0x77fb617f>
    4924:	00f47433          	and	s0,s0,a5
    4928:	08050713          	addi	a4,a0,128
    492c:	0fe00793          	li	a5,254
    4930:	00345413          	srli	s0,s0,0x3
    4934:	04e7d463          	bge	a5,a4,497c <__divsf3+0x27c>
    4938:	00000413          	li	s0,0
    493c:	0ff00713          	li	a4,255
    4940:	03c0006f          	j	497c <__divsf3+0x27c>
    4944:	01f99693          	slli	a3,s3,0x1f
    4948:	0019d993          	srli	s3,s3,0x1
    494c:	f19ff06f          	j	4864 <__divsf3+0x164>
    4950:	00090613          	mv	a2,s2
    4954:	00098413          	mv	s0,s3
    4958:	000a8793          	mv	a5,s5
    495c:	00200713          	li	a4,2
    4960:	fce78ce3          	beq	a5,a4,4938 <__divsf3+0x238>
    4964:	00300713          	li	a4,3
    4968:	0ce78863          	beq	a5,a4,4a38 <__divsf3+0x338>
    496c:	00100713          	li	a4,1
    4970:	f8e792e3          	bne	a5,a4,48f4 <__divsf3+0x1f4>
    4974:	00000413          	li	s0,0
    4978:	00000713          	li	a4,0
    497c:	00800537          	lui	a0,0x800
    4980:	fff50513          	addi	a0,a0,-1 # 7fffff <__trunctfdf2+0x7ecf9f>
    4984:	00a47433          	and	s0,s0,a0
    4988:	80800537          	lui	a0,0x80800
    498c:	fff50513          	addi	a0,a0,-1 # 807fffff <__stack_top+0x7b617f>
    4990:	0ff77713          	zext.b	a4,a4
    4994:	00a47433          	and	s0,s0,a0
    4998:	01771713          	slli	a4,a4,0x17
    499c:	00e46433          	or	s0,s0,a4
    49a0:	01f61513          	slli	a0,a2,0x1f
    49a4:	00a46533          	or	a0,s0,a0
    49a8:	01c12083          	lw	ra,28(sp)
    49ac:	01812403          	lw	s0,24(sp)
    49b0:	01412483          	lw	s1,20(sp)
    49b4:	01012903          	lw	s2,16(sp)
    49b8:	00c12983          	lw	s3,12(sp)
    49bc:	00812a03          	lw	s4,8(sp)
    49c0:	00412a83          	lw	s5,4(sp)
    49c4:	02010113          	addi	sp,sp,32
    49c8:	00008067          	ret
    49cc:	000a0613          	mv	a2,s4
    49d0:	f8dff06f          	j	495c <__divsf3+0x25c>
    49d4:	00400437          	lui	s0,0x400
    49d8:	00000613          	li	a2,0
    49dc:	00300793          	li	a5,3
    49e0:	f7dff06f          	j	495c <__divsf3+0x25c>
    49e4:	00100793          	li	a5,1
    49e8:	40e787b3          	sub	a5,a5,a4
    49ec:	01b00713          	li	a4,27
    49f0:	f8f742e3          	blt	a4,a5,4974 <__divsf3+0x274>
    49f4:	09e50513          	addi	a0,a0,158
    49f8:	00f457b3          	srl	a5,s0,a5
    49fc:	00a41433          	sll	s0,s0,a0
    4a00:	00803433          	snez	s0,s0
    4a04:	0087e433          	or	s0,a5,s0
    4a08:	00747793          	andi	a5,s0,7
    4a0c:	00078a63          	beqz	a5,4a20 <__divsf3+0x320>
    4a10:	00f47793          	andi	a5,s0,15
    4a14:	00400713          	li	a4,4
    4a18:	00e78463          	beq	a5,a4,4a20 <__divsf3+0x320>
    4a1c:	00440413          	addi	s0,s0,4 # 400004 <__trunctfdf2+0x3ecfa4>
    4a20:	00541793          	slli	a5,s0,0x5
    4a24:	00345413          	srli	s0,s0,0x3
    4a28:	f407d8e3          	bgez	a5,4978 <__divsf3+0x278>
    4a2c:	00000413          	li	s0,0
    4a30:	00100713          	li	a4,1
    4a34:	f49ff06f          	j	497c <__divsf3+0x27c>
    4a38:	00400437          	lui	s0,0x400
    4a3c:	0ff00713          	li	a4,255
    4a40:	00000613          	li	a2,0
    4a44:	f39ff06f          	j	497c <__divsf3+0x27c>

00004a48 <__eqsf2>:
    4a48:	008007b7          	lui	a5,0x800
    4a4c:	fff78793          	addi	a5,a5,-1 # 7fffff <__trunctfdf2+0x7ecf9f>
    4a50:	01755713          	srli	a4,a0,0x17
    4a54:	00a7f833          	and	a6,a5,a0
    4a58:	0175d613          	srli	a2,a1,0x17
    4a5c:	01f55693          	srli	a3,a0,0x1f
    4a60:	0ff77713          	zext.b	a4,a4
    4a64:	0ff00513          	li	a0,255
    4a68:	00b7f7b3          	and	a5,a5,a1
    4a6c:	0ff67613          	zext.b	a2,a2
    4a70:	01f5d593          	srli	a1,a1,0x1f
    4a74:	00a71663          	bne	a4,a0,4a80 <__eqsf2+0x38>
    4a78:	00100513          	li	a0,1
    4a7c:	02081a63          	bnez	a6,4ab0 <__eqsf2+0x68>
    4a80:	0ff00513          	li	a0,255
    4a84:	00a61663          	bne	a2,a0,4a90 <__eqsf2+0x48>
    4a88:	00100513          	li	a0,1
    4a8c:	02079263          	bnez	a5,4ab0 <__eqsf2+0x68>
    4a90:	00100513          	li	a0,1
    4a94:	00c71e63          	bne	a4,a2,4ab0 <__eqsf2+0x68>
    4a98:	00f81c63          	bne	a6,a5,4ab0 <__eqsf2+0x68>
    4a9c:	00b68863          	beq	a3,a1,4aac <__eqsf2+0x64>
    4aa0:	00071863          	bnez	a4,4ab0 <__eqsf2+0x68>
    4aa4:	01003533          	snez	a0,a6
    4aa8:	00008067          	ret
    4aac:	00000513          	li	a0,0
    4ab0:	00008067          	ret

00004ab4 <__gesf2>:
    4ab4:	00800737          	lui	a4,0x800
    4ab8:	fff70713          	addi	a4,a4,-1 # 7fffff <__trunctfdf2+0x7ecf9f>
    4abc:	01755613          	srli	a2,a0,0x17
    4ac0:	00a77833          	and	a6,a4,a0
    4ac4:	0175d693          	srli	a3,a1,0x17
    4ac8:	01f55793          	srli	a5,a0,0x1f
    4acc:	0ff67613          	zext.b	a2,a2
    4ad0:	0ff00513          	li	a0,255
    4ad4:	00b77733          	and	a4,a4,a1
    4ad8:	0ff6f693          	zext.b	a3,a3
    4adc:	01f5d593          	srli	a1,a1,0x1f
    4ae0:	00a61863          	bne	a2,a0,4af0 <__gesf2+0x3c>
    4ae4:	ffe00513          	li	a0,-2
    4ae8:	06080c63          	beqz	a6,4b60 <__gesf2+0xac>
    4aec:	00008067          	ret
    4af0:	00a69663          	bne	a3,a0,4afc <__gesf2+0x48>
    4af4:	ffe00513          	li	a0,-2
    4af8:	04071c63          	bnez	a4,4b50 <__gesf2+0x9c>
    4afc:	06061463          	bnez	a2,4b64 <__gesf2+0xb0>
    4b00:	00069463          	bnez	a3,4b08 <__gesf2+0x54>
    4b04:	04070863          	beqz	a4,4b54 <__gesf2+0xa0>
    4b08:	00080e63          	beqz	a6,4b24 <__gesf2+0x70>
    4b0c:	00b79463          	bne	a5,a1,4b14 <__gesf2+0x60>
    4b10:	02c6d263          	bge	a3,a2,4b34 <__gesf2+0x80>
    4b14:	00100513          	li	a0,1
    4b18:	02078c63          	beqz	a5,4b50 <__gesf2+0x9c>
    4b1c:	fff00513          	li	a0,-1
    4b20:	00008067          	ret
    4b24:	fff00513          	li	a0,-1
    4b28:	02058463          	beqz	a1,4b50 <__gesf2+0x9c>
    4b2c:	00100513          	li	a0,1
    4b30:	00008067          	ret
    4b34:	00d65863          	bge	a2,a3,4b44 <__gesf2+0x90>
    4b38:	fff00513          	li	a0,-1
    4b3c:	fe0798e3          	bnez	a5,4b2c <__gesf2+0x78>
    4b40:	0100006f          	j	4b50 <__gesf2+0x9c>
    4b44:	fd0768e3          	bltu	a4,a6,4b14 <__gesf2+0x60>
    4b48:	00000513          	li	a0,0
    4b4c:	fee866e3          	bltu	a6,a4,4b38 <__gesf2+0x84>
    4b50:	00008067          	ret
    4b54:	00000513          	li	a0,0
    4b58:	fe080ce3          	beqz	a6,4b50 <__gesf2+0x9c>
    4b5c:	fb9ff06f          	j	4b14 <__gesf2+0x60>
    4b60:	f8c68ae3          	beq	a3,a2,4af4 <__gesf2+0x40>
    4b64:	fa0694e3          	bnez	a3,4b0c <__gesf2+0x58>
    4b68:	fa0706e3          	beqz	a4,4b14 <__gesf2+0x60>
    4b6c:	fa1ff06f          	j	4b0c <__gesf2+0x58>

00004b70 <__lesf2>:
    4b70:	00800737          	lui	a4,0x800
    4b74:	fff70713          	addi	a4,a4,-1 # 7fffff <__trunctfdf2+0x7ecf9f>
    4b78:	01755613          	srli	a2,a0,0x17
    4b7c:	00a77833          	and	a6,a4,a0
    4b80:	0175d693          	srli	a3,a1,0x17
    4b84:	01f55793          	srli	a5,a0,0x1f
    4b88:	0ff67613          	zext.b	a2,a2
    4b8c:	0ff00513          	li	a0,255
    4b90:	00b77733          	and	a4,a4,a1
    4b94:	0ff6f693          	zext.b	a3,a3
    4b98:	01f5d593          	srli	a1,a1,0x1f
    4b9c:	00a61863          	bne	a2,a0,4bac <__lesf2+0x3c>
    4ba0:	00200513          	li	a0,2
    4ba4:	06080c63          	beqz	a6,4c1c <__lesf2+0xac>
    4ba8:	00008067          	ret
    4bac:	00a69663          	bne	a3,a0,4bb8 <__lesf2+0x48>
    4bb0:	00200513          	li	a0,2
    4bb4:	04071c63          	bnez	a4,4c0c <__lesf2+0x9c>
    4bb8:	06061463          	bnez	a2,4c20 <__lesf2+0xb0>
    4bbc:	00069463          	bnez	a3,4bc4 <__lesf2+0x54>
    4bc0:	04070863          	beqz	a4,4c10 <__lesf2+0xa0>
    4bc4:	00080e63          	beqz	a6,4be0 <__lesf2+0x70>
    4bc8:	00b79463          	bne	a5,a1,4bd0 <__lesf2+0x60>
    4bcc:	02c6d263          	bge	a3,a2,4bf0 <__lesf2+0x80>
    4bd0:	00100513          	li	a0,1
    4bd4:	02078c63          	beqz	a5,4c0c <__lesf2+0x9c>
    4bd8:	fff00513          	li	a0,-1
    4bdc:	00008067          	ret
    4be0:	fff00513          	li	a0,-1
    4be4:	02058463          	beqz	a1,4c0c <__lesf2+0x9c>
    4be8:	00100513          	li	a0,1
    4bec:	00008067          	ret
    4bf0:	00d65863          	bge	a2,a3,4c00 <__lesf2+0x90>
    4bf4:	fff00513          	li	a0,-1
    4bf8:	fe0798e3          	bnez	a5,4be8 <__lesf2+0x78>
    4bfc:	0100006f          	j	4c0c <__lesf2+0x9c>
    4c00:	fd0768e3          	bltu	a4,a6,4bd0 <__lesf2+0x60>
    4c04:	00000513          	li	a0,0
    4c08:	fee866e3          	bltu	a6,a4,4bf4 <__lesf2+0x84>
    4c0c:	00008067          	ret
    4c10:	00000513          	li	a0,0
    4c14:	fe080ce3          	beqz	a6,4c0c <__lesf2+0x9c>
    4c18:	fb9ff06f          	j	4bd0 <__lesf2+0x60>
    4c1c:	f8c68ae3          	beq	a3,a2,4bb0 <__lesf2+0x40>
    4c20:	fa0694e3          	bnez	a3,4bc8 <__lesf2+0x58>
    4c24:	fa0706e3          	beqz	a4,4bd0 <__lesf2+0x60>
    4c28:	fa1ff06f          	j	4bc8 <__lesf2+0x58>

00004c2c <__subsf3>:
    4c2c:	00800737          	lui	a4,0x800
    4c30:	ff010113          	addi	sp,sp,-16
    4c34:	fff70713          	addi	a4,a4,-1 # 7fffff <__trunctfdf2+0x7ecf9f>
    4c38:	01755693          	srli	a3,a0,0x17
    4c3c:	0175d813          	srli	a6,a1,0x17
    4c40:	00a777b3          	and	a5,a4,a0
    4c44:	00912223          	sw	s1,4(sp)
    4c48:	00b77733          	and	a4,a4,a1
    4c4c:	01212023          	sw	s2,0(sp)
    4c50:	0ff6f693          	zext.b	a3,a3
    4c54:	0ff87813          	zext.b	a6,a6
    4c58:	00112623          	sw	ra,12(sp)
    4c5c:	00812423          	sw	s0,8(sp)
    4c60:	0ff00613          	li	a2,255
    4c64:	01f55493          	srli	s1,a0,0x1f
    4c68:	00068913          	mv	s2,a3
    4c6c:	00379793          	slli	a5,a5,0x3
    4c70:	00080513          	mv	a0,a6
    4c74:	01f5d593          	srli	a1,a1,0x1f
    4c78:	00371713          	slli	a4,a4,0x3
    4c7c:	00c81463          	bne	a6,a2,4c84 <__subsf3+0x58>
    4c80:	00071463          	bnez	a4,4c88 <__subsf3+0x5c>
    4c84:	0015c593          	xori	a1,a1,1
    4c88:	41068633          	sub	a2,a3,a6
    4c8c:	16959e63          	bne	a1,s1,4e08 <__subsf3+0x1dc>
    4c90:	08c05c63          	blez	a2,4d28 <__subsf3+0xfc>
    4c94:	04081c63          	bnez	a6,4cec <__subsf3+0xc0>
    4c98:	34070863          	beqz	a4,4fe8 <__subsf3+0x3bc>
    4c9c:	fff60613          	addi	a2,a2,-1
    4ca0:	02061e63          	bnez	a2,4cdc <__subsf3+0xb0>
    4ca4:	00e787b3          	add	a5,a5,a4
    4ca8:	00068513          	mv	a0,a3
    4cac:	00579713          	slli	a4,a5,0x5
    4cb0:	10075c63          	bgez	a4,4dc8 <__subsf3+0x19c>
    4cb4:	00150513          	addi	a0,a0,1
    4cb8:	0ff00713          	li	a4,255
    4cbc:	34e50063          	beq	a0,a4,4ffc <__subsf3+0x3d0>
    4cc0:	7e000737          	lui	a4,0x7e000
    4cc4:	0017f693          	andi	a3,a5,1
    4cc8:	fff70713          	addi	a4,a4,-1 # 7dffffff <__trunctfdf2+0x7dfecf9f>
    4ccc:	0017d793          	srli	a5,a5,0x1
    4cd0:	00e7f7b3          	and	a5,a5,a4
    4cd4:	00d7e7b3          	or	a5,a5,a3
    4cd8:	0f00006f          	j	4dc8 <__subsf3+0x19c>
    4cdc:	0ff00593          	li	a1,255
    4ce0:	00b69e63          	bne	a3,a1,4cfc <__subsf3+0xd0>
    4ce4:	0ff00513          	li	a0,255
    4ce8:	0e00006f          	j	4dc8 <__subsf3+0x19c>
    4cec:	0ff00593          	li	a1,255
    4cf0:	feb68ae3          	beq	a3,a1,4ce4 <__subsf3+0xb8>
    4cf4:	040005b7          	lui	a1,0x4000
    4cf8:	00b76733          	or	a4,a4,a1
    4cfc:	01b00593          	li	a1,27
    4d00:	00c5d663          	bge	a1,a2,4d0c <__subsf3+0xe0>
    4d04:	00100713          	li	a4,1
    4d08:	f9dff06f          	j	4ca4 <__subsf3+0x78>
    4d0c:	02000593          	li	a1,32
    4d10:	00c75533          	srl	a0,a4,a2
    4d14:	40c58633          	sub	a2,a1,a2
    4d18:	00c71733          	sll	a4,a4,a2
    4d1c:	00e03733          	snez	a4,a4
    4d20:	00e56733          	or	a4,a0,a4
    4d24:	f81ff06f          	j	4ca4 <__subsf3+0x78>
    4d28:	06060663          	beqz	a2,4d94 <__subsf3+0x168>
    4d2c:	40d80633          	sub	a2,a6,a3
    4d30:	02069463          	bnez	a3,4d58 <__subsf3+0x12c>
    4d34:	2a078e63          	beqz	a5,4ff0 <__subsf3+0x3c4>
    4d38:	fff60613          	addi	a2,a2,-1
    4d3c:	00061663          	bnez	a2,4d48 <__subsf3+0x11c>
    4d40:	00e787b3          	add	a5,a5,a4
    4d44:	f69ff06f          	j	4cac <__subsf3+0x80>
    4d48:	0ff00693          	li	a3,255
    4d4c:	00d81e63          	bne	a6,a3,4d68 <__subsf3+0x13c>
    4d50:	00070793          	mv	a5,a4
    4d54:	f91ff06f          	j	4ce4 <__subsf3+0xb8>
    4d58:	0ff00693          	li	a3,255
    4d5c:	fed80ae3          	beq	a6,a3,4d50 <__subsf3+0x124>
    4d60:	040006b7          	lui	a3,0x4000
    4d64:	00d7e7b3          	or	a5,a5,a3
    4d68:	01b00693          	li	a3,27
    4d6c:	00c6d663          	bge	a3,a2,4d78 <__subsf3+0x14c>
    4d70:	00100793          	li	a5,1
    4d74:	fcdff06f          	j	4d40 <__subsf3+0x114>
    4d78:	02000693          	li	a3,32
    4d7c:	40c686b3          	sub	a3,a3,a2
    4d80:	00c7d5b3          	srl	a1,a5,a2
    4d84:	00d797b3          	sll	a5,a5,a3
    4d88:	00f037b3          	snez	a5,a5
    4d8c:	00f5e7b3          	or	a5,a1,a5
    4d90:	fb1ff06f          	j	4d40 <__subsf3+0x114>
    4d94:	00168613          	addi	a2,a3,1 # 4000001 <__trunctfdf2+0x3fecfa1>
    4d98:	0fe67513          	andi	a0,a2,254
    4d9c:	04051a63          	bnez	a0,4df0 <__subsf3+0x1c4>
    4da0:	04069263          	bnez	a3,4de4 <__subsf3+0x1b8>
    4da4:	24078663          	beqz	a5,4ff0 <__subsf3+0x3c4>
    4da8:	02070063          	beqz	a4,4dc8 <__subsf3+0x19c>
    4dac:	00e787b3          	add	a5,a5,a4
    4db0:	00579713          	slli	a4,a5,0x5
    4db4:	00075a63          	bgez	a4,4dc8 <__subsf3+0x19c>
    4db8:	fc000737          	lui	a4,0xfc000
    4dbc:	fff70713          	addi	a4,a4,-1 # fbffffff <__stack_top+0x7bfb617f>
    4dc0:	00e7f7b3          	and	a5,a5,a4
    4dc4:	00100513          	li	a0,1
    4dc8:	0077f713          	andi	a4,a5,7
    4dcc:	22070a63          	beqz	a4,5000 <__subsf3+0x3d4>
    4dd0:	00f7f713          	andi	a4,a5,15
    4dd4:	00400693          	li	a3,4
    4dd8:	22d70463          	beq	a4,a3,5000 <__subsf3+0x3d4>
    4ddc:	00478793          	addi	a5,a5,4
    4de0:	2200006f          	j	5000 <__subsf3+0x3d4>
    4de4:	f60786e3          	beqz	a5,4d50 <__subsf3+0x124>
    4de8:	ee070ee3          	beqz	a4,4ce4 <__subsf3+0xb8>
    4dec:	1740006f          	j	4f60 <__subsf3+0x334>
    4df0:	0ff00693          	li	a3,255
    4df4:	20d60263          	beq	a2,a3,4ff8 <__subsf3+0x3cc>
    4df8:	00e787b3          	add	a5,a5,a4
    4dfc:	0017d793          	srli	a5,a5,0x1
    4e00:	00060513          	mv	a0,a2
    4e04:	fc5ff06f          	j	4dc8 <__subsf3+0x19c>
    4e08:	08c05863          	blez	a2,4e98 <__subsf3+0x26c>
    4e0c:	04081863          	bnez	a6,4e5c <__subsf3+0x230>
    4e10:	00068513          	mv	a0,a3
    4e14:	fa070ae3          	beqz	a4,4dc8 <__subsf3+0x19c>
    4e18:	fff60613          	addi	a2,a2,-1
    4e1c:	02061263          	bnez	a2,4e40 <__subsf3+0x214>
    4e20:	40e787b3          	sub	a5,a5,a4
    4e24:	00579713          	slli	a4,a5,0x5
    4e28:	fa0750e3          	bgez	a4,4dc8 <__subsf3+0x19c>
    4e2c:	04000437          	lui	s0,0x4000
    4e30:	fff40413          	addi	s0,s0,-1 # 3ffffff <__trunctfdf2+0x3fecf9f>
    4e34:	0087f433          	and	s0,a5,s0
    4e38:	00050913          	mv	s2,a0
    4e3c:	1480006f          	j	4f84 <__subsf3+0x358>
    4e40:	0ff00593          	li	a1,255
    4e44:	0ff00513          	li	a0,255
    4e48:	f8b680e3          	beq	a3,a1,4dc8 <__subsf3+0x19c>
    4e4c:	01b00593          	li	a1,27
    4e50:	02c5d263          	bge	a1,a2,4e74 <__subsf3+0x248>
    4e54:	00100713          	li	a4,1
    4e58:	0340006f          	j	4e8c <__subsf3+0x260>
    4e5c:	0ff00593          	li	a1,255
    4e60:	0ff00513          	li	a0,255
    4e64:	f6b682e3          	beq	a3,a1,4dc8 <__subsf3+0x19c>
    4e68:	040005b7          	lui	a1,0x4000
    4e6c:	00b76733          	or	a4,a4,a1
    4e70:	fddff06f          	j	4e4c <__subsf3+0x220>
    4e74:	02000593          	li	a1,32
    4e78:	00c75533          	srl	a0,a4,a2
    4e7c:	40c58633          	sub	a2,a1,a2
    4e80:	00c71733          	sll	a4,a4,a2
    4e84:	00e03733          	snez	a4,a4
    4e88:	00e56733          	or	a4,a0,a4
    4e8c:	40e787b3          	sub	a5,a5,a4
    4e90:	00068513          	mv	a0,a3
    4e94:	f91ff06f          	j	4e24 <__subsf3+0x1f8>
    4e98:	06060a63          	beqz	a2,4f0c <__subsf3+0x2e0>
    4e9c:	40d80633          	sub	a2,a6,a3
    4ea0:	02069863          	bnez	a3,4ed0 <__subsf3+0x2a4>
    4ea4:	08078063          	beqz	a5,4f24 <__subsf3+0x2f8>
    4ea8:	fff60613          	addi	a2,a2,-1
    4eac:	00061863          	bnez	a2,4ebc <__subsf3+0x290>
    4eb0:	40f707b3          	sub	a5,a4,a5
    4eb4:	00058493          	mv	s1,a1
    4eb8:	f6dff06f          	j	4e24 <__subsf3+0x1f8>
    4ebc:	0ff00693          	li	a3,255
    4ec0:	02d81063          	bne	a6,a3,4ee0 <__subsf3+0x2b4>
    4ec4:	00070793          	mv	a5,a4
    4ec8:	00058493          	mv	s1,a1
    4ecc:	e19ff06f          	j	4ce4 <__subsf3+0xb8>
    4ed0:	0ff00693          	li	a3,255
    4ed4:	fed808e3          	beq	a6,a3,4ec4 <__subsf3+0x298>
    4ed8:	040006b7          	lui	a3,0x4000
    4edc:	00d7e7b3          	or	a5,a5,a3
    4ee0:	01b00693          	li	a3,27
    4ee4:	00c6d663          	bge	a3,a2,4ef0 <__subsf3+0x2c4>
    4ee8:	00100793          	li	a5,1
    4eec:	fc5ff06f          	j	4eb0 <__subsf3+0x284>
    4ef0:	02000693          	li	a3,32
    4ef4:	40c686b3          	sub	a3,a3,a2
    4ef8:	00c7d833          	srl	a6,a5,a2
    4efc:	00d797b3          	sll	a5,a5,a3
    4f00:	00f037b3          	snez	a5,a5
    4f04:	00f867b3          	or	a5,a6,a5
    4f08:	fa9ff06f          	j	4eb0 <__subsf3+0x284>
    4f0c:	00168513          	addi	a0,a3,1 # 4000001 <__trunctfdf2+0x3fecfa1>
    4f10:	0fe57513          	andi	a0,a0,254
    4f14:	04051e63          	bnez	a0,4f70 <__subsf3+0x344>
    4f18:	04069063          	bnez	a3,4f58 <__subsf3+0x32c>
    4f1c:	00079863          	bnez	a5,4f2c <__subsf3+0x300>
    4f20:	02070663          	beqz	a4,4f4c <__subsf3+0x320>
    4f24:	00070793          	mv	a5,a4
    4f28:	0180006f          	j	4f40 <__subsf3+0x314>
    4f2c:	e8070ee3          	beqz	a4,4dc8 <__subsf3+0x19c>
    4f30:	40e786b3          	sub	a3,a5,a4
    4f34:	00569613          	slli	a2,a3,0x5
    4f38:	00065863          	bgez	a2,4f48 <__subsf3+0x31c>
    4f3c:	40f707b3          	sub	a5,a4,a5
    4f40:	00058493          	mv	s1,a1
    4f44:	e85ff06f          	j	4dc8 <__subsf3+0x19c>
    4f48:	12069a63          	bnez	a3,507c <__subsf3+0x450>
    4f4c:	00000793          	li	a5,0
    4f50:	00000493          	li	s1,0
    4f54:	0ac0006f          	j	5000 <__subsf3+0x3d4>
    4f58:	e80798e3          	bnez	a5,4de8 <__subsf3+0x1bc>
    4f5c:	f60714e3          	bnez	a4,4ec4 <__subsf3+0x298>
    4f60:	00000493          	li	s1,0
    4f64:	020007b7          	lui	a5,0x2000
    4f68:	0ff00513          	li	a0,255
    4f6c:	0940006f          	j	5000 <__subsf3+0x3d4>
    4f70:	40e78433          	sub	s0,a5,a4
    4f74:	00541693          	slli	a3,s0,0x5
    4f78:	0406d663          	bgez	a3,4fc4 <__subsf3+0x398>
    4f7c:	40f70433          	sub	s0,a4,a5
    4f80:	00058493          	mv	s1,a1
    4f84:	00040513          	mv	a0,s0
    4f88:	00000097          	auipc	ra,0x0
    4f8c:	408080e7          	jalr	1032(ra) # 5390 <__clzsi2>
    4f90:	ffb50513          	addi	a0,a0,-5
    4f94:	00a41433          	sll	s0,s0,a0
    4f98:	03254e63          	blt	a0,s2,4fd4 <__subsf3+0x3a8>
    4f9c:	41250533          	sub	a0,a0,s2
    4fa0:	00150513          	addi	a0,a0,1
    4fa4:	02000713          	li	a4,32
    4fa8:	00a457b3          	srl	a5,s0,a0
    4fac:	40a70533          	sub	a0,a4,a0
    4fb0:	00a41433          	sll	s0,s0,a0
    4fb4:	00803433          	snez	s0,s0
    4fb8:	0087e7b3          	or	a5,a5,s0
    4fbc:	00000513          	li	a0,0
    4fc0:	e09ff06f          	j	4dc8 <__subsf3+0x19c>
    4fc4:	fc0410e3          	bnez	s0,4f84 <__subsf3+0x358>
    4fc8:	00000793          	li	a5,0
    4fcc:	00000513          	li	a0,0
    4fd0:	f81ff06f          	j	4f50 <__subsf3+0x324>
    4fd4:	fc0007b7          	lui	a5,0xfc000
    4fd8:	fff78793          	addi	a5,a5,-1 # fbffffff <__stack_top+0x7bfb617f>
    4fdc:	40a90533          	sub	a0,s2,a0
    4fe0:	00f477b3          	and	a5,s0,a5
    4fe4:	de5ff06f          	j	4dc8 <__subsf3+0x19c>
    4fe8:	00068513          	mv	a0,a3
    4fec:	dddff06f          	j	4dc8 <__subsf3+0x19c>
    4ff0:	00070793          	mv	a5,a4
    4ff4:	dd5ff06f          	j	4dc8 <__subsf3+0x19c>
    4ff8:	0ff00513          	li	a0,255
    4ffc:	00000793          	li	a5,0
    5000:	00579713          	slli	a4,a5,0x5
    5004:	00075e63          	bgez	a4,5020 <__subsf3+0x3f4>
    5008:	00150513          	addi	a0,a0,1
    500c:	0ff00713          	li	a4,255
    5010:	06e50a63          	beq	a0,a4,5084 <__subsf3+0x458>
    5014:	fc000737          	lui	a4,0xfc000
    5018:	fff70713          	addi	a4,a4,-1 # fbffffff <__stack_top+0x7bfb617f>
    501c:	00e7f7b3          	and	a5,a5,a4
    5020:	0ff00713          	li	a4,255
    5024:	0037d793          	srli	a5,a5,0x3
    5028:	00e51863          	bne	a0,a4,5038 <__subsf3+0x40c>
    502c:	00078663          	beqz	a5,5038 <__subsf3+0x40c>
    5030:	004007b7          	lui	a5,0x400
    5034:	00000493          	li	s1,0
    5038:	00800737          	lui	a4,0x800
    503c:	fff70713          	addi	a4,a4,-1 # 7fffff <__trunctfdf2+0x7ecf9f>
    5040:	0ff57513          	zext.b	a0,a0
    5044:	00e7f7b3          	and	a5,a5,a4
    5048:	01751713          	slli	a4,a0,0x17
    504c:	80800537          	lui	a0,0x80800
    5050:	00c12083          	lw	ra,12(sp)
    5054:	00812403          	lw	s0,8(sp)
    5058:	fff50513          	addi	a0,a0,-1 # 807fffff <__stack_top+0x7b617f>
    505c:	00a7f533          	and	a0,a5,a0
    5060:	01f49493          	slli	s1,s1,0x1f
    5064:	00e56533          	or	a0,a0,a4
    5068:	00956533          	or	a0,a0,s1
    506c:	00012903          	lw	s2,0(sp)
    5070:	00412483          	lw	s1,4(sp)
    5074:	01010113          	addi	sp,sp,16
    5078:	00008067          	ret
    507c:	00068793          	mv	a5,a3
    5080:	d49ff06f          	j	4dc8 <__subsf3+0x19c>
    5084:	00000793          	li	a5,0
    5088:	f99ff06f          	j	5020 <__subsf3+0x3f4>

0000508c <__fixsfsi>:
    508c:	00800637          	lui	a2,0x800
    5090:	01755713          	srli	a4,a0,0x17
    5094:	fff60793          	addi	a5,a2,-1 # 7fffff <__trunctfdf2+0x7ecf9f>
    5098:	0ff77713          	zext.b	a4,a4
    509c:	07e00593          	li	a1,126
    50a0:	00a7f7b3          	and	a5,a5,a0
    50a4:	01f55693          	srli	a3,a0,0x1f
    50a8:	04e5f663          	bgeu	a1,a4,50f4 <__fixsfsi+0x68>
    50ac:	09d00593          	li	a1,157
    50b0:	00e5fa63          	bgeu	a1,a4,50c4 <__fixsfsi+0x38>
    50b4:	80000537          	lui	a0,0x80000
    50b8:	fff54513          	not	a0,a0
    50bc:	00a68533          	add	a0,a3,a0
    50c0:	00008067          	ret
    50c4:	00c7e533          	or	a0,a5,a2
    50c8:	09500793          	li	a5,149
    50cc:	00e7dc63          	bge	a5,a4,50e4 <__fixsfsi+0x58>
    50d0:	f6a70713          	addi	a4,a4,-150
    50d4:	00e51533          	sll	a0,a0,a4
    50d8:	02068063          	beqz	a3,50f8 <__fixsfsi+0x6c>
    50dc:	40a00533          	neg	a0,a0
    50e0:	00008067          	ret
    50e4:	09600793          	li	a5,150
    50e8:	40e78733          	sub	a4,a5,a4
    50ec:	00e55533          	srl	a0,a0,a4
    50f0:	fe9ff06f          	j	50d8 <__fixsfsi+0x4c>
    50f4:	00000513          	li	a0,0
    50f8:	00008067          	ret

000050fc <__extendsfdf2>:
    50fc:	ff010113          	addi	sp,sp,-16
    5100:	01755793          	srli	a5,a0,0x17
    5104:	00812423          	sw	s0,8(sp)
    5108:	00800437          	lui	s0,0x800
    510c:	fff40413          	addi	s0,s0,-1 # 7fffff <__trunctfdf2+0x7ecf9f>
    5110:	0ff7f793          	zext.b	a5,a5
    5114:	00912223          	sw	s1,4(sp)
    5118:	00a47433          	and	s0,s0,a0
    511c:	01f55493          	srli	s1,a0,0x1f
    5120:	00178513          	addi	a0,a5,1 # 400001 <__trunctfdf2+0x3ecfa1>
    5124:	00112623          	sw	ra,12(sp)
    5128:	0fe57513          	andi	a0,a0,254
    512c:	06050263          	beqz	a0,5190 <__extendsfdf2+0x94>
    5130:	38078513          	addi	a0,a5,896
    5134:	00345793          	srli	a5,s0,0x3
    5138:	01d41413          	slli	s0,s0,0x1d
    513c:	00100737          	lui	a4,0x100
    5140:	fff70713          	addi	a4,a4,-1 # fffff <__trunctfdf2+0xecf9f>
    5144:	00e7f7b3          	and	a5,a5,a4
    5148:	80100737          	lui	a4,0x80100
    514c:	fff70713          	addi	a4,a4,-1 # 800fffff <__stack_top+0xb617f>
    5150:	7ff57513          	andi	a0,a0,2047
    5154:	01451513          	slli	a0,a0,0x14
    5158:	00e7f7b3          	and	a5,a5,a4
    515c:	80000737          	lui	a4,0x80000
    5160:	00a7e7b3          	or	a5,a5,a0
    5164:	fff74713          	not	a4,a4
    5168:	01f49513          	slli	a0,s1,0x1f
    516c:	00e7f7b3          	and	a5,a5,a4
    5170:	00a7e733          	or	a4,a5,a0
    5174:	00c12083          	lw	ra,12(sp)
    5178:	00040513          	mv	a0,s0
    517c:	00812403          	lw	s0,8(sp)
    5180:	00412483          	lw	s1,4(sp)
    5184:	00070593          	mv	a1,a4
    5188:	01010113          	addi	sp,sp,16
    518c:	00008067          	ret
    5190:	04079663          	bnez	a5,51dc <__extendsfdf2+0xe0>
    5194:	fa0404e3          	beqz	s0,513c <__extendsfdf2+0x40>
    5198:	00040513          	mv	a0,s0
    519c:	00000097          	auipc	ra,0x0
    51a0:	1f4080e7          	jalr	500(ra) # 5390 <__clzsi2>
    51a4:	00a00793          	li	a5,10
    51a8:	02a7c263          	blt	a5,a0,51cc <__extendsfdf2+0xd0>
    51ac:	00b00793          	li	a5,11
    51b0:	40a787b3          	sub	a5,a5,a0
    51b4:	01550713          	addi	a4,a0,21 # 80000015 <__stack_top+0xfffb6195>
    51b8:	00f457b3          	srl	a5,s0,a5
    51bc:	00e41433          	sll	s0,s0,a4
    51c0:	38900713          	li	a4,905
    51c4:	40a70533          	sub	a0,a4,a0
    51c8:	f75ff06f          	j	513c <__extendsfdf2+0x40>
    51cc:	ff550793          	addi	a5,a0,-11
    51d0:	00f417b3          	sll	a5,s0,a5
    51d4:	00000413          	li	s0,0
    51d8:	fe9ff06f          	j	51c0 <__extendsfdf2+0xc4>
    51dc:	00000793          	li	a5,0
    51e0:	00040a63          	beqz	s0,51f4 <__extendsfdf2+0xf8>
    51e4:	00345793          	srli	a5,s0,0x3
    51e8:	00080737          	lui	a4,0x80
    51ec:	01d41413          	slli	s0,s0,0x1d
    51f0:	00e7e7b3          	or	a5,a5,a4
    51f4:	7ff00513          	li	a0,2047
    51f8:	f45ff06f          	j	513c <__extendsfdf2+0x40>

000051fc <__truncdfsf2>:
    51fc:	00100637          	lui	a2,0x100
    5200:	fff60613          	addi	a2,a2,-1 # fffff <__trunctfdf2+0xecf9f>
    5204:	00b67633          	and	a2,a2,a1
    5208:	0145d813          	srli	a6,a1,0x14
    520c:	00361793          	slli	a5,a2,0x3
    5210:	7ff87813          	andi	a6,a6,2047
    5214:	01d55613          	srli	a2,a0,0x1d
    5218:	00f66633          	or	a2,a2,a5
    521c:	00180793          	addi	a5,a6,1
    5220:	7fe7f793          	andi	a5,a5,2046
    5224:	01f5d593          	srli	a1,a1,0x1f
    5228:	00351713          	slli	a4,a0,0x3
    522c:	0a078663          	beqz	a5,52d8 <__truncdfsf2+0xdc>
    5230:	c8080693          	addi	a3,a6,-896
    5234:	0fe00793          	li	a5,254
    5238:	0cd7c263          	blt	a5,a3,52fc <__truncdfsf2+0x100>
    523c:	08d04063          	bgtz	a3,52bc <__truncdfsf2+0xc0>
    5240:	fe900793          	li	a5,-23
    5244:	12f6c463          	blt	a3,a5,536c <__truncdfsf2+0x170>
    5248:	008007b7          	lui	a5,0x800
    524c:	01e00513          	li	a0,30
    5250:	00f66633          	or	a2,a2,a5
    5254:	40d50533          	sub	a0,a0,a3
    5258:	01f00793          	li	a5,31
    525c:	02a7c863          	blt	a5,a0,528c <__truncdfsf2+0x90>
    5260:	c8280813          	addi	a6,a6,-894
    5264:	010717b3          	sll	a5,a4,a6
    5268:	00f037b3          	snez	a5,a5
    526c:	01061633          	sll	a2,a2,a6
    5270:	00a75533          	srl	a0,a4,a0
    5274:	00c7e7b3          	or	a5,a5,a2
    5278:	00f567b3          	or	a5,a0,a5
    527c:	00000693          	li	a3,0
    5280:	0077f713          	andi	a4,a5,7
    5284:	08070063          	beqz	a4,5304 <__truncdfsf2+0x108>
    5288:	0ec0006f          	j	5374 <__truncdfsf2+0x178>
    528c:	ffe00793          	li	a5,-2
    5290:	40d786b3          	sub	a3,a5,a3
    5294:	02000793          	li	a5,32
    5298:	00d656b3          	srl	a3,a2,a3
    529c:	00000893          	li	a7,0
    52a0:	00f50663          	beq	a0,a5,52ac <__truncdfsf2+0xb0>
    52a4:	ca280813          	addi	a6,a6,-862
    52a8:	010618b3          	sll	a7,a2,a6
    52ac:	00e8e7b3          	or	a5,a7,a4
    52b0:	00f037b3          	snez	a5,a5
    52b4:	00f6e7b3          	or	a5,a3,a5
    52b8:	fc5ff06f          	j	527c <__truncdfsf2+0x80>
    52bc:	00651513          	slli	a0,a0,0x6
    52c0:	00a03533          	snez	a0,a0
    52c4:	00361613          	slli	a2,a2,0x3
    52c8:	01d75793          	srli	a5,a4,0x1d
    52cc:	00c56633          	or	a2,a0,a2
    52d0:	00f667b3          	or	a5,a2,a5
    52d4:	fadff06f          	j	5280 <__truncdfsf2+0x84>
    52d8:	00e667b3          	or	a5,a2,a4
    52dc:	00081663          	bnez	a6,52e8 <__truncdfsf2+0xec>
    52e0:	00f037b3          	snez	a5,a5
    52e4:	f99ff06f          	j	527c <__truncdfsf2+0x80>
    52e8:	0ff00693          	li	a3,255
    52ec:	00078c63          	beqz	a5,5304 <__truncdfsf2+0x108>
    52f0:	00361613          	slli	a2,a2,0x3
    52f4:	020007b7          	lui	a5,0x2000
    52f8:	fd9ff06f          	j	52d0 <__truncdfsf2+0xd4>
    52fc:	00000793          	li	a5,0
    5300:	0ff00693          	li	a3,255
    5304:	00579713          	slli	a4,a5,0x5
    5308:	00075e63          	bgez	a4,5324 <__truncdfsf2+0x128>
    530c:	00168693          	addi	a3,a3,1
    5310:	0ff00713          	li	a4,255
    5314:	06e68a63          	beq	a3,a4,5388 <__truncdfsf2+0x18c>
    5318:	fc000737          	lui	a4,0xfc000
    531c:	fff70713          	addi	a4,a4,-1 # fbffffff <__stack_top+0x7bfb617f>
    5320:	00e7f7b3          	and	a5,a5,a4
    5324:	0ff00713          	li	a4,255
    5328:	0037d793          	srli	a5,a5,0x3
    532c:	00e69863          	bne	a3,a4,533c <__truncdfsf2+0x140>
    5330:	00078663          	beqz	a5,533c <__truncdfsf2+0x140>
    5334:	004007b7          	lui	a5,0x400
    5338:	00000593          	li	a1,0
    533c:	00800537          	lui	a0,0x800
    5340:	fff50513          	addi	a0,a0,-1 # 7fffff <__trunctfdf2+0x7ecf9f>
    5344:	00a7f7b3          	and	a5,a5,a0
    5348:	80800537          	lui	a0,0x80800
    534c:	fff50513          	addi	a0,a0,-1 # 807fffff <__stack_top+0x7b617f>
    5350:	0ff6f693          	zext.b	a3,a3
    5354:	01769693          	slli	a3,a3,0x17
    5358:	00a7f7b3          	and	a5,a5,a0
    535c:	01f59593          	slli	a1,a1,0x1f
    5360:	00d7e7b3          	or	a5,a5,a3
    5364:	00b7e533          	or	a0,a5,a1
    5368:	00008067          	ret
    536c:	00100793          	li	a5,1
    5370:	00000693          	li	a3,0
    5374:	00f7f713          	andi	a4,a5,15
    5378:	00400613          	li	a2,4
    537c:	f8c704e3          	beq	a4,a2,5304 <__truncdfsf2+0x108>
    5380:	00478793          	addi	a5,a5,4 # 400004 <__trunctfdf2+0x3ecfa4>
    5384:	f81ff06f          	j	5304 <__truncdfsf2+0x108>
    5388:	00000793          	li	a5,0
    538c:	f99ff06f          	j	5324 <__truncdfsf2+0x128>

00005390 <__clzsi2>:
    5390:	000107b7          	lui	a5,0x10
    5394:	02f57a63          	bgeu	a0,a5,53c8 <__clzsi2+0x38>
    5398:	0ff00793          	li	a5,255
    539c:	00a7b7b3          	sltu	a5,a5,a0
    53a0:	00379793          	slli	a5,a5,0x3
    53a4:	02000713          	li	a4,32
    53a8:	40f70733          	sub	a4,a4,a5
    53ac:	00f557b3          	srl	a5,a0,a5
    53b0:	7fffb517          	auipc	a0,0x7fffb
    53b4:	4d050513          	addi	a0,a0,1232 # 80000880 <__clz_tab>
    53b8:	00f507b3          	add	a5,a0,a5
    53bc:	0007c503          	lbu	a0,0(a5) # 10000 <__umoddi3+0x178>
    53c0:	40a70533          	sub	a0,a4,a0
    53c4:	00008067          	ret
    53c8:	01000737          	lui	a4,0x1000
    53cc:	01000793          	li	a5,16
    53d0:	fce56ae3          	bltu	a0,a4,53a4 <__clzsi2+0x14>
    53d4:	01800793          	li	a5,24
    53d8:	fcdff06f          	j	53a4 <__clzsi2+0x14>

000053dc <abort>:
    53dc:	ff010113          	addi	sp,sp,-16
    53e0:	00600513          	li	a0,6
    53e4:	00112623          	sw	ra,12(sp)
    53e8:	00001097          	auipc	ra,0x1
    53ec:	6cc080e7          	jalr	1740(ra) # 6ab4 <raise>
    53f0:	00100513          	li	a0,1
    53f4:	0000a097          	auipc	ra,0xa
    53f8:	2e4080e7          	jalr	740(ra) # f6d8 <_exit>

000053fc <__assert_func>:
    53fc:	7fffd797          	auipc	a5,0x7fffd
    5400:	97078793          	addi	a5,a5,-1680 # 80001d6c <_impure_ptr>
    5404:	0007a783          	lw	a5,0(a5)
    5408:	ff010113          	addi	sp,sp,-16
    540c:	00060813          	mv	a6,a2
    5410:	00112623          	sw	ra,12(sp)
    5414:	00050893          	mv	a7,a0
    5418:	00058713          	mv	a4,a1
    541c:	00c7a503          	lw	a0,12(a5)
    5420:	00068613          	mv	a2,a3
    5424:	7fffb797          	auipc	a5,0x7fffb
    5428:	55c78793          	addi	a5,a5,1372 # 80000980 <__clz_tab+0x100>
    542c:	00081863          	bnez	a6,543c <__assert_func+0x40>
    5430:	7fffb797          	auipc	a5,0x7fffb
    5434:	d3c78793          	addi	a5,a5,-708 # 8000016c <__trunctfdf2+0x7ffed10c>
    5438:	00078813          	mv	a6,a5
    543c:	00088693          	mv	a3,a7
    5440:	7fffb597          	auipc	a1,0x7fffb
    5444:	55058593          	addi	a1,a1,1360 # 80000990 <__clz_tab+0x110>
    5448:	00000097          	auipc	ra,0x0
    544c:	070080e7          	jalr	112(ra) # 54b8 <fiprintf>
    5450:	00000097          	auipc	ra,0x0
    5454:	f8c080e7          	jalr	-116(ra) # 53dc <abort>

00005458 <__assert>:
    5458:	ff010113          	addi	sp,sp,-16
    545c:	00060693          	mv	a3,a2
    5460:	00000613          	li	a2,0
    5464:	00112623          	sw	ra,12(sp)
    5468:	00000097          	auipc	ra,0x0
    546c:	f94080e7          	jalr	-108(ra) # 53fc <__assert_func>

00005470 <__errno>:
    5470:	7fffd797          	auipc	a5,0x7fffd
    5474:	8fc78793          	addi	a5,a5,-1796 # 80001d6c <_impure_ptr>
    5478:	0007a503          	lw	a0,0(a5)
    547c:	00008067          	ret

00005480 <_fiprintf_r>:
    5480:	fc010113          	addi	sp,sp,-64
    5484:	02d12623          	sw	a3,44(sp)
    5488:	02c10693          	addi	a3,sp,44
    548c:	00112e23          	sw	ra,28(sp)
    5490:	02e12823          	sw	a4,48(sp)
    5494:	02f12a23          	sw	a5,52(sp)
    5498:	03012c23          	sw	a6,56(sp)
    549c:	03112e23          	sw	a7,60(sp)
    54a0:	00d12623          	sw	a3,12(sp)
    54a4:	00004097          	auipc	ra,0x4
    54a8:	acc080e7          	jalr	-1332(ra) # 8f70 <_vfiprintf_r>
    54ac:	01c12083          	lw	ra,28(sp)
    54b0:	04010113          	addi	sp,sp,64
    54b4:	00008067          	ret

000054b8 <fiprintf>:
    54b8:	fc010113          	addi	sp,sp,-64
    54bc:	02c12423          	sw	a2,40(sp)
    54c0:	02d12623          	sw	a3,44(sp)
    54c4:	02f12a23          	sw	a5,52(sp)
    54c8:	02e12823          	sw	a4,48(sp)
    54cc:	03012c23          	sw	a6,56(sp)
    54d0:	03112e23          	sw	a7,60(sp)
    54d4:	7fffd797          	auipc	a5,0x7fffd
    54d8:	89878793          	addi	a5,a5,-1896 # 80001d6c <_impure_ptr>
    54dc:	00058613          	mv	a2,a1
    54e0:	00050593          	mv	a1,a0
    54e4:	0007a503          	lw	a0,0(a5)
    54e8:	02810693          	addi	a3,sp,40
    54ec:	00112e23          	sw	ra,28(sp)
    54f0:	00d12623          	sw	a3,12(sp)
    54f4:	00004097          	auipc	ra,0x4
    54f8:	a7c080e7          	jalr	-1412(ra) # 8f70 <_vfiprintf_r>
    54fc:	01c12083          	lw	ra,28(sp)
    5500:	04010113          	addi	sp,sp,64
    5504:	00008067          	ret

00005508 <__sfvwrite_r>:
    5508:	00862783          	lw	a5,8(a2)
    550c:	00079863          	bnez	a5,551c <__sfvwrite_r+0x14>
    5510:	00000793          	li	a5,0
    5514:	00078513          	mv	a0,a5
    5518:	00008067          	ret
    551c:	00c5d783          	lhu	a5,12(a1)
    5520:	fb010113          	addi	sp,sp,-80
    5524:	04812423          	sw	s0,72(sp)
    5528:	05212023          	sw	s2,64(sp)
    552c:	03512a23          	sw	s5,52(sp)
    5530:	04112623          	sw	ra,76(sp)
    5534:	04912223          	sw	s1,68(sp)
    5538:	03312e23          	sw	s3,60(sp)
    553c:	03412c23          	sw	s4,56(sp)
    5540:	03612823          	sw	s6,48(sp)
    5544:	03712623          	sw	s7,44(sp)
    5548:	03812423          	sw	s8,40(sp)
    554c:	03912223          	sw	s9,36(sp)
    5550:	03a12023          	sw	s10,32(sp)
    5554:	01b12e23          	sw	s11,28(sp)
    5558:	0087f793          	andi	a5,a5,8
    555c:	00060a93          	mv	s5,a2
    5560:	00058413          	mv	s0,a1
    5564:	00050913          	mv	s2,a0
    5568:	0e078a63          	beqz	a5,565c <__sfvwrite_r+0x154>
    556c:	0105a783          	lw	a5,16(a1)
    5570:	0e078663          	beqz	a5,565c <__sfvwrite_r+0x154>
    5574:	00c45783          	lhu	a5,12(s0)
    5578:	000aaa03          	lw	s4,0(s5)
    557c:	0027f713          	andi	a4,a5,2
    5580:	18071463          	bnez	a4,5708 <__sfvwrite_r+0x200>
    5584:	0017f793          	andi	a5,a5,1
    5588:	22078063          	beqz	a5,57a8 <__sfvwrite_r+0x2a0>
    558c:	00000b93          	li	s7,0
    5590:	00000513          	li	a0,0
    5594:	00000b13          	li	s6,0
    5598:	00000993          	li	s3,0
    559c:	38098c63          	beqz	s3,5934 <__sfvwrite_r+0x42c>
    55a0:	02051463          	bnez	a0,55c8 <__sfvwrite_r+0xc0>
    55a4:	00098613          	mv	a2,s3
    55a8:	00a00593          	li	a1,10
    55ac:	000b0513          	mv	a0,s6
    55b0:	00001097          	auipc	ra,0x1
    55b4:	ac8080e7          	jalr	-1336(ra) # 6078 <memchr>
    55b8:	00198b93          	addi	s7,s3,1
    55bc:	00050663          	beqz	a0,55c8 <__sfvwrite_r+0xc0>
    55c0:	00150513          	addi	a0,a0,1
    55c4:	41650bb3          	sub	s7,a0,s6
    55c8:	000b8c13          	mv	s8,s7
    55cc:	0179f463          	bgeu	s3,s7,55d4 <__sfvwrite_r+0xcc>
    55d0:	00098c13          	mv	s8,s3
    55d4:	00042503          	lw	a0,0(s0)
    55d8:	01042783          	lw	a5,16(s0)
    55dc:	01442683          	lw	a3,20(s0)
    55e0:	36a7f463          	bgeu	a5,a0,5948 <__sfvwrite_r+0x440>
    55e4:	00842483          	lw	s1,8(s0)
    55e8:	009684b3          	add	s1,a3,s1
    55ec:	3584de63          	bge	s1,s8,5948 <__sfvwrite_r+0x440>
    55f0:	000b0593          	mv	a1,s6
    55f4:	00048613          	mv	a2,s1
    55f8:	00001097          	auipc	ra,0x1
    55fc:	b7c080e7          	jalr	-1156(ra) # 6174 <memmove>
    5600:	00042783          	lw	a5,0(s0)
    5604:	00040593          	mv	a1,s0
    5608:	00090513          	mv	a0,s2
    560c:	009787b3          	add	a5,a5,s1
    5610:	00f42023          	sw	a5,0(s0)
    5614:	00005097          	auipc	ra,0x5
    5618:	d04080e7          	jalr	-764(ra) # a318 <_fflush_r>
    561c:	16051c63          	bnez	a0,5794 <__sfvwrite_r+0x28c>
    5620:	409b8bb3          	sub	s7,s7,s1
    5624:	00100513          	li	a0,1
    5628:	000b9c63          	bnez	s7,5640 <__sfvwrite_r+0x138>
    562c:	00040593          	mv	a1,s0
    5630:	00090513          	mv	a0,s2
    5634:	00005097          	auipc	ra,0x5
    5638:	ce4080e7          	jalr	-796(ra) # a318 <_fflush_r>
    563c:	14051c63          	bnez	a0,5794 <__sfvwrite_r+0x28c>
    5640:	008aa783          	lw	a5,8(s5)
    5644:	009b0b33          	add	s6,s6,s1
    5648:	409989b3          	sub	s3,s3,s1
    564c:	409784b3          	sub	s1,a5,s1
    5650:	009aa423          	sw	s1,8(s5)
    5654:	f40494e3          	bnez	s1,559c <__sfvwrite_r+0x94>
    5658:	06c0006f          	j	56c4 <__sfvwrite_r+0x1bc>
    565c:	00040593          	mv	a1,s0
    5660:	00090513          	mv	a0,s2
    5664:	00005097          	auipc	ra,0x5
    5668:	960080e7          	jalr	-1696(ra) # 9fc4 <__swsetup_r>
    566c:	fff00793          	li	a5,-1
    5670:	f00502e3          	beqz	a0,5574 <__sfvwrite_r+0x6c>
    5674:	0540006f          	j	56c8 <__sfvwrite_r+0x1c0>
    5678:	000a2983          	lw	s3,0(s4)
    567c:	004a2483          	lw	s1,4(s4)
    5680:	008a0a13          	addi	s4,s4,8
    5684:	fe048ae3          	beqz	s1,5678 <__sfvwrite_r+0x170>
    5688:	00048693          	mv	a3,s1
    568c:	009b7463          	bgeu	s6,s1,5694 <__sfvwrite_r+0x18c>
    5690:	000b0693          	mv	a3,s6
    5694:	02442783          	lw	a5,36(s0)
    5698:	01c42583          	lw	a1,28(s0)
    569c:	00098613          	mv	a2,s3
    56a0:	00090513          	mv	a0,s2
    56a4:	000780e7          	jalr	a5
    56a8:	0ea05663          	blez	a0,5794 <__sfvwrite_r+0x28c>
    56ac:	008aa783          	lw	a5,8(s5)
    56b0:	00a989b3          	add	s3,s3,a0
    56b4:	40a484b3          	sub	s1,s1,a0
    56b8:	40a78533          	sub	a0,a5,a0
    56bc:	00aaa423          	sw	a0,8(s5)
    56c0:	fc0512e3          	bnez	a0,5684 <__sfvwrite_r+0x17c>
    56c4:	00000793          	li	a5,0
    56c8:	04c12083          	lw	ra,76(sp)
    56cc:	04812403          	lw	s0,72(sp)
    56d0:	04412483          	lw	s1,68(sp)
    56d4:	04012903          	lw	s2,64(sp)
    56d8:	03c12983          	lw	s3,60(sp)
    56dc:	03812a03          	lw	s4,56(sp)
    56e0:	03412a83          	lw	s5,52(sp)
    56e4:	03012b03          	lw	s6,48(sp)
    56e8:	02c12b83          	lw	s7,44(sp)
    56ec:	02812c03          	lw	s8,40(sp)
    56f0:	02412c83          	lw	s9,36(sp)
    56f4:	02012d03          	lw	s10,32(sp)
    56f8:	01c12d83          	lw	s11,28(sp)
    56fc:	00078513          	mv	a0,a5
    5700:	05010113          	addi	sp,sp,80
    5704:	00008067          	ret
    5708:	80000b37          	lui	s6,0x80000
    570c:	00000993          	li	s3,0
    5710:	00000493          	li	s1,0
    5714:	c00b4b13          	xori	s6,s6,-1024
    5718:	f6dff06f          	j	5684 <__sfvwrite_r+0x17c>
    571c:	000a2b03          	lw	s6,0(s4)
    5720:	004a2483          	lw	s1,4(s4)
    5724:	008a0a13          	addi	s4,s4,8
    5728:	fe048ae3          	beqz	s1,571c <__sfvwrite_r+0x214>
    572c:	00c45703          	lhu	a4,12(s0)
    5730:	00842783          	lw	a5,8(s0)
    5734:	00042503          	lw	a0,0(s0)
    5738:	20077693          	andi	a3,a4,512
    573c:	16068263          	beqz	a3,58a0 <__sfvwrite_r+0x398>
    5740:	0cf4e663          	bltu	s1,a5,580c <__sfvwrite_r+0x304>
    5744:	48077693          	andi	a3,a4,1152
    5748:	0c068263          	beqz	a3,580c <__sfvwrite_r+0x304>
    574c:	01442d83          	lw	s11,20(s0)
    5750:	01042583          	lw	a1,16(s0)
    5754:	03bc8db3          	mul	s11,s9,s11
    5758:	40b509b3          	sub	s3,a0,a1
    575c:	00198793          	addi	a5,s3,1
    5760:	009787b3          	add	a5,a5,s1
    5764:	03adcdb3          	div	s11,s11,s10
    5768:	00fdf463          	bgeu	s11,a5,5770 <__sfvwrite_r+0x268>
    576c:	00078d93          	mv	s11,a5
    5770:	40077713          	andi	a4,a4,1024
    5774:	0e070a63          	beqz	a4,5868 <__sfvwrite_r+0x360>
    5778:	000d8593          	mv	a1,s11
    577c:	00090513          	mv	a0,s2
    5780:	00000097          	auipc	ra,0x0
    5784:	21c080e7          	jalr	540(ra) # 599c <_malloc_r>
    5788:	04051063          	bnez	a0,57c8 <__sfvwrite_r+0x2c0>
    578c:	00c00793          	li	a5,12
    5790:	00f92023          	sw	a5,0(s2)
    5794:	00c45783          	lhu	a5,12(s0)
    5798:	0407e793          	ori	a5,a5,64
    579c:	00f41623          	sh	a5,12(s0)
    57a0:	fff00793          	li	a5,-1
    57a4:	f25ff06f          	j	56c8 <__sfvwrite_r+0x1c0>
    57a8:	80000bb7          	lui	s7,0x80000
    57ac:	ffebcc13          	xori	s8,s7,-2
    57b0:	00000b13          	li	s6,0
    57b4:	00000493          	li	s1,0
    57b8:	fffbcb93          	not	s7,s7
    57bc:	00300c93          	li	s9,3
    57c0:	00200d13          	li	s10,2
    57c4:	f65ff06f          	j	5728 <__sfvwrite_r+0x220>
    57c8:	01042583          	lw	a1,16(s0)
    57cc:	00098613          	mv	a2,s3
    57d0:	00a12623          	sw	a0,12(sp)
    57d4:	00001097          	auipc	ra,0x1
    57d8:	8c8080e7          	jalr	-1848(ra) # 609c <memcpy>
    57dc:	00c45703          	lhu	a4,12(s0)
    57e0:	00c12783          	lw	a5,12(sp)
    57e4:	b7f77713          	andi	a4,a4,-1153
    57e8:	08076713          	ori	a4,a4,128
    57ec:	00e41623          	sh	a4,12(s0)
    57f0:	00f42823          	sw	a5,16(s0)
    57f4:	01b42a23          	sw	s11,20(s0)
    57f8:	013787b3          	add	a5,a5,s3
    57fc:	413d8db3          	sub	s11,s11,s3
    5800:	00f42023          	sw	a5,0(s0)
    5804:	01b42423          	sw	s11,8(s0)
    5808:	00048793          	mv	a5,s1
    580c:	00048993          	mv	s3,s1
    5810:	00f4f463          	bgeu	s1,a5,5818 <__sfvwrite_r+0x310>
    5814:	00048793          	mv	a5,s1
    5818:	00042503          	lw	a0,0(s0)
    581c:	00078613          	mv	a2,a5
    5820:	000b0593          	mv	a1,s6
    5824:	00f12623          	sw	a5,12(sp)
    5828:	00001097          	auipc	ra,0x1
    582c:	94c080e7          	jalr	-1716(ra) # 6174 <memmove>
    5830:	00842703          	lw	a4,8(s0)
    5834:	00c12783          	lw	a5,12(sp)
    5838:	40f70733          	sub	a4,a4,a5
    583c:	00e42423          	sw	a4,8(s0)
    5840:	00042703          	lw	a4,0(s0)
    5844:	00f707b3          	add	a5,a4,a5
    5848:	00f42023          	sw	a5,0(s0)
    584c:	008aa783          	lw	a5,8(s5)
    5850:	013b0b33          	add	s6,s6,s3
    5854:	413484b3          	sub	s1,s1,s3
    5858:	413789b3          	sub	s3,a5,s3
    585c:	013aa423          	sw	s3,8(s5)
    5860:	ec0994e3          	bnez	s3,5728 <__sfvwrite_r+0x220>
    5864:	e61ff06f          	j	56c4 <__sfvwrite_r+0x1bc>
    5868:	000d8613          	mv	a2,s11
    586c:	00090513          	mv	a0,s2
    5870:	00001097          	auipc	ra,0x1
    5874:	a44080e7          	jalr	-1468(ra) # 62b4 <_realloc_r>
    5878:	00050793          	mv	a5,a0
    587c:	f6051ae3          	bnez	a0,57f0 <__sfvwrite_r+0x2e8>
    5880:	01042583          	lw	a1,16(s0)
    5884:	00090513          	mv	a0,s2
    5888:	00005097          	auipc	ra,0x5
    588c:	120080e7          	jalr	288(ra) # a9a8 <_free_r>
    5890:	00c45783          	lhu	a5,12(s0)
    5894:	f7f7f793          	andi	a5,a5,-129
    5898:	00f41623          	sh	a5,12(s0)
    589c:	ef1ff06f          	j	578c <__sfvwrite_r+0x284>
    58a0:	01042703          	lw	a4,16(s0)
    58a4:	00a76663          	bltu	a4,a0,58b0 <__sfvwrite_r+0x3a8>
    58a8:	01442683          	lw	a3,20(s0)
    58ac:	04d4fa63          	bgeu	s1,a3,5900 <__sfvwrite_r+0x3f8>
    58b0:	00078993          	mv	s3,a5
    58b4:	00f4f463          	bgeu	s1,a5,58bc <__sfvwrite_r+0x3b4>
    58b8:	00048993          	mv	s3,s1
    58bc:	00098613          	mv	a2,s3
    58c0:	000b0593          	mv	a1,s6
    58c4:	00001097          	auipc	ra,0x1
    58c8:	8b0080e7          	jalr	-1872(ra) # 6174 <memmove>
    58cc:	00842783          	lw	a5,8(s0)
    58d0:	00042703          	lw	a4,0(s0)
    58d4:	413787b3          	sub	a5,a5,s3
    58d8:	01370733          	add	a4,a4,s3
    58dc:	00f42423          	sw	a5,8(s0)
    58e0:	00e42023          	sw	a4,0(s0)
    58e4:	f60794e3          	bnez	a5,584c <__sfvwrite_r+0x344>
    58e8:	00040593          	mv	a1,s0
    58ec:	00090513          	mv	a0,s2
    58f0:	00005097          	auipc	ra,0x5
    58f4:	a28080e7          	jalr	-1496(ra) # a318 <_fflush_r>
    58f8:	f4050ae3          	beqz	a0,584c <__sfvwrite_r+0x344>
    58fc:	e99ff06f          	j	5794 <__sfvwrite_r+0x28c>
    5900:	00048793          	mv	a5,s1
    5904:	009c7463          	bgeu	s8,s1,590c <__sfvwrite_r+0x404>
    5908:	000b8793          	mv	a5,s7
    590c:	02d7c7b3          	div	a5,a5,a3
    5910:	02442703          	lw	a4,36(s0)
    5914:	01c42583          	lw	a1,28(s0)
    5918:	000b0613          	mv	a2,s6
    591c:	00090513          	mv	a0,s2
    5920:	02d786b3          	mul	a3,a5,a3
    5924:	000700e7          	jalr	a4 # 1000000 <__trunctfdf2+0xfecfa0>
    5928:	00050993          	mv	s3,a0
    592c:	f2a040e3          	bgtz	a0,584c <__sfvwrite_r+0x344>
    5930:	e65ff06f          	j	5794 <__sfvwrite_r+0x28c>
    5934:	000a2b03          	lw	s6,0(s4)
    5938:	004a2983          	lw	s3,4(s4)
    593c:	00000513          	li	a0,0
    5940:	008a0a13          	addi	s4,s4,8
    5944:	c59ff06f          	j	559c <__sfvwrite_r+0x94>
    5948:	02dc4263          	blt	s8,a3,596c <__sfvwrite_r+0x464>
    594c:	02442783          	lw	a5,36(s0)
    5950:	01c42583          	lw	a1,28(s0)
    5954:	000b0613          	mv	a2,s6
    5958:	00090513          	mv	a0,s2
    595c:	000780e7          	jalr	a5
    5960:	00050493          	mv	s1,a0
    5964:	caa04ee3          	bgtz	a0,5620 <__sfvwrite_r+0x118>
    5968:	e2dff06f          	j	5794 <__sfvwrite_r+0x28c>
    596c:	000c0613          	mv	a2,s8
    5970:	000b0593          	mv	a1,s6
    5974:	00001097          	auipc	ra,0x1
    5978:	800080e7          	jalr	-2048(ra) # 6174 <memmove>
    597c:	00842783          	lw	a5,8(s0)
    5980:	000c0493          	mv	s1,s8
    5984:	418787b3          	sub	a5,a5,s8
    5988:	00f42423          	sw	a5,8(s0)
    598c:	00042783          	lw	a5,0(s0)
    5990:	018787b3          	add	a5,a5,s8
    5994:	00f42023          	sw	a5,0(s0)
    5998:	c89ff06f          	j	5620 <__sfvwrite_r+0x118>

0000599c <_malloc_r>:
    599c:	fd010113          	addi	sp,sp,-48
    59a0:	02112623          	sw	ra,44(sp)
    59a4:	02812423          	sw	s0,40(sp)
    59a8:	02912223          	sw	s1,36(sp)
    59ac:	03212023          	sw	s2,32(sp)
    59b0:	01312e23          	sw	s3,28(sp)
    59b4:	01412c23          	sw	s4,24(sp)
    59b8:	01512a23          	sw	s5,20(sp)
    59bc:	01612823          	sw	s6,16(sp)
    59c0:	01712623          	sw	s7,12(sp)
    59c4:	01812423          	sw	s8,8(sp)
    59c8:	01912223          	sw	s9,4(sp)
    59cc:	00b58793          	addi	a5,a1,11
    59d0:	01600713          	li	a4,22
    59d4:	04f77663          	bgeu	a4,a5,5a20 <_malloc_r+0x84>
    59d8:	ff87f493          	andi	s1,a5,-8
    59dc:	0404d463          	bgez	s1,5a24 <_malloc_r+0x88>
    59e0:	00c00793          	li	a5,12
    59e4:	00f52023          	sw	a5,0(a0)
    59e8:	00000513          	li	a0,0
    59ec:	02c12083          	lw	ra,44(sp)
    59f0:	02812403          	lw	s0,40(sp)
    59f4:	02412483          	lw	s1,36(sp)
    59f8:	02012903          	lw	s2,32(sp)
    59fc:	01c12983          	lw	s3,28(sp)
    5a00:	01812a03          	lw	s4,24(sp)
    5a04:	01412a83          	lw	s5,20(sp)
    5a08:	01012b03          	lw	s6,16(sp)
    5a0c:	00c12b83          	lw	s7,12(sp)
    5a10:	00812c03          	lw	s8,8(sp)
    5a14:	00412c83          	lw	s9,4(sp)
    5a18:	03010113          	addi	sp,sp,48
    5a1c:	00008067          	ret
    5a20:	01000493          	li	s1,16
    5a24:	fab4eee3          	bltu	s1,a1,59e0 <_malloc_r+0x44>
    5a28:	00050913          	mv	s2,a0
    5a2c:	00001097          	auipc	ra,0x1
    5a30:	880080e7          	jalr	-1920(ra) # 62ac <__malloc_lock>
    5a34:	1f700793          	li	a5,503
    5a38:	7fffc997          	auipc	s3,0x7fffc
    5a3c:	db098993          	addi	s3,s3,-592 # 800017e8 <__malloc_av_>
    5a40:	0497ea63          	bltu	a5,s1,5a94 <_malloc_r+0xf8>
    5a44:	00848713          	addi	a4,s1,8
    5a48:	00e98733          	add	a4,s3,a4
    5a4c:	00472403          	lw	s0,4(a4)
    5a50:	ff870693          	addi	a3,a4,-8
    5a54:	0034d793          	srli	a5,s1,0x3
    5a58:	00d41863          	bne	s0,a3,5a68 <_malloc_r+0xcc>
    5a5c:	00c72403          	lw	s0,12(a4)
    5a60:	00278793          	addi	a5,a5,2
    5a64:	08870063          	beq	a4,s0,5ae4 <_malloc_r+0x148>
    5a68:	00442783          	lw	a5,4(s0)
    5a6c:	00c42703          	lw	a4,12(s0)
    5a70:	00842683          	lw	a3,8(s0)
    5a74:	ffc7f793          	andi	a5,a5,-4
    5a78:	00f407b3          	add	a5,s0,a5
    5a7c:	00e6a623          	sw	a4,12(a3)
    5a80:	00d72423          	sw	a3,8(a4)
    5a84:	0047a703          	lw	a4,4(a5)
    5a88:	00176713          	ori	a4,a4,1
    5a8c:	00e7a223          	sw	a4,4(a5)
    5a90:	0ac0006f          	j	5b3c <_malloc_r+0x1a0>
    5a94:	0094d713          	srli	a4,s1,0x9
    5a98:	03f00793          	li	a5,63
    5a9c:	00070a63          	beqz	a4,5ab0 <_malloc_r+0x114>
    5aa0:	00400793          	li	a5,4
    5aa4:	0ae7e663          	bltu	a5,a4,5b50 <_malloc_r+0x1b4>
    5aa8:	0064d793          	srli	a5,s1,0x6
    5aac:	03878793          	addi	a5,a5,56
    5ab0:	00178713          	addi	a4,a5,1
    5ab4:	00371713          	slli	a4,a4,0x3
    5ab8:	00e98733          	add	a4,s3,a4
    5abc:	00472403          	lw	s0,4(a4)
    5ac0:	ff870593          	addi	a1,a4,-8
    5ac4:	00f00513          	li	a0,15
    5ac8:	00b40c63          	beq	s0,a1,5ae0 <_malloc_r+0x144>
    5acc:	00442703          	lw	a4,4(s0)
    5ad0:	ffc77713          	andi	a4,a4,-4
    5ad4:	40970633          	sub	a2,a4,s1
    5ad8:	0cc55463          	bge	a0,a2,5ba0 <_malloc_r+0x204>
    5adc:	fff78793          	addi	a5,a5,-1
    5ae0:	00178793          	addi	a5,a5,1
    5ae4:	0109a403          	lw	s0,16(s3)
    5ae8:	7fffc597          	auipc	a1,0x7fffc
    5aec:	d0858593          	addi	a1,a1,-760 # 800017f0 <__malloc_av_+0x8>
    5af0:	14b40463          	beq	s0,a1,5c38 <_malloc_r+0x29c>
    5af4:	00442703          	lw	a4,4(s0)
    5af8:	00f00693          	li	a3,15
    5afc:	ffc77713          	andi	a4,a4,-4
    5b00:	40970633          	sub	a2,a4,s1
    5b04:	0cc6d063          	bge	a3,a2,5bc4 <_malloc_r+0x228>
    5b08:	0014e793          	ori	a5,s1,1
    5b0c:	00f42223          	sw	a5,4(s0)
    5b10:	009406b3          	add	a3,s0,s1
    5b14:	7fffc797          	auipc	a5,0x7fffc
    5b18:	ced7a423          	sw	a3,-792(a5) # 800017fc <__malloc_av_+0x14>
    5b1c:	7fffc797          	auipc	a5,0x7fffc
    5b20:	ccd7ae23          	sw	a3,-804(a5) # 800017f8 <__malloc_av_+0x10>
    5b24:	00166793          	ori	a5,a2,1
    5b28:	00b6a623          	sw	a1,12(a3)
    5b2c:	00b6a423          	sw	a1,8(a3)
    5b30:	00f6a223          	sw	a5,4(a3)
    5b34:	00e40733          	add	a4,s0,a4
    5b38:	00c72023          	sw	a2,0(a4)
    5b3c:	00090513          	mv	a0,s2
    5b40:	00000097          	auipc	ra,0x0
    5b44:	770080e7          	jalr	1904(ra) # 62b0 <__malloc_unlock>
    5b48:	00840513          	addi	a0,s0,8
    5b4c:	ea1ff06f          	j	59ec <_malloc_r+0x50>
    5b50:	01400793          	li	a5,20
    5b54:	00e7e663          	bltu	a5,a4,5b60 <_malloc_r+0x1c4>
    5b58:	05b70793          	addi	a5,a4,91
    5b5c:	f55ff06f          	j	5ab0 <_malloc_r+0x114>
    5b60:	05400793          	li	a5,84
    5b64:	00e7e863          	bltu	a5,a4,5b74 <_malloc_r+0x1d8>
    5b68:	00c4d793          	srli	a5,s1,0xc
    5b6c:	06e78793          	addi	a5,a5,110
    5b70:	f41ff06f          	j	5ab0 <_malloc_r+0x114>
    5b74:	15400793          	li	a5,340
    5b78:	00e7e863          	bltu	a5,a4,5b88 <_malloc_r+0x1ec>
    5b7c:	00f4d793          	srli	a5,s1,0xf
    5b80:	07778793          	addi	a5,a5,119
    5b84:	f2dff06f          	j	5ab0 <_malloc_r+0x114>
    5b88:	55400693          	li	a3,1364
    5b8c:	07e00793          	li	a5,126
    5b90:	f2e6e0e3          	bltu	a3,a4,5ab0 <_malloc_r+0x114>
    5b94:	0124d793          	srli	a5,s1,0x12
    5b98:	07c78793          	addi	a5,a5,124
    5b9c:	f15ff06f          	j	5ab0 <_malloc_r+0x114>
    5ba0:	00c42683          	lw	a3,12(s0)
    5ba4:	00064c63          	bltz	a2,5bbc <_malloc_r+0x220>
    5ba8:	00842783          	lw	a5,8(s0)
    5bac:	00d7a623          	sw	a3,12(a5)
    5bb0:	00f6a423          	sw	a5,8(a3)
    5bb4:	00e407b3          	add	a5,s0,a4
    5bb8:	ecdff06f          	j	5a84 <_malloc_r+0xe8>
    5bbc:	00068413          	mv	s0,a3
    5bc0:	f09ff06f          	j	5ac8 <_malloc_r+0x12c>
    5bc4:	7fffc697          	auipc	a3,0x7fffc
    5bc8:	c2b6ac23          	sw	a1,-968(a3) # 800017fc <__malloc_av_+0x14>
    5bcc:	7fffc697          	auipc	a3,0x7fffc
    5bd0:	c2b6a623          	sw	a1,-980(a3) # 800017f8 <__malloc_av_+0x10>
    5bd4:	00064c63          	bltz	a2,5bec <_malloc_r+0x250>
    5bd8:	00e40733          	add	a4,s0,a4
    5bdc:	00472783          	lw	a5,4(a4)
    5be0:	0017e793          	ori	a5,a5,1
    5be4:	00f72223          	sw	a5,4(a4)
    5be8:	f55ff06f          	j	5b3c <_malloc_r+0x1a0>
    5bec:	1ff00693          	li	a3,511
    5bf0:	0049a803          	lw	a6,4(s3)
    5bf4:	1ae6e463          	bltu	a3,a4,5d9c <_malloc_r+0x400>
    5bf8:	00375713          	srli	a4,a4,0x3
    5bfc:	40275613          	srai	a2,a4,0x2
    5c00:	00100693          	li	a3,1
    5c04:	00170713          	addi	a4,a4,1
    5c08:	00c696b3          	sll	a3,a3,a2
    5c0c:	00371713          	slli	a4,a4,0x3
    5c10:	00e98733          	add	a4,s3,a4
    5c14:	0106e6b3          	or	a3,a3,a6
    5c18:	7fffc617          	auipc	a2,0x7fffc
    5c1c:	bcd62a23          	sw	a3,-1068(a2) # 800017ec <__malloc_av_+0x4>
    5c20:	00072683          	lw	a3,0(a4)
    5c24:	ff870613          	addi	a2,a4,-8
    5c28:	00c42623          	sw	a2,12(s0)
    5c2c:	00d42423          	sw	a3,8(s0)
    5c30:	00872023          	sw	s0,0(a4)
    5c34:	0086a623          	sw	s0,12(a3)
    5c38:	4027d713          	srai	a4,a5,0x2
    5c3c:	00100313          	li	t1,1
    5c40:	00e31333          	sll	t1,t1,a4
    5c44:	0049a703          	lw	a4,4(s3)
    5c48:	06676c63          	bltu	a4,t1,5cc0 <_malloc_r+0x324>
    5c4c:	006776b3          	and	a3,a4,t1
    5c50:	00069c63          	bnez	a3,5c68 <_malloc_r+0x2cc>
    5c54:	ffc7f793          	andi	a5,a5,-4
    5c58:	00131313          	slli	t1,t1,0x1
    5c5c:	006776b3          	and	a3,a4,t1
    5c60:	00478793          	addi	a5,a5,4
    5c64:	fe068ae3          	beqz	a3,5c58 <_malloc_r+0x2bc>
    5c68:	00f00e13          	li	t3,15
    5c6c:	00379693          	slli	a3,a5,0x3
    5c70:	00d986b3          	add	a3,s3,a3
    5c74:	00068813          	mv	a6,a3
    5c78:	00078513          	mv	a0,a5
    5c7c:	00c82403          	lw	s0,12(a6)
    5c80:	1f041063          	bne	s0,a6,5e60 <_malloc_r+0x4c4>
    5c84:	00150513          	addi	a0,a0,1
    5c88:	00357713          	andi	a4,a0,3
    5c8c:	00880813          	addi	a6,a6,8
    5c90:	fe0716e3          	bnez	a4,5c7c <_malloc_r+0x2e0>
    5c94:	0037f713          	andi	a4,a5,3
    5c98:	24071663          	bnez	a4,5ee4 <_malloc_r+0x548>
    5c9c:	0049a703          	lw	a4,4(s3)
    5ca0:	fff34793          	not	a5,t1
    5ca4:	00f777b3          	and	a5,a4,a5
    5ca8:	7fffc717          	auipc	a4,0x7fffc
    5cac:	b4f72223          	sw	a5,-1212(a4) # 800017ec <__malloc_av_+0x4>
    5cb0:	0049a703          	lw	a4,4(s3)
    5cb4:	00131313          	slli	t1,t1,0x1
    5cb8:	00676463          	bltu	a4,t1,5cc0 <_malloc_r+0x324>
    5cbc:	24031863          	bnez	t1,5f0c <_malloc_r+0x570>
    5cc0:	0089ab83          	lw	s7,8(s3)
    5cc4:	004ba403          	lw	s0,4(s7) # 80000004 <__stack_top+0xfffb6184>
    5cc8:	ffc47a93          	andi	s5,s0,-4
    5ccc:	009ae863          	bltu	s5,s1,5cdc <_malloc_r+0x340>
    5cd0:	409a8733          	sub	a4,s5,s1
    5cd4:	00f00793          	li	a5,15
    5cd8:	38e7c263          	blt	a5,a4,605c <_malloc_r+0x6c0>
    5cdc:	7fffc797          	auipc	a5,0x7fffc
    5ce0:	0ac78793          	addi	a5,a5,172 # 80001d88 <__malloc_top_pad>
    5ce4:	7fffc717          	auipc	a4,0x7fffc
    5ce8:	08c70713          	addi	a4,a4,140 # 80001d70 <__malloc_sbrk_base>
    5cec:	0007a403          	lw	s0,0(a5)
    5cf0:	00072683          	lw	a3,0(a4)
    5cf4:	fff00793          	li	a5,-1
    5cf8:	015b8c33          	add	s8,s7,s5
    5cfc:	00848433          	add	s0,s1,s0
    5d00:	00070a13          	mv	s4,a4
    5d04:	20f69863          	bne	a3,a5,5f14 <_malloc_r+0x578>
    5d08:	01040413          	addi	s0,s0,16
    5d0c:	00040593          	mv	a1,s0
    5d10:	00090513          	mv	a0,s2
    5d14:	00001097          	auipc	ra,0x1
    5d18:	b20080e7          	jalr	-1248(ra) # 6834 <_sbrk_r>
    5d1c:	fff00793          	li	a5,-1
    5d20:	00050b13          	mv	s6,a0
    5d24:	2af50c63          	beq	a0,a5,5fdc <_malloc_r+0x640>
    5d28:	01857463          	bgeu	a0,s8,5d30 <_malloc_r+0x394>
    5d2c:	2b3b9863          	bne	s7,s3,5fdc <_malloc_r+0x640>
    5d30:	7fffcc97          	auipc	s9,0x7fffc
    5d34:	120c8c93          	addi	s9,s9,288 # 80001e50 <__malloc_current_mallinfo>
    5d38:	000ca703          	lw	a4,0(s9)
    5d3c:	00e40733          	add	a4,s0,a4
    5d40:	7fffc797          	auipc	a5,0x7fffc
    5d44:	10e7a823          	sw	a4,272(a5) # 80001e50 <__malloc_current_mallinfo>
    5d48:	1f6c1263          	bne	s8,s6,5f2c <_malloc_r+0x590>
    5d4c:	014c1793          	slli	a5,s8,0x14
    5d50:	1c079e63          	bnez	a5,5f2c <_malloc_r+0x590>
    5d54:	0089a783          	lw	a5,8(s3)
    5d58:	008a8433          	add	s0,s5,s0
    5d5c:	00146413          	ori	s0,s0,1
    5d60:	0087a223          	sw	s0,4(a5)
    5d64:	7fffc717          	auipc	a4,0x7fffc
    5d68:	02070713          	addi	a4,a4,32 # 80001d84 <__malloc_max_sbrked_mem>
    5d6c:	000ca783          	lw	a5,0(s9)
    5d70:	00072703          	lw	a4,0(a4)
    5d74:	00f77663          	bgeu	a4,a5,5d80 <_malloc_r+0x3e4>
    5d78:	7fffc717          	auipc	a4,0x7fffc
    5d7c:	00f72623          	sw	a5,12(a4) # 80001d84 <__malloc_max_sbrked_mem>
    5d80:	7fffc717          	auipc	a4,0x7fffc
    5d84:	00070713          	mv	a4,a4
    5d88:	00072703          	lw	a4,0(a4) # 80001d80 <__malloc_max_total_mem>
    5d8c:	24f77863          	bgeu	a4,a5,5fdc <_malloc_r+0x640>
    5d90:	7fffc717          	auipc	a4,0x7fffc
    5d94:	fef72823          	sw	a5,-16(a4) # 80001d80 <__malloc_max_total_mem>
    5d98:	2440006f          	j	5fdc <_malloc_r+0x640>
    5d9c:	00975613          	srli	a2,a4,0x9
    5da0:	00400693          	li	a3,4
    5da4:	04c6e863          	bltu	a3,a2,5df4 <_malloc_r+0x458>
    5da8:	00675693          	srli	a3,a4,0x6
    5dac:	03868693          	addi	a3,a3,56
    5db0:	00168613          	addi	a2,a3,1
    5db4:	00361613          	slli	a2,a2,0x3
    5db8:	00c98633          	add	a2,s3,a2
    5dbc:	ff860513          	addi	a0,a2,-8
    5dc0:	00062603          	lw	a2,0(a2)
    5dc4:	08c51463          	bne	a0,a2,5e4c <_malloc_r+0x4b0>
    5dc8:	00100713          	li	a4,1
    5dcc:	4026d693          	srai	a3,a3,0x2
    5dd0:	00d716b3          	sll	a3,a4,a3
    5dd4:	0106e6b3          	or	a3,a3,a6
    5dd8:	7fffc717          	auipc	a4,0x7fffc
    5ddc:	a0d72a23          	sw	a3,-1516(a4) # 800017ec <__malloc_av_+0x4>
    5de0:	00a42623          	sw	a0,12(s0)
    5de4:	00c42423          	sw	a2,8(s0)
    5de8:	00852423          	sw	s0,8(a0)
    5dec:	00862623          	sw	s0,12(a2)
    5df0:	e49ff06f          	j	5c38 <_malloc_r+0x29c>
    5df4:	01400693          	li	a3,20
    5df8:	00c6e663          	bltu	a3,a2,5e04 <_malloc_r+0x468>
    5dfc:	05b60693          	addi	a3,a2,91
    5e00:	fb1ff06f          	j	5db0 <_malloc_r+0x414>
    5e04:	05400693          	li	a3,84
    5e08:	00c6e863          	bltu	a3,a2,5e18 <_malloc_r+0x47c>
    5e0c:	00c75693          	srli	a3,a4,0xc
    5e10:	06e68693          	addi	a3,a3,110
    5e14:	f9dff06f          	j	5db0 <_malloc_r+0x414>
    5e18:	15400693          	li	a3,340
    5e1c:	00c6e863          	bltu	a3,a2,5e2c <_malloc_r+0x490>
    5e20:	00f75693          	srli	a3,a4,0xf
    5e24:	07768693          	addi	a3,a3,119
    5e28:	f89ff06f          	j	5db0 <_malloc_r+0x414>
    5e2c:	55400513          	li	a0,1364
    5e30:	07e00693          	li	a3,126
    5e34:	f6c56ee3          	bltu	a0,a2,5db0 <_malloc_r+0x414>
    5e38:	01275693          	srli	a3,a4,0x12
    5e3c:	07c68693          	addi	a3,a3,124
    5e40:	f71ff06f          	j	5db0 <_malloc_r+0x414>
    5e44:	00862603          	lw	a2,8(a2)
    5e48:	00c50863          	beq	a0,a2,5e58 <_malloc_r+0x4bc>
    5e4c:	00462683          	lw	a3,4(a2)
    5e50:	ffc6f693          	andi	a3,a3,-4
    5e54:	fed768e3          	bltu	a4,a3,5e44 <_malloc_r+0x4a8>
    5e58:	00c62503          	lw	a0,12(a2)
    5e5c:	f85ff06f          	j	5de0 <_malloc_r+0x444>
    5e60:	00442703          	lw	a4,4(s0)
    5e64:	00c42603          	lw	a2,12(s0)
    5e68:	ffc77713          	andi	a4,a4,-4
    5e6c:	409708b3          	sub	a7,a4,s1
    5e70:	051e5463          	bge	t3,a7,5eb8 <_malloc_r+0x51c>
    5e74:	0014e793          	ori	a5,s1,1
    5e78:	00f42223          	sw	a5,4(s0)
    5e7c:	00842783          	lw	a5,8(s0)
    5e80:	009406b3          	add	a3,s0,s1
    5e84:	00e40733          	add	a4,s0,a4
    5e88:	00c7a623          	sw	a2,12(a5)
    5e8c:	00f62423          	sw	a5,8(a2)
    5e90:	7fffc797          	auipc	a5,0x7fffc
    5e94:	96d7a623          	sw	a3,-1684(a5) # 800017fc <__malloc_av_+0x14>
    5e98:	7fffc797          	auipc	a5,0x7fffc
    5e9c:	96d7a023          	sw	a3,-1696(a5) # 800017f8 <__malloc_av_+0x10>
    5ea0:	0018e793          	ori	a5,a7,1
    5ea4:	00b6a623          	sw	a1,12(a3)
    5ea8:	00b6a423          	sw	a1,8(a3)
    5eac:	00f6a223          	sw	a5,4(a3)
    5eb0:	01172023          	sw	a7,0(a4)
    5eb4:	c89ff06f          	j	5b3c <_malloc_r+0x1a0>
    5eb8:	0208c263          	bltz	a7,5edc <_malloc_r+0x540>
    5ebc:	00e40733          	add	a4,s0,a4
    5ec0:	00472783          	lw	a5,4(a4)
    5ec4:	0017e793          	ori	a5,a5,1
    5ec8:	00f72223          	sw	a5,4(a4)
    5ecc:	00842783          	lw	a5,8(s0)
    5ed0:	00c7a623          	sw	a2,12(a5)
    5ed4:	00f62423          	sw	a5,8(a2)
    5ed8:	c65ff06f          	j	5b3c <_malloc_r+0x1a0>
    5edc:	00060413          	mv	s0,a2
    5ee0:	da1ff06f          	j	5c80 <_malloc_r+0x2e4>
    5ee4:	ff868693          	addi	a3,a3,-8
    5ee8:	0086a703          	lw	a4,8(a3)
    5eec:	fff78793          	addi	a5,a5,-1
    5ef0:	dad702e3          	beq	a4,a3,5c94 <_malloc_r+0x2f8>
    5ef4:	dbdff06f          	j	5cb0 <_malloc_r+0x314>
    5ef8:	00478793          	addi	a5,a5,4
    5efc:	00131313          	slli	t1,t1,0x1
    5f00:	006776b3          	and	a3,a4,t1
    5f04:	fe068ae3          	beqz	a3,5ef8 <_malloc_r+0x55c>
    5f08:	d65ff06f          	j	5c6c <_malloc_r+0x2d0>
    5f0c:	00050793          	mv	a5,a0
    5f10:	ff1ff06f          	j	5f00 <_malloc_r+0x564>
    5f14:	00001737          	lui	a4,0x1
    5f18:	00f70713          	addi	a4,a4,15 # 100f <_ZN6tflite12_GLOBAL__N_111AverageEvalEP13TfLiteContextP10TfLiteNode+0x70f>
    5f1c:	00e40433          	add	s0,s0,a4
    5f20:	fffff7b7          	lui	a5,0xfffff
    5f24:	00f47433          	and	s0,s0,a5
    5f28:	de5ff06f          	j	5d0c <_malloc_r+0x370>
    5f2c:	000a2683          	lw	a3,0(s4)
    5f30:	fff00793          	li	a5,-1
    5f34:	0cf69a63          	bne	a3,a5,6008 <_malloc_r+0x66c>
    5f38:	7fffc797          	auipc	a5,0x7fffc
    5f3c:	e367ac23          	sw	s6,-456(a5) # 80001d70 <__malloc_sbrk_base>
    5f40:	007b7c13          	andi	s8,s6,7
    5f44:	00000793          	li	a5,0
    5f48:	000c0863          	beqz	s8,5f58 <_malloc_r+0x5bc>
    5f4c:	00800793          	li	a5,8
    5f50:	418787b3          	sub	a5,a5,s8
    5f54:	00fb0b33          	add	s6,s6,a5
    5f58:	00001537          	lui	a0,0x1
    5f5c:	00a78a33          	add	s4,a5,a0
    5f60:	008b0433          	add	s0,s6,s0
    5f64:	fff50513          	addi	a0,a0,-1 # fff <_ZN6tflite12_GLOBAL__N_111AverageEvalEP13TfLiteContextP10TfLiteNode+0x6ff>
    5f68:	00a477b3          	and	a5,s0,a0
    5f6c:	40fa0a33          	sub	s4,s4,a5
    5f70:	00aa7a33          	and	s4,s4,a0
    5f74:	000a0593          	mv	a1,s4
    5f78:	00090513          	mv	a0,s2
    5f7c:	00001097          	auipc	ra,0x1
    5f80:	8b8080e7          	jalr	-1864(ra) # 6834 <_sbrk_r>
    5f84:	fff00793          	li	a5,-1
    5f88:	00f51c63          	bne	a0,a5,5fa0 <_malloc_r+0x604>
    5f8c:	00040513          	mv	a0,s0
    5f90:	000c0663          	beqz	s8,5f9c <_malloc_r+0x600>
    5f94:	ff8c0513          	addi	a0,s8,-8
    5f98:	00a40533          	add	a0,s0,a0
    5f9c:	00000a13          	li	s4,0
    5fa0:	000ca783          	lw	a5,0(s9)
    5fa4:	41650533          	sub	a0,a0,s6
    5fa8:	014787b3          	add	a5,a5,s4
    5fac:	01450a33          	add	s4,a0,s4
    5fb0:	7fffc717          	auipc	a4,0x7fffc
    5fb4:	eaf72023          	sw	a5,-352(a4) # 80001e50 <__malloc_current_mallinfo>
    5fb8:	001a6a13          	ori	s4,s4,1
    5fbc:	7fffc797          	auipc	a5,0x7fffc
    5fc0:	8367aa23          	sw	s6,-1996(a5) # 800017f0 <__malloc_av_+0x8>
    5fc4:	014b2223          	sw	s4,4(s6) # 80000004 <__stack_top+0xfffb6184>
    5fc8:	d93b8ee3          	beq	s7,s3,5d64 <_malloc_r+0x3c8>
    5fcc:	00f00713          	li	a4,15
    5fd0:	05576663          	bltu	a4,s5,601c <_malloc_r+0x680>
    5fd4:	00100793          	li	a5,1
    5fd8:	00fb2223          	sw	a5,4(s6)
    5fdc:	0089a783          	lw	a5,8(s3)
    5fe0:	0047a783          	lw	a5,4(a5)
    5fe4:	ffc7f793          	andi	a5,a5,-4
    5fe8:	40978733          	sub	a4,a5,s1
    5fec:	0097e663          	bltu	a5,s1,5ff8 <_malloc_r+0x65c>
    5ff0:	00f00793          	li	a5,15
    5ff4:	06e7c463          	blt	a5,a4,605c <_malloc_r+0x6c0>
    5ff8:	00090513          	mv	a0,s2
    5ffc:	00000097          	auipc	ra,0x0
    6000:	2b4080e7          	jalr	692(ra) # 62b0 <__malloc_unlock>
    6004:	9e5ff06f          	j	59e8 <_malloc_r+0x4c>
    6008:	418b07b3          	sub	a5,s6,s8
    600c:	00e787b3          	add	a5,a5,a4
    6010:	7fffc717          	auipc	a4,0x7fffc
    6014:	e4f72023          	sw	a5,-448(a4) # 80001e50 <__malloc_current_mallinfo>
    6018:	f29ff06f          	j	5f40 <_malloc_r+0x5a4>
    601c:	004ba783          	lw	a5,4(s7)
    6020:	ff4a8413          	addi	s0,s5,-12
    6024:	ff847413          	andi	s0,s0,-8
    6028:	0017f793          	andi	a5,a5,1
    602c:	0087e7b3          	or	a5,a5,s0
    6030:	00fba223          	sw	a5,4(s7)
    6034:	00500693          	li	a3,5
    6038:	008b87b3          	add	a5,s7,s0
    603c:	00d7a223          	sw	a3,4(a5)
    6040:	00d7a423          	sw	a3,8(a5)
    6044:	d28770e3          	bgeu	a4,s0,5d64 <_malloc_r+0x3c8>
    6048:	008b8593          	addi	a1,s7,8
    604c:	00090513          	mv	a0,s2
    6050:	00005097          	auipc	ra,0x5
    6054:	958080e7          	jalr	-1704(ra) # a9a8 <_free_r>
    6058:	d0dff06f          	j	5d64 <_malloc_r+0x3c8>
    605c:	0089a403          	lw	s0,8(s3)
    6060:	0014e793          	ori	a5,s1,1
    6064:	00f42223          	sw	a5,4(s0)
    6068:	009407b3          	add	a5,s0,s1
    606c:	7fffb697          	auipc	a3,0x7fffb
    6070:	78f6a223          	sw	a5,1924(a3) # 800017f0 <__malloc_av_+0x8>
    6074:	a15ff06f          	j	5a88 <_malloc_r+0xec>

00006078 <memchr>:
    6078:	0ff5f593          	zext.b	a1,a1
    607c:	00c50633          	add	a2,a0,a2
    6080:	00c51663          	bne	a0,a2,608c <memchr+0x14>
    6084:	00000513          	li	a0,0
    6088:	00008067          	ret
    608c:	00054783          	lbu	a5,0(a0)
    6090:	feb78ce3          	beq	a5,a1,6088 <memchr+0x10>
    6094:	00150513          	addi	a0,a0,1
    6098:	fe9ff06f          	j	6080 <memchr+0x8>

0000609c <memcpy>:
    609c:	00a5c7b3          	xor	a5,a1,a0
    60a0:	0037f793          	andi	a5,a5,3
    60a4:	00c50733          	add	a4,a0,a2
    60a8:	00079663          	bnez	a5,60b4 <memcpy+0x18>
    60ac:	00300793          	li	a5,3
    60b0:	02c7e263          	bltu	a5,a2,60d4 <memcpy+0x38>
    60b4:	00050793          	mv	a5,a0
    60b8:	0ae57c63          	bgeu	a0,a4,6170 <memcpy+0xd4>
    60bc:	0005c683          	lbu	a3,0(a1)
    60c0:	00178793          	addi	a5,a5,1
    60c4:	00158593          	addi	a1,a1,1
    60c8:	fed78fa3          	sb	a3,-1(a5)
    60cc:	fee7e8e3          	bltu	a5,a4,60bc <memcpy+0x20>
    60d0:	00008067          	ret
    60d4:	00357693          	andi	a3,a0,3
    60d8:	00050793          	mv	a5,a0
    60dc:	00068e63          	beqz	a3,60f8 <memcpy+0x5c>
    60e0:	0005c683          	lbu	a3,0(a1)
    60e4:	00178793          	addi	a5,a5,1
    60e8:	00158593          	addi	a1,a1,1
    60ec:	fed78fa3          	sb	a3,-1(a5)
    60f0:	0037f693          	andi	a3,a5,3
    60f4:	fe9ff06f          	j	60dc <memcpy+0x40>
    60f8:	ffc77693          	andi	a3,a4,-4
    60fc:	fe068613          	addi	a2,a3,-32
    6100:	06c7f463          	bgeu	a5,a2,6168 <memcpy+0xcc>
    6104:	0005a383          	lw	t2,0(a1)
    6108:	0045a283          	lw	t0,4(a1)
    610c:	0085af83          	lw	t6,8(a1)
    6110:	00c5af03          	lw	t5,12(a1)
    6114:	0105ae83          	lw	t4,16(a1)
    6118:	0145ae03          	lw	t3,20(a1)
    611c:	0185a303          	lw	t1,24(a1)
    6120:	01c5a883          	lw	a7,28(a1)
    6124:	02458593          	addi	a1,a1,36
    6128:	0077a023          	sw	t2,0(a5)
    612c:	ffc5a803          	lw	a6,-4(a1)
    6130:	0057a223          	sw	t0,4(a5)
    6134:	01f7a423          	sw	t6,8(a5)
    6138:	01e7a623          	sw	t5,12(a5)
    613c:	01d7a823          	sw	t4,16(a5)
    6140:	01c7aa23          	sw	t3,20(a5)
    6144:	0067ac23          	sw	t1,24(a5)
    6148:	0117ae23          	sw	a7,28(a5)
    614c:	02478793          	addi	a5,a5,36
    6150:	ff07ae23          	sw	a6,-4(a5)
    6154:	fadff06f          	j	6100 <memcpy+0x64>
    6158:	0005a603          	lw	a2,0(a1)
    615c:	00478793          	addi	a5,a5,4
    6160:	00458593          	addi	a1,a1,4
    6164:	fec7ae23          	sw	a2,-4(a5)
    6168:	fed7e8e3          	bltu	a5,a3,6158 <memcpy+0xbc>
    616c:	f4e7e8e3          	bltu	a5,a4,60bc <memcpy+0x20>
    6170:	00008067          	ret

00006174 <memmove>:
    6174:	04a5fa63          	bgeu	a1,a0,61c8 <memmove+0x54>
    6178:	00c586b3          	add	a3,a1,a2
    617c:	04d57663          	bgeu	a0,a3,61c8 <memmove+0x54>
    6180:	fff64593          	not	a1,a2
    6184:	00000793          	li	a5,0
    6188:	fff78793          	addi	a5,a5,-1
    618c:	00f59463          	bne	a1,a5,6194 <memmove+0x20>
    6190:	00008067          	ret
    6194:	00f68733          	add	a4,a3,a5
    6198:	00074803          	lbu	a6,0(a4)
    619c:	00c78733          	add	a4,a5,a2
    61a0:	00e50733          	add	a4,a0,a4
    61a4:	01070023          	sb	a6,0(a4)
    61a8:	fe1ff06f          	j	6188 <memmove+0x14>
    61ac:	00f58733          	add	a4,a1,a5
    61b0:	00074683          	lbu	a3,0(a4)
    61b4:	00f50733          	add	a4,a0,a5
    61b8:	00178793          	addi	a5,a5,1
    61bc:	00d70023          	sb	a3,0(a4)
    61c0:	fef616e3          	bne	a2,a5,61ac <memmove+0x38>
    61c4:	00008067          	ret
    61c8:	00000793          	li	a5,0
    61cc:	ff5ff06f          	j	61c0 <memmove+0x4c>

000061d0 <memset>:
    61d0:	00f00313          	li	t1,15
    61d4:	00050713          	mv	a4,a0
    61d8:	02c37e63          	bgeu	t1,a2,6214 <memset+0x44>
    61dc:	00f77793          	andi	a5,a4,15
    61e0:	0a079063          	bnez	a5,6280 <memset+0xb0>
    61e4:	08059263          	bnez	a1,6268 <memset+0x98>
    61e8:	ff067693          	andi	a3,a2,-16
    61ec:	00f67613          	andi	a2,a2,15
    61f0:	00e686b3          	add	a3,a3,a4
    61f4:	00b72023          	sw	a1,0(a4)
    61f8:	00b72223          	sw	a1,4(a4)
    61fc:	00b72423          	sw	a1,8(a4)
    6200:	00b72623          	sw	a1,12(a4)
    6204:	01070713          	addi	a4,a4,16
    6208:	fed766e3          	bltu	a4,a3,61f4 <memset+0x24>
    620c:	00061463          	bnez	a2,6214 <memset+0x44>
    6210:	00008067          	ret
    6214:	40c306b3          	sub	a3,t1,a2
    6218:	00269693          	slli	a3,a3,0x2
    621c:	00000297          	auipc	t0,0x0
    6220:	005686b3          	add	a3,a3,t0
    6224:	00c68067          	jr	12(a3)
    6228:	00b70723          	sb	a1,14(a4)
    622c:	00b706a3          	sb	a1,13(a4)
    6230:	00b70623          	sb	a1,12(a4)
    6234:	00b705a3          	sb	a1,11(a4)
    6238:	00b70523          	sb	a1,10(a4)
    623c:	00b704a3          	sb	a1,9(a4)
    6240:	00b70423          	sb	a1,8(a4)
    6244:	00b703a3          	sb	a1,7(a4)
    6248:	00b70323          	sb	a1,6(a4)
    624c:	00b702a3          	sb	a1,5(a4)
    6250:	00b70223          	sb	a1,4(a4)
    6254:	00b701a3          	sb	a1,3(a4)
    6258:	00b70123          	sb	a1,2(a4)
    625c:	00b700a3          	sb	a1,1(a4)
    6260:	00b70023          	sb	a1,0(a4)
    6264:	00008067          	ret
    6268:	0ff5f593          	zext.b	a1,a1
    626c:	00859693          	slli	a3,a1,0x8
    6270:	00d5e5b3          	or	a1,a1,a3
    6274:	01059693          	slli	a3,a1,0x10
    6278:	00d5e5b3          	or	a1,a1,a3
    627c:	f6dff06f          	j	61e8 <memset+0x18>
    6280:	00279693          	slli	a3,a5,0x2
    6284:	00000297          	auipc	t0,0x0
    6288:	005686b3          	add	a3,a3,t0
    628c:	00008293          	mv	t0,ra
    6290:	fa0680e7          	jalr	-96(a3)
    6294:	00028093          	mv	ra,t0
    6298:	ff078793          	addi	a5,a5,-16
    629c:	40f70733          	sub	a4,a4,a5
    62a0:	00f60633          	add	a2,a2,a5
    62a4:	f6c378e3          	bgeu	t1,a2,6214 <memset+0x44>
    62a8:	f3dff06f          	j	61e4 <memset+0x14>

000062ac <__malloc_lock>:
    62ac:	00008067          	ret

000062b0 <__malloc_unlock>:
    62b0:	00008067          	ret

000062b4 <_realloc_r>:
    62b4:	fc010113          	addi	sp,sp,-64
    62b8:	02812c23          	sw	s0,56(sp)
    62bc:	02112e23          	sw	ra,60(sp)
    62c0:	00058413          	mv	s0,a1
    62c4:	02912a23          	sw	s1,52(sp)
    62c8:	03212823          	sw	s2,48(sp)
    62cc:	03312623          	sw	s3,44(sp)
    62d0:	03412423          	sw	s4,40(sp)
    62d4:	03512223          	sw	s5,36(sp)
    62d8:	03612023          	sw	s6,32(sp)
    62dc:	01712e23          	sw	s7,28(sp)
    62e0:	00060593          	mv	a1,a2
    62e4:	02041a63          	bnez	s0,6318 <_realloc_r+0x64>
    62e8:	03812403          	lw	s0,56(sp)
    62ec:	03c12083          	lw	ra,60(sp)
    62f0:	03412483          	lw	s1,52(sp)
    62f4:	03012903          	lw	s2,48(sp)
    62f8:	02c12983          	lw	s3,44(sp)
    62fc:	02812a03          	lw	s4,40(sp)
    6300:	02412a83          	lw	s5,36(sp)
    6304:	02012b03          	lw	s6,32(sp)
    6308:	01c12b83          	lw	s7,28(sp)
    630c:	04010113          	addi	sp,sp,64
    6310:	fffff317          	auipc	t1,0xfffff
    6314:	68c30067          	jr	1676(t1) # 599c <_malloc_r>
    6318:	00050a93          	mv	s5,a0
    631c:	00c12623          	sw	a2,12(sp)
    6320:	00000097          	auipc	ra,0x0
    6324:	f8c080e7          	jalr	-116(ra) # 62ac <__malloc_lock>
    6328:	00c12583          	lw	a1,12(sp)
    632c:	01600793          	li	a5,22
    6330:	00b58993          	addi	s3,a1,11
    6334:	0537f463          	bgeu	a5,s3,637c <_realloc_r+0xc8>
    6338:	ff89fb13          	andi	s6,s3,-8
    633c:	040b5263          	bgez	s6,6380 <_realloc_r+0xcc>
    6340:	00c00793          	li	a5,12
    6344:	00faa023          	sw	a5,0(s5)
    6348:	00000a13          	li	s4,0
    634c:	03c12083          	lw	ra,60(sp)
    6350:	03812403          	lw	s0,56(sp)
    6354:	000a0513          	mv	a0,s4
    6358:	03412483          	lw	s1,52(sp)
    635c:	03012903          	lw	s2,48(sp)
    6360:	02c12983          	lw	s3,44(sp)
    6364:	02812a03          	lw	s4,40(sp)
    6368:	02412a83          	lw	s5,36(sp)
    636c:	02012b03          	lw	s6,32(sp)
    6370:	01c12b83          	lw	s7,28(sp)
    6374:	04010113          	addi	sp,sp,64
    6378:	00008067          	ret
    637c:	01000b13          	li	s6,16
    6380:	fcbb60e3          	bltu	s6,a1,6340 <_realloc_r+0x8c>
    6384:	ffc42683          	lw	a3,-4(s0)
    6388:	ff840b93          	addi	s7,s0,-8
    638c:	ffc6f913          	andi	s2,a3,-4
    6390:	49695263          	bge	s2,s6,6814 <_realloc_r+0x560>
    6394:	7fffb717          	auipc	a4,0x7fffb
    6398:	45470713          	addi	a4,a4,1108 # 800017e8 <__malloc_av_>
    639c:	00872603          	lw	a2,8(a4)
    63a0:	012b87b3          	add	a5,s7,s2
    63a4:	0047a703          	lw	a4,4(a5)
    63a8:	00f60c63          	beq	a2,a5,63c0 <_realloc_r+0x10c>
    63ac:	ffe77513          	andi	a0,a4,-2
    63b0:	00a78533          	add	a0,a5,a0
    63b4:	00452503          	lw	a0,4(a0)
    63b8:	00157513          	andi	a0,a0,1
    63bc:	06051863          	bnez	a0,642c <_realloc_r+0x178>
    63c0:	ffc77713          	andi	a4,a4,-4
    63c4:	00e909b3          	add	s3,s2,a4
    63c8:	04f61463          	bne	a2,a5,6410 <_realloc_r+0x15c>
    63cc:	010b0513          	addi	a0,s6,16
    63d0:	06a9c263          	blt	s3,a0,6434 <_realloc_r+0x180>
    63d4:	016b8bb3          	add	s7,s7,s6
    63d8:	416989b3          	sub	s3,s3,s6
    63dc:	7fffb797          	auipc	a5,0x7fffb
    63e0:	4177aa23          	sw	s7,1044(a5) # 800017f0 <__malloc_av_+0x8>
    63e4:	0019e993          	ori	s3,s3,1
    63e8:	013ba223          	sw	s3,4(s7)
    63ec:	ffc42983          	lw	s3,-4(s0)
    63f0:	000a8513          	mv	a0,s5
    63f4:	00040a13          	mv	s4,s0
    63f8:	0019f993          	andi	s3,s3,1
    63fc:	0169e9b3          	or	s3,s3,s6
    6400:	ff342e23          	sw	s3,-4(s0)
    6404:	00000097          	auipc	ra,0x0
    6408:	eac080e7          	jalr	-340(ra) # 62b0 <__malloc_unlock>
    640c:	f41ff06f          	j	634c <_realloc_r+0x98>
    6410:	0369c263          	blt	s3,s6,6434 <_realloc_r+0x180>
    6414:	00c7a703          	lw	a4,12(a5)
    6418:	0087a783          	lw	a5,8(a5)
    641c:	00e7a623          	sw	a4,12(a5)
    6420:	00f72423          	sw	a5,8(a4)
    6424:	000b8493          	mv	s1,s7
    6428:	19c0006f          	j	65c4 <_realloc_r+0x310>
    642c:	00000713          	li	a4,0
    6430:	00000793          	li	a5,0
    6434:	0016f693          	andi	a3,a3,1
    6438:	2e069663          	bnez	a3,6724 <_realloc_r+0x470>
    643c:	ff842483          	lw	s1,-8(s0)
    6440:	409b84b3          	sub	s1,s7,s1
    6444:	0044aa03          	lw	s4,4(s1)
    6448:	ffca7a13          	andi	s4,s4,-4
    644c:	012a0a33          	add	s4,s4,s2
    6450:	20078e63          	beqz	a5,666c <_realloc_r+0x3b8>
    6454:	014709b3          	add	s3,a4,s4
    6458:	0ef61c63          	bne	a2,a5,6550 <_realloc_r+0x29c>
    645c:	010b0793          	addi	a5,s6,16
    6460:	20f9c663          	blt	s3,a5,666c <_realloc_r+0x3b8>
    6464:	0084a703          	lw	a4,8(s1)
    6468:	00c4a783          	lw	a5,12(s1)
    646c:	ffc90613          	addi	a2,s2,-4
    6470:	00848a13          	addi	s4,s1,8
    6474:	00f72623          	sw	a5,12(a4)
    6478:	00e7a423          	sw	a4,8(a5)
    647c:	02400713          	li	a4,36
    6480:	0ac76e63          	bltu	a4,a2,653c <_realloc_r+0x288>
    6484:	01300693          	li	a3,19
    6488:	000a0793          	mv	a5,s4
    648c:	02c6f263          	bgeu	a3,a2,64b0 <_realloc_r+0x1fc>
    6490:	00042783          	lw	a5,0(s0)
    6494:	00f4a423          	sw	a5,8(s1)
    6498:	00442783          	lw	a5,4(s0)
    649c:	00f4a623          	sw	a5,12(s1)
    64a0:	01b00793          	li	a5,27
    64a4:	04c7ee63          	bltu	a5,a2,6500 <_realloc_r+0x24c>
    64a8:	00840413          	addi	s0,s0,8
    64ac:	01048793          	addi	a5,s1,16
    64b0:	00042703          	lw	a4,0(s0)
    64b4:	00e7a023          	sw	a4,0(a5)
    64b8:	00442703          	lw	a4,4(s0)
    64bc:	00e7a223          	sw	a4,4(a5)
    64c0:	00842703          	lw	a4,8(s0)
    64c4:	00e7a423          	sw	a4,8(a5)
    64c8:	016487b3          	add	a5,s1,s6
    64cc:	416989b3          	sub	s3,s3,s6
    64d0:	7fffb717          	auipc	a4,0x7fffb
    64d4:	32f72023          	sw	a5,800(a4) # 800017f0 <__malloc_av_+0x8>
    64d8:	0019e993          	ori	s3,s3,1
    64dc:	0137a223          	sw	s3,4(a5)
    64e0:	0044a783          	lw	a5,4(s1)
    64e4:	0017f793          	andi	a5,a5,1
    64e8:	0167e9b3          	or	s3,a5,s6
    64ec:	0134a223          	sw	s3,4(s1)
    64f0:	000a8513          	mv	a0,s5
    64f4:	00000097          	auipc	ra,0x0
    64f8:	dbc080e7          	jalr	-580(ra) # 62b0 <__malloc_unlock>
    64fc:	e51ff06f          	j	634c <_realloc_r+0x98>
    6500:	00842783          	lw	a5,8(s0)
    6504:	00f4a823          	sw	a5,16(s1)
    6508:	00c42783          	lw	a5,12(s0)
    650c:	00f4aa23          	sw	a5,20(s1)
    6510:	00e60863          	beq	a2,a4,6520 <_realloc_r+0x26c>
    6514:	01040413          	addi	s0,s0,16
    6518:	01848793          	addi	a5,s1,24
    651c:	f95ff06f          	j	64b0 <_realloc_r+0x1fc>
    6520:	01042783          	lw	a5,16(s0)
    6524:	01840413          	addi	s0,s0,24
    6528:	00f4ac23          	sw	a5,24(s1)
    652c:	ffc42703          	lw	a4,-4(s0)
    6530:	02048793          	addi	a5,s1,32
    6534:	00e4ae23          	sw	a4,28(s1)
    6538:	f79ff06f          	j	64b0 <_realloc_r+0x1fc>
    653c:	00040593          	mv	a1,s0
    6540:	000a0513          	mv	a0,s4
    6544:	00000097          	auipc	ra,0x0
    6548:	c30080e7          	jalr	-976(ra) # 6174 <memmove>
    654c:	f7dff06f          	j	64c8 <_realloc_r+0x214>
    6550:	1169ce63          	blt	s3,s6,666c <_realloc_r+0x3b8>
    6554:	00c7a703          	lw	a4,12(a5)
    6558:	0087a783          	lw	a5,8(a5)
    655c:	ffc90613          	addi	a2,s2,-4
    6560:	00848513          	addi	a0,s1,8
    6564:	00e7a623          	sw	a4,12(a5)
    6568:	00f72423          	sw	a5,8(a4)
    656c:	0084a703          	lw	a4,8(s1)
    6570:	00c4a783          	lw	a5,12(s1)
    6574:	00f72623          	sw	a5,12(a4)
    6578:	00e7a423          	sw	a4,8(a5)
    657c:	02400793          	li	a5,36
    6580:	0cc7ee63          	bltu	a5,a2,665c <_realloc_r+0x3a8>
    6584:	01300713          	li	a4,19
    6588:	02c77263          	bgeu	a4,a2,65ac <_realloc_r+0x2f8>
    658c:	00042703          	lw	a4,0(s0)
    6590:	00e4a423          	sw	a4,8(s1)
    6594:	00442703          	lw	a4,4(s0)
    6598:	00e4a623          	sw	a4,12(s1)
    659c:	01b00713          	li	a4,27
    65a0:	08c76063          	bltu	a4,a2,6620 <_realloc_r+0x36c>
    65a4:	00840413          	addi	s0,s0,8
    65a8:	01048513          	addi	a0,s1,16
    65ac:	00042783          	lw	a5,0(s0)
    65b0:	00f52023          	sw	a5,0(a0)
    65b4:	00442783          	lw	a5,4(s0)
    65b8:	00f52223          	sw	a5,4(a0)
    65bc:	00842783          	lw	a5,8(s0)
    65c0:	00f52423          	sw	a5,8(a0)
    65c4:	0044a703          	lw	a4,4(s1)
    65c8:	416986b3          	sub	a3,s3,s6
    65cc:	00f00613          	li	a2,15
    65d0:	00177713          	andi	a4,a4,1
    65d4:	013487b3          	add	a5,s1,s3
    65d8:	24d67263          	bgeu	a2,a3,681c <_realloc_r+0x568>
    65dc:	00eb69b3          	or	s3,s6,a4
    65e0:	0134a223          	sw	s3,4(s1)
    65e4:	016485b3          	add	a1,s1,s6
    65e8:	0016e693          	ori	a3,a3,1
    65ec:	00d5a223          	sw	a3,4(a1)
    65f0:	0047a703          	lw	a4,4(a5)
    65f4:	00858593          	addi	a1,a1,8
    65f8:	000a8513          	mv	a0,s5
    65fc:	00176713          	ori	a4,a4,1
    6600:	00e7a223          	sw	a4,4(a5)
    6604:	00004097          	auipc	ra,0x4
    6608:	3a4080e7          	jalr	932(ra) # a9a8 <_free_r>
    660c:	000a8513          	mv	a0,s5
    6610:	00000097          	auipc	ra,0x0
    6614:	ca0080e7          	jalr	-864(ra) # 62b0 <__malloc_unlock>
    6618:	00848a13          	addi	s4,s1,8
    661c:	d31ff06f          	j	634c <_realloc_r+0x98>
    6620:	00842703          	lw	a4,8(s0)
    6624:	00e4a823          	sw	a4,16(s1)
    6628:	00c42703          	lw	a4,12(s0)
    662c:	00e4aa23          	sw	a4,20(s1)
    6630:	00f60863          	beq	a2,a5,6640 <_realloc_r+0x38c>
    6634:	01040413          	addi	s0,s0,16
    6638:	01848513          	addi	a0,s1,24
    663c:	f71ff06f          	j	65ac <_realloc_r+0x2f8>
    6640:	01042783          	lw	a5,16(s0)
    6644:	02048513          	addi	a0,s1,32
    6648:	01840413          	addi	s0,s0,24
    664c:	00f4ac23          	sw	a5,24(s1)
    6650:	ffc42783          	lw	a5,-4(s0)
    6654:	00f4ae23          	sw	a5,28(s1)
    6658:	f55ff06f          	j	65ac <_realloc_r+0x2f8>
    665c:	00040593          	mv	a1,s0
    6660:	00000097          	auipc	ra,0x0
    6664:	b14080e7          	jalr	-1260(ra) # 6174 <memmove>
    6668:	f5dff06f          	j	65c4 <_realloc_r+0x310>
    666c:	0b6a4c63          	blt	s4,s6,6724 <_realloc_r+0x470>
    6670:	00c4a783          	lw	a5,12(s1)
    6674:	0084a703          	lw	a4,8(s1)
    6678:	ffc90613          	addi	a2,s2,-4
    667c:	00848513          	addi	a0,s1,8
    6680:	00f72623          	sw	a5,12(a4)
    6684:	00e7a423          	sw	a4,8(a5)
    6688:	02400793          	li	a5,36
    668c:	08c7e463          	bltu	a5,a2,6714 <_realloc_r+0x460>
    6690:	01300713          	li	a4,19
    6694:	02c77263          	bgeu	a4,a2,66b8 <_realloc_r+0x404>
    6698:	00042703          	lw	a4,0(s0)
    669c:	00e4a423          	sw	a4,8(s1)
    66a0:	00442703          	lw	a4,4(s0)
    66a4:	00e4a623          	sw	a4,12(s1)
    66a8:	01b00713          	li	a4,27
    66ac:	02c76663          	bltu	a4,a2,66d8 <_realloc_r+0x424>
    66b0:	00840413          	addi	s0,s0,8
    66b4:	01048513          	addi	a0,s1,16
    66b8:	00042783          	lw	a5,0(s0)
    66bc:	00f52023          	sw	a5,0(a0)
    66c0:	00442783          	lw	a5,4(s0)
    66c4:	00f52223          	sw	a5,4(a0)
    66c8:	00842783          	lw	a5,8(s0)
    66cc:	00f52423          	sw	a5,8(a0)
    66d0:	000a0993          	mv	s3,s4
    66d4:	ef1ff06f          	j	65c4 <_realloc_r+0x310>
    66d8:	00842703          	lw	a4,8(s0)
    66dc:	00e4a823          	sw	a4,16(s1)
    66e0:	00c42703          	lw	a4,12(s0)
    66e4:	00e4aa23          	sw	a4,20(s1)
    66e8:	00f60863          	beq	a2,a5,66f8 <_realloc_r+0x444>
    66ec:	01040413          	addi	s0,s0,16
    66f0:	01848513          	addi	a0,s1,24
    66f4:	fc5ff06f          	j	66b8 <_realloc_r+0x404>
    66f8:	01042783          	lw	a5,16(s0)
    66fc:	02048513          	addi	a0,s1,32
    6700:	01840413          	addi	s0,s0,24
    6704:	00f4ac23          	sw	a5,24(s1)
    6708:	ffc42783          	lw	a5,-4(s0)
    670c:	00f4ae23          	sw	a5,28(s1)
    6710:	fa9ff06f          	j	66b8 <_realloc_r+0x404>
    6714:	00040593          	mv	a1,s0
    6718:	00000097          	auipc	ra,0x0
    671c:	a5c080e7          	jalr	-1444(ra) # 6174 <memmove>
    6720:	fb1ff06f          	j	66d0 <_realloc_r+0x41c>
    6724:	000a8513          	mv	a0,s5
    6728:	fffff097          	auipc	ra,0xfffff
    672c:	274080e7          	jalr	628(ra) # 599c <_malloc_r>
    6730:	00050a13          	mv	s4,a0
    6734:	da050ee3          	beqz	a0,64f0 <_realloc_r+0x23c>
    6738:	ffc42783          	lw	a5,-4(s0)
    673c:	ff850713          	addi	a4,a0,-8
    6740:	ffe7f793          	andi	a5,a5,-2
    6744:	00fb87b3          	add	a5,s7,a5
    6748:	00e79a63          	bne	a5,a4,675c <_realloc_r+0x4a8>
    674c:	ffc52983          	lw	s3,-4(a0)
    6750:	ffc9f993          	andi	s3,s3,-4
    6754:	012989b3          	add	s3,s3,s2
    6758:	ccdff06f          	j	6424 <_realloc_r+0x170>
    675c:	ffc90613          	addi	a2,s2,-4
    6760:	02400793          	li	a5,36
    6764:	0ac7e063          	bltu	a5,a2,6804 <_realloc_r+0x550>
    6768:	01300713          	li	a4,19
    676c:	08c77663          	bgeu	a4,a2,67f8 <_realloc_r+0x544>
    6770:	00042703          	lw	a4,0(s0)
    6774:	00e52023          	sw	a4,0(a0)
    6778:	00442703          	lw	a4,4(s0)
    677c:	00e52223          	sw	a4,4(a0)
    6780:	01b00713          	li	a4,27
    6784:	02c76c63          	bltu	a4,a2,67bc <_realloc_r+0x508>
    6788:	00840713          	addi	a4,s0,8
    678c:	00850793          	addi	a5,a0,8
    6790:	00072683          	lw	a3,0(a4)
    6794:	00d7a023          	sw	a3,0(a5)
    6798:	00472683          	lw	a3,4(a4)
    679c:	00d7a223          	sw	a3,4(a5)
    67a0:	00872703          	lw	a4,8(a4)
    67a4:	00e7a423          	sw	a4,8(a5)
    67a8:	00040593          	mv	a1,s0
    67ac:	000a8513          	mv	a0,s5
    67b0:	00004097          	auipc	ra,0x4
    67b4:	1f8080e7          	jalr	504(ra) # a9a8 <_free_r>
    67b8:	d39ff06f          	j	64f0 <_realloc_r+0x23c>
    67bc:	00842703          	lw	a4,8(s0)
    67c0:	00e52423          	sw	a4,8(a0)
    67c4:	00c42703          	lw	a4,12(s0)
    67c8:	00e52623          	sw	a4,12(a0)
    67cc:	00f60863          	beq	a2,a5,67dc <_realloc_r+0x528>
    67d0:	01040713          	addi	a4,s0,16
    67d4:	01050793          	addi	a5,a0,16
    67d8:	fb9ff06f          	j	6790 <_realloc_r+0x4dc>
    67dc:	01042783          	lw	a5,16(s0)
    67e0:	01840713          	addi	a4,s0,24
    67e4:	00f52823          	sw	a5,16(a0)
    67e8:	01442683          	lw	a3,20(s0)
    67ec:	01850793          	addi	a5,a0,24
    67f0:	00d52a23          	sw	a3,20(a0)
    67f4:	f9dff06f          	j	6790 <_realloc_r+0x4dc>
    67f8:	00050793          	mv	a5,a0
    67fc:	00040713          	mv	a4,s0
    6800:	f91ff06f          	j	6790 <_realloc_r+0x4dc>
    6804:	00040593          	mv	a1,s0
    6808:	00000097          	auipc	ra,0x0
    680c:	96c080e7          	jalr	-1684(ra) # 6174 <memmove>
    6810:	f99ff06f          	j	67a8 <_realloc_r+0x4f4>
    6814:	00090993          	mv	s3,s2
    6818:	c0dff06f          	j	6424 <_realloc_r+0x170>
    681c:	00e9e9b3          	or	s3,s3,a4
    6820:	0134a223          	sw	s3,4(s1)
    6824:	0047a703          	lw	a4,4(a5)
    6828:	00176713          	ori	a4,a4,1
    682c:	00e7a223          	sw	a4,4(a5)
    6830:	dddff06f          	j	660c <_realloc_r+0x358>

00006834 <_sbrk_r>:
    6834:	ff010113          	addi	sp,sp,-16
    6838:	00812423          	sw	s0,8(sp)
    683c:	00050413          	mv	s0,a0
    6840:	00058513          	mv	a0,a1
    6844:	7fffb797          	auipc	a5,0x7fffb
    6848:	6207aa23          	sw	zero,1588(a5) # 80001e78 <errno>
    684c:	00112623          	sw	ra,12(sp)
    6850:	00009097          	auipc	ra,0x9
    6854:	050080e7          	jalr	80(ra) # f8a0 <_sbrk>
    6858:	fff00793          	li	a5,-1
    685c:	00f51c63          	bne	a0,a5,6874 <_sbrk_r+0x40>
    6860:	7fffb797          	auipc	a5,0x7fffb
    6864:	61878793          	addi	a5,a5,1560 # 80001e78 <errno>
    6868:	0007a783          	lw	a5,0(a5)
    686c:	00078463          	beqz	a5,6874 <_sbrk_r+0x40>
    6870:	00f42023          	sw	a5,0(s0)
    6874:	00c12083          	lw	ra,12(sp)
    6878:	00812403          	lw	s0,8(sp)
    687c:	01010113          	addi	sp,sp,16
    6880:	00008067          	ret

00006884 <_init_signal_r>:
    6884:	2dc52703          	lw	a4,732(a0)
    6888:	04071a63          	bnez	a4,68dc <_init_signal_r+0x58>
    688c:	ff010113          	addi	sp,sp,-16
    6890:	08000593          	li	a1,128
    6894:	00812423          	sw	s0,8(sp)
    6898:	00112623          	sw	ra,12(sp)
    689c:	00050413          	mv	s0,a0
    68a0:	fffff097          	auipc	ra,0xfffff
    68a4:	0fc080e7          	jalr	252(ra) # 599c <_malloc_r>
    68a8:	2ca42e23          	sw	a0,732(s0)
    68ac:	fff00793          	li	a5,-1
    68b0:	00050c63          	beqz	a0,68c8 <_init_signal_r+0x44>
    68b4:	08050793          	addi	a5,a0,128
    68b8:	00052023          	sw	zero,0(a0)
    68bc:	00450513          	addi	a0,a0,4
    68c0:	fef51ce3          	bne	a0,a5,68b8 <_init_signal_r+0x34>
    68c4:	00000793          	li	a5,0
    68c8:	00c12083          	lw	ra,12(sp)
    68cc:	00812403          	lw	s0,8(sp)
    68d0:	00078513          	mv	a0,a5
    68d4:	01010113          	addi	sp,sp,16
    68d8:	00008067          	ret
    68dc:	00000793          	li	a5,0
    68e0:	00078513          	mv	a0,a5
    68e4:	00008067          	ret

000068e8 <_signal_r>:
    68e8:	ff010113          	addi	sp,sp,-16
    68ec:	00912223          	sw	s1,4(sp)
    68f0:	00112623          	sw	ra,12(sp)
    68f4:	00812423          	sw	s0,8(sp)
    68f8:	01212023          	sw	s2,0(sp)
    68fc:	01f00713          	li	a4,31
    6900:	00050493          	mv	s1,a0
    6904:	00b77a63          	bgeu	a4,a1,6918 <_signal_r+0x30>
    6908:	01600713          	li	a4,22
    690c:	00e52023          	sw	a4,0(a0)
    6910:	fff00513          	li	a0,-1
    6914:	0280006f          	j	693c <_signal_r+0x54>
    6918:	2dc52783          	lw	a5,732(a0)
    691c:	00060913          	mv	s2,a2
    6920:	00058413          	mv	s0,a1
    6924:	02078863          	beqz	a5,6954 <_signal_r+0x6c>
    6928:	00241593          	slli	a1,s0,0x2
    692c:	2dc4a403          	lw	s0,732(s1)
    6930:	00b405b3          	add	a1,s0,a1
    6934:	0005a503          	lw	a0,0(a1)
    6938:	0125a023          	sw	s2,0(a1)
    693c:	00c12083          	lw	ra,12(sp)
    6940:	00812403          	lw	s0,8(sp)
    6944:	00412483          	lw	s1,4(sp)
    6948:	00012903          	lw	s2,0(sp)
    694c:	01010113          	addi	sp,sp,16
    6950:	00008067          	ret
    6954:	00000097          	auipc	ra,0x0
    6958:	f30080e7          	jalr	-208(ra) # 6884 <_init_signal_r>
    695c:	fc0506e3          	beqz	a0,6928 <_signal_r+0x40>
    6960:	fb1ff06f          	j	6910 <_signal_r+0x28>

00006964 <_raise_r>:
    6964:	01f00793          	li	a5,31
    6968:	00b7fa63          	bgeu	a5,a1,697c <_raise_r+0x18>
    696c:	01600793          	li	a5,22
    6970:	00f52023          	sw	a5,0(a0)
    6974:	fff00513          	li	a0,-1
    6978:	00008067          	ret
    697c:	2dc52783          	lw	a5,732(a0)
    6980:	fe010113          	addi	sp,sp,-32
    6984:	00812c23          	sw	s0,24(sp)
    6988:	00112e23          	sw	ra,28(sp)
    698c:	00058613          	mv	a2,a1
    6990:	00050413          	mv	s0,a0
    6994:	00078a63          	beqz	a5,69a8 <_raise_r+0x44>
    6998:	00259713          	slli	a4,a1,0x2
    699c:	00e787b3          	add	a5,a5,a4
    69a0:	0007a703          	lw	a4,0(a5)
    69a4:	02071a63          	bnez	a4,69d8 <_raise_r+0x74>
    69a8:	00040513          	mv	a0,s0
    69ac:	00c12623          	sw	a2,12(sp)
    69b0:	00000097          	auipc	ra,0x0
    69b4:	1b8080e7          	jalr	440(ra) # 6b68 <_getpid_r>
    69b8:	00050593          	mv	a1,a0
    69bc:	00040513          	mv	a0,s0
    69c0:	01812403          	lw	s0,24(sp)
    69c4:	00c12603          	lw	a2,12(sp)
    69c8:	01c12083          	lw	ra,28(sp)
    69cc:	02010113          	addi	sp,sp,32
    69d0:	00000317          	auipc	t1,0x0
    69d4:	14430067          	jr	324(t1) # 6b14 <_kill_r>
    69d8:	00100693          	li	a3,1
    69dc:	00000513          	li	a0,0
    69e0:	00d70c63          	beq	a4,a3,69f8 <_raise_r+0x94>
    69e4:	fff00693          	li	a3,-1
    69e8:	02d71063          	bne	a4,a3,6a08 <_raise_r+0xa4>
    69ec:	01600793          	li	a5,22
    69f0:	00f42023          	sw	a5,0(s0)
    69f4:	00100513          	li	a0,1
    69f8:	01c12083          	lw	ra,28(sp)
    69fc:	01812403          	lw	s0,24(sp)
    6a00:	02010113          	addi	sp,sp,32
    6a04:	00008067          	ret
    6a08:	00058513          	mv	a0,a1
    6a0c:	0007a023          	sw	zero,0(a5)
    6a10:	000700e7          	jalr	a4
    6a14:	00000513          	li	a0,0
    6a18:	fe1ff06f          	j	69f8 <_raise_r+0x94>

00006a1c <__sigtramp_r>:
    6a1c:	01f00793          	li	a5,31
    6a20:	00b7f663          	bgeu	a5,a1,6a2c <__sigtramp_r+0x10>
    6a24:	fff00513          	li	a0,-1
    6a28:	00008067          	ret
    6a2c:	2dc52783          	lw	a5,732(a0)
    6a30:	ff010113          	addi	sp,sp,-16
    6a34:	00812423          	sw	s0,8(sp)
    6a38:	00912223          	sw	s1,4(sp)
    6a3c:	00112623          	sw	ra,12(sp)
    6a40:	00050493          	mv	s1,a0
    6a44:	00058413          	mv	s0,a1
    6a48:	04078463          	beqz	a5,6a90 <__sigtramp_r+0x74>
    6a4c:	2dc4a783          	lw	a5,732(s1)
    6a50:	00241713          	slli	a4,s0,0x2
    6a54:	00100513          	li	a0,1
    6a58:	00e78733          	add	a4,a5,a4
    6a5c:	00072783          	lw	a5,0(a4)
    6a60:	04078063          	beqz	a5,6aa0 <__sigtramp_r+0x84>
    6a64:	fff00693          	li	a3,-1
    6a68:	00200513          	li	a0,2
    6a6c:	02d78a63          	beq	a5,a3,6aa0 <__sigtramp_r+0x84>
    6a70:	00100693          	li	a3,1
    6a74:	00300513          	li	a0,3
    6a78:	02d78463          	beq	a5,a3,6aa0 <__sigtramp_r+0x84>
    6a7c:	00040513          	mv	a0,s0
    6a80:	00072023          	sw	zero,0(a4)
    6a84:	000780e7          	jalr	a5
    6a88:	00000513          	li	a0,0
    6a8c:	0140006f          	j	6aa0 <__sigtramp_r+0x84>
    6a90:	00000097          	auipc	ra,0x0
    6a94:	df4080e7          	jalr	-524(ra) # 6884 <_init_signal_r>
    6a98:	fa050ae3          	beqz	a0,6a4c <__sigtramp_r+0x30>
    6a9c:	fff00513          	li	a0,-1
    6aa0:	00c12083          	lw	ra,12(sp)
    6aa4:	00812403          	lw	s0,8(sp)
    6aa8:	00412483          	lw	s1,4(sp)
    6aac:	01010113          	addi	sp,sp,16
    6ab0:	00008067          	ret

00006ab4 <raise>:
    6ab4:	7fffb797          	auipc	a5,0x7fffb
    6ab8:	2b878793          	addi	a5,a5,696 # 80001d6c <_impure_ptr>
    6abc:	00050593          	mv	a1,a0
    6ac0:	0007a503          	lw	a0,0(a5)
    6ac4:	00000317          	auipc	t1,0x0
    6ac8:	ea030067          	jr	-352(t1) # 6964 <_raise_r>

00006acc <signal>:
    6acc:	7fffb797          	auipc	a5,0x7fffb
    6ad0:	2a078793          	addi	a5,a5,672 # 80001d6c <_impure_ptr>
    6ad4:	00058613          	mv	a2,a1
    6ad8:	00050593          	mv	a1,a0
    6adc:	0007a503          	lw	a0,0(a5)
    6ae0:	00000317          	auipc	t1,0x0
    6ae4:	e0830067          	jr	-504(t1) # 68e8 <_signal_r>

00006ae8 <_init_signal>:
    6ae8:	7fffb797          	auipc	a5,0x7fffb
    6aec:	28478793          	addi	a5,a5,644 # 80001d6c <_impure_ptr>
    6af0:	0007a503          	lw	a0,0(a5)
    6af4:	00000317          	auipc	t1,0x0
    6af8:	d9030067          	jr	-624(t1) # 6884 <_init_signal_r>

00006afc <__sigtramp>:
    6afc:	7fffb797          	auipc	a5,0x7fffb
    6b00:	27078793          	addi	a5,a5,624 # 80001d6c <_impure_ptr>
    6b04:	00050593          	mv	a1,a0
    6b08:	0007a503          	lw	a0,0(a5)
    6b0c:	00000317          	auipc	t1,0x0
    6b10:	f1030067          	jr	-240(t1) # 6a1c <__sigtramp_r>

00006b14 <_kill_r>:
    6b14:	ff010113          	addi	sp,sp,-16
    6b18:	00812423          	sw	s0,8(sp)
    6b1c:	00050413          	mv	s0,a0
    6b20:	00058513          	mv	a0,a1
    6b24:	00060593          	mv	a1,a2
    6b28:	7fffb797          	auipc	a5,0x7fffb
    6b2c:	3407a823          	sw	zero,848(a5) # 80001e78 <errno>
    6b30:	00112623          	sw	ra,12(sp)
    6b34:	00009097          	auipc	ra,0x9
    6b38:	ca4080e7          	jalr	-860(ra) # f7d8 <_kill>
    6b3c:	fff00793          	li	a5,-1
    6b40:	00f51c63          	bne	a0,a5,6b58 <_kill_r+0x44>
    6b44:	7fffb797          	auipc	a5,0x7fffb
    6b48:	33478793          	addi	a5,a5,820 # 80001e78 <errno>
    6b4c:	0007a783          	lw	a5,0(a5)
    6b50:	00078463          	beqz	a5,6b58 <_kill_r+0x44>
    6b54:	00f42023          	sw	a5,0(s0)
    6b58:	00c12083          	lw	ra,12(sp)
    6b5c:	00812403          	lw	s0,8(sp)
    6b60:	01010113          	addi	sp,sp,16
    6b64:	00008067          	ret

00006b68 <_getpid_r>:
    6b68:	00009317          	auipc	t1,0x9
    6b6c:	c2c30067          	jr	-980(t1) # f794 <_getpid>

00006b70 <_sprintf_r>:
    6b70:	f6010113          	addi	sp,sp,-160
    6b74:	08f12a23          	sw	a5,148(sp)
    6b78:	800007b7          	lui	a5,0x80000
    6b7c:	fff7c793          	not	a5,a5
    6b80:	00f12e23          	sw	a5,28(sp)
    6b84:	00f12823          	sw	a5,16(sp)
    6b88:	ffff07b7          	lui	a5,0xffff0
    6b8c:	08d12623          	sw	a3,140(sp)
    6b90:	00b12423          	sw	a1,8(sp)
    6b94:	00b12c23          	sw	a1,24(sp)
    6b98:	20878793          	addi	a5,a5,520 # ffff0208 <__stack_top+0x7ffa6388>
    6b9c:	08c10693          	addi	a3,sp,140
    6ba0:	00810593          	addi	a1,sp,8
    6ba4:	06112e23          	sw	ra,124(sp)
    6ba8:	00f12a23          	sw	a5,20(sp)
    6bac:	08e12823          	sw	a4,144(sp)
    6bb0:	09012c23          	sw	a6,152(sp)
    6bb4:	09112e23          	sw	a7,156(sp)
    6bb8:	00d12223          	sw	a3,4(sp)
    6bbc:	00000097          	auipc	ra,0x0
    6bc0:	24c080e7          	jalr	588(ra) # 6e08 <_svfprintf_r>
    6bc4:	00812783          	lw	a5,8(sp)
    6bc8:	00078023          	sb	zero,0(a5)
    6bcc:	07c12083          	lw	ra,124(sp)
    6bd0:	0a010113          	addi	sp,sp,160
    6bd4:	00008067          	ret

00006bd8 <sprintf>:
    6bd8:	f6010113          	addi	sp,sp,-160
    6bdc:	08f12a23          	sw	a5,148(sp)
    6be0:	800007b7          	lui	a5,0x80000
    6be4:	fff7c793          	not	a5,a5
    6be8:	00f12e23          	sw	a5,28(sp)
    6bec:	00f12823          	sw	a5,16(sp)
    6bf0:	ffff07b7          	lui	a5,0xffff0
    6bf4:	20878793          	addi	a5,a5,520 # ffff0208 <__stack_top+0x7ffa6388>
    6bf8:	08c12423          	sw	a2,136(sp)
    6bfc:	08d12623          	sw	a3,140(sp)
    6c00:	08e12823          	sw	a4,144(sp)
    6c04:	09012c23          	sw	a6,152(sp)
    6c08:	09112e23          	sw	a7,156(sp)
    6c0c:	00f12a23          	sw	a5,20(sp)
    6c10:	7fffb797          	auipc	a5,0x7fffb
    6c14:	15c78793          	addi	a5,a5,348 # 80001d6c <_impure_ptr>
    6c18:	00a12423          	sw	a0,8(sp)
    6c1c:	00a12c23          	sw	a0,24(sp)
    6c20:	0007a503          	lw	a0,0(a5)
    6c24:	08810693          	addi	a3,sp,136
    6c28:	00058613          	mv	a2,a1
    6c2c:	00810593          	addi	a1,sp,8
    6c30:	06112e23          	sw	ra,124(sp)
    6c34:	00d12223          	sw	a3,4(sp)
    6c38:	00000097          	auipc	ra,0x0
    6c3c:	1d0080e7          	jalr	464(ra) # 6e08 <_svfprintf_r>
    6c40:	00812783          	lw	a5,8(sp)
    6c44:	00078023          	sb	zero,0(a5)
    6c48:	07c12083          	lw	ra,124(sp)
    6c4c:	0a010113          	addi	sp,sp,160
    6c50:	00008067          	ret

00006c54 <strcmp>:
    6c54:	00b56733          	or	a4,a0,a1
    6c58:	fff00393          	li	t2,-1
    6c5c:	00377713          	andi	a4,a4,3
    6c60:	10071063          	bnez	a4,6d60 <strcmp+0x10c>
    6c64:	7f7f87b7          	lui	a5,0x7f7f8
    6c68:	f7f78793          	addi	a5,a5,-129 # 7f7f7f7f <__trunctfdf2+0x7f7e4f1f>
    6c6c:	00052603          	lw	a2,0(a0)
    6c70:	0005a683          	lw	a3,0(a1)
    6c74:	00f672b3          	and	t0,a2,a5
    6c78:	00f66333          	or	t1,a2,a5
    6c7c:	00f282b3          	add	t0,t0,a5
    6c80:	0062e2b3          	or	t0,t0,t1
    6c84:	10729263          	bne	t0,t2,6d88 <strcmp+0x134>
    6c88:	08d61663          	bne	a2,a3,6d14 <strcmp+0xc0>
    6c8c:	00452603          	lw	a2,4(a0)
    6c90:	0045a683          	lw	a3,4(a1)
    6c94:	00f672b3          	and	t0,a2,a5
    6c98:	00f66333          	or	t1,a2,a5
    6c9c:	00f282b3          	add	t0,t0,a5
    6ca0:	0062e2b3          	or	t0,t0,t1
    6ca4:	0c729e63          	bne	t0,t2,6d80 <strcmp+0x12c>
    6ca8:	06d61663          	bne	a2,a3,6d14 <strcmp+0xc0>
    6cac:	00852603          	lw	a2,8(a0)
    6cb0:	0085a683          	lw	a3,8(a1)
    6cb4:	00f672b3          	and	t0,a2,a5
    6cb8:	00f66333          	or	t1,a2,a5
    6cbc:	00f282b3          	add	t0,t0,a5
    6cc0:	0062e2b3          	or	t0,t0,t1
    6cc4:	0c729863          	bne	t0,t2,6d94 <strcmp+0x140>
    6cc8:	04d61663          	bne	a2,a3,6d14 <strcmp+0xc0>
    6ccc:	00c52603          	lw	a2,12(a0)
    6cd0:	00c5a683          	lw	a3,12(a1)
    6cd4:	00f672b3          	and	t0,a2,a5
    6cd8:	00f66333          	or	t1,a2,a5
    6cdc:	00f282b3          	add	t0,t0,a5
    6ce0:	0062e2b3          	or	t0,t0,t1
    6ce4:	0c729263          	bne	t0,t2,6da8 <strcmp+0x154>
    6ce8:	02d61663          	bne	a2,a3,6d14 <strcmp+0xc0>
    6cec:	01052603          	lw	a2,16(a0)
    6cf0:	0105a683          	lw	a3,16(a1)
    6cf4:	00f672b3          	and	t0,a2,a5
    6cf8:	00f66333          	or	t1,a2,a5
    6cfc:	00f282b3          	add	t0,t0,a5
    6d00:	0062e2b3          	or	t0,t0,t1
    6d04:	0a729c63          	bne	t0,t2,6dbc <strcmp+0x168>
    6d08:	01450513          	addi	a0,a0,20
    6d0c:	01458593          	addi	a1,a1,20
    6d10:	f4d60ee3          	beq	a2,a3,6c6c <strcmp+0x18>
    6d14:	01061713          	slli	a4,a2,0x10
    6d18:	01069793          	slli	a5,a3,0x10
    6d1c:	00f71e63          	bne	a4,a5,6d38 <strcmp+0xe4>
    6d20:	01065713          	srli	a4,a2,0x10
    6d24:	0106d793          	srli	a5,a3,0x10
    6d28:	40f70533          	sub	a0,a4,a5
    6d2c:	0ff57593          	zext.b	a1,a0
    6d30:	02059063          	bnez	a1,6d50 <strcmp+0xfc>
    6d34:	00008067          	ret
    6d38:	01075713          	srli	a4,a4,0x10
    6d3c:	0107d793          	srli	a5,a5,0x10
    6d40:	40f70533          	sub	a0,a4,a5
    6d44:	0ff57593          	zext.b	a1,a0
    6d48:	00059463          	bnez	a1,6d50 <strcmp+0xfc>
    6d4c:	00008067          	ret
    6d50:	0ff77713          	zext.b	a4,a4
    6d54:	0ff7f793          	zext.b	a5,a5
    6d58:	40f70533          	sub	a0,a4,a5
    6d5c:	00008067          	ret
    6d60:	00054603          	lbu	a2,0(a0)
    6d64:	0005c683          	lbu	a3,0(a1)
    6d68:	00150513          	addi	a0,a0,1
    6d6c:	00158593          	addi	a1,a1,1
    6d70:	00d61463          	bne	a2,a3,6d78 <strcmp+0x124>
    6d74:	fe0616e3          	bnez	a2,6d60 <strcmp+0x10c>
    6d78:	40d60533          	sub	a0,a2,a3
    6d7c:	00008067          	ret
    6d80:	00450513          	addi	a0,a0,4
    6d84:	00458593          	addi	a1,a1,4
    6d88:	fcd61ce3          	bne	a2,a3,6d60 <strcmp+0x10c>
    6d8c:	00000513          	li	a0,0
    6d90:	00008067          	ret
    6d94:	00850513          	addi	a0,a0,8
    6d98:	00858593          	addi	a1,a1,8
    6d9c:	fcd612e3          	bne	a2,a3,6d60 <strcmp+0x10c>
    6da0:	00000513          	li	a0,0
    6da4:	00008067          	ret
    6da8:	00c50513          	addi	a0,a0,12
    6dac:	00c58593          	addi	a1,a1,12
    6db0:	fad618e3          	bne	a2,a3,6d60 <strcmp+0x10c>
    6db4:	00000513          	li	a0,0
    6db8:	00008067          	ret
    6dbc:	01050513          	addi	a0,a0,16
    6dc0:	01058593          	addi	a1,a1,16
    6dc4:	f8d61ee3          	bne	a2,a3,6d60 <strcmp+0x10c>
    6dc8:	00000513          	li	a0,0
    6dcc:	00008067          	ret

00006dd0 <strcpy>:
    6dd0:	00050793          	mv	a5,a0
    6dd4:	0005c703          	lbu	a4,0(a1)
    6dd8:	00178793          	addi	a5,a5,1
    6ddc:	00158593          	addi	a1,a1,1
    6de0:	fee78fa3          	sb	a4,-1(a5)
    6de4:	fe0718e3          	bnez	a4,6dd4 <strcpy+0x4>
    6de8:	00008067          	ret

00006dec <strlen>:
    6dec:	00050793          	mv	a5,a0
    6df0:	00178793          	addi	a5,a5,1
    6df4:	fff7c703          	lbu	a4,-1(a5)
    6df8:	fe071ce3          	bnez	a4,6df0 <strlen+0x4>
    6dfc:	40a78533          	sub	a0,a5,a0
    6e00:	fff50513          	addi	a0,a0,-1
    6e04:	00008067          	ret

00006e08 <_svfprintf_r>:
    6e08:	e3010113          	addi	sp,sp,-464
    6e0c:	1c112623          	sw	ra,460(sp)
    6e10:	1c912223          	sw	s1,452(sp)
    6e14:	1d212023          	sw	s2,448(sp)
    6e18:	1b312e23          	sw	s3,444(sp)
    6e1c:	1b612823          	sw	s6,432(sp)
    6e20:	00058993          	mv	s3,a1
    6e24:	00060493          	mv	s1,a2
    6e28:	00068b13          	mv	s6,a3
    6e2c:	1c812423          	sw	s0,456(sp)
    6e30:	1b412c23          	sw	s4,440(sp)
    6e34:	1b512a23          	sw	s5,436(sp)
    6e38:	1b712623          	sw	s7,428(sp)
    6e3c:	1b812423          	sw	s8,424(sp)
    6e40:	1b912223          	sw	s9,420(sp)
    6e44:	1ba12023          	sw	s10,416(sp)
    6e48:	19b12e23          	sw	s11,412(sp)
    6e4c:	00050913          	mv	s2,a0
    6e50:	00006097          	auipc	ra,0x6
    6e54:	190080e7          	jalr	400(ra) # cfe0 <_localeconv_r>
    6e58:	00052783          	lw	a5,0(a0)
    6e5c:	00078513          	mv	a0,a5
    6e60:	02f12423          	sw	a5,40(sp)
    6e64:	00000097          	auipc	ra,0x0
    6e68:	f88080e7          	jalr	-120(ra) # 6dec <strlen>
    6e6c:	00c9d783          	lhu	a5,12(s3)
    6e70:	00a12a23          	sw	a0,20(sp)
    6e74:	0c012823          	sw	zero,208(sp)
    6e78:	0c012a23          	sw	zero,212(sp)
    6e7c:	0c012c23          	sw	zero,216(sp)
    6e80:	0c012e23          	sw	zero,220(sp)
    6e84:	0807f793          	andi	a5,a5,128
    6e88:	04078263          	beqz	a5,6ecc <_svfprintf_r+0xc4>
    6e8c:	0109a783          	lw	a5,16(s3)
    6e90:	02079e63          	bnez	a5,6ecc <_svfprintf_r+0xc4>
    6e94:	04000593          	li	a1,64
    6e98:	00090513          	mv	a0,s2
    6e9c:	fffff097          	auipc	ra,0xfffff
    6ea0:	b00080e7          	jalr	-1280(ra) # 599c <_malloc_r>
    6ea4:	00a9a023          	sw	a0,0(s3)
    6ea8:	00a9a823          	sw	a0,16(s3)
    6eac:	00051c63          	bnez	a0,6ec4 <_svfprintf_r+0xbc>
    6eb0:	00c00793          	li	a5,12
    6eb4:	00f92023          	sw	a5,0(s2)
    6eb8:	fff00793          	li	a5,-1
    6ebc:	00f12c23          	sw	a5,24(sp)
    6ec0:	7ec0006f          	j	76ac <_svfprintf_r+0x8a4>
    6ec4:	04000793          	li	a5,64
    6ec8:	00f9aa23          	sw	a5,20(s3)
    6ecc:	0ec10793          	addi	a5,sp,236
    6ed0:	0cf12223          	sw	a5,196(sp)
    6ed4:	0c012623          	sw	zero,204(sp)
    6ed8:	0c012423          	sw	zero,200(sp)
    6edc:	00000a13          	li	s4,0
    6ee0:	00078c13          	mv	s8,a5
    6ee4:	02012a23          	sw	zero,52(sp)
    6ee8:	02012823          	sw	zero,48(sp)
    6eec:	00012223          	sw	zero,4(sp)
    6ef0:	02012223          	sw	zero,36(sp)
    6ef4:	02012623          	sw	zero,44(sp)
    6ef8:	00012c23          	sw	zero,24(sp)
    6efc:	00048413          	mv	s0,s1
    6f00:	02500713          	li	a4,37
    6f04:	00044783          	lbu	a5,0(s0)
    6f08:	00078463          	beqz	a5,6f10 <_svfprintf_r+0x108>
    6f0c:	0ce79263          	bne	a5,a4,6fd0 <_svfprintf_r+0x1c8>
    6f10:	40940ab3          	sub	s5,s0,s1
    6f14:	040a8c63          	beqz	s5,6f6c <_svfprintf_r+0x164>
    6f18:	0cc12783          	lw	a5,204(sp)
    6f1c:	009c2023          	sw	s1,0(s8)
    6f20:	015c2223          	sw	s5,4(s8)
    6f24:	015787b3          	add	a5,a5,s5
    6f28:	0cf12623          	sw	a5,204(sp)
    6f2c:	0c812783          	lw	a5,200(sp)
    6f30:	00700713          	li	a4,7
    6f34:	008c0c13          	addi	s8,s8,8
    6f38:	00178793          	addi	a5,a5,1
    6f3c:	0cf12423          	sw	a5,200(sp)
    6f40:	02f75063          	bge	a4,a5,6f60 <_svfprintf_r+0x158>
    6f44:	0c410613          	addi	a2,sp,196
    6f48:	00098593          	mv	a1,s3
    6f4c:	00090513          	mv	a0,s2
    6f50:	00007097          	auipc	ra,0x7
    6f54:	460080e7          	jalr	1120(ra) # e3b0 <__ssprint_r>
    6f58:	74051463          	bnez	a0,76a0 <_svfprintf_r+0x898>
    6f5c:	0ec10c13          	addi	s8,sp,236
    6f60:	01812783          	lw	a5,24(sp)
    6f64:	015787b3          	add	a5,a5,s5
    6f68:	00f12c23          	sw	a5,24(sp)
    6f6c:	00044783          	lbu	a5,0(s0)
    6f70:	00079463          	bnez	a5,6f78 <_svfprintf_r+0x170>
    6f74:	6b10106f          	j	8e24 <_svfprintf_r+0x201c>
    6f78:	00140793          	addi	a5,s0,1
    6f7c:	0a0103a3          	sb	zero,167(sp)
    6f80:	fff00d93          	li	s11,-1
    6f84:	00012e23          	sw	zero,28(sp)
    6f88:	00000413          	li	s0,0
    6f8c:	00a00b93          	li	s7,10
    6f90:	00900d13          	li	s10,9
    6f94:	02a00c93          	li	s9,42
    6f98:	0007ca83          	lbu	s5,0(a5)
    6f9c:	00178713          	addi	a4,a5,1
    6fa0:	00e12823          	sw	a4,16(sp)
    6fa4:	05a00693          	li	a3,90
    6fa8:	fe0a8793          	addi	a5,s5,-32
    6fac:	00f6f463          	bgeu	a3,a5,6fb4 <_svfprintf_r+0x1ac>
    6fb0:	2f80106f          	j	82a8 <_svfprintf_r+0x14a0>
    6fb4:	7fffa717          	auipc	a4,0x7fffa
    6fb8:	a0c70713          	addi	a4,a4,-1524 # 800009c0 <__clz_tab+0x140>
    6fbc:	00279793          	slli	a5,a5,0x2
    6fc0:	00e787b3          	add	a5,a5,a4
    6fc4:	0007a783          	lw	a5,0(a5)
    6fc8:	00e787b3          	add	a5,a5,a4
    6fcc:	00078067          	jr	a5
    6fd0:	00140413          	addi	s0,s0,1
    6fd4:	f31ff06f          	j	6f04 <_svfprintf_r+0xfc>
    6fd8:	00090513          	mv	a0,s2
    6fdc:	00006097          	auipc	ra,0x6
    6fe0:	004080e7          	jalr	4(ra) # cfe0 <_localeconv_r>
    6fe4:	00452783          	lw	a5,4(a0)
    6fe8:	00078513          	mv	a0,a5
    6fec:	02f12623          	sw	a5,44(sp)
    6ff0:	00000097          	auipc	ra,0x0
    6ff4:	dfc080e7          	jalr	-516(ra) # 6dec <strlen>
    6ff8:	02a12223          	sw	a0,36(sp)
    6ffc:	00090513          	mv	a0,s2
    7000:	00006097          	auipc	ra,0x6
    7004:	fe0080e7          	jalr	-32(ra) # cfe0 <_localeconv_r>
    7008:	00852783          	lw	a5,8(a0)
    700c:	00f12223          	sw	a5,4(sp)
    7010:	02412783          	lw	a5,36(sp)
    7014:	00078c63          	beqz	a5,702c <_svfprintf_r+0x224>
    7018:	00412783          	lw	a5,4(sp)
    701c:	00078863          	beqz	a5,702c <_svfprintf_r+0x224>
    7020:	0007c783          	lbu	a5,0(a5)
    7024:	00078463          	beqz	a5,702c <_svfprintf_r+0x224>
    7028:	40046413          	ori	s0,s0,1024
    702c:	01012783          	lw	a5,16(sp)
    7030:	f69ff06f          	j	6f98 <_svfprintf_r+0x190>
    7034:	0a714783          	lbu	a5,167(sp)
    7038:	fe079ae3          	bnez	a5,702c <_svfprintf_r+0x224>
    703c:	02000793          	li	a5,32
    7040:	0af103a3          	sb	a5,167(sp)
    7044:	fe9ff06f          	j	702c <_svfprintf_r+0x224>
    7048:	00146413          	ori	s0,s0,1
    704c:	fe1ff06f          	j	702c <_svfprintf_r+0x224>
    7050:	000b2783          	lw	a5,0(s6)
    7054:	004b0b13          	addi	s6,s6,4
    7058:	00f12e23          	sw	a5,28(sp)
    705c:	fc07d8e3          	bgez	a5,702c <_svfprintf_r+0x224>
    7060:	40f007b3          	neg	a5,a5
    7064:	00f12e23          	sw	a5,28(sp)
    7068:	00446413          	ori	s0,s0,4
    706c:	fc1ff06f          	j	702c <_svfprintf_r+0x224>
    7070:	02b00793          	li	a5,43
    7074:	fcdff06f          	j	7040 <_svfprintf_r+0x238>
    7078:	01012703          	lw	a4,16(sp)
    707c:	01012783          	lw	a5,16(sp)
    7080:	00074a83          	lbu	s5,0(a4)
    7084:	00178793          	addi	a5,a5,1
    7088:	059a9063          	bne	s5,s9,70c8 <_svfprintf_r+0x2c0>
    708c:	000b2d83          	lw	s11,0(s6)
    7090:	004b0713          	addi	a4,s6,4
    7094:	000dd463          	bgez	s11,709c <_svfprintf_r+0x294>
    7098:	fff00d93          	li	s11,-1
    709c:	00070b13          	mv	s6,a4
    70a0:	00f12823          	sw	a5,16(sp)
    70a4:	f89ff06f          	j	702c <_svfprintf_r+0x224>
    70a8:	037d8333          	mul	t1,s11,s7
    70ac:	00178793          	addi	a5,a5,1
    70b0:	fff7ca83          	lbu	s5,-1(a5)
    70b4:	00e30db3          	add	s11,t1,a4
    70b8:	fd0a8713          	addi	a4,s5,-48
    70bc:	feed76e3          	bgeu	s10,a4,70a8 <_svfprintf_r+0x2a0>
    70c0:	00f12823          	sw	a5,16(sp)
    70c4:	ee5ff06f          	j	6fa8 <_svfprintf_r+0x1a0>
    70c8:	00000d93          	li	s11,0
    70cc:	fedff06f          	j	70b8 <_svfprintf_r+0x2b0>
    70d0:	08046413          	ori	s0,s0,128
    70d4:	f59ff06f          	j	702c <_svfprintf_r+0x224>
    70d8:	01012783          	lw	a5,16(sp)
    70dc:	00012e23          	sw	zero,28(sp)
    70e0:	01c12703          	lw	a4,28(sp)
    70e4:	fd0a8a93          	addi	s5,s5,-48
    70e8:	00178793          	addi	a5,a5,1
    70ec:	03770733          	mul	a4,a4,s7
    70f0:	00ea8733          	add	a4,s5,a4
    70f4:	fff7ca83          	lbu	s5,-1(a5)
    70f8:	00e12e23          	sw	a4,28(sp)
    70fc:	fd0a8713          	addi	a4,s5,-48
    7100:	feed70e3          	bgeu	s10,a4,70e0 <_svfprintf_r+0x2d8>
    7104:	fbdff06f          	j	70c0 <_svfprintf_r+0x2b8>
    7108:	00846413          	ori	s0,s0,8
    710c:	f21ff06f          	j	702c <_svfprintf_r+0x224>
    7110:	01012783          	lw	a5,16(sp)
    7114:	0007c703          	lbu	a4,0(a5)
    7118:	06800793          	li	a5,104
    711c:	00f71c63          	bne	a4,a5,7134 <_svfprintf_r+0x32c>
    7120:	01012783          	lw	a5,16(sp)
    7124:	20046413          	ori	s0,s0,512
    7128:	00178793          	addi	a5,a5,1
    712c:	00f12823          	sw	a5,16(sp)
    7130:	efdff06f          	j	702c <_svfprintf_r+0x224>
    7134:	04046413          	ori	s0,s0,64
    7138:	ef5ff06f          	j	702c <_svfprintf_r+0x224>
    713c:	01012783          	lw	a5,16(sp)
    7140:	0007c703          	lbu	a4,0(a5)
    7144:	06c00793          	li	a5,108
    7148:	00f71c63          	bne	a4,a5,7160 <_svfprintf_r+0x358>
    714c:	01012783          	lw	a5,16(sp)
    7150:	00178793          	addi	a5,a5,1
    7154:	00f12823          	sw	a5,16(sp)
    7158:	02046413          	ori	s0,s0,32
    715c:	ed1ff06f          	j	702c <_svfprintf_r+0x224>
    7160:	01046413          	ori	s0,s0,16
    7164:	ec9ff06f          	j	702c <_svfprintf_r+0x224>
    7168:	004b0793          	addi	a5,s6,4
    716c:	00f12623          	sw	a5,12(sp)
    7170:	000b2783          	lw	a5,0(s6)
    7174:	0a0103a3          	sb	zero,167(sp)
    7178:	12f10623          	sb	a5,300(sp)
    717c:	00000b13          	li	s6,0
    7180:	00100d93          	li	s11,1
    7184:	00000d13          	li	s10,0
    7188:	00012423          	sw	zero,8(sp)
    718c:	00000b93          	li	s7,0
    7190:	00000c93          	li	s9,0
    7194:	12c10493          	addi	s1,sp,300
    7198:	03a12023          	sw	s10,32(sp)
    719c:	01bd5463          	bge	s10,s11,71a4 <_svfprintf_r+0x39c>
    71a0:	03b12023          	sw	s11,32(sp)
    71a4:	0a714703          	lbu	a4,167(sp)
    71a8:	00070863          	beqz	a4,71b8 <_svfprintf_r+0x3b0>
    71ac:	02012783          	lw	a5,32(sp)
    71b0:	00178793          	addi	a5,a5,1
    71b4:	02f12023          	sw	a5,32(sp)
    71b8:	00247793          	andi	a5,s0,2
    71bc:	02f12c23          	sw	a5,56(sp)
    71c0:	00078863          	beqz	a5,71d0 <_svfprintf_r+0x3c8>
    71c4:	02012783          	lw	a5,32(sp)
    71c8:	00278793          	addi	a5,a5,2
    71cc:	02f12023          	sw	a5,32(sp)
    71d0:	08447793          	andi	a5,s0,132
    71d4:	02f12e23          	sw	a5,60(sp)
    71d8:	06079e63          	bnez	a5,7254 <_svfprintf_r+0x44c>
    71dc:	01c12783          	lw	a5,28(sp)
    71e0:	02012703          	lw	a4,32(sp)
    71e4:	40e78733          	sub	a4,a5,a4
    71e8:	06e05663          	blez	a4,7254 <_svfprintf_r+0x44c>
    71ec:	01000e93          	li	t4,16
    71f0:	7fffae17          	auipc	t3,0x7fffa
    71f4:	93ce0e13          	addi	t3,t3,-1732 # 80000b2c <blanks.4498>
    71f8:	00700f13          	li	t5,7
    71fc:	0c812683          	lw	a3,200(sp)
    7200:	01cc2023          	sw	t3,0(s8)
    7204:	0cc12603          	lw	a2,204(sp)
    7208:	00168693          	addi	a3,a3,1
    720c:	008c0593          	addi	a1,s8,8
    7210:	00eed463          	bge	t4,a4,7218 <_svfprintf_r+0x410>
    7214:	0a80106f          	j	82bc <_svfprintf_r+0x14b4>
    7218:	00ec2223          	sw	a4,4(s8)
    721c:	00c70733          	add	a4,a4,a2
    7220:	0ce12623          	sw	a4,204(sp)
    7224:	0cd12423          	sw	a3,200(sp)
    7228:	00700713          	li	a4,7
    722c:	00058c13          	mv	s8,a1
    7230:	02d75263          	bge	a4,a3,7254 <_svfprintf_r+0x44c>
    7234:	0c410613          	addi	a2,sp,196
    7238:	00098593          	mv	a1,s3
    723c:	00090513          	mv	a0,s2
    7240:	00007097          	auipc	ra,0x7
    7244:	170080e7          	jalr	368(ra) # e3b0 <__ssprint_r>
    7248:	00050463          	beqz	a0,7250 <_svfprintf_r+0x448>
    724c:	36d0106f          	j	8db8 <_svfprintf_r+0x1fb0>
    7250:	0ec10c13          	addi	s8,sp,236
    7254:	0a714703          	lbu	a4,167(sp)
    7258:	04070c63          	beqz	a4,72b0 <_svfprintf_r+0x4a8>
    725c:	0a710713          	addi	a4,sp,167
    7260:	00ec2023          	sw	a4,0(s8)
    7264:	00100713          	li	a4,1
    7268:	00ec2223          	sw	a4,4(s8)
    726c:	0cc12703          	lw	a4,204(sp)
    7270:	00700693          	li	a3,7
    7274:	008c0c13          	addi	s8,s8,8
    7278:	00170713          	addi	a4,a4,1
    727c:	0ce12623          	sw	a4,204(sp)
    7280:	0c812703          	lw	a4,200(sp)
    7284:	00170713          	addi	a4,a4,1
    7288:	0ce12423          	sw	a4,200(sp)
    728c:	02e6d263          	bge	a3,a4,72b0 <_svfprintf_r+0x4a8>
    7290:	0c410613          	addi	a2,sp,196
    7294:	00098593          	mv	a1,s3
    7298:	00090513          	mv	a0,s2
    729c:	00007097          	auipc	ra,0x7
    72a0:	114080e7          	jalr	276(ra) # e3b0 <__ssprint_r>
    72a4:	00050463          	beqz	a0,72ac <_svfprintf_r+0x4a4>
    72a8:	3110106f          	j	8db8 <_svfprintf_r+0x1fb0>
    72ac:	0ec10c13          	addi	s8,sp,236
    72b0:	03812783          	lw	a5,56(sp)
    72b4:	04078c63          	beqz	a5,730c <_svfprintf_r+0x504>
    72b8:	0a810713          	addi	a4,sp,168
    72bc:	00ec2023          	sw	a4,0(s8)
    72c0:	00200713          	li	a4,2
    72c4:	00ec2223          	sw	a4,4(s8)
    72c8:	0cc12703          	lw	a4,204(sp)
    72cc:	00700693          	li	a3,7
    72d0:	008c0c13          	addi	s8,s8,8
    72d4:	00270713          	addi	a4,a4,2
    72d8:	0ce12623          	sw	a4,204(sp)
    72dc:	0c812703          	lw	a4,200(sp)
    72e0:	00170713          	addi	a4,a4,1
    72e4:	0ce12423          	sw	a4,200(sp)
    72e8:	02e6d263          	bge	a3,a4,730c <_svfprintf_r+0x504>
    72ec:	0c410613          	addi	a2,sp,196
    72f0:	00098593          	mv	a1,s3
    72f4:	00090513          	mv	a0,s2
    72f8:	00007097          	auipc	ra,0x7
    72fc:	0b8080e7          	jalr	184(ra) # e3b0 <__ssprint_r>
    7300:	00050463          	beqz	a0,7308 <_svfprintf_r+0x500>
    7304:	2b50106f          	j	8db8 <_svfprintf_r+0x1fb0>
    7308:	0ec10c13          	addi	s8,sp,236
    730c:	03c12783          	lw	a5,60(sp)
    7310:	08000713          	li	a4,128
    7314:	06e79c63          	bne	a5,a4,738c <_svfprintf_r+0x584>
    7318:	01c12783          	lw	a5,28(sp)
    731c:	02012703          	lw	a4,32(sp)
    7320:	40e787b3          	sub	a5,a5,a4
    7324:	06f05463          	blez	a5,738c <_svfprintf_r+0x584>
    7328:	01000813          	li	a6,16
    732c:	00700e13          	li	t3,7
    7330:	0c812703          	lw	a4,200(sp)
    7334:	7fffa597          	auipc	a1,0x7fffa
    7338:	80858593          	addi	a1,a1,-2040 # 80000b3c <zeroes.4499>
    733c:	00bc2023          	sw	a1,0(s8)
    7340:	0cc12683          	lw	a3,204(sp)
    7344:	00170713          	addi	a4,a4,1
    7348:	008c0613          	addi	a2,s8,8
    734c:	7cf842e3          	blt	a6,a5,8310 <_svfprintf_r+0x1508>
    7350:	00fc2223          	sw	a5,4(s8)
    7354:	00d787b3          	add	a5,a5,a3
    7358:	0cf12623          	sw	a5,204(sp)
    735c:	0ce12423          	sw	a4,200(sp)
    7360:	00700693          	li	a3,7
    7364:	00060c13          	mv	s8,a2
    7368:	02e6d263          	bge	a3,a4,738c <_svfprintf_r+0x584>
    736c:	0c410613          	addi	a2,sp,196
    7370:	00098593          	mv	a1,s3
    7374:	00090513          	mv	a0,s2
    7378:	00007097          	auipc	ra,0x7
    737c:	038080e7          	jalr	56(ra) # e3b0 <__ssprint_r>
    7380:	00050463          	beqz	a0,7388 <_svfprintf_r+0x580>
    7384:	2350106f          	j	8db8 <_svfprintf_r+0x1fb0>
    7388:	0ec10c13          	addi	s8,sp,236
    738c:	41bd0d33          	sub	s10,s10,s11
    7390:	07a05463          	blez	s10,73f8 <_svfprintf_r+0x5f0>
    7394:	01000793          	li	a5,16
    7398:	00700813          	li	a6,7
    739c:	0c812703          	lw	a4,200(sp)
    73a0:	0cc12683          	lw	a3,204(sp)
    73a4:	008c0613          	addi	a2,s8,8
    73a8:	00170713          	addi	a4,a4,1
    73ac:	7ba7c8e3          	blt	a5,s10,835c <_svfprintf_r+0x1554>
    73b0:	01ac2223          	sw	s10,4(s8)
    73b4:	7fff9797          	auipc	a5,0x7fff9
    73b8:	78878793          	addi	a5,a5,1928 # 80000b3c <zeroes.4499>
    73bc:	00dd0d33          	add	s10,s10,a3
    73c0:	00fc2023          	sw	a5,0(s8)
    73c4:	0da12623          	sw	s10,204(sp)
    73c8:	0ce12423          	sw	a4,200(sp)
    73cc:	00700693          	li	a3,7
    73d0:	00060c13          	mv	s8,a2
    73d4:	02e6d263          	bge	a3,a4,73f8 <_svfprintf_r+0x5f0>
    73d8:	0c410613          	addi	a2,sp,196
    73dc:	00098593          	mv	a1,s3
    73e0:	00090513          	mv	a0,s2
    73e4:	00007097          	auipc	ra,0x7
    73e8:	fcc080e7          	jalr	-52(ra) # e3b0 <__ssprint_r>
    73ec:	00050463          	beqz	a0,73f4 <_svfprintf_r+0x5ec>
    73f0:	1c90106f          	j	8db8 <_svfprintf_r+0x1fb0>
    73f4:	0ec10c13          	addi	s8,sp,236
    73f8:	10047713          	andi	a4,s0,256
    73fc:	0cc12d03          	lw	s10,204(sp)
    7400:	7a0716e3          	bnez	a4,83ac <_svfprintf_r+0x15a4>
    7404:	0c812783          	lw	a5,200(sp)
    7408:	01ad8333          	add	t1,s11,s10
    740c:	009c2023          	sw	s1,0(s8)
    7410:	00178793          	addi	a5,a5,1
    7414:	01bc2223          	sw	s11,4(s8)
    7418:	0c612623          	sw	t1,204(sp)
    741c:	0cf12423          	sw	a5,200(sp)
    7420:	00700713          	li	a4,7
    7424:	008c0c13          	addi	s8,s8,8
    7428:	00f74463          	blt	a4,a5,7430 <_svfprintf_r+0x628>
    742c:	2640106f          	j	8690 <_svfprintf_r+0x1888>
    7430:	0c410613          	addi	a2,sp,196
    7434:	00098593          	mv	a1,s3
    7438:	00090513          	mv	a0,s2
    743c:	00007097          	auipc	ra,0x7
    7440:	f74080e7          	jalr	-140(ra) # e3b0 <__ssprint_r>
    7444:	00050463          	beqz	a0,744c <_svfprintf_r+0x644>
    7448:	1710106f          	j	8db8 <_svfprintf_r+0x1fb0>
    744c:	0ec10c13          	addi	s8,sp,236
    7450:	2400106f          	j	8690 <_svfprintf_r+0x1888>
    7454:	01046413          	ori	s0,s0,16
    7458:	02047793          	andi	a5,s0,32
    745c:	06078463          	beqz	a5,74c4 <_svfprintf_r+0x6bc>
    7460:	007b0b13          	addi	s6,s6,7
    7464:	ff8b7b13          	andi	s6,s6,-8
    7468:	000b2d03          	lw	s10,0(s6)
    746c:	004b2c83          	lw	s9,4(s6)
    7470:	008b0793          	addi	a5,s6,8
    7474:	00f12623          	sw	a5,12(sp)
    7478:	000cc463          	bltz	s9,7480 <_svfprintf_r+0x678>
    747c:	1cd0106f          	j	8e48 <_svfprintf_r+0x2040>
    7480:	41a00d33          	neg	s10,s10
    7484:	01a037b3          	snez	a5,s10
    7488:	41900cb3          	neg	s9,s9
    748c:	40fc8cb3          	sub	s9,s9,a5
    7490:	02d00793          	li	a5,45
    7494:	0af103a3          	sb	a5,167(sp)
    7498:	00100793          	li	a5,1
    749c:	fff00713          	li	a4,-1
    74a0:	46ed88e3          	beq	s11,a4,8110 <_svfprintf_r+0x1308>
    74a4:	00040713          	mv	a4,s0
    74a8:	019d66b3          	or	a3,s10,s9
    74ac:	f7f47413          	andi	s0,s0,-129
    74b0:	460690e3          	bnez	a3,8110 <_svfprintf_r+0x1308>
    74b4:	5c0d8ce3          	beqz	s11,828c <_svfprintf_r+0x1484>
    74b8:	00100713          	li	a4,1
    74bc:	44e79ee3          	bne	a5,a4,8118 <_svfprintf_r+0x1310>
    74c0:	19d0106f          	j	8e5c <_svfprintf_r+0x2054>
    74c4:	004b0793          	addi	a5,s6,4
    74c8:	00f12623          	sw	a5,12(sp)
    74cc:	01047793          	andi	a5,s0,16
    74d0:	00078863          	beqz	a5,74e0 <_svfprintf_r+0x6d8>
    74d4:	000b2d03          	lw	s10,0(s6)
    74d8:	41fd5c93          	srai	s9,s10,0x1f
    74dc:	f9dff06f          	j	7478 <_svfprintf_r+0x670>
    74e0:	04047793          	andi	a5,s0,64
    74e4:	000b2d03          	lw	s10,0(s6)
    74e8:	00078863          	beqz	a5,74f8 <_svfprintf_r+0x6f0>
    74ec:	010d1d13          	slli	s10,s10,0x10
    74f0:	410d5d13          	srai	s10,s10,0x10
    74f4:	fe5ff06f          	j	74d8 <_svfprintf_r+0x6d0>
    74f8:	20047793          	andi	a5,s0,512
    74fc:	fc078ee3          	beqz	a5,74d8 <_svfprintf_r+0x6d0>
    7500:	018d1d13          	slli	s10,s10,0x18
    7504:	418d5d13          	srai	s10,s10,0x18
    7508:	fd1ff06f          	j	74d8 <_svfprintf_r+0x6d0>
    750c:	00847793          	andi	a5,s0,8
    7510:	0c078063          	beqz	a5,75d0 <_svfprintf_r+0x7c8>
    7514:	004b0793          	addi	a5,s6,4
    7518:	00f12623          	sw	a5,12(sp)
    751c:	000b2783          	lw	a5,0(s6)
    7520:	0007a603          	lw	a2,0(a5)
    7524:	0047a683          	lw	a3,4(a5)
    7528:	0087a703          	lw	a4,8(a5)
    752c:	00c7a783          	lw	a5,12(a5)
    7530:	0cc12823          	sw	a2,208(sp)
    7534:	0cd12a23          	sw	a3,212(sp)
    7538:	0ce12c23          	sw	a4,216(sp)
    753c:	0d010513          	addi	a0,sp,208
    7540:	0cf12e23          	sw	a5,220(sp)
    7544:	00006097          	auipc	ra,0x6
    7548:	a28080e7          	jalr	-1496(ra) # cf6c <_ldcheck>
    754c:	0aa12623          	sw	a0,172(sp)
    7550:	00200793          	li	a5,2
    7554:	0cf51063          	bne	a0,a5,7614 <_svfprintf_r+0x80c>
    7558:	0d012783          	lw	a5,208(sp)
    755c:	08010593          	addi	a1,sp,128
    7560:	09010513          	addi	a0,sp,144
    7564:	08f12823          	sw	a5,144(sp)
    7568:	0d412783          	lw	a5,212(sp)
    756c:	08012023          	sw	zero,128(sp)
    7570:	08012223          	sw	zero,132(sp)
    7574:	08f12a23          	sw	a5,148(sp)
    7578:	0d812783          	lw	a5,216(sp)
    757c:	08012423          	sw	zero,136(sp)
    7580:	08012623          	sw	zero,140(sp)
    7584:	08f12c23          	sw	a5,152(sp)
    7588:	0dc12783          	lw	a5,220(sp)
    758c:	08f12e23          	sw	a5,156(sp)
    7590:	00009097          	auipc	ra,0x9
    7594:	f1c080e7          	jalr	-228(ra) # 104ac <__letf2>
    7598:	00055663          	bgez	a0,75a4 <_svfprintf_r+0x79c>
    759c:	02d00793          	li	a5,45
    75a0:	0af103a3          	sb	a5,167(sp)
    75a4:	04700793          	li	a5,71
    75a8:	7fff9497          	auipc	s1,0x7fff9
    75ac:	5a448493          	addi	s1,s1,1444 # 80000b4c <zeroes.4499+0x10>
    75b0:	0157d663          	bge	a5,s5,75bc <_svfprintf_r+0x7b4>
    75b4:	7fff9497          	auipc	s1,0x7fff9
    75b8:	59c48493          	addi	s1,s1,1436 # 80000b50 <zeroes.4499+0x14>
    75bc:	f7f47413          	andi	s0,s0,-129
    75c0:	00000b13          	li	s6,0
    75c4:	00300d93          	li	s11,3
    75c8:	00000d13          	li	s10,0
    75cc:	3a90006f          	j	8174 <_svfprintf_r+0x136c>
    75d0:	007b0b13          	addi	s6,s6,7
    75d4:	ff8b7b13          	andi	s6,s6,-8
    75d8:	000b2583          	lw	a1,0(s6)
    75dc:	004b2603          	lw	a2,4(s6)
    75e0:	008b0793          	addi	a5,s6,8
    75e4:	09010513          	addi	a0,sp,144
    75e8:	00f12623          	sw	a5,12(sp)
    75ec:	0000c097          	auipc	ra,0xc
    75f0:	854080e7          	jalr	-1964(ra) # 12e40 <__extenddftf2>
    75f4:	09012783          	lw	a5,144(sp)
    75f8:	0cf12823          	sw	a5,208(sp)
    75fc:	09412783          	lw	a5,148(sp)
    7600:	0cf12a23          	sw	a5,212(sp)
    7604:	09812783          	lw	a5,152(sp)
    7608:	0cf12c23          	sw	a5,216(sp)
    760c:	09c12783          	lw	a5,156(sp)
    7610:	f2dff06f          	j	753c <_svfprintf_r+0x734>
    7614:	00100793          	li	a5,1
    7618:	02f51863          	bne	a0,a5,7648 <_svfprintf_r+0x840>
    761c:	0dc12783          	lw	a5,220(sp)
    7620:	0007d663          	bgez	a5,762c <_svfprintf_r+0x824>
    7624:	02d00793          	li	a5,45
    7628:	0af103a3          	sb	a5,167(sp)
    762c:	04700793          	li	a5,71
    7630:	7fff9497          	auipc	s1,0x7fff9
    7634:	52448493          	addi	s1,s1,1316 # 80000b54 <zeroes.4499+0x18>
    7638:	f957d2e3          	bge	a5,s5,75bc <_svfprintf_r+0x7b4>
    763c:	7fff9497          	auipc	s1,0x7fff9
    7640:	51c48493          	addi	s1,s1,1308 # 80000b58 <zeroes.4499+0x1c>
    7644:	f79ff06f          	j	75bc <_svfprintf_r+0x7b4>
    7648:	fdfafb93          	andi	s7,s5,-33
    764c:	04100793          	li	a5,65
    7650:	08fb9e63          	bne	s7,a5,76ec <_svfprintf_r+0x8e4>
    7654:	03000793          	li	a5,48
    7658:	0af10423          	sb	a5,168(sp)
    765c:	06100713          	li	a4,97
    7660:	07800793          	li	a5,120
    7664:	00ea8463          	beq	s5,a4,766c <_svfprintf_r+0x864>
    7668:	05800793          	li	a5,88
    766c:	0af104a3          	sb	a5,169(sp)
    7670:	06300793          	li	a5,99
    7674:	00246413          	ori	s0,s0,2
    7678:	53b7d463          	bge	a5,s11,7ba0 <_svfprintf_r+0xd98>
    767c:	001d8593          	addi	a1,s11,1
    7680:	00090513          	mv	a0,s2
    7684:	ffffe097          	auipc	ra,0xffffe
    7688:	318080e7          	jalr	792(ra) # 599c <_malloc_r>
    768c:	00050493          	mv	s1,a0
    7690:	50051e63          	bnez	a0,7bac <_svfprintf_r+0xda4>
    7694:	00c9d783          	lhu	a5,12(s3)
    7698:	0407e793          	ori	a5,a5,64
    769c:	00f99623          	sh	a5,12(s3)
    76a0:	00c9d783          	lhu	a5,12(s3)
    76a4:	0407f793          	andi	a5,a5,64
    76a8:	800798e3          	bnez	a5,6eb8 <_svfprintf_r+0xb0>
    76ac:	1cc12083          	lw	ra,460(sp)
    76b0:	1c812403          	lw	s0,456(sp)
    76b4:	01812503          	lw	a0,24(sp)
    76b8:	1c412483          	lw	s1,452(sp)
    76bc:	1c012903          	lw	s2,448(sp)
    76c0:	1bc12983          	lw	s3,444(sp)
    76c4:	1b812a03          	lw	s4,440(sp)
    76c8:	1b412a83          	lw	s5,436(sp)
    76cc:	1b012b03          	lw	s6,432(sp)
    76d0:	1ac12b83          	lw	s7,428(sp)
    76d4:	1a812c03          	lw	s8,424(sp)
    76d8:	1a412c83          	lw	s9,420(sp)
    76dc:	1a012d03          	lw	s10,416(sp)
    76e0:	19c12d83          	lw	s11,412(sp)
    76e4:	1d010113          	addi	sp,sp,464
    76e8:	00008067          	ret
    76ec:	fff00793          	li	a5,-1
    76f0:	4cfd8263          	beq	s11,a5,7bb4 <_svfprintf_r+0xdac>
    76f4:	04700793          	li	a5,71
    76f8:	00000b13          	li	s6,0
    76fc:	00fb9863          	bne	s7,a5,770c <_svfprintf_r+0x904>
    7700:	000d9663          	bnez	s11,770c <_svfprintf_r+0x904>
    7704:	000d8b13          	mv	s6,s11
    7708:	00100d93          	li	s11,1
    770c:	0dc12a03          	lw	s4,220(sp)
    7710:	10046793          	ori	a5,s0,256
    7714:	02f12023          	sw	a5,32(sp)
    7718:	02012c23          	sw	zero,56(sp)
    771c:	0d012e03          	lw	t3,208(sp)
    7720:	0d412883          	lw	a7,212(sp)
    7724:	0d812d03          	lw	s10,216(sp)
    7728:	000a5a63          	bgez	s4,773c <_svfprintf_r+0x934>
    772c:	800007b7          	lui	a5,0x80000
    7730:	0147ca33          	xor	s4,a5,s4
    7734:	02d00793          	li	a5,45
    7738:	02f12c23          	sw	a5,56(sp)
    773c:	04100793          	li	a5,65
    7740:	4afb9e63          	bne	s7,a5,7bfc <_svfprintf_r+0xdf4>
    7744:	09010513          	addi	a0,sp,144
    7748:	09c12823          	sw	t3,144(sp)
    774c:	09112a23          	sw	a7,148(sp)
    7750:	09a12c23          	sw	s10,152(sp)
    7754:	09412e23          	sw	s4,156(sp)
    7758:	0000c097          	auipc	ra,0xc
    775c:	908080e7          	jalr	-1784(ra) # 13060 <__trunctfdf2>
    7760:	0ac10613          	addi	a2,sp,172
    7764:	ffffb097          	auipc	ra,0xffffb
    7768:	f6c080e7          	jalr	-148(ra) # 26d0 <frexp>
    776c:	00058613          	mv	a2,a1
    7770:	00050593          	mv	a1,a0
    7774:	09010513          	addi	a0,sp,144
    7778:	0000b097          	auipc	ra,0xb
    777c:	6c8080e7          	jalr	1736(ra) # 12e40 <__extenddftf2>
    7780:	09012783          	lw	a5,144(sp)
    7784:	06010613          	addi	a2,sp,96
    7788:	07010593          	addi	a1,sp,112
    778c:	06f12823          	sw	a5,112(sp)
    7790:	09412783          	lw	a5,148(sp)
    7794:	08010513          	addi	a0,sp,128
    7798:	06012023          	sw	zero,96(sp)
    779c:	06f12a23          	sw	a5,116(sp)
    77a0:	09812783          	lw	a5,152(sp)
    77a4:	06012223          	sw	zero,100(sp)
    77a8:	06012423          	sw	zero,104(sp)
    77ac:	06f12c23          	sw	a5,120(sp)
    77b0:	09c12783          	lw	a5,156(sp)
    77b4:	06f12e23          	sw	a5,124(sp)
    77b8:	3ffc07b7          	lui	a5,0x3ffc0
    77bc:	06f12623          	sw	a5,108(sp)
    77c0:	00009097          	auipc	ra,0x9
    77c4:	e34080e7          	jalr	-460(ra) # 105f4 <__multf3>
    77c8:	08012803          	lw	a6,128(sp)
    77cc:	08412603          	lw	a2,132(sp)
    77d0:	08812683          	lw	a3,136(sp)
    77d4:	08c12d03          	lw	s10,140(sp)
    77d8:	08010593          	addi	a1,sp,128
    77dc:	09010513          	addi	a0,sp,144
    77e0:	09012823          	sw	a6,144(sp)
    77e4:	05012023          	sw	a6,64(sp)
    77e8:	08c12a23          	sw	a2,148(sp)
    77ec:	02c12e23          	sw	a2,60(sp)
    77f0:	08d12c23          	sw	a3,152(sp)
    77f4:	00d12423          	sw	a3,8(sp)
    77f8:	09a12e23          	sw	s10,156(sp)
    77fc:	08012023          	sw	zero,128(sp)
    7800:	08012223          	sw	zero,132(sp)
    7804:	08012423          	sw	zero,136(sp)
    7808:	08012623          	sw	zero,140(sp)
    780c:	00009097          	auipc	ra,0x9
    7810:	a8c080e7          	jalr	-1396(ra) # 10298 <__eqtf2>
    7814:	00812683          	lw	a3,8(sp)
    7818:	03c12603          	lw	a2,60(sp)
    781c:	04012803          	lw	a6,64(sp)
    7820:	00051663          	bnez	a0,782c <_svfprintf_r+0xa24>
    7824:	00100713          	li	a4,1
    7828:	0ae12623          	sw	a4,172(sp)
    782c:	7fff9797          	auipc	a5,0x7fff9
    7830:	33078793          	addi	a5,a5,816 # 80000b5c <zeroes.4499+0x20>
    7834:	06100713          	li	a4,97
    7838:	00f12423          	sw	a5,8(sp)
    783c:	00ea8863          	beq	s5,a4,784c <_svfprintf_r+0xa44>
    7840:	7fff9797          	auipc	a5,0x7fff9
    7844:	33078793          	addi	a5,a5,816 # 80000b70 <zeroes.4499+0x34>
    7848:	00f12423          	sw	a5,8(sp)
    784c:	fffd8e13          	addi	t3,s11,-1
    7850:	00048c93          	mv	s9,s1
    7854:	400307b7          	lui	a5,0x40030
    7858:	08010593          	addi	a1,sp,128
    785c:	08c12223          	sw	a2,132(sp)
    7860:	09010513          	addi	a0,sp,144
    7864:	07010613          	addi	a2,sp,112
    7868:	05c12423          	sw	t3,72(sp)
    786c:	09012023          	sw	a6,128(sp)
    7870:	08d12423          	sw	a3,136(sp)
    7874:	09a12623          	sw	s10,140(sp)
    7878:	06f12e23          	sw	a5,124(sp)
    787c:	06012823          	sw	zero,112(sp)
    7880:	06012a23          	sw	zero,116(sp)
    7884:	06012c23          	sw	zero,120(sp)
    7888:	00009097          	auipc	ra,0x9
    788c:	d6c080e7          	jalr	-660(ra) # 105f4 <__multf3>
    7890:	09012603          	lw	a2,144(sp)
    7894:	09412683          	lw	a3,148(sp)
    7898:	09812783          	lw	a5,152(sp)
    789c:	09010513          	addi	a0,sp,144
    78a0:	04c12223          	sw	a2,68(sp)
    78a4:	04d12023          	sw	a3,64(sp)
    78a8:	02f12e23          	sw	a5,60(sp)
    78ac:	0000b097          	auipc	ra,0xb
    78b0:	2ac080e7          	jalr	684(ra) # 12b58 <__fixtfsi>
    78b4:	00050593          	mv	a1,a0
    78b8:	00050a13          	mv	s4,a0
    78bc:	09010513          	addi	a0,sp,144
    78c0:	09c12d03          	lw	s10,156(sp)
    78c4:	0000b097          	auipc	ra,0xb
    78c8:	3e4080e7          	jalr	996(ra) # 12ca8 <__floatsitf>
    78cc:	03c12783          	lw	a5,60(sp)
    78d0:	04412603          	lw	a2,68(sp)
    78d4:	04012683          	lw	a3,64(sp)
    78d8:	06f12c23          	sw	a5,120(sp)
    78dc:	09012783          	lw	a5,144(sp)
    78e0:	06c12823          	sw	a2,112(sp)
    78e4:	07010593          	addi	a1,sp,112
    78e8:	06f12023          	sw	a5,96(sp)
    78ec:	09412783          	lw	a5,148(sp)
    78f0:	06010613          	addi	a2,sp,96
    78f4:	08010513          	addi	a0,sp,128
    78f8:	06f12223          	sw	a5,100(sp)
    78fc:	09812783          	lw	a5,152(sp)
    7900:	07a12e23          	sw	s10,124(sp)
    7904:	06d12a23          	sw	a3,116(sp)
    7908:	06f12423          	sw	a5,104(sp)
    790c:	09c12783          	lw	a5,156(sp)
    7910:	001c8c93          	addi	s9,s9,1
    7914:	06f12623          	sw	a5,108(sp)
    7918:	0000a097          	auipc	ra,0xa
    791c:	d10080e7          	jalr	-752(ra) # 11628 <__subtf3>
    7920:	00812783          	lw	a5,8(sp)
    7924:	04812e03          	lw	t3,72(sp)
    7928:	08c12e83          	lw	t4,140(sp)
    792c:	014785b3          	add	a1,a5,s4
    7930:	0005c583          	lbu	a1,0(a1)
    7934:	08012283          	lw	t0,128(sp)
    7938:	08412f83          	lw	t6,132(sp)
    793c:	08812f03          	lw	t5,136(sp)
    7940:	03c12e23          	sw	t3,60(sp)
    7944:	febc8fa3          	sb	a1,-1(s9)
    7948:	fff00793          	li	a5,-1
    794c:	000e8d13          	mv	s10,t4
    7950:	06fe0e63          	beq	t3,a5,79cc <_svfprintf_r+0xbc4>
    7954:	fffe0e13          	addi	t3,t3,-1
    7958:	08010593          	addi	a1,sp,128
    795c:	09010513          	addi	a0,sp,144
    7960:	05d12e23          	sw	t4,92(sp)
    7964:	05e12c23          	sw	t5,88(sp)
    7968:	05f12a23          	sw	t6,84(sp)
    796c:	04512823          	sw	t0,80(sp)
    7970:	05c12623          	sw	t3,76(sp)
    7974:	08512823          	sw	t0,144(sp)
    7978:	04512423          	sw	t0,72(sp)
    797c:	09f12a23          	sw	t6,148(sp)
    7980:	05f12223          	sw	t6,68(sp)
    7984:	09e12c23          	sw	t5,152(sp)
    7988:	05e12023          	sw	t5,64(sp)
    798c:	09d12e23          	sw	t4,156(sp)
    7990:	08012023          	sw	zero,128(sp)
    7994:	08012223          	sw	zero,132(sp)
    7998:	08012423          	sw	zero,136(sp)
    799c:	08012623          	sw	zero,140(sp)
    79a0:	00009097          	auipc	ra,0x9
    79a4:	8f8080e7          	jalr	-1800(ra) # 10298 <__eqtf2>
    79a8:	04012683          	lw	a3,64(sp)
    79ac:	04412603          	lw	a2,68(sp)
    79b0:	04812803          	lw	a6,72(sp)
    79b4:	04c12e03          	lw	t3,76(sp)
    79b8:	05012283          	lw	t0,80(sp)
    79bc:	05412f83          	lw	t6,84(sp)
    79c0:	05812f03          	lw	t5,88(sp)
    79c4:	05c12e83          	lw	t4,92(sp)
    79c8:	e80516e3          	bnez	a0,7854 <_svfprintf_r+0xa4c>
    79cc:	3ffe0d37          	lui	s10,0x3ffe0
    79d0:	08010593          	addi	a1,sp,128
    79d4:	09010513          	addi	a0,sp,144
    79d8:	08512823          	sw	t0,144(sp)
    79dc:	04512623          	sw	t0,76(sp)
    79e0:	09f12a23          	sw	t6,148(sp)
    79e4:	05f12423          	sw	t6,72(sp)
    79e8:	09e12c23          	sw	t5,152(sp)
    79ec:	05e12223          	sw	t5,68(sp)
    79f0:	09d12e23          	sw	t4,156(sp)
    79f4:	05d12023          	sw	t4,64(sp)
    79f8:	08012023          	sw	zero,128(sp)
    79fc:	08012223          	sw	zero,132(sp)
    7a00:	08012423          	sw	zero,136(sp)
    7a04:	09a12623          	sw	s10,140(sp)
    7a08:	00009097          	auipc	ra,0x9
    7a0c:	95c080e7          	jalr	-1700(ra) # 10364 <__getf2>
    7a10:	04a04863          	bgtz	a0,7a60 <_svfprintf_r+0xc58>
    7a14:	04c12283          	lw	t0,76(sp)
    7a18:	04812f83          	lw	t6,72(sp)
    7a1c:	04412f03          	lw	t5,68(sp)
    7a20:	04012e83          	lw	t4,64(sp)
    7a24:	08010593          	addi	a1,sp,128
    7a28:	09010513          	addi	a0,sp,144
    7a2c:	08512823          	sw	t0,144(sp)
    7a30:	09f12a23          	sw	t6,148(sp)
    7a34:	09e12c23          	sw	t5,152(sp)
    7a38:	09d12e23          	sw	t4,156(sp)
    7a3c:	08012023          	sw	zero,128(sp)
    7a40:	08012223          	sw	zero,132(sp)
    7a44:	08012423          	sw	zero,136(sp)
    7a48:	09a12623          	sw	s10,140(sp)
    7a4c:	00009097          	auipc	ra,0x9
    7a50:	84c080e7          	jalr	-1972(ra) # 10298 <__eqtf2>
    7a54:	18051a63          	bnez	a0,7be8 <_svfprintf_r+0xde0>
    7a58:	001a7a13          	andi	s4,s4,1
    7a5c:	180a0663          	beqz	s4,7be8 <_svfprintf_r+0xde0>
    7a60:	00812783          	lw	a5,8(sp)
    7a64:	0b912e23          	sw	s9,188(sp)
    7a68:	03000593          	li	a1,48
    7a6c:	00f7c603          	lbu	a2,15(a5) # 4003000f <__trunctfdf2+0x4001cfaf>
    7a70:	0bc12683          	lw	a3,188(sp)
    7a74:	fff68793          	addi	a5,a3,-1
    7a78:	0af12e23          	sw	a5,188(sp)
    7a7c:	fff6c783          	lbu	a5,-1(a3)
    7a80:	14c78063          	beq	a5,a2,7bc0 <_svfprintf_r+0xdb8>
    7a84:	03900613          	li	a2,57
    7a88:	14c79063          	bne	a5,a2,7bc8 <_svfprintf_r+0xdc0>
    7a8c:	00812783          	lw	a5,8(sp)
    7a90:	00a7c783          	lbu	a5,10(a5)
    7a94:	fef68fa3          	sb	a5,-1(a3)
    7a98:	000c8a13          	mv	s4,s9
    7a9c:	04700713          	li	a4,71
    7aa0:	409a0a33          	sub	s4,s4,s1
    7aa4:	0ac12c83          	lw	s9,172(sp)
    7aa8:	2aeb9863          	bne	s7,a4,7d58 <_svfprintf_r+0xf50>
    7aac:	ffd00713          	li	a4,-3
    7ab0:	00ecc463          	blt	s9,a4,7ab8 <_svfprintf_r+0xcb0>
    7ab4:	339dd263          	bge	s11,s9,7dd8 <_svfprintf_r+0xfd0>
    7ab8:	ffea8a93          	addi	s5,s5,-2
    7abc:	fffc8693          	addi	a3,s9,-1
    7ac0:	0ad12623          	sw	a3,172(sp)
    7ac4:	fdfaf613          	andi	a2,s5,-33
    7ac8:	04100513          	li	a0,65
    7acc:	0ffaf713          	zext.b	a4,s5
    7ad0:	00000593          	li	a1,0
    7ad4:	00a61863          	bne	a2,a0,7ae4 <_svfprintf_r+0xcdc>
    7ad8:	00f70713          	addi	a4,a4,15
    7adc:	0ff77713          	zext.b	a4,a4
    7ae0:	00100593          	li	a1,1
    7ae4:	0ae10a23          	sb	a4,180(sp)
    7ae8:	02b00793          	li	a5,43
    7aec:	0006d863          	bgez	a3,7afc <_svfprintf_r+0xcf4>
    7af0:	00100693          	li	a3,1
    7af4:	419686b3          	sub	a3,a3,s9
    7af8:	02d00793          	li	a5,45
    7afc:	0af10aa3          	sb	a5,181(sp)
    7b00:	00900793          	li	a5,9
    7b04:	2ad7d063          	bge	a5,a3,7da4 <_svfprintf_r+0xf9c>
    7b08:	0c310713          	addi	a4,sp,195
    7b0c:	00070513          	mv	a0,a4
    7b10:	00a00593          	li	a1,10
    7b14:	06300813          	li	a6,99
    7b18:	02b6e7b3          	rem	a5,a3,a1
    7b1c:	fff70613          	addi	a2,a4,-1
    7b20:	03078793          	addi	a5,a5,48
    7b24:	fef70fa3          	sb	a5,-1(a4)
    7b28:	02b6c7b3          	div	a5,a3,a1
    7b2c:	24d84c63          	blt	a6,a3,7d84 <_svfprintf_r+0xf7c>
    7b30:	03078793          	addi	a5,a5,48
    7b34:	fef60fa3          	sb	a5,-1(a2)
    7b38:	ffe70713          	addi	a4,a4,-2
    7b3c:	0b610613          	addi	a2,sp,182
    7b40:	24a76863          	bltu	a4,a0,7d90 <_svfprintf_r+0xf88>
    7b44:	0b410793          	addi	a5,sp,180
    7b48:	40f607b3          	sub	a5,a2,a5
    7b4c:	02f12823          	sw	a5,48(sp)
    7b50:	01478db3          	add	s11,a5,s4
    7b54:	00100793          	li	a5,1
    7b58:	0147c663          	blt	a5,s4,7b64 <_svfprintf_r+0xd5c>
    7b5c:	00147793          	andi	a5,s0,1
    7b60:	00078663          	beqz	a5,7b6c <_svfprintf_r+0xd64>
    7b64:	01412783          	lw	a5,20(sp)
    7b68:	00fd8db3          	add	s11,s11,a5
    7b6c:	bff47413          	andi	s0,s0,-1025
    7b70:	10046793          	ori	a5,s0,256
    7b74:	02f12023          	sw	a5,32(sp)
    7b78:	00012423          	sw	zero,8(sp)
    7b7c:	00000b93          	li	s7,0
    7b80:	00000c93          	li	s9,0
    7b84:	03812783          	lw	a5,56(sp)
    7b88:	00078663          	beqz	a5,7b94 <_svfprintf_r+0xd8c>
    7b8c:	02d00713          	li	a4,45
    7b90:	0ae103a3          	sb	a4,167(sp)
    7b94:	02012403          	lw	s0,32(sp)
    7b98:	00000d13          	li	s10,0
    7b9c:	dfcff06f          	j	7198 <_svfprintf_r+0x390>
    7ba0:	00000b13          	li	s6,0
    7ba4:	12c10493          	addi	s1,sp,300
    7ba8:	b65ff06f          	j	770c <_svfprintf_r+0x904>
    7bac:	00050b13          	mv	s6,a0
    7bb0:	b5dff06f          	j	770c <_svfprintf_r+0x904>
    7bb4:	00000b13          	li	s6,0
    7bb8:	00600d93          	li	s11,6
    7bbc:	b51ff06f          	j	770c <_svfprintf_r+0x904>
    7bc0:	feb68fa3          	sb	a1,-1(a3)
    7bc4:	eadff06f          	j	7a70 <_svfprintf_r+0xc68>
    7bc8:	00178793          	addi	a5,a5,1
    7bcc:	0ff7f793          	zext.b	a5,a5
    7bd0:	ec5ff06f          	j	7a94 <_svfprintf_r+0xc8c>
    7bd4:	001a0a13          	addi	s4,s4,1
    7bd8:	feea0fa3          	sb	a4,-1(s4)
    7bdc:	414c87b3          	sub	a5,s9,s4
    7be0:	fe07dae3          	bgez	a5,7bd4 <_svfprintf_r+0xdcc>
    7be4:	eb9ff06f          	j	7a9c <_svfprintf_r+0xc94>
    7be8:	03c12783          	lw	a5,60(sp)
    7bec:	000c8a13          	mv	s4,s9
    7bf0:	03000713          	li	a4,48
    7bf4:	00fc8cb3          	add	s9,s9,a5
    7bf8:	fe5ff06f          	j	7bdc <_svfprintf_r+0xdd4>
    7bfc:	04600793          	li	a5,70
    7c00:	00fb8e63          	beq	s7,a5,7c1c <_svfprintf_r+0xe14>
    7c04:	04500793          	li	a5,69
    7c08:	001d8313          	addi	t1,s11,1
    7c0c:	00fb8463          	beq	s7,a5,7c14 <_svfprintf_r+0xe0c>
    7c10:	000d8313          	mv	t1,s11
    7c14:	00200613          	li	a2,2
    7c18:	00c0006f          	j	7c24 <_svfprintf_r+0xe1c>
    7c1c:	000d8313          	mv	t1,s11
    7c20:	00300613          	li	a2,3
    7c24:	0b010793          	addi	a5,sp,176
    7c28:	00030693          	mv	a3,t1
    7c2c:	0bc10813          	addi	a6,sp,188
    7c30:	0ac10713          	addi	a4,sp,172
    7c34:	09010593          	addi	a1,sp,144
    7c38:	00090513          	mv	a0,s2
    7c3c:	09c12823          	sw	t3,144(sp)
    7c40:	05c12023          	sw	t3,64(sp)
    7c44:	09112a23          	sw	a7,148(sp)
    7c48:	03112e23          	sw	a7,60(sp)
    7c4c:	00612423          	sw	t1,8(sp)
    7c50:	09a12c23          	sw	s10,152(sp)
    7c54:	09412e23          	sw	s4,156(sp)
    7c58:	00004097          	auipc	ra,0x4
    7c5c:	5bc080e7          	jalr	1468(ra) # c214 <_ldtoa_r>
    7c60:	04700793          	li	a5,71
    7c64:	00050493          	mv	s1,a0
    7c68:	00812303          	lw	t1,8(sp)
    7c6c:	03c12883          	lw	a7,60(sp)
    7c70:	04012e03          	lw	t3,64(sp)
    7c74:	00fb9a63          	bne	s7,a5,7c88 <_svfprintf_r+0xe80>
    7c78:	00147793          	andi	a5,s0,1
    7c7c:	00079663          	bnez	a5,7c88 <_svfprintf_r+0xe80>
    7c80:	0bc12a03          	lw	s4,188(sp)
    7c84:	e19ff06f          	j	7a9c <_svfprintf_r+0xc94>
    7c88:	04600793          	li	a5,70
    7c8c:	00648cb3          	add	s9,s1,t1
    7c90:	06fb9863          	bne	s7,a5,7d00 <_svfprintf_r+0xef8>
    7c94:	0004c703          	lbu	a4,0(s1)
    7c98:	03000793          	li	a5,48
    7c9c:	04f71e63          	bne	a4,a5,7cf8 <_svfprintf_r+0xef0>
    7ca0:	08010593          	addi	a1,sp,128
    7ca4:	09010513          	addi	a0,sp,144
    7ca8:	09c12823          	sw	t3,144(sp)
    7cac:	03c12e23          	sw	t3,60(sp)
    7cb0:	09112a23          	sw	a7,148(sp)
    7cb4:	01112423          	sw	a7,8(sp)
    7cb8:	04612023          	sw	t1,64(sp)
    7cbc:	09a12c23          	sw	s10,152(sp)
    7cc0:	09412e23          	sw	s4,156(sp)
    7cc4:	08012023          	sw	zero,128(sp)
    7cc8:	08012223          	sw	zero,132(sp)
    7ccc:	08012423          	sw	zero,136(sp)
    7cd0:	08012623          	sw	zero,140(sp)
    7cd4:	00008097          	auipc	ra,0x8
    7cd8:	5c4080e7          	jalr	1476(ra) # 10298 <__eqtf2>
    7cdc:	00812883          	lw	a7,8(sp)
    7ce0:	03c12e03          	lw	t3,60(sp)
    7ce4:	00050a63          	beqz	a0,7cf8 <_svfprintf_r+0xef0>
    7ce8:	04012303          	lw	t1,64(sp)
    7cec:	00100793          	li	a5,1
    7cf0:	406787b3          	sub	a5,a5,t1
    7cf4:	0af12623          	sw	a5,172(sp)
    7cf8:	0ac12783          	lw	a5,172(sp)
    7cfc:	00fc8cb3          	add	s9,s9,a5
    7d00:	08010593          	addi	a1,sp,128
    7d04:	09010513          	addi	a0,sp,144
    7d08:	09c12823          	sw	t3,144(sp)
    7d0c:	09112a23          	sw	a7,148(sp)
    7d10:	09a12c23          	sw	s10,152(sp)
    7d14:	09412e23          	sw	s4,156(sp)
    7d18:	08012023          	sw	zero,128(sp)
    7d1c:	08012223          	sw	zero,132(sp)
    7d20:	08012423          	sw	zero,136(sp)
    7d24:	08012623          	sw	zero,140(sp)
    7d28:	00008097          	auipc	ra,0x8
    7d2c:	570080e7          	jalr	1392(ra) # 10298 <__eqtf2>
    7d30:	00051463          	bnez	a0,7d38 <_svfprintf_r+0xf30>
    7d34:	0b912e23          	sw	s9,188(sp)
    7d38:	03000713          	li	a4,48
    7d3c:	0100006f          	j	7d4c <_svfprintf_r+0xf44>
    7d40:	00178693          	addi	a3,a5,1
    7d44:	0ad12e23          	sw	a3,188(sp)
    7d48:	00e78023          	sb	a4,0(a5)
    7d4c:	0bc12783          	lw	a5,188(sp)
    7d50:	ff97e8e3          	bltu	a5,s9,7d40 <_svfprintf_r+0xf38>
    7d54:	f2dff06f          	j	7c80 <_svfprintf_r+0xe78>
    7d58:	04600713          	li	a4,70
    7d5c:	d6eb90e3          	bne	s7,a4,7abc <_svfprintf_r+0xcb4>
    7d60:	00147713          	andi	a4,s0,1
    7d64:	01b76733          	or	a4,a4,s11
    7d68:	07905063          	blez	s9,7dc8 <_svfprintf_r+0xfc0>
    7d6c:	0c070063          	beqz	a4,7e2c <_svfprintf_r+0x1024>
    7d70:	01412783          	lw	a5,20(sp)
    7d74:	00fc8733          	add	a4,s9,a5
    7d78:	00ed8db3          	add	s11,s11,a4
    7d7c:	06600a93          	li	s5,102
    7d80:	0900006f          	j	7e10 <_svfprintf_r+0x1008>
    7d84:	00060713          	mv	a4,a2
    7d88:	00078693          	mv	a3,a5
    7d8c:	d8dff06f          	j	7b18 <_svfprintf_r+0xd10>
    7d90:	00170713          	addi	a4,a4,1
    7d94:	fff74783          	lbu	a5,-1(a4)
    7d98:	00160613          	addi	a2,a2,1
    7d9c:	fef60fa3          	sb	a5,-1(a2)
    7da0:	da1ff06f          	j	7b40 <_svfprintf_r+0xd38>
    7da4:	0b610713          	addi	a4,sp,182
    7da8:	00059863          	bnez	a1,7db8 <_svfprintf_r+0xfb0>
    7dac:	03000793          	li	a5,48
    7db0:	0af10b23          	sb	a5,182(sp)
    7db4:	0b710713          	addi	a4,sp,183
    7db8:	03068793          	addi	a5,a3,48
    7dbc:	00170613          	addi	a2,a4,1
    7dc0:	00f70023          	sb	a5,0(a4)
    7dc4:	d81ff06f          	j	7b44 <_svfprintf_r+0xd3c>
    7dc8:	06070663          	beqz	a4,7e34 <_svfprintf_r+0x102c>
    7dcc:	01412783          	lw	a5,20(sp)
    7dd0:	00178713          	addi	a4,a5,1
    7dd4:	fa5ff06f          	j	7d78 <_svfprintf_r+0xf70>
    7dd8:	034cc063          	blt	s9,s4,7df8 <_svfprintf_r+0xff0>
    7ddc:	00147713          	andi	a4,s0,1
    7de0:	000c8d93          	mv	s11,s9
    7de4:	00070663          	beqz	a4,7df0 <_svfprintf_r+0xfe8>
    7de8:	01412783          	lw	a5,20(sp)
    7dec:	00fc8db3          	add	s11,s9,a5
    7df0:	06700a93          	li	s5,103
    7df4:	01c0006f          	j	7e10 <_svfprintf_r+0x1008>
    7df8:	01412783          	lw	a5,20(sp)
    7dfc:	06700a93          	li	s5,103
    7e00:	00fa0db3          	add	s11,s4,a5
    7e04:	01904663          	bgtz	s9,7e10 <_svfprintf_r+0x1008>
    7e08:	419d8333          	sub	t1,s11,s9
    7e0c:	00130d93          	addi	s11,t1,1
    7e10:	40047b93          	andi	s7,s0,1024
    7e14:	00012423          	sw	zero,8(sp)
    7e18:	d60b86e3          	beqz	s7,7b84 <_svfprintf_r+0xd7c>
    7e1c:	00000b93          	li	s7,0
    7e20:	d79052e3          	blez	s9,7b84 <_svfprintf_r+0xd7c>
    7e24:	0ff00693          	li	a3,255
    7e28:	0380006f          	j	7e60 <_svfprintf_r+0x1058>
    7e2c:	000c8d93          	mv	s11,s9
    7e30:	f4dff06f          	j	7d7c <_svfprintf_r+0xf74>
    7e34:	06600a93          	li	s5,102
    7e38:	00100d93          	li	s11,1
    7e3c:	fd5ff06f          	j	7e10 <_svfprintf_r+0x1008>
    7e40:	03975663          	bge	a4,s9,7e6c <_svfprintf_r+0x1064>
    7e44:	00412783          	lw	a5,4(sp)
    7e48:	40ec8cb3          	sub	s9,s9,a4
    7e4c:	0017c703          	lbu	a4,1(a5)
    7e50:	02070a63          	beqz	a4,7e84 <_svfprintf_r+0x107c>
    7e54:	00178793          	addi	a5,a5,1
    7e58:	001b8b93          	addi	s7,s7,1
    7e5c:	00f12223          	sw	a5,4(sp)
    7e60:	00412783          	lw	a5,4(sp)
    7e64:	0007c703          	lbu	a4,0(a5)
    7e68:	fcd71ce3          	bne	a4,a3,7e40 <_svfprintf_r+0x1038>
    7e6c:	00812783          	lw	a5,8(sp)
    7e70:	00fb8733          	add	a4,s7,a5
    7e74:	02412783          	lw	a5,36(sp)
    7e78:	02f70733          	mul	a4,a4,a5
    7e7c:	01b70db3          	add	s11,a4,s11
    7e80:	d05ff06f          	j	7b84 <_svfprintf_r+0xd7c>
    7e84:	00812783          	lw	a5,8(sp)
    7e88:	00178793          	addi	a5,a5,1
    7e8c:	00f12423          	sw	a5,8(sp)
    7e90:	fd1ff06f          	j	7e60 <_svfprintf_r+0x1058>
    7e94:	004b0713          	addi	a4,s6,4
    7e98:	00e12623          	sw	a4,12(sp)
    7e9c:	02047713          	andi	a4,s0,32
    7ea0:	000b2783          	lw	a5,0(s6)
    7ea4:	02070063          	beqz	a4,7ec4 <_svfprintf_r+0x10bc>
    7ea8:	01812703          	lw	a4,24(sp)
    7eac:	00e7a023          	sw	a4,0(a5)
    7eb0:	41f75713          	srai	a4,a4,0x1f
    7eb4:	00e7a223          	sw	a4,4(a5)
    7eb8:	00c12b03          	lw	s6,12(sp)
    7ebc:	01012483          	lw	s1,16(sp)
    7ec0:	83cff06f          	j	6efc <_svfprintf_r+0xf4>
    7ec4:	01047713          	andi	a4,s0,16
    7ec8:	00070863          	beqz	a4,7ed8 <_svfprintf_r+0x10d0>
    7ecc:	01812703          	lw	a4,24(sp)
    7ed0:	00e7a023          	sw	a4,0(a5)
    7ed4:	fe5ff06f          	j	7eb8 <_svfprintf_r+0x10b0>
    7ed8:	04047713          	andi	a4,s0,64
    7edc:	00070863          	beqz	a4,7eec <_svfprintf_r+0x10e4>
    7ee0:	01812703          	lw	a4,24(sp)
    7ee4:	00e79023          	sh	a4,0(a5)
    7ee8:	fd1ff06f          	j	7eb8 <_svfprintf_r+0x10b0>
    7eec:	20047413          	andi	s0,s0,512
    7ef0:	fc040ee3          	beqz	s0,7ecc <_svfprintf_r+0x10c4>
    7ef4:	01812703          	lw	a4,24(sp)
    7ef8:	00e78023          	sb	a4,0(a5)
    7efc:	fbdff06f          	j	7eb8 <_svfprintf_r+0x10b0>
    7f00:	01046413          	ori	s0,s0,16
    7f04:	02047793          	andi	a5,s0,32
    7f08:	02078663          	beqz	a5,7f34 <_svfprintf_r+0x112c>
    7f0c:	007b0b13          	addi	s6,s6,7
    7f10:	ff8b7b13          	andi	s6,s6,-8
    7f14:	000b2d03          	lw	s10,0(s6)
    7f18:	004b2c83          	lw	s9,4(s6)
    7f1c:	008b0793          	addi	a5,s6,8
    7f20:	00f12623          	sw	a5,12(sp)
    7f24:	bff47413          	andi	s0,s0,-1025
    7f28:	00000793          	li	a5,0
    7f2c:	0a0103a3          	sb	zero,167(sp)
    7f30:	d6cff06f          	j	749c <_svfprintf_r+0x694>
    7f34:	004b0793          	addi	a5,s6,4
    7f38:	00f12623          	sw	a5,12(sp)
    7f3c:	01047793          	andi	a5,s0,16
    7f40:	00078663          	beqz	a5,7f4c <_svfprintf_r+0x1144>
    7f44:	000b2d03          	lw	s10,0(s6)
    7f48:	0100006f          	j	7f58 <_svfprintf_r+0x1150>
    7f4c:	04047793          	andi	a5,s0,64
    7f50:	00078863          	beqz	a5,7f60 <_svfprintf_r+0x1158>
    7f54:	000b5d03          	lhu	s10,0(s6)
    7f58:	00000c93          	li	s9,0
    7f5c:	fc9ff06f          	j	7f24 <_svfprintf_r+0x111c>
    7f60:	20047793          	andi	a5,s0,512
    7f64:	fe0780e3          	beqz	a5,7f44 <_svfprintf_r+0x113c>
    7f68:	000b4d03          	lbu	s10,0(s6)
    7f6c:	fedff06f          	j	7f58 <_svfprintf_r+0x1150>
    7f70:	004b0793          	addi	a5,s6,4
    7f74:	00f12623          	sw	a5,12(sp)
    7f78:	ffff87b7          	lui	a5,0xffff8
    7f7c:	8307c793          	xori	a5,a5,-2000
    7f80:	0af11423          	sh	a5,168(sp)
    7f84:	7fff9797          	auipc	a5,0x7fff9
    7f88:	bd878793          	addi	a5,a5,-1064 # 80000b5c <zeroes.4499+0x20>
    7f8c:	02f12a23          	sw	a5,52(sp)
    7f90:	000b2d03          	lw	s10,0(s6)
    7f94:	00000c93          	li	s9,0
    7f98:	00246413          	ori	s0,s0,2
    7f9c:	00200793          	li	a5,2
    7fa0:	07800a93          	li	s5,120
    7fa4:	f89ff06f          	j	7f2c <_svfprintf_r+0x1124>
    7fa8:	004b0793          	addi	a5,s6,4
    7fac:	00f12623          	sw	a5,12(sp)
    7fb0:	0a0103a3          	sb	zero,167(sp)
    7fb4:	fff00793          	li	a5,-1
    7fb8:	000b2483          	lw	s1,0(s6)
    7fbc:	02fd8663          	beq	s11,a5,7fe8 <_svfprintf_r+0x11e0>
    7fc0:	000d8613          	mv	a2,s11
    7fc4:	00000593          	li	a1,0
    7fc8:	00048513          	mv	a0,s1
    7fcc:	ffffe097          	auipc	ra,0xffffe
    7fd0:	0ac080e7          	jalr	172(ra) # 6078 <memchr>
    7fd4:	00050b13          	mv	s6,a0
    7fd8:	de050863          	beqz	a0,75c8 <_svfprintf_r+0x7c0>
    7fdc:	40950db3          	sub	s11,a0,s1
    7fe0:	00000b13          	li	s6,0
    7fe4:	de4ff06f          	j	75c8 <_svfprintf_r+0x7c0>
    7fe8:	00048513          	mv	a0,s1
    7fec:	fffff097          	auipc	ra,0xfffff
    7ff0:	e00080e7          	jalr	-512(ra) # 6dec <strlen>
    7ff4:	00050d93          	mv	s11,a0
    7ff8:	fe9ff06f          	j	7fe0 <_svfprintf_r+0x11d8>
    7ffc:	01046413          	ori	s0,s0,16
    8000:	02047793          	andi	a5,s0,32
    8004:	02078263          	beqz	a5,8028 <_svfprintf_r+0x1220>
    8008:	007b0b13          	addi	s6,s6,7
    800c:	ff8b7b13          	andi	s6,s6,-8
    8010:	000b2d03          	lw	s10,0(s6)
    8014:	004b2c83          	lw	s9,4(s6)
    8018:	008b0793          	addi	a5,s6,8
    801c:	00f12623          	sw	a5,12(sp)
    8020:	00100793          	li	a5,1
    8024:	f09ff06f          	j	7f2c <_svfprintf_r+0x1124>
    8028:	004b0793          	addi	a5,s6,4
    802c:	00f12623          	sw	a5,12(sp)
    8030:	01047793          	andi	a5,s0,16
    8034:	00078663          	beqz	a5,8040 <_svfprintf_r+0x1238>
    8038:	000b2d03          	lw	s10,0(s6)
    803c:	0100006f          	j	804c <_svfprintf_r+0x1244>
    8040:	04047793          	andi	a5,s0,64
    8044:	00078863          	beqz	a5,8054 <_svfprintf_r+0x124c>
    8048:	000b5d03          	lhu	s10,0(s6)
    804c:	00000c93          	li	s9,0
    8050:	fd1ff06f          	j	8020 <_svfprintf_r+0x1218>
    8054:	20047793          	andi	a5,s0,512
    8058:	fe0780e3          	beqz	a5,8038 <_svfprintf_r+0x1230>
    805c:	000b4d03          	lbu	s10,0(s6)
    8060:	fedff06f          	j	804c <_svfprintf_r+0x1244>
    8064:	7fff9797          	auipc	a5,0x7fff9
    8068:	b0c78793          	addi	a5,a5,-1268 # 80000b70 <zeroes.4499+0x34>
    806c:	02f12a23          	sw	a5,52(sp)
    8070:	02047793          	andi	a5,s0,32
    8074:	04078a63          	beqz	a5,80c8 <_svfprintf_r+0x12c0>
    8078:	007b0b13          	addi	s6,s6,7
    807c:	ff8b7b13          	andi	s6,s6,-8
    8080:	000b2d03          	lw	s10,0(s6)
    8084:	004b2c83          	lw	s9,4(s6)
    8088:	008b0793          	addi	a5,s6,8
    808c:	00f12623          	sw	a5,12(sp)
    8090:	00147793          	andi	a5,s0,1
    8094:	00078e63          	beqz	a5,80b0 <_svfprintf_r+0x12a8>
    8098:	019d67b3          	or	a5,s10,s9
    809c:	00078a63          	beqz	a5,80b0 <_svfprintf_r+0x12a8>
    80a0:	03000793          	li	a5,48
    80a4:	0af10423          	sb	a5,168(sp)
    80a8:	0b5104a3          	sb	s5,169(sp)
    80ac:	00246413          	ori	s0,s0,2
    80b0:	bff47413          	andi	s0,s0,-1025
    80b4:	00200793          	li	a5,2
    80b8:	e75ff06f          	j	7f2c <_svfprintf_r+0x1124>
    80bc:	7fff9797          	auipc	a5,0x7fff9
    80c0:	aa078793          	addi	a5,a5,-1376 # 80000b5c <zeroes.4499+0x20>
    80c4:	fa9ff06f          	j	806c <_svfprintf_r+0x1264>
    80c8:	004b0793          	addi	a5,s6,4
    80cc:	00f12623          	sw	a5,12(sp)
    80d0:	01047793          	andi	a5,s0,16
    80d4:	00078663          	beqz	a5,80e0 <_svfprintf_r+0x12d8>
    80d8:	000b2d03          	lw	s10,0(s6)
    80dc:	0100006f          	j	80ec <_svfprintf_r+0x12e4>
    80e0:	04047793          	andi	a5,s0,64
    80e4:	00078863          	beqz	a5,80f4 <_svfprintf_r+0x12ec>
    80e8:	000b5d03          	lhu	s10,0(s6)
    80ec:	00000c93          	li	s9,0
    80f0:	fa1ff06f          	j	8090 <_svfprintf_r+0x1288>
    80f4:	20047793          	andi	a5,s0,512
    80f8:	fe0780e3          	beqz	a5,80d8 <_svfprintf_r+0x12d0>
    80fc:	000b4d03          	lbu	s10,0(s6)
    8100:	fedff06f          	j	80ec <_svfprintf_r+0x12e4>
    8104:	00040713          	mv	a4,s0
    8108:	00100793          	li	a5,1
    810c:	b9cff06f          	j	74a8 <_svfprintf_r+0x6a0>
    8110:	00100713          	li	a4,1
    8114:	52e78ee3          	beq	a5,a4,8e50 <_svfprintf_r+0x2048>
    8118:	00200713          	li	a4,2
    811c:	12e78c63          	beq	a5,a4,8254 <_svfprintf_r+0x144c>
    8120:	19010793          	addi	a5,sp,400
    8124:	01dc9693          	slli	a3,s9,0x1d
    8128:	007d7713          	andi	a4,s10,7
    812c:	003d5d13          	srli	s10,s10,0x3
    8130:	03070713          	addi	a4,a4,48
    8134:	01a6ed33          	or	s10,a3,s10
    8138:	003cdc93          	srli	s9,s9,0x3
    813c:	fee78fa3          	sb	a4,-1(a5)
    8140:	019d66b3          	or	a3,s10,s9
    8144:	fff78493          	addi	s1,a5,-1
    8148:	02069e63          	bnez	a3,8184 <_svfprintf_r+0x137c>
    814c:	00147693          	andi	a3,s0,1
    8150:	00068a63          	beqz	a3,8164 <_svfprintf_r+0x135c>
    8154:	03000693          	li	a3,48
    8158:	00d70663          	beq	a4,a3,8164 <_svfprintf_r+0x135c>
    815c:	fed48fa3          	sb	a3,-1(s1)
    8160:	ffe78493          	addi	s1,a5,-2
    8164:	19010793          	addi	a5,sp,400
    8168:	000d8d13          	mv	s10,s11
    816c:	00000b13          	li	s6,0
    8170:	40978db3          	sub	s11,a5,s1
    8174:	00012423          	sw	zero,8(sp)
    8178:	00000b93          	li	s7,0
    817c:	00000c93          	li	s9,0
    8180:	818ff06f          	j	7198 <_svfprintf_r+0x390>
    8184:	00048793          	mv	a5,s1
    8188:	f9dff06f          	j	8124 <_svfprintf_r+0x131c>
    818c:	00000a13          	li	s4,0
    8190:	19010793          	addi	a5,sp,400
    8194:	40047b93          	andi	s7,s0,1024
    8198:	00900b13          	li	s6,9
    819c:	00a00613          	li	a2,10
    81a0:	00000693          	li	a3,0
    81a4:	000d0513          	mv	a0,s10
    81a8:	000c8593          	mv	a1,s9
    81ac:	fff78493          	addi	s1,a5,-1
    81b0:	00f12423          	sw	a5,8(sp)
    81b4:	00008097          	auipc	ra,0x8
    81b8:	cd4080e7          	jalr	-812(ra) # fe88 <__umoddi3>
    81bc:	00812783          	lw	a5,8(sp)
    81c0:	03050513          	addi	a0,a0,48
    81c4:	001a0a13          	addi	s4,s4,1
    81c8:	fea78fa3          	sb	a0,-1(a5)
    81cc:	040b8c63          	beqz	s7,8224 <_svfprintf_r+0x141c>
    81d0:	00412783          	lw	a5,4(sp)
    81d4:	0007c783          	lbu	a5,0(a5)
    81d8:	04fa1663          	bne	s4,a5,8224 <_svfprintf_r+0x141c>
    81dc:	0ff00793          	li	a5,255
    81e0:	04fa0263          	beq	s4,a5,8224 <_svfprintf_r+0x141c>
    81e4:	000c9463          	bnez	s9,81ec <_svfprintf_r+0x13e4>
    81e8:	03ab7e63          	bgeu	s6,s10,8224 <_svfprintf_r+0x141c>
    81ec:	02412783          	lw	a5,36(sp)
    81f0:	02c12583          	lw	a1,44(sp)
    81f4:	00000a13          	li	s4,0
    81f8:	40f484b3          	sub	s1,s1,a5
    81fc:	00078613          	mv	a2,a5
    8200:	00048513          	mv	a0,s1
    8204:	00006097          	auipc	ra,0x6
    8208:	174080e7          	jalr	372(ra) # e378 <strncpy>
    820c:	00412783          	lw	a5,4(sp)
    8210:	0017c783          	lbu	a5,1(a5)
    8214:	00078863          	beqz	a5,8224 <_svfprintf_r+0x141c>
    8218:	00412783          	lw	a5,4(sp)
    821c:	00178793          	addi	a5,a5,1
    8220:	00f12223          	sw	a5,4(sp)
    8224:	00a00613          	li	a2,10
    8228:	00000693          	li	a3,0
    822c:	000d0513          	mv	a0,s10
    8230:	000c8593          	mv	a1,s9
    8234:	00008097          	auipc	ra,0x8
    8238:	820080e7          	jalr	-2016(ra) # fa54 <__udivdi3>
    823c:	000c9463          	bnez	s9,8244 <_svfprintf_r+0x143c>
    8240:	f3ab72e3          	bgeu	s6,s10,8164 <_svfprintf_r+0x135c>
    8244:	00050d13          	mv	s10,a0
    8248:	00058c93          	mv	s9,a1
    824c:	00048793          	mv	a5,s1
    8250:	f4dff06f          	j	819c <_svfprintf_r+0x1394>
    8254:	19010493          	addi	s1,sp,400
    8258:	03412703          	lw	a4,52(sp)
    825c:	00fd7793          	andi	a5,s10,15
    8260:	fff48493          	addi	s1,s1,-1
    8264:	00f707b3          	add	a5,a4,a5
    8268:	0007c783          	lbu	a5,0(a5)
    826c:	004d5d13          	srli	s10,s10,0x4
    8270:	00f48023          	sb	a5,0(s1)
    8274:	01cc9793          	slli	a5,s9,0x1c
    8278:	01a7ed33          	or	s10,a5,s10
    827c:	004cdc93          	srli	s9,s9,0x4
    8280:	019d67b3          	or	a5,s10,s9
    8284:	fc079ae3          	bnez	a5,8258 <_svfprintf_r+0x1450>
    8288:	eddff06f          	j	8164 <_svfprintf_r+0x135c>
    828c:	19010493          	addi	s1,sp,400
    8290:	ec079ae3          	bnez	a5,8164 <_svfprintf_r+0x135c>
    8294:	00177713          	andi	a4,a4,1
    8298:	ec0706e3          	beqz	a4,8164 <_svfprintf_r+0x135c>
    829c:	03000793          	li	a5,48
    82a0:	18f107a3          	sb	a5,399(sp)
    82a4:	3c10006f          	j	8e64 <_svfprintf_r+0x205c>
    82a8:	360a8ee3          	beqz	s5,8e24 <_svfprintf_r+0x201c>
    82ac:	13510623          	sb	s5,300(sp)
    82b0:	0a0103a3          	sb	zero,167(sp)
    82b4:	01612623          	sw	s6,12(sp)
    82b8:	ec5fe06f          	j	717c <_svfprintf_r+0x374>
    82bc:	01060613          	addi	a2,a2,16
    82c0:	01dc2223          	sw	t4,4(s8)
    82c4:	0cc12623          	sw	a2,204(sp)
    82c8:	0cd12423          	sw	a3,200(sp)
    82cc:	02df5c63          	bge	t5,a3,8304 <_svfprintf_r+0x14fc>
    82d0:	0c410613          	addi	a2,sp,196
    82d4:	00098593          	mv	a1,s3
    82d8:	00090513          	mv	a0,s2
    82dc:	04e12023          	sw	a4,64(sp)
    82e0:	00006097          	auipc	ra,0x6
    82e4:	0d0080e7          	jalr	208(ra) # e3b0 <__ssprint_r>
    82e8:	2c0518e3          	bnez	a0,8db8 <_svfprintf_r+0x1fb0>
    82ec:	04012703          	lw	a4,64(sp)
    82f0:	0ec10593          	addi	a1,sp,236
    82f4:	00700f13          	li	t5,7
    82f8:	7fff9e17          	auipc	t3,0x7fff9
    82fc:	834e0e13          	addi	t3,t3,-1996 # 80000b2c <blanks.4498>
    8300:	01000e93          	li	t4,16
    8304:	ff070713          	addi	a4,a4,-16
    8308:	00058c13          	mv	s8,a1
    830c:	ef1fe06f          	j	71fc <_svfprintf_r+0x3f4>
    8310:	01068693          	addi	a3,a3,16
    8314:	010c2223          	sw	a6,4(s8)
    8318:	0cd12623          	sw	a3,204(sp)
    831c:	0ce12423          	sw	a4,200(sp)
    8320:	02ee5863          	bge	t3,a4,8350 <_svfprintf_r+0x1548>
    8324:	0c410613          	addi	a2,sp,196
    8328:	00098593          	mv	a1,s3
    832c:	00090513          	mv	a0,s2
    8330:	02f12c23          	sw	a5,56(sp)
    8334:	00006097          	auipc	ra,0x6
    8338:	07c080e7          	jalr	124(ra) # e3b0 <__ssprint_r>
    833c:	26051ee3          	bnez	a0,8db8 <_svfprintf_r+0x1fb0>
    8340:	03812783          	lw	a5,56(sp)
    8344:	0ec10613          	addi	a2,sp,236
    8348:	00700e13          	li	t3,7
    834c:	01000813          	li	a6,16
    8350:	ff078793          	addi	a5,a5,-16
    8354:	00060c13          	mv	s8,a2
    8358:	fd9fe06f          	j	7330 <_svfprintf_r+0x528>
    835c:	7fff8597          	auipc	a1,0x7fff8
    8360:	7e058593          	addi	a1,a1,2016 # 80000b3c <zeroes.4499>
    8364:	01068693          	addi	a3,a3,16
    8368:	00bc2023          	sw	a1,0(s8)
    836c:	00fc2223          	sw	a5,4(s8)
    8370:	0cd12623          	sw	a3,204(sp)
    8374:	0ce12423          	sw	a4,200(sp)
    8378:	02e85463          	bge	a6,a4,83a0 <_svfprintf_r+0x1598>
    837c:	0c410613          	addi	a2,sp,196
    8380:	00098593          	mv	a1,s3
    8384:	00090513          	mv	a0,s2
    8388:	00006097          	auipc	ra,0x6
    838c:	028080e7          	jalr	40(ra) # e3b0 <__ssprint_r>
    8390:	220514e3          	bnez	a0,8db8 <_svfprintf_r+0x1fb0>
    8394:	0ec10613          	addi	a2,sp,236
    8398:	00700813          	li	a6,7
    839c:	01000793          	li	a5,16
    83a0:	ff0d0d13          	addi	s10,s10,-16 # 3ffdfff0 <__trunctfdf2+0x3ffccf90>
    83a4:	00060c13          	mv	s8,a2
    83a8:	ff5fe06f          	j	739c <_svfprintf_r+0x594>
    83ac:	06500713          	li	a4,101
    83b0:	79575463          	bge	a4,s5,8b38 <_svfprintf_r+0x1d30>
    83b4:	0d012703          	lw	a4,208(sp)
    83b8:	08010593          	addi	a1,sp,128
    83bc:	09010513          	addi	a0,sp,144
    83c0:	08e12823          	sw	a4,144(sp)
    83c4:	0d412703          	lw	a4,212(sp)
    83c8:	08012023          	sw	zero,128(sp)
    83cc:	08012223          	sw	zero,132(sp)
    83d0:	08e12a23          	sw	a4,148(sp)
    83d4:	0d812703          	lw	a4,216(sp)
    83d8:	08012423          	sw	zero,136(sp)
    83dc:	08012623          	sw	zero,140(sp)
    83e0:	08e12c23          	sw	a4,152(sp)
    83e4:	0dc12703          	lw	a4,220(sp)
    83e8:	08e12e23          	sw	a4,156(sp)
    83ec:	00008097          	auipc	ra,0x8
    83f0:	eac080e7          	jalr	-340(ra) # 10298 <__eqtf2>
    83f4:	14051263          	bnez	a0,8538 <_svfprintf_r+0x1730>
    83f8:	7fff8797          	auipc	a5,0x7fff8
    83fc:	78c78793          	addi	a5,a5,1932 # 80000b84 <zeroes.4499+0x48>
    8400:	00fc2023          	sw	a5,0(s8)
    8404:	00100793          	li	a5,1
    8408:	00fc2223          	sw	a5,4(s8)
    840c:	0c812783          	lw	a5,200(sp)
    8410:	001d0d13          	addi	s10,s10,1
    8414:	0da12623          	sw	s10,204(sp)
    8418:	00178793          	addi	a5,a5,1
    841c:	0cf12423          	sw	a5,200(sp)
    8420:	00700713          	li	a4,7
    8424:	008c0c13          	addi	s8,s8,8
    8428:	02f75063          	bge	a4,a5,8448 <_svfprintf_r+0x1640>
    842c:	0c410613          	addi	a2,sp,196
    8430:	00098593          	mv	a1,s3
    8434:	00090513          	mv	a0,s2
    8438:	00006097          	auipc	ra,0x6
    843c:	f78080e7          	jalr	-136(ra) # e3b0 <__ssprint_r>
    8440:	16051ce3          	bnez	a0,8db8 <_svfprintf_r+0x1fb0>
    8444:	0ec10c13          	addi	s8,sp,236
    8448:	0ac12783          	lw	a5,172(sp)
    844c:	0147c663          	blt	a5,s4,8458 <_svfprintf_r+0x1650>
    8450:	00147793          	andi	a5,s0,1
    8454:	22078e63          	beqz	a5,8690 <_svfprintf_r+0x1888>
    8458:	02812783          	lw	a5,40(sp)
    845c:	01412703          	lw	a4,20(sp)
    8460:	008c0c13          	addi	s8,s8,8
    8464:	fefc2c23          	sw	a5,-8(s8)
    8468:	01412783          	lw	a5,20(sp)
    846c:	fefc2e23          	sw	a5,-4(s8)
    8470:	0cc12783          	lw	a5,204(sp)
    8474:	00e787b3          	add	a5,a5,a4
    8478:	0cf12623          	sw	a5,204(sp)
    847c:	0c812783          	lw	a5,200(sp)
    8480:	00700713          	li	a4,7
    8484:	00178793          	addi	a5,a5,1
    8488:	0cf12423          	sw	a5,200(sp)
    848c:	02f75063          	bge	a4,a5,84ac <_svfprintf_r+0x16a4>
    8490:	0c410613          	addi	a2,sp,196
    8494:	00098593          	mv	a1,s3
    8498:	00090513          	mv	a0,s2
    849c:	00006097          	auipc	ra,0x6
    84a0:	f14080e7          	jalr	-236(ra) # e3b0 <__ssprint_r>
    84a4:	10051ae3          	bnez	a0,8db8 <_svfprintf_r+0x1fb0>
    84a8:	0ec10c13          	addi	s8,sp,236
    84ac:	fffa0493          	addi	s1,s4,-1
    84b0:	1e905063          	blez	s1,8690 <_svfprintf_r+0x1888>
    84b4:	01000a93          	li	s5,16
    84b8:	00700b93          	li	s7,7
    84bc:	0c812783          	lw	a5,200(sp)
    84c0:	7fff8617          	auipc	a2,0x7fff8
    84c4:	67c60613          	addi	a2,a2,1660 # 80000b3c <zeroes.4499>
    84c8:	00cc2023          	sw	a2,0(s8)
    84cc:	0cc12703          	lw	a4,204(sp)
    84d0:	00178793          	addi	a5,a5,1
    84d4:	008c0693          	addi	a3,s8,8
    84d8:	029ac263          	blt	s5,s1,84fc <_svfprintf_r+0x16f4>
    84dc:	009c2223          	sw	s1,4(s8)
    84e0:	00e484b3          	add	s1,s1,a4
    84e4:	0c912623          	sw	s1,204(sp)
    84e8:	0cf12423          	sw	a5,200(sp)
    84ec:	00700713          	li	a4,7
    84f0:	00068c13          	mv	s8,a3
    84f4:	18f75e63          	bge	a4,a5,8690 <_svfprintf_r+0x1888>
    84f8:	f39fe06f          	j	7430 <_svfprintf_r+0x628>
    84fc:	01070713          	addi	a4,a4,16
    8500:	015c2223          	sw	s5,4(s8)
    8504:	0ce12623          	sw	a4,204(sp)
    8508:	0cf12423          	sw	a5,200(sp)
    850c:	02fbd063          	bge	s7,a5,852c <_svfprintf_r+0x1724>
    8510:	0c410613          	addi	a2,sp,196
    8514:	00098593          	mv	a1,s3
    8518:	00090513          	mv	a0,s2
    851c:	00006097          	auipc	ra,0x6
    8520:	e94080e7          	jalr	-364(ra) # e3b0 <__ssprint_r>
    8524:	08051ae3          	bnez	a0,8db8 <_svfprintf_r+0x1fb0>
    8528:	0ec10693          	addi	a3,sp,236
    852c:	ff048493          	addi	s1,s1,-16
    8530:	00068c13          	mv	s8,a3
    8534:	f89ff06f          	j	84bc <_svfprintf_r+0x16b4>
    8538:	0ac12703          	lw	a4,172(sp)
    853c:	1ee04263          	bgtz	a4,8720 <_svfprintf_r+0x1918>
    8540:	7fff8797          	auipc	a5,0x7fff8
    8544:	64478793          	addi	a5,a5,1604 # 80000b84 <zeroes.4499+0x48>
    8548:	00fc2023          	sw	a5,0(s8)
    854c:	00100793          	li	a5,1
    8550:	00fc2223          	sw	a5,4(s8)
    8554:	0c812783          	lw	a5,200(sp)
    8558:	001d0d13          	addi	s10,s10,1
    855c:	0da12623          	sw	s10,204(sp)
    8560:	00178793          	addi	a5,a5,1
    8564:	0cf12423          	sw	a5,200(sp)
    8568:	00700713          	li	a4,7
    856c:	008c0c13          	addi	s8,s8,8
    8570:	02f75063          	bge	a4,a5,8590 <_svfprintf_r+0x1788>
    8574:	0c410613          	addi	a2,sp,196
    8578:	00098593          	mv	a1,s3
    857c:	00090513          	mv	a0,s2
    8580:	00006097          	auipc	ra,0x6
    8584:	e30080e7          	jalr	-464(ra) # e3b0 <__ssprint_r>
    8588:	020518e3          	bnez	a0,8db8 <_svfprintf_r+0x1fb0>
    858c:	0ec10c13          	addi	s8,sp,236
    8590:	0ac12783          	lw	a5,172(sp)
    8594:	00147693          	andi	a3,s0,1
    8598:	0cc12703          	lw	a4,204(sp)
    859c:	00fa67b3          	or	a5,s4,a5
    85a0:	00d7e7b3          	or	a5,a5,a3
    85a4:	0e078663          	beqz	a5,8690 <_svfprintf_r+0x1888>
    85a8:	02812783          	lw	a5,40(sp)
    85ac:	008c0893          	addi	a7,s8,8
    85b0:	00fc2023          	sw	a5,0(s8)
    85b4:	01412783          	lw	a5,20(sp)
    85b8:	00fc2223          	sw	a5,4(s8)
    85bc:	00e787b3          	add	a5,a5,a4
    85c0:	0cf12623          	sw	a5,204(sp)
    85c4:	0c812783          	lw	a5,200(sp)
    85c8:	00700713          	li	a4,7
    85cc:	00178793          	addi	a5,a5,1
    85d0:	0cf12423          	sw	a5,200(sp)
    85d4:	02f75063          	bge	a4,a5,85f4 <_svfprintf_r+0x17ec>
    85d8:	0c410613          	addi	a2,sp,196
    85dc:	00098593          	mv	a1,s3
    85e0:	00090513          	mv	a0,s2
    85e4:	00006097          	auipc	ra,0x6
    85e8:	dcc080e7          	jalr	-564(ra) # e3b0 <__ssprint_r>
    85ec:	7c051663          	bnez	a0,8db8 <_svfprintf_r+0x1fb0>
    85f0:	0ec10893          	addi	a7,sp,236
    85f4:	0ac12a83          	lw	s5,172(sp)
    85f8:	060ad463          	bgez	s5,8660 <_svfprintf_r+0x1858>
    85fc:	41500ab3          	neg	s5,s5
    8600:	00088713          	mv	a4,a7
    8604:	01000b93          	li	s7,16
    8608:	00700c13          	li	s8,7
    860c:	0c812783          	lw	a5,200(sp)
    8610:	7fff8617          	auipc	a2,0x7fff8
    8614:	52c60613          	addi	a2,a2,1324 # 80000b3c <zeroes.4499>
    8618:	00c72023          	sw	a2,0(a4)
    861c:	0cc12683          	lw	a3,204(sp)
    8620:	00178793          	addi	a5,a5,1
    8624:	00888893          	addi	a7,a7,8
    8628:	0b5bce63          	blt	s7,s5,86e4 <_svfprintf_r+0x18dc>
    862c:	01572223          	sw	s5,4(a4)
    8630:	00da8ab3          	add	s5,s5,a3
    8634:	0d512623          	sw	s5,204(sp)
    8638:	0cf12423          	sw	a5,200(sp)
    863c:	00700713          	li	a4,7
    8640:	02f75063          	bge	a4,a5,8660 <_svfprintf_r+0x1858>
    8644:	0c410613          	addi	a2,sp,196
    8648:	00098593          	mv	a1,s3
    864c:	00090513          	mv	a0,s2
    8650:	00006097          	auipc	ra,0x6
    8654:	d60080e7          	jalr	-672(ra) # e3b0 <__ssprint_r>
    8658:	76051063          	bnez	a0,8db8 <_svfprintf_r+0x1fb0>
    865c:	0ec10893          	addi	a7,sp,236
    8660:	0cc12783          	lw	a5,204(sp)
    8664:	0098a023          	sw	s1,0(a7)
    8668:	0148a223          	sw	s4,4(a7)
    866c:	014787b3          	add	a5,a5,s4
    8670:	0cf12623          	sw	a5,204(sp)
    8674:	0c812783          	lw	a5,200(sp)
    8678:	00700713          	li	a4,7
    867c:	00888c13          	addi	s8,a7,8
    8680:	00178793          	addi	a5,a5,1
    8684:	0cf12423          	sw	a5,200(sp)
    8688:	00f75463          	bge	a4,a5,8690 <_svfprintf_r+0x1888>
    868c:	da5fe06f          	j	7430 <_svfprintf_r+0x628>
    8690:	00447413          	andi	s0,s0,4
    8694:	6c041063          	bnez	s0,8d54 <_svfprintf_r+0x1f4c>
    8698:	01c12a83          	lw	s5,28(sp)
    869c:	02012783          	lw	a5,32(sp)
    86a0:	00fad463          	bge	s5,a5,86a8 <_svfprintf_r+0x18a0>
    86a4:	00078a93          	mv	s5,a5
    86a8:	01812783          	lw	a5,24(sp)
    86ac:	015787b3          	add	a5,a5,s5
    86b0:	00f12c23          	sw	a5,24(sp)
    86b4:	0cc12783          	lw	a5,204(sp)
    86b8:	00078e63          	beqz	a5,86d4 <_svfprintf_r+0x18cc>
    86bc:	0c410613          	addi	a2,sp,196
    86c0:	00098593          	mv	a1,s3
    86c4:	00090513          	mv	a0,s2
    86c8:	00006097          	auipc	ra,0x6
    86cc:	ce8080e7          	jalr	-792(ra) # e3b0 <__ssprint_r>
    86d0:	6e051463          	bnez	a0,8db8 <_svfprintf_r+0x1fb0>
    86d4:	0c012423          	sw	zero,200(sp)
    86d8:	720b1c63          	bnez	s6,8e10 <_svfprintf_r+0x2008>
    86dc:	0ec10c13          	addi	s8,sp,236
    86e0:	fd8ff06f          	j	7eb8 <_svfprintf_r+0x10b0>
    86e4:	01068693          	addi	a3,a3,16
    86e8:	01772223          	sw	s7,4(a4)
    86ec:	0cd12623          	sw	a3,204(sp)
    86f0:	0cf12423          	sw	a5,200(sp)
    86f4:	02fc5063          	bge	s8,a5,8714 <_svfprintf_r+0x190c>
    86f8:	0c410613          	addi	a2,sp,196
    86fc:	00098593          	mv	a1,s3
    8700:	00090513          	mv	a0,s2
    8704:	00006097          	auipc	ra,0x6
    8708:	cac080e7          	jalr	-852(ra) # e3b0 <__ssprint_r>
    870c:	6a051663          	bnez	a0,8db8 <_svfprintf_r+0x1fb0>
    8710:	0ec10893          	addi	a7,sp,236
    8714:	ff0a8a93          	addi	s5,s5,-16
    8718:	00088713          	mv	a4,a7
    871c:	ef1ff06f          	j	860c <_svfprintf_r+0x1804>
    8720:	000c8a93          	mv	s5,s9
    8724:	019a5463          	bge	s4,s9,872c <_svfprintf_r+0x1924>
    8728:	000a0a93          	mv	s5,s4
    872c:	05505463          	blez	s5,8774 <_svfprintf_r+0x196c>
    8730:	0c812703          	lw	a4,200(sp)
    8734:	01aa8d33          	add	s10,s5,s10
    8738:	009c2023          	sw	s1,0(s8)
    873c:	00170713          	addi	a4,a4,1
    8740:	015c2223          	sw	s5,4(s8)
    8744:	0da12623          	sw	s10,204(sp)
    8748:	0ce12423          	sw	a4,200(sp)
    874c:	00700693          	li	a3,7
    8750:	008c0c13          	addi	s8,s8,8
    8754:	02e6d063          	bge	a3,a4,8774 <_svfprintf_r+0x196c>
    8758:	0c410613          	addi	a2,sp,196
    875c:	00098593          	mv	a1,s3
    8760:	00090513          	mv	a0,s2
    8764:	00006097          	auipc	ra,0x6
    8768:	c4c080e7          	jalr	-948(ra) # e3b0 <__ssprint_r>
    876c:	64051663          	bnez	a0,8db8 <_svfprintf_r+0x1fb0>
    8770:	0ec10c13          	addi	s8,sp,236
    8774:	000ad463          	bgez	s5,877c <_svfprintf_r+0x1974>
    8778:	00000a93          	li	s5,0
    877c:	415c8ab3          	sub	s5,s9,s5
    8780:	07505263          	blez	s5,87e4 <_svfprintf_r+0x19dc>
    8784:	01000d13          	li	s10,16
    8788:	00700d93          	li	s11,7
    878c:	0c812703          	lw	a4,200(sp)
    8790:	7fff8797          	auipc	a5,0x7fff8
    8794:	3ac78793          	addi	a5,a5,940 # 80000b3c <zeroes.4499>
    8798:	00fc2023          	sw	a5,0(s8)
    879c:	0cc12683          	lw	a3,204(sp)
    87a0:	00170713          	addi	a4,a4,1
    87a4:	008c0613          	addi	a2,s8,8
    87a8:	1b5d4863          	blt	s10,s5,8958 <_svfprintf_r+0x1b50>
    87ac:	015c2223          	sw	s5,4(s8)
    87b0:	00da8ab3          	add	s5,s5,a3
    87b4:	0d512623          	sw	s5,204(sp)
    87b8:	0ce12423          	sw	a4,200(sp)
    87bc:	00700693          	li	a3,7
    87c0:	00060c13          	mv	s8,a2
    87c4:	02e6d063          	bge	a3,a4,87e4 <_svfprintf_r+0x19dc>
    87c8:	0c410613          	addi	a2,sp,196
    87cc:	00098593          	mv	a1,s3
    87d0:	00090513          	mv	a0,s2
    87d4:	00006097          	auipc	ra,0x6
    87d8:	bdc080e7          	jalr	-1060(ra) # e3b0 <__ssprint_r>
    87dc:	5c051e63          	bnez	a0,8db8 <_svfprintf_r+0x1fb0>
    87e0:	0ec10c13          	addi	s8,sp,236
    87e4:	40047793          	andi	a5,s0,1024
    87e8:	01948ab3          	add	s5,s1,s9
    87ec:	02078263          	beqz	a5,8810 <_svfprintf_r+0x1a08>
    87f0:	00700d13          	li	s10,7
    87f4:	01448db3          	add	s11,s1,s4
    87f8:	00812783          	lw	a5,8(sp)
    87fc:	180b9c63          	bnez	s7,8994 <_svfprintf_r+0x1b8c>
    8800:	18079c63          	bnez	a5,8998 <_svfprintf_r+0x1b90>
    8804:	014487b3          	add	a5,s1,s4
    8808:	0157f463          	bgeu	a5,s5,8810 <_svfprintf_r+0x1a08>
    880c:	00078a93          	mv	s5,a5
    8810:	0ac12783          	lw	a5,172(sp)
    8814:	0147c663          	blt	a5,s4,8820 <_svfprintf_r+0x1a18>
    8818:	00147793          	andi	a5,s0,1
    881c:	04078c63          	beqz	a5,8874 <_svfprintf_r+0x1a6c>
    8820:	02812783          	lw	a5,40(sp)
    8824:	01412703          	lw	a4,20(sp)
    8828:	008c0c13          	addi	s8,s8,8
    882c:	fefc2c23          	sw	a5,-8(s8)
    8830:	01412783          	lw	a5,20(sp)
    8834:	fefc2e23          	sw	a5,-4(s8)
    8838:	0cc12783          	lw	a5,204(sp)
    883c:	00e787b3          	add	a5,a5,a4
    8840:	0cf12623          	sw	a5,204(sp)
    8844:	0c812783          	lw	a5,200(sp)
    8848:	00700713          	li	a4,7
    884c:	00178793          	addi	a5,a5,1
    8850:	0cf12423          	sw	a5,200(sp)
    8854:	02f75063          	bge	a4,a5,8874 <_svfprintf_r+0x1a6c>
    8858:	0c410613          	addi	a2,sp,196
    885c:	00098593          	mv	a1,s3
    8860:	00090513          	mv	a0,s2
    8864:	00006097          	auipc	ra,0x6
    8868:	b4c080e7          	jalr	-1204(ra) # e3b0 <__ssprint_r>
    886c:	54051663          	bnez	a0,8db8 <_svfprintf_r+0x1fb0>
    8870:	0ec10c13          	addi	s8,sp,236
    8874:	014484b3          	add	s1,s1,s4
    8878:	415487b3          	sub	a5,s1,s5
    887c:	0ac12483          	lw	s1,172(sp)
    8880:	409a04b3          	sub	s1,s4,s1
    8884:	0097d463          	bge	a5,s1,888c <_svfprintf_r+0x1a84>
    8888:	00078493          	mv	s1,a5
    888c:	04905663          	blez	s1,88d8 <_svfprintf_r+0x1ad0>
    8890:	0cc12783          	lw	a5,204(sp)
    8894:	015c2023          	sw	s5,0(s8)
    8898:	009c2223          	sw	s1,4(s8)
    889c:	00f487b3          	add	a5,s1,a5
    88a0:	0cf12623          	sw	a5,204(sp)
    88a4:	0c812783          	lw	a5,200(sp)
    88a8:	00700713          	li	a4,7
    88ac:	008c0c13          	addi	s8,s8,8
    88b0:	00178793          	addi	a5,a5,1
    88b4:	0cf12423          	sw	a5,200(sp)
    88b8:	02f75063          	bge	a4,a5,88d8 <_svfprintf_r+0x1ad0>
    88bc:	0c410613          	addi	a2,sp,196
    88c0:	00098593          	mv	a1,s3
    88c4:	00090513          	mv	a0,s2
    88c8:	00006097          	auipc	ra,0x6
    88cc:	ae8080e7          	jalr	-1304(ra) # e3b0 <__ssprint_r>
    88d0:	4e051463          	bnez	a0,8db8 <_svfprintf_r+0x1fb0>
    88d4:	0ec10c13          	addi	s8,sp,236
    88d8:	00048793          	mv	a5,s1
    88dc:	0004d463          	bgez	s1,88e4 <_svfprintf_r+0x1adc>
    88e0:	00000793          	li	a5,0
    88e4:	0ac12483          	lw	s1,172(sp)
    88e8:	409a04b3          	sub	s1,s4,s1
    88ec:	40f484b3          	sub	s1,s1,a5
    88f0:	da9050e3          	blez	s1,8690 <_svfprintf_r+0x1888>
    88f4:	01000a93          	li	s5,16
    88f8:	00700b93          	li	s7,7
    88fc:	0c812783          	lw	a5,200(sp)
    8900:	7fff8617          	auipc	a2,0x7fff8
    8904:	23c60613          	addi	a2,a2,572 # 80000b3c <zeroes.4499>
    8908:	00cc2023          	sw	a2,0(s8)
    890c:	0cc12703          	lw	a4,204(sp)
    8910:	00178793          	addi	a5,a5,1
    8914:	008c0693          	addi	a3,s8,8
    8918:	bc9ad2e3          	bge	s5,s1,84dc <_svfprintf_r+0x16d4>
    891c:	01070713          	addi	a4,a4,16
    8920:	015c2223          	sw	s5,4(s8)
    8924:	0ce12623          	sw	a4,204(sp)
    8928:	0cf12423          	sw	a5,200(sp)
    892c:	02fbd063          	bge	s7,a5,894c <_svfprintf_r+0x1b44>
    8930:	0c410613          	addi	a2,sp,196
    8934:	00098593          	mv	a1,s3
    8938:	00090513          	mv	a0,s2
    893c:	00006097          	auipc	ra,0x6
    8940:	a74080e7          	jalr	-1420(ra) # e3b0 <__ssprint_r>
    8944:	46051a63          	bnez	a0,8db8 <_svfprintf_r+0x1fb0>
    8948:	0ec10693          	addi	a3,sp,236
    894c:	ff048493          	addi	s1,s1,-16
    8950:	00068c13          	mv	s8,a3
    8954:	fa9ff06f          	j	88fc <_svfprintf_r+0x1af4>
    8958:	01068693          	addi	a3,a3,16
    895c:	01ac2223          	sw	s10,4(s8)
    8960:	0cd12623          	sw	a3,204(sp)
    8964:	0ce12423          	sw	a4,200(sp)
    8968:	02edd063          	bge	s11,a4,8988 <_svfprintf_r+0x1b80>
    896c:	0c410613          	addi	a2,sp,196
    8970:	00098593          	mv	a1,s3
    8974:	00090513          	mv	a0,s2
    8978:	00006097          	auipc	ra,0x6
    897c:	a38080e7          	jalr	-1480(ra) # e3b0 <__ssprint_r>
    8980:	42051c63          	bnez	a0,8db8 <_svfprintf_r+0x1fb0>
    8984:	0ec10613          	addi	a2,sp,236
    8988:	ff0a8a93          	addi	s5,s5,-16
    898c:	00060c13          	mv	s8,a2
    8990:	dfdff06f          	j	878c <_svfprintf_r+0x1984>
    8994:	0e078a63          	beqz	a5,8a88 <_svfprintf_r+0x1c80>
    8998:	00812783          	lw	a5,8(sp)
    899c:	fff78793          	addi	a5,a5,-1
    89a0:	00f12423          	sw	a5,8(sp)
    89a4:	02c12783          	lw	a5,44(sp)
    89a8:	02412703          	lw	a4,36(sp)
    89ac:	008c0c13          	addi	s8,s8,8
    89b0:	fefc2c23          	sw	a5,-8(s8)
    89b4:	02412783          	lw	a5,36(sp)
    89b8:	fefc2e23          	sw	a5,-4(s8)
    89bc:	0cc12783          	lw	a5,204(sp)
    89c0:	00e787b3          	add	a5,a5,a4
    89c4:	0cf12623          	sw	a5,204(sp)
    89c8:	0c812783          	lw	a5,200(sp)
    89cc:	00178793          	addi	a5,a5,1
    89d0:	0cf12423          	sw	a5,200(sp)
    89d4:	02fd5063          	bge	s10,a5,89f4 <_svfprintf_r+0x1bec>
    89d8:	0c410613          	addi	a2,sp,196
    89dc:	00098593          	mv	a1,s3
    89e0:	00090513          	mv	a0,s2
    89e4:	00006097          	auipc	ra,0x6
    89e8:	9cc080e7          	jalr	-1588(ra) # e3b0 <__ssprint_r>
    89ec:	3c051663          	bnez	a0,8db8 <_svfprintf_r+0x1fb0>
    89f0:	0ec10c13          	addi	s8,sp,236
    89f4:	00412783          	lw	a5,4(sp)
    89f8:	415d8733          	sub	a4,s11,s5
    89fc:	0007c783          	lbu	a5,0(a5)
    8a00:	00f75463          	bge	a4,a5,8a08 <_svfprintf_r+0x1c00>
    8a04:	00070793          	mv	a5,a4
    8a08:	04f05863          	blez	a5,8a58 <_svfprintf_r+0x1c50>
    8a0c:	0cc12703          	lw	a4,204(sp)
    8a10:	015c2023          	sw	s5,0(s8)
    8a14:	00fc2223          	sw	a5,4(s8)
    8a18:	00e78733          	add	a4,a5,a4
    8a1c:	0ce12623          	sw	a4,204(sp)
    8a20:	0c812703          	lw	a4,200(sp)
    8a24:	008c0c13          	addi	s8,s8,8
    8a28:	00170713          	addi	a4,a4,1
    8a2c:	0ce12423          	sw	a4,200(sp)
    8a30:	02ed5463          	bge	s10,a4,8a58 <_svfprintf_r+0x1c50>
    8a34:	0c410613          	addi	a2,sp,196
    8a38:	00098593          	mv	a1,s3
    8a3c:	00090513          	mv	a0,s2
    8a40:	02f12c23          	sw	a5,56(sp)
    8a44:	00006097          	auipc	ra,0x6
    8a48:	96c080e7          	jalr	-1684(ra) # e3b0 <__ssprint_r>
    8a4c:	36051663          	bnez	a0,8db8 <_svfprintf_r+0x1fb0>
    8a50:	03812783          	lw	a5,56(sp)
    8a54:	0ec10c13          	addi	s8,sp,236
    8a58:	00078713          	mv	a4,a5
    8a5c:	0007d463          	bgez	a5,8a64 <_svfprintf_r+0x1c5c>
    8a60:	00000713          	li	a4,0
    8a64:	00412783          	lw	a5,4(sp)
    8a68:	01000813          	li	a6,16
    8a6c:	0007c783          	lbu	a5,0(a5)
    8a70:	40e787b3          	sub	a5,a5,a4
    8a74:	06f04663          	bgtz	a5,8ae0 <_svfprintf_r+0x1cd8>
    8a78:	00412783          	lw	a5,4(sp)
    8a7c:	0007c783          	lbu	a5,0(a5)
    8a80:	00fa8ab3          	add	s5,s5,a5
    8a84:	d75ff06f          	j	87f8 <_svfprintf_r+0x19f0>
    8a88:	00412783          	lw	a5,4(sp)
    8a8c:	fffb8b93          	addi	s7,s7,-1
    8a90:	fff78793          	addi	a5,a5,-1
    8a94:	00f12223          	sw	a5,4(sp)
    8a98:	f0dff06f          	j	89a4 <_svfprintf_r+0x1b9c>
    8a9c:	01068693          	addi	a3,a3,16
    8aa0:	010c2223          	sw	a6,4(s8)
    8aa4:	0cd12623          	sw	a3,204(sp)
    8aa8:	0ce12423          	sw	a4,200(sp)
    8aac:	02ed5663          	bge	s10,a4,8ad8 <_svfprintf_r+0x1cd0>
    8ab0:	0c410613          	addi	a2,sp,196
    8ab4:	00098593          	mv	a1,s3
    8ab8:	00090513          	mv	a0,s2
    8abc:	02f12c23          	sw	a5,56(sp)
    8ac0:	00006097          	auipc	ra,0x6
    8ac4:	8f0080e7          	jalr	-1808(ra) # e3b0 <__ssprint_r>
    8ac8:	2e051863          	bnez	a0,8db8 <_svfprintf_r+0x1fb0>
    8acc:	03812783          	lw	a5,56(sp)
    8ad0:	0ec10613          	addi	a2,sp,236
    8ad4:	01000813          	li	a6,16
    8ad8:	ff078793          	addi	a5,a5,-16
    8adc:	00060c13          	mv	s8,a2
    8ae0:	0c812703          	lw	a4,200(sp)
    8ae4:	7fff8597          	auipc	a1,0x7fff8
    8ae8:	05858593          	addi	a1,a1,88 # 80000b3c <zeroes.4499>
    8aec:	00bc2023          	sw	a1,0(s8)
    8af0:	0cc12683          	lw	a3,204(sp)
    8af4:	00170713          	addi	a4,a4,1
    8af8:	008c0613          	addi	a2,s8,8
    8afc:	faf840e3          	blt	a6,a5,8a9c <_svfprintf_r+0x1c94>
    8b00:	00fc2223          	sw	a5,4(s8)
    8b04:	00d787b3          	add	a5,a5,a3
    8b08:	0cf12623          	sw	a5,204(sp)
    8b0c:	0ce12423          	sw	a4,200(sp)
    8b10:	00060c13          	mv	s8,a2
    8b14:	f6ed52e3          	bge	s10,a4,8a78 <_svfprintf_r+0x1c70>
    8b18:	0c410613          	addi	a2,sp,196
    8b1c:	00098593          	mv	a1,s3
    8b20:	00090513          	mv	a0,s2
    8b24:	00006097          	auipc	ra,0x6
    8b28:	88c080e7          	jalr	-1908(ra) # e3b0 <__ssprint_r>
    8b2c:	28051663          	bnez	a0,8db8 <_svfprintf_r+0x1fb0>
    8b30:	0ec10c13          	addi	s8,sp,236
    8b34:	f45ff06f          	j	8a78 <_svfprintf_r+0x1c70>
    8b38:	0c812783          	lw	a5,200(sp)
    8b3c:	00100713          	li	a4,1
    8b40:	009c2023          	sw	s1,0(s8)
    8b44:	001d0d13          	addi	s10,s10,1
    8b48:	00178793          	addi	a5,a5,1
    8b4c:	008c0b93          	addi	s7,s8,8
    8b50:	01474663          	blt	a4,s4,8b5c <_svfprintf_r+0x1d54>
    8b54:	00147693          	andi	a3,s0,1
    8b58:	1e068263          	beqz	a3,8d3c <_svfprintf_r+0x1f34>
    8b5c:	00100713          	li	a4,1
    8b60:	00ec2223          	sw	a4,4(s8)
    8b64:	0da12623          	sw	s10,204(sp)
    8b68:	0cf12423          	sw	a5,200(sp)
    8b6c:	00700713          	li	a4,7
    8b70:	02f75063          	bge	a4,a5,8b90 <_svfprintf_r+0x1d88>
    8b74:	0c410613          	addi	a2,sp,196
    8b78:	00098593          	mv	a1,s3
    8b7c:	00090513          	mv	a0,s2
    8b80:	00006097          	auipc	ra,0x6
    8b84:	830080e7          	jalr	-2000(ra) # e3b0 <__ssprint_r>
    8b88:	22051863          	bnez	a0,8db8 <_svfprintf_r+0x1fb0>
    8b8c:	0ec10b93          	addi	s7,sp,236
    8b90:	02812783          	lw	a5,40(sp)
    8b94:	01412703          	lw	a4,20(sp)
    8b98:	008b8b93          	addi	s7,s7,8
    8b9c:	fefbac23          	sw	a5,-8(s7)
    8ba0:	01412783          	lw	a5,20(sp)
    8ba4:	fefbae23          	sw	a5,-4(s7)
    8ba8:	0cc12783          	lw	a5,204(sp)
    8bac:	00e787b3          	add	a5,a5,a4
    8bb0:	0cf12623          	sw	a5,204(sp)
    8bb4:	0c812783          	lw	a5,200(sp)
    8bb8:	00700713          	li	a4,7
    8bbc:	00178793          	addi	a5,a5,1
    8bc0:	0cf12423          	sw	a5,200(sp)
    8bc4:	02f75063          	bge	a4,a5,8be4 <_svfprintf_r+0x1ddc>
    8bc8:	0c410613          	addi	a2,sp,196
    8bcc:	00098593          	mv	a1,s3
    8bd0:	00090513          	mv	a0,s2
    8bd4:	00005097          	auipc	ra,0x5
    8bd8:	7dc080e7          	jalr	2012(ra) # e3b0 <__ssprint_r>
    8bdc:	1c051e63          	bnez	a0,8db8 <_svfprintf_r+0x1fb0>
    8be0:	0ec10b93          	addi	s7,sp,236
    8be4:	0d012783          	lw	a5,208(sp)
    8be8:	08010593          	addi	a1,sp,128
    8bec:	09010513          	addi	a0,sp,144
    8bf0:	08f12823          	sw	a5,144(sp)
    8bf4:	0d412783          	lw	a5,212(sp)
    8bf8:	fffa0a93          	addi	s5,s4,-1
    8bfc:	08012023          	sw	zero,128(sp)
    8c00:	08f12a23          	sw	a5,148(sp)
    8c04:	0d812783          	lw	a5,216(sp)
    8c08:	08012223          	sw	zero,132(sp)
    8c0c:	08012423          	sw	zero,136(sp)
    8c10:	08f12c23          	sw	a5,152(sp)
    8c14:	0dc12783          	lw	a5,220(sp)
    8c18:	08012623          	sw	zero,140(sp)
    8c1c:	08f12e23          	sw	a5,156(sp)
    8c20:	00007097          	auipc	ra,0x7
    8c24:	678080e7          	jalr	1656(ra) # 10298 <__eqtf2>
    8c28:	08050863          	beqz	a0,8cb8 <_svfprintf_r+0x1eb0>
    8c2c:	0cc12783          	lw	a5,204(sp)
    8c30:	0c812703          	lw	a4,200(sp)
    8c34:	00148493          	addi	s1,s1,1
    8c38:	fff78793          	addi	a5,a5,-1
    8c3c:	014787b3          	add	a5,a5,s4
    8c40:	00170713          	addi	a4,a4,1
    8c44:	009ba023          	sw	s1,0(s7)
    8c48:	015ba223          	sw	s5,4(s7)
    8c4c:	0cf12623          	sw	a5,204(sp)
    8c50:	0ce12423          	sw	a4,200(sp)
    8c54:	00700793          	li	a5,7
    8c58:	008b8b93          	addi	s7,s7,8
    8c5c:	02e7d063          	bge	a5,a4,8c7c <_svfprintf_r+0x1e74>
    8c60:	0c410613          	addi	a2,sp,196
    8c64:	00098593          	mv	a1,s3
    8c68:	00090513          	mv	a0,s2
    8c6c:	00005097          	auipc	ra,0x5
    8c70:	744080e7          	jalr	1860(ra) # e3b0 <__ssprint_r>
    8c74:	14051263          	bnez	a0,8db8 <_svfprintf_r+0x1fb0>
    8c78:	0ec10b93          	addi	s7,sp,236
    8c7c:	0b410793          	addi	a5,sp,180
    8c80:	00fba023          	sw	a5,0(s7)
    8c84:	03012783          	lw	a5,48(sp)
    8c88:	03012703          	lw	a4,48(sp)
    8c8c:	008b8c13          	addi	s8,s7,8
    8c90:	00fba223          	sw	a5,4(s7)
    8c94:	0cc12783          	lw	a5,204(sp)
    8c98:	00e787b3          	add	a5,a5,a4
    8c9c:	0cf12623          	sw	a5,204(sp)
    8ca0:	0c812783          	lw	a5,200(sp)
    8ca4:	00700713          	li	a4,7
    8ca8:	00178793          	addi	a5,a5,1
    8cac:	0cf12423          	sw	a5,200(sp)
    8cb0:	9ef750e3          	bge	a4,a5,8690 <_svfprintf_r+0x1888>
    8cb4:	f7cfe06f          	j	7430 <_svfprintf_r+0x628>
    8cb8:	fd5052e3          	blez	s5,8c7c <_svfprintf_r+0x1e74>
    8cbc:	01000493          	li	s1,16
    8cc0:	00700c13          	li	s8,7
    8cc4:	0c812703          	lw	a4,200(sp)
    8cc8:	7fff8617          	auipc	a2,0x7fff8
    8ccc:	e7460613          	addi	a2,a2,-396 # 80000b3c <zeroes.4499>
    8cd0:	00cba023          	sw	a2,0(s7)
    8cd4:	0cc12783          	lw	a5,204(sp)
    8cd8:	00170713          	addi	a4,a4,1
    8cdc:	008b8693          	addi	a3,s7,8
    8ce0:	0354c063          	blt	s1,s5,8d00 <_svfprintf_r+0x1ef8>
    8ce4:	00fa87b3          	add	a5,s5,a5
    8ce8:	015ba223          	sw	s5,4(s7)
    8cec:	0cf12623          	sw	a5,204(sp)
    8cf0:	0ce12423          	sw	a4,200(sp)
    8cf4:	00700793          	li	a5,7
    8cf8:	00068b93          	mv	s7,a3
    8cfc:	f61ff06f          	j	8c5c <_svfprintf_r+0x1e54>
    8d00:	01078793          	addi	a5,a5,16
    8d04:	009ba223          	sw	s1,4(s7)
    8d08:	0cf12623          	sw	a5,204(sp)
    8d0c:	0ce12423          	sw	a4,200(sp)
    8d10:	02ec5063          	bge	s8,a4,8d30 <_svfprintf_r+0x1f28>
    8d14:	0c410613          	addi	a2,sp,196
    8d18:	00098593          	mv	a1,s3
    8d1c:	00090513          	mv	a0,s2
    8d20:	00005097          	auipc	ra,0x5
    8d24:	690080e7          	jalr	1680(ra) # e3b0 <__ssprint_r>
    8d28:	08051863          	bnez	a0,8db8 <_svfprintf_r+0x1fb0>
    8d2c:	0ec10693          	addi	a3,sp,236
    8d30:	ff0a8a93          	addi	s5,s5,-16
    8d34:	00068b93          	mv	s7,a3
    8d38:	f8dff06f          	j	8cc4 <_svfprintf_r+0x1ebc>
    8d3c:	00ec2223          	sw	a4,4(s8)
    8d40:	0da12623          	sw	s10,204(sp)
    8d44:	0cf12423          	sw	a5,200(sp)
    8d48:	00700713          	li	a4,7
    8d4c:	f2f758e3          	bge	a4,a5,8c7c <_svfprintf_r+0x1e74>
    8d50:	f11ff06f          	j	8c60 <_svfprintf_r+0x1e58>
    8d54:	01c12783          	lw	a5,28(sp)
    8d58:	02012703          	lw	a4,32(sp)
    8d5c:	40e78433          	sub	s0,a5,a4
    8d60:	92805ce3          	blez	s0,8698 <_svfprintf_r+0x1890>
    8d64:	01000a93          	li	s5,16
    8d68:	7fff8497          	auipc	s1,0x7fff8
    8d6c:	dc448493          	addi	s1,s1,-572 # 80000b2c <blanks.4498>
    8d70:	00700b93          	li	s7,7
    8d74:	0c812783          	lw	a5,200(sp)
    8d78:	009c2023          	sw	s1,0(s8)
    8d7c:	0cc12703          	lw	a4,204(sp)
    8d80:	00178793          	addi	a5,a5,1
    8d84:	048ac863          	blt	s5,s0,8dd4 <_svfprintf_r+0x1fcc>
    8d88:	008c2223          	sw	s0,4(s8)
    8d8c:	00e40433          	add	s0,s0,a4
    8d90:	0c812623          	sw	s0,204(sp)
    8d94:	0cf12423          	sw	a5,200(sp)
    8d98:	00700713          	li	a4,7
    8d9c:	8ef75ee3          	bge	a4,a5,8698 <_svfprintf_r+0x1890>
    8da0:	0c410613          	addi	a2,sp,196
    8da4:	00098593          	mv	a1,s3
    8da8:	00090513          	mv	a0,s2
    8dac:	00005097          	auipc	ra,0x5
    8db0:	604080e7          	jalr	1540(ra) # e3b0 <__ssprint_r>
    8db4:	8e0502e3          	beqz	a0,8698 <_svfprintf_r+0x1890>
    8db8:	000b1463          	bnez	s6,8dc0 <_svfprintf_r+0x1fb8>
    8dbc:	8e5fe06f          	j	76a0 <_svfprintf_r+0x898>
    8dc0:	000b0593          	mv	a1,s6
    8dc4:	00090513          	mv	a0,s2
    8dc8:	00002097          	auipc	ra,0x2
    8dcc:	be0080e7          	jalr	-1056(ra) # a9a8 <_free_r>
    8dd0:	8d1fe06f          	j	76a0 <_svfprintf_r+0x898>
    8dd4:	01070713          	addi	a4,a4,16
    8dd8:	015c2223          	sw	s5,4(s8)
    8ddc:	0ce12623          	sw	a4,204(sp)
    8de0:	0cf12423          	sw	a5,200(sp)
    8de4:	008c0c13          	addi	s8,s8,8
    8de8:	02fbd063          	bge	s7,a5,8e08 <_svfprintf_r+0x2000>
    8dec:	0c410613          	addi	a2,sp,196
    8df0:	00098593          	mv	a1,s3
    8df4:	00090513          	mv	a0,s2
    8df8:	00005097          	auipc	ra,0x5
    8dfc:	5b8080e7          	jalr	1464(ra) # e3b0 <__ssprint_r>
    8e00:	fa051ce3          	bnez	a0,8db8 <_svfprintf_r+0x1fb0>
    8e04:	0ec10c13          	addi	s8,sp,236
    8e08:	ff040413          	addi	s0,s0,-16
    8e0c:	f69ff06f          	j	8d74 <_svfprintf_r+0x1f6c>
    8e10:	000b0593          	mv	a1,s6
    8e14:	00090513          	mv	a0,s2
    8e18:	00002097          	auipc	ra,0x2
    8e1c:	b90080e7          	jalr	-1136(ra) # a9a8 <_free_r>
    8e20:	8bdff06f          	j	86dc <_svfprintf_r+0x18d4>
    8e24:	0cc12783          	lw	a5,204(sp)
    8e28:	00079463          	bnez	a5,8e30 <_svfprintf_r+0x2028>
    8e2c:	875fe06f          	j	76a0 <_svfprintf_r+0x898>
    8e30:	0c410613          	addi	a2,sp,196
    8e34:	00098593          	mv	a1,s3
    8e38:	00090513          	mv	a0,s2
    8e3c:	00005097          	auipc	ra,0x5
    8e40:	574080e7          	jalr	1396(ra) # e3b0 <__ssprint_r>
    8e44:	85dfe06f          	j	76a0 <_svfprintf_r+0x898>
    8e48:	fff00793          	li	a5,-1
    8e4c:	aafd9c63          	bne	s11,a5,8104 <_svfprintf_r+0x12fc>
    8e50:	b20c9e63          	bnez	s9,818c <_svfprintf_r+0x1384>
    8e54:	00900793          	li	a5,9
    8e58:	b3a7ea63          	bltu	a5,s10,818c <_svfprintf_r+0x1384>
    8e5c:	030d0d13          	addi	s10,s10,48
    8e60:	19a107a3          	sb	s10,399(sp)
    8e64:	18f10493          	addi	s1,sp,399
    8e68:	afcff06f          	j	8164 <_svfprintf_r+0x135c>

00008e6c <__sprint_r>:
    8e6c:	00862783          	lw	a5,8(a2)
    8e70:	fd010113          	addi	sp,sp,-48
    8e74:	02812423          	sw	s0,40(sp)
    8e78:	02112623          	sw	ra,44(sp)
    8e7c:	02912223          	sw	s1,36(sp)
    8e80:	03212023          	sw	s2,32(sp)
    8e84:	01312e23          	sw	s3,28(sp)
    8e88:	01412c23          	sw	s4,24(sp)
    8e8c:	01512a23          	sw	s5,20(sp)
    8e90:	01612823          	sw	s6,16(sp)
    8e94:	01712623          	sw	s7,12(sp)
    8e98:	01812423          	sw	s8,8(sp)
    8e9c:	00060413          	mv	s0,a2
    8ea0:	02079e63          	bnez	a5,8edc <__sprint_r+0x70>
    8ea4:	00062223          	sw	zero,4(a2)
    8ea8:	00000513          	li	a0,0
    8eac:	02c12083          	lw	ra,44(sp)
    8eb0:	02812403          	lw	s0,40(sp)
    8eb4:	02412483          	lw	s1,36(sp)
    8eb8:	02012903          	lw	s2,32(sp)
    8ebc:	01c12983          	lw	s3,28(sp)
    8ec0:	01812a03          	lw	s4,24(sp)
    8ec4:	01412a83          	lw	s5,20(sp)
    8ec8:	01012b03          	lw	s6,16(sp)
    8ecc:	00c12b83          	lw	s7,12(sp)
    8ed0:	00812c03          	lw	s8,8(sp)
    8ed4:	03010113          	addi	sp,sp,48
    8ed8:	00008067          	ret
    8edc:	0645a783          	lw	a5,100(a1)
    8ee0:	00058993          	mv	s3,a1
    8ee4:	01279713          	slli	a4,a5,0x12
    8ee8:	06075a63          	bgez	a4,8f5c <__sprint_r+0xf0>
    8eec:	00062483          	lw	s1,0(a2)
    8ef0:	00050a93          	mv	s5,a0
    8ef4:	fff00b13          	li	s6,-1
    8ef8:	0044a903          	lw	s2,4(s1)
    8efc:	0004ac03          	lw	s8,0(s1)
    8f00:	00000a13          	li	s4,0
    8f04:	00295b93          	srli	s7,s2,0x2
    8f08:	037a4663          	blt	s4,s7,8f34 <__sprint_r+0xc8>
    8f0c:	00842783          	lw	a5,8(s0)
    8f10:	ffc97913          	andi	s2,s2,-4
    8f14:	00848493          	addi	s1,s1,8
    8f18:	412787b3          	sub	a5,a5,s2
    8f1c:	00f42423          	sw	a5,8(s0)
    8f20:	fc079ce3          	bnez	a5,8ef8 <__sprint_r+0x8c>
    8f24:	00000513          	li	a0,0
    8f28:	00042423          	sw	zero,8(s0)
    8f2c:	00042223          	sw	zero,4(s0)
    8f30:	f7dff06f          	j	8eac <__sprint_r+0x40>
    8f34:	002a1793          	slli	a5,s4,0x2
    8f38:	00fc07b3          	add	a5,s8,a5
    8f3c:	0007a583          	lw	a1,0(a5)
    8f40:	00098613          	mv	a2,s3
    8f44:	000a8513          	mv	a0,s5
    8f48:	00002097          	auipc	ra,0x2
    8f4c:	890080e7          	jalr	-1904(ra) # a7d8 <_fputwc_r>
    8f50:	01650c63          	beq	a0,s6,8f68 <__sprint_r+0xfc>
    8f54:	001a0a13          	addi	s4,s4,1
    8f58:	fb1ff06f          	j	8f08 <__sprint_r+0x9c>
    8f5c:	ffffc097          	auipc	ra,0xffffc
    8f60:	5ac080e7          	jalr	1452(ra) # 5508 <__sfvwrite_r>
    8f64:	fc5ff06f          	j	8f28 <__sprint_r+0xbc>
    8f68:	fff00513          	li	a0,-1
    8f6c:	fbdff06f          	j	8f28 <__sprint_r+0xbc>

00008f70 <_vfiprintf_r>:
    8f70:	ee010113          	addi	sp,sp,-288
    8f74:	10812c23          	sw	s0,280(sp)
    8f78:	11212823          	sw	s2,272(sp)
    8f7c:	11312623          	sw	s3,268(sp)
    8f80:	11512223          	sw	s5,260(sp)
    8f84:	10112e23          	sw	ra,284(sp)
    8f88:	10912a23          	sw	s1,276(sp)
    8f8c:	11412423          	sw	s4,264(sp)
    8f90:	11612023          	sw	s6,256(sp)
    8f94:	0f712e23          	sw	s7,252(sp)
    8f98:	0f812c23          	sw	s8,248(sp)
    8f9c:	0f912a23          	sw	s9,244(sp)
    8fa0:	0fa12823          	sw	s10,240(sp)
    8fa4:	0fb12623          	sw	s11,236(sp)
    8fa8:	00050993          	mv	s3,a0
    8fac:	00058413          	mv	s0,a1
    8fb0:	00060a93          	mv	s5,a2
    8fb4:	00068913          	mv	s2,a3
    8fb8:	00050a63          	beqz	a0,8fcc <_vfiprintf_r+0x5c>
    8fbc:	03852783          	lw	a5,56(a0)
    8fc0:	00079663          	bnez	a5,8fcc <_vfiprintf_r+0x5c>
    8fc4:	00001097          	auipc	ra,0x1
    8fc8:	520080e7          	jalr	1312(ra) # a4e4 <__sinit>
    8fcc:	00c41783          	lh	a5,12(s0)
    8fd0:	01279713          	slli	a4,a5,0x12
    8fd4:	02074263          	bltz	a4,8ff8 <_vfiprintf_r+0x88>
    8fd8:	000026b7          	lui	a3,0x2
    8fdc:	06442703          	lw	a4,100(s0)
    8fe0:	00d7e7b3          	or	a5,a5,a3
    8fe4:	00f41623          	sh	a5,12(s0)
    8fe8:	ffffe7b7          	lui	a5,0xffffe
    8fec:	fff78793          	addi	a5,a5,-1 # ffffdfff <__stack_top+0x7ffb417f>
    8ff0:	00f777b3          	and	a5,a4,a5
    8ff4:	06f42223          	sw	a5,100(s0)
    8ff8:	00c45783          	lhu	a5,12(s0)
    8ffc:	0087f793          	andi	a5,a5,8
    9000:	04078263          	beqz	a5,9044 <_vfiprintf_r+0xd4>
    9004:	01042783          	lw	a5,16(s0)
    9008:	02078e63          	beqz	a5,9044 <_vfiprintf_r+0xd4>
    900c:	00c45783          	lhu	a5,12(s0)
    9010:	00a00713          	li	a4,10
    9014:	01a7f793          	andi	a5,a5,26
    9018:	08e79263          	bne	a5,a4,909c <_vfiprintf_r+0x12c>
    901c:	00e41783          	lh	a5,14(s0)
    9020:	0607ce63          	bltz	a5,909c <_vfiprintf_r+0x12c>
    9024:	00090693          	mv	a3,s2
    9028:	000a8613          	mv	a2,s5
    902c:	00040593          	mv	a1,s0
    9030:	00098513          	mv	a0,s3
    9034:	00001097          	auipc	ra,0x1
    9038:	c58080e7          	jalr	-936(ra) # 9c8c <__sbprintf>
    903c:	00050b93          	mv	s7,a0
    9040:	01c0006f          	j	905c <_vfiprintf_r+0xec>
    9044:	00040593          	mv	a1,s0
    9048:	00098513          	mv	a0,s3
    904c:	00001097          	auipc	ra,0x1
    9050:	f78080e7          	jalr	-136(ra) # 9fc4 <__swsetup_r>
    9054:	fa050ce3          	beqz	a0,900c <_vfiprintf_r+0x9c>
    9058:	fff00b93          	li	s7,-1
    905c:	11c12083          	lw	ra,284(sp)
    9060:	11812403          	lw	s0,280(sp)
    9064:	000b8513          	mv	a0,s7
    9068:	11412483          	lw	s1,276(sp)
    906c:	11012903          	lw	s2,272(sp)
    9070:	10c12983          	lw	s3,268(sp)
    9074:	10812a03          	lw	s4,264(sp)
    9078:	10412a83          	lw	s5,260(sp)
    907c:	10012b03          	lw	s6,256(sp)
    9080:	0fc12b83          	lw	s7,252(sp)
    9084:	0f812c03          	lw	s8,248(sp)
    9088:	0f412c83          	lw	s9,244(sp)
    908c:	0f012d03          	lw	s10,240(sp)
    9090:	0ec12d83          	lw	s11,236(sp)
    9094:	12010113          	addi	sp,sp,288
    9098:	00008067          	ret
    909c:	03c10b13          	addi	s6,sp,60
    90a0:	03612823          	sw	s6,48(sp)
    90a4:	02012c23          	sw	zero,56(sp)
    90a8:	02012a23          	sw	zero,52(sp)
    90ac:	000b0713          	mv	a4,s6
    90b0:	00012423          	sw	zero,8(sp)
    90b4:	00012223          	sw	zero,4(sp)
    90b8:	00012623          	sw	zero,12(sp)
    90bc:	00012823          	sw	zero,16(sp)
    90c0:	00000b93          	li	s7,0
    90c4:	000a8493          	mv	s1,s5
    90c8:	02500693          	li	a3,37
    90cc:	0004c783          	lbu	a5,0(s1)
    90d0:	00078463          	beqz	a5,90d8 <_vfiprintf_r+0x168>
    90d4:	0ad79663          	bne	a5,a3,9180 <_vfiprintf_r+0x210>
    90d8:	41548a33          	sub	s4,s1,s5
    90dc:	040a0863          	beqz	s4,912c <_vfiprintf_r+0x1bc>
    90e0:	03812783          	lw	a5,56(sp)
    90e4:	01572023          	sw	s5,0(a4)
    90e8:	01472223          	sw	s4,4(a4)
    90ec:	014787b3          	add	a5,a5,s4
    90f0:	02f12c23          	sw	a5,56(sp)
    90f4:	03412783          	lw	a5,52(sp)
    90f8:	00700693          	li	a3,7
    90fc:	00870713          	addi	a4,a4,8
    9100:	00178793          	addi	a5,a5,1
    9104:	02f12a23          	sw	a5,52(sp)
    9108:	02f6d063          	bge	a3,a5,9128 <_vfiprintf_r+0x1b8>
    910c:	03010613          	addi	a2,sp,48
    9110:	00040593          	mv	a1,s0
    9114:	00098513          	mv	a0,s3
    9118:	00000097          	auipc	ra,0x0
    911c:	d54080e7          	jalr	-684(ra) # 8e6c <__sprint_r>
    9120:	2a051ee3          	bnez	a0,9bdc <_vfiprintf_r+0xc6c>
    9124:	000b0713          	mv	a4,s6
    9128:	014b8bb3          	add	s7,s7,s4
    912c:	0004c783          	lbu	a5,0(s1)
    9130:	2e078ce3          	beqz	a5,9c28 <_vfiprintf_r+0xcb8>
    9134:	00148693          	addi	a3,s1,1
    9138:	020105a3          	sb	zero,43(sp)
    913c:	fff00493          	li	s1,-1
    9140:	00000a13          	li	s4,0
    9144:	00000d13          	li	s10,0
    9148:	00900c13          	li	s8,9
    914c:	02a00c93          	li	s9,42
    9150:	0006c603          	lbu	a2,0(a3) # 2000 <DebugLog+0xc>
    9154:	00168a93          	addi	s5,a3,1
    9158:	05a00513          	li	a0,90
    915c:	fe060693          	addi	a3,a2,-32
    9160:	12d562e3          	bltu	a0,a3,9a84 <_vfiprintf_r+0xb14>
    9164:	7fff8797          	auipc	a5,0x7fff8
    9168:	a2478793          	addi	a5,a5,-1500 # 80000b88 <zeroes.4499+0x4c>
    916c:	00269693          	slli	a3,a3,0x2
    9170:	00f686b3          	add	a3,a3,a5
    9174:	0006a683          	lw	a3,0(a3)
    9178:	00f686b3          	add	a3,a3,a5
    917c:	00068067          	jr	a3
    9180:	00148493          	addi	s1,s1,1
    9184:	f49ff06f          	j	90cc <_vfiprintf_r+0x15c>
    9188:	7fff8797          	auipc	a5,0x7fff8
    918c:	9d478793          	addi	a5,a5,-1580 # 80000b5c <zeroes.4499+0x20>
    9190:	00f12423          	sw	a5,8(sp)
    9194:	020d7693          	andi	a3,s10,32
    9198:	6e068863          	beqz	a3,9888 <_vfiprintf_r+0x918>
    919c:	00790913          	addi	s2,s2,7
    91a0:	ff897913          	andi	s2,s2,-8
    91a4:	00092d83          	lw	s11,0(s2)
    91a8:	00492c83          	lw	s9,4(s2)
    91ac:	00890c13          	addi	s8,s2,8
    91b0:	001d7693          	andi	a3,s10,1
    91b4:	00068e63          	beqz	a3,91d0 <_vfiprintf_r+0x260>
    91b8:	019de6b3          	or	a3,s11,s9
    91bc:	00068a63          	beqz	a3,91d0 <_vfiprintf_r+0x260>
    91c0:	03000693          	li	a3,48
    91c4:	02d10623          	sb	a3,44(sp)
    91c8:	02c106a3          	sb	a2,45(sp)
    91cc:	002d6d13          	ori	s10,s10,2
    91d0:	bffd7d13          	andi	s10,s10,-1025
    91d4:	3200006f          	j	94f4 <_vfiprintf_r+0x584>
    91d8:	00098513          	mv	a0,s3
    91dc:	00e12023          	sw	a4,0(sp)
    91e0:	00004097          	auipc	ra,0x4
    91e4:	e00080e7          	jalr	-512(ra) # cfe0 <_localeconv_r>
    91e8:	00452783          	lw	a5,4(a0)
    91ec:	00078513          	mv	a0,a5
    91f0:	00f12823          	sw	a5,16(sp)
    91f4:	ffffe097          	auipc	ra,0xffffe
    91f8:	bf8080e7          	jalr	-1032(ra) # 6dec <strlen>
    91fc:	00a12623          	sw	a0,12(sp)
    9200:	00098513          	mv	a0,s3
    9204:	00004097          	auipc	ra,0x4
    9208:	ddc080e7          	jalr	-548(ra) # cfe0 <_localeconv_r>
    920c:	00852783          	lw	a5,8(a0)
    9210:	00012703          	lw	a4,0(sp)
    9214:	00f12223          	sw	a5,4(sp)
    9218:	00c12783          	lw	a5,12(sp)
    921c:	00078c63          	beqz	a5,9234 <_vfiprintf_r+0x2c4>
    9220:	00412783          	lw	a5,4(sp)
    9224:	00078863          	beqz	a5,9234 <_vfiprintf_r+0x2c4>
    9228:	0007c683          	lbu	a3,0(a5)
    922c:	00068463          	beqz	a3,9234 <_vfiprintf_r+0x2c4>
    9230:	400d6d13          	ori	s10,s10,1024
    9234:	000a8693          	mv	a3,s5
    9238:	f19ff06f          	j	9150 <_vfiprintf_r+0x1e0>
    923c:	02b14683          	lbu	a3,43(sp)
    9240:	fe069ae3          	bnez	a3,9234 <_vfiprintf_r+0x2c4>
    9244:	02000693          	li	a3,32
    9248:	02d105a3          	sb	a3,43(sp)
    924c:	fe9ff06f          	j	9234 <_vfiprintf_r+0x2c4>
    9250:	001d6d13          	ori	s10,s10,1
    9254:	fe1ff06f          	j	9234 <_vfiprintf_r+0x2c4>
    9258:	00092a03          	lw	s4,0(s2)
    925c:	00490913          	addi	s2,s2,4
    9260:	fc0a5ae3          	bgez	s4,9234 <_vfiprintf_r+0x2c4>
    9264:	41400a33          	neg	s4,s4
    9268:	004d6d13          	ori	s10,s10,4
    926c:	fc9ff06f          	j	9234 <_vfiprintf_r+0x2c4>
    9270:	02b00693          	li	a3,43
    9274:	fd5ff06f          	j	9248 <_vfiprintf_r+0x2d8>
    9278:	000ac603          	lbu	a2,0(s5)
    927c:	001a8693          	addi	a3,s5,1
    9280:	05961263          	bne	a2,s9,92c4 <_vfiprintf_r+0x354>
    9284:	00092483          	lw	s1,0(s2)
    9288:	00490613          	addi	a2,s2,4
    928c:	0004d463          	bgez	s1,9294 <_vfiprintf_r+0x324>
    9290:	fff00493          	li	s1,-1
    9294:	00060913          	mv	s2,a2
    9298:	00068a93          	mv	s5,a3
    929c:	f99ff06f          	j	9234 <_vfiprintf_r+0x2c4>
    92a0:	00a00793          	li	a5,10
    92a4:	02f484b3          	mul	s1,s1,a5
    92a8:	00168693          	addi	a3,a3,1
    92ac:	fff6c603          	lbu	a2,-1(a3)
    92b0:	00b484b3          	add	s1,s1,a1
    92b4:	fd060593          	addi	a1,a2,-48
    92b8:	febc74e3          	bgeu	s8,a1,92a0 <_vfiprintf_r+0x330>
    92bc:	00068a93          	mv	s5,a3
    92c0:	e9dff06f          	j	915c <_vfiprintf_r+0x1ec>
    92c4:	00000493          	li	s1,0
    92c8:	fedff06f          	j	92b4 <_vfiprintf_r+0x344>
    92cc:	080d6d13          	ori	s10,s10,128
    92d0:	f65ff06f          	j	9234 <_vfiprintf_r+0x2c4>
    92d4:	000a8693          	mv	a3,s5
    92d8:	00000a13          	li	s4,0
    92dc:	00a00793          	li	a5,10
    92e0:	02fa0a33          	mul	s4,s4,a5
    92e4:	fd060613          	addi	a2,a2,-48
    92e8:	00168693          	addi	a3,a3,1
    92ec:	01460a33          	add	s4,a2,s4
    92f0:	fff6c603          	lbu	a2,-1(a3)
    92f4:	fd060593          	addi	a1,a2,-48
    92f8:	febc72e3          	bgeu	s8,a1,92dc <_vfiprintf_r+0x36c>
    92fc:	fc1ff06f          	j	92bc <_vfiprintf_r+0x34c>
    9300:	000ac603          	lbu	a2,0(s5)
    9304:	06800693          	li	a3,104
    9308:	00d61863          	bne	a2,a3,9318 <_vfiprintf_r+0x3a8>
    930c:	001a8a93          	addi	s5,s5,1
    9310:	200d6d13          	ori	s10,s10,512
    9314:	f21ff06f          	j	9234 <_vfiprintf_r+0x2c4>
    9318:	040d6d13          	ori	s10,s10,64
    931c:	f19ff06f          	j	9234 <_vfiprintf_r+0x2c4>
    9320:	000ac603          	lbu	a2,0(s5)
    9324:	06c00693          	li	a3,108
    9328:	00d61863          	bne	a2,a3,9338 <_vfiprintf_r+0x3c8>
    932c:	001a8a93          	addi	s5,s5,1
    9330:	020d6d13          	ori	s10,s10,32
    9334:	f01ff06f          	j	9234 <_vfiprintf_r+0x2c4>
    9338:	010d6d13          	ori	s10,s10,16
    933c:	ef9ff06f          	j	9234 <_vfiprintf_r+0x2c4>
    9340:	00092683          	lw	a3,0(s2)
    9344:	00490c13          	addi	s8,s2,4
    9348:	020105a3          	sb	zero,43(sp)
    934c:	06d10e23          	sb	a3,124(sp)
    9350:	00100493          	li	s1,1
    9354:	00000c93          	li	s9,0
    9358:	07c10913          	addi	s2,sp,124
    935c:	1dc0006f          	j	9538 <_vfiprintf_r+0x5c8>
    9360:	010d6d13          	ori	s10,s10,16
    9364:	020d7693          	andi	a3,s10,32
    9368:	06068263          	beqz	a3,93cc <_vfiprintf_r+0x45c>
    936c:	00790913          	addi	s2,s2,7
    9370:	ff897913          	andi	s2,s2,-8
    9374:	00092d83          	lw	s11,0(s2)
    9378:	00492c83          	lw	s9,4(s2)
    937c:	00890c13          	addi	s8,s2,8
    9380:	0c0cd4e3          	bgez	s9,9c48 <_vfiprintf_r+0xcd8>
    9384:	41b00333          	neg	t1,s11
    9388:	006036b3          	snez	a3,t1
    938c:	41900833          	neg	a6,s9
    9390:	40d80cb3          	sub	s9,a6,a3
    9394:	02d00693          	li	a3,45
    9398:	02d105a3          	sb	a3,43(sp)
    939c:	00030d93          	mv	s11,t1
    93a0:	00100693          	li	a3,1
    93a4:	fff00613          	li	a2,-1
    93a8:	52c48263          	beq	s1,a2,98cc <_vfiprintf_r+0x95c>
    93ac:	000d0613          	mv	a2,s10
    93b0:	019de5b3          	or	a1,s11,s9
    93b4:	f7fd7d13          	andi	s10,s10,-129
    93b8:	50059a63          	bnez	a1,98cc <_vfiprintf_r+0x95c>
    93bc:	6a048663          	beqz	s1,9a68 <_vfiprintf_r+0xaf8>
    93c0:	00100613          	li	a2,1
    93c4:	50c69863          	bne	a3,a2,98d4 <_vfiprintf_r+0x964>
    93c8:	0950006f          	j	9c5c <_vfiprintf_r+0xcec>
    93cc:	010d7693          	andi	a3,s10,16
    93d0:	00490c13          	addi	s8,s2,4
    93d4:	00068863          	beqz	a3,93e4 <_vfiprintf_r+0x474>
    93d8:	00092d83          	lw	s11,0(s2)
    93dc:	41fddc93          	srai	s9,s11,0x1f
    93e0:	fa1ff06f          	j	9380 <_vfiprintf_r+0x410>
    93e4:	040d7693          	andi	a3,s10,64
    93e8:	00092303          	lw	t1,0(s2)
    93ec:	00068863          	beqz	a3,93fc <_vfiprintf_r+0x48c>
    93f0:	01031d93          	slli	s11,t1,0x10
    93f4:	410ddd93          	srai	s11,s11,0x10
    93f8:	fe5ff06f          	j	93dc <_vfiprintf_r+0x46c>
    93fc:	200d7693          	andi	a3,s10,512
    9400:	00030d93          	mv	s11,t1
    9404:	fc068ce3          	beqz	a3,93dc <_vfiprintf_r+0x46c>
    9408:	01831d93          	slli	s11,t1,0x18
    940c:	418ddd93          	srai	s11,s11,0x18
    9410:	fcdff06f          	j	93dc <_vfiprintf_r+0x46c>
    9414:	020d7613          	andi	a2,s10,32
    9418:	00092683          	lw	a3,0(s2)
    941c:	00490913          	addi	s2,s2,4
    9420:	00060a63          	beqz	a2,9434 <_vfiprintf_r+0x4c4>
    9424:	41fbd793          	srai	a5,s7,0x1f
    9428:	0176a023          	sw	s7,0(a3)
    942c:	00f6a223          	sw	a5,4(a3)
    9430:	c95ff06f          	j	90c4 <_vfiprintf_r+0x154>
    9434:	010d7613          	andi	a2,s10,16
    9438:	00060663          	beqz	a2,9444 <_vfiprintf_r+0x4d4>
    943c:	0176a023          	sw	s7,0(a3)
    9440:	c85ff06f          	j	90c4 <_vfiprintf_r+0x154>
    9444:	040d7613          	andi	a2,s10,64
    9448:	00060663          	beqz	a2,9454 <_vfiprintf_r+0x4e4>
    944c:	01769023          	sh	s7,0(a3)
    9450:	c75ff06f          	j	90c4 <_vfiprintf_r+0x154>
    9454:	200d7793          	andi	a5,s10,512
    9458:	fe0782e3          	beqz	a5,943c <_vfiprintf_r+0x4cc>
    945c:	01768023          	sb	s7,0(a3)
    9460:	c65ff06f          	j	90c4 <_vfiprintf_r+0x154>
    9464:	010d6d13          	ori	s10,s10,16
    9468:	020d7693          	andi	a3,s10,32
    946c:	02068463          	beqz	a3,9494 <_vfiprintf_r+0x524>
    9470:	00790913          	addi	s2,s2,7
    9474:	ff897913          	andi	s2,s2,-8
    9478:	00092d83          	lw	s11,0(s2)
    947c:	00492c83          	lw	s9,4(s2)
    9480:	00890c13          	addi	s8,s2,8
    9484:	bffd7d13          	andi	s10,s10,-1025
    9488:	00000693          	li	a3,0
    948c:	020105a3          	sb	zero,43(sp)
    9490:	f15ff06f          	j	93a4 <_vfiprintf_r+0x434>
    9494:	010d7693          	andi	a3,s10,16
    9498:	00490c13          	addi	s8,s2,4
    949c:	00068663          	beqz	a3,94a8 <_vfiprintf_r+0x538>
    94a0:	00092d83          	lw	s11,0(s2)
    94a4:	0100006f          	j	94b4 <_vfiprintf_r+0x544>
    94a8:	040d7693          	andi	a3,s10,64
    94ac:	00068863          	beqz	a3,94bc <_vfiprintf_r+0x54c>
    94b0:	00095d83          	lhu	s11,0(s2)
    94b4:	00000c93          	li	s9,0
    94b8:	fcdff06f          	j	9484 <_vfiprintf_r+0x514>
    94bc:	200d7693          	andi	a3,s10,512
    94c0:	fe0680e3          	beqz	a3,94a0 <_vfiprintf_r+0x530>
    94c4:	00094d83          	lbu	s11,0(s2)
    94c8:	fedff06f          	j	94b4 <_vfiprintf_r+0x544>
    94cc:	ffff86b7          	lui	a3,0xffff8
    94d0:	00092d83          	lw	s11,0(s2)
    94d4:	8306c693          	xori	a3,a3,-2000
    94d8:	7fff7797          	auipc	a5,0x7fff7
    94dc:	68478793          	addi	a5,a5,1668 # 80000b5c <zeroes.4499+0x20>
    94e0:	00490c13          	addi	s8,s2,4
    94e4:	00000c93          	li	s9,0
    94e8:	002d6d13          	ori	s10,s10,2
    94ec:	02d11623          	sh	a3,44(sp)
    94f0:	00f12423          	sw	a5,8(sp)
    94f4:	00200693          	li	a3,2
    94f8:	f95ff06f          	j	948c <_vfiprintf_r+0x51c>
    94fc:	020105a3          	sb	zero,43(sp)
    9500:	fff00693          	li	a3,-1
    9504:	00e12023          	sw	a4,0(sp)
    9508:	00490c13          	addi	s8,s2,4
    950c:	00092903          	lw	s2,0(s2)
    9510:	2ed48863          	beq	s1,a3,9800 <_vfiprintf_r+0x890>
    9514:	00048613          	mv	a2,s1
    9518:	00000593          	li	a1,0
    951c:	00090513          	mv	a0,s2
    9520:	ffffd097          	auipc	ra,0xffffd
    9524:	b58080e7          	jalr	-1192(ra) # 6078 <memchr>
    9528:	00000c93          	li	s9,0
    952c:	00012703          	lw	a4,0(sp)
    9530:	00050463          	beqz	a0,9538 <_vfiprintf_r+0x5c8>
    9534:	412504b3          	sub	s1,a0,s2
    9538:	01912023          	sw	s9,0(sp)
    953c:	009cd463          	bge	s9,s1,9544 <_vfiprintf_r+0x5d4>
    9540:	00912023          	sw	s1,0(sp)
    9544:	02b14683          	lbu	a3,43(sp)
    9548:	00068863          	beqz	a3,9558 <_vfiprintf_r+0x5e8>
    954c:	00012783          	lw	a5,0(sp)
    9550:	00178793          	addi	a5,a5,1
    9554:	00f12023          	sw	a5,0(sp)
    9558:	002d7d93          	andi	s11,s10,2
    955c:	000d8863          	beqz	s11,956c <_vfiprintf_r+0x5fc>
    9560:	00012783          	lw	a5,0(sp)
    9564:	00278793          	addi	a5,a5,2
    9568:	00f12023          	sw	a5,0(sp)
    956c:	084d7793          	andi	a5,s10,132
    9570:	00f12a23          	sw	a5,20(sp)
    9574:	06079863          	bnez	a5,95e4 <_vfiprintf_r+0x674>
    9578:	00012783          	lw	a5,0(sp)
    957c:	40fa06b3          	sub	a3,s4,a5
    9580:	06d05263          	blez	a3,95e4 <_vfiprintf_r+0x674>
    9584:	01000893          	li	a7,16
    9588:	7fff7817          	auipc	a6,0x7fff7
    958c:	76c80813          	addi	a6,a6,1900 # 80000cf4 <blanks.4489>
    9590:	00700313          	li	t1,7
    9594:	03412603          	lw	a2,52(sp)
    9598:	01072023          	sw	a6,0(a4)
    959c:	03812583          	lw	a1,56(sp)
    95a0:	00160613          	addi	a2,a2,1
    95a4:	00870513          	addi	a0,a4,8
    95a8:	4ed8c863          	blt	a7,a3,9a98 <_vfiprintf_r+0xb28>
    95ac:	00d72223          	sw	a3,4(a4)
    95b0:	00b686b3          	add	a3,a3,a1
    95b4:	02d12c23          	sw	a3,56(sp)
    95b8:	02c12a23          	sw	a2,52(sp)
    95bc:	00700693          	li	a3,7
    95c0:	00050713          	mv	a4,a0
    95c4:	02c6d063          	bge	a3,a2,95e4 <_vfiprintf_r+0x674>
    95c8:	03010613          	addi	a2,sp,48
    95cc:	00040593          	mv	a1,s0
    95d0:	00098513          	mv	a0,s3
    95d4:	00000097          	auipc	ra,0x0
    95d8:	898080e7          	jalr	-1896(ra) # 8e6c <__sprint_r>
    95dc:	60051063          	bnez	a0,9bdc <_vfiprintf_r+0xc6c>
    95e0:	000b0713          	mv	a4,s6
    95e4:	02b14683          	lbu	a3,43(sp)
    95e8:	04068a63          	beqz	a3,963c <_vfiprintf_r+0x6cc>
    95ec:	02b10613          	addi	a2,sp,43
    95f0:	00c72023          	sw	a2,0(a4)
    95f4:	00100613          	li	a2,1
    95f8:	03412683          	lw	a3,52(sp)
    95fc:	00c72223          	sw	a2,4(a4)
    9600:	03812603          	lw	a2,56(sp)
    9604:	00168693          	addi	a3,a3,1 # ffff8001 <__stack_top+0x7ffae181>
    9608:	02d12a23          	sw	a3,52(sp)
    960c:	00160613          	addi	a2,a2,1
    9610:	02c12c23          	sw	a2,56(sp)
    9614:	00700613          	li	a2,7
    9618:	00870713          	addi	a4,a4,8
    961c:	02d65063          	bge	a2,a3,963c <_vfiprintf_r+0x6cc>
    9620:	03010613          	addi	a2,sp,48
    9624:	00040593          	mv	a1,s0
    9628:	00098513          	mv	a0,s3
    962c:	00000097          	auipc	ra,0x0
    9630:	840080e7          	jalr	-1984(ra) # 8e6c <__sprint_r>
    9634:	5a051463          	bnez	a0,9bdc <_vfiprintf_r+0xc6c>
    9638:	000b0713          	mv	a4,s6
    963c:	040d8a63          	beqz	s11,9690 <_vfiprintf_r+0x720>
    9640:	02c10613          	addi	a2,sp,44
    9644:	00c72023          	sw	a2,0(a4)
    9648:	00200613          	li	a2,2
    964c:	03412683          	lw	a3,52(sp)
    9650:	00c72223          	sw	a2,4(a4)
    9654:	03812603          	lw	a2,56(sp)
    9658:	00168693          	addi	a3,a3,1
    965c:	02d12a23          	sw	a3,52(sp)
    9660:	00260613          	addi	a2,a2,2
    9664:	02c12c23          	sw	a2,56(sp)
    9668:	00700613          	li	a2,7
    966c:	00870713          	addi	a4,a4,8
    9670:	02d65063          	bge	a2,a3,9690 <_vfiprintf_r+0x720>
    9674:	03010613          	addi	a2,sp,48
    9678:	00040593          	mv	a1,s0
    967c:	00098513          	mv	a0,s3
    9680:	fffff097          	auipc	ra,0xfffff
    9684:	7ec080e7          	jalr	2028(ra) # 8e6c <__sprint_r>
    9688:	54051a63          	bnez	a0,9bdc <_vfiprintf_r+0xc6c>
    968c:	000b0713          	mv	a4,s6
    9690:	01412783          	lw	a5,20(sp)
    9694:	08000693          	li	a3,128
    9698:	06d79863          	bne	a5,a3,9708 <_vfiprintf_r+0x798>
    969c:	00012783          	lw	a5,0(sp)
    96a0:	40fa0db3          	sub	s11,s4,a5
    96a4:	07b05263          	blez	s11,9708 <_vfiprintf_r+0x798>
    96a8:	01000893          	li	a7,16
    96ac:	7fff7817          	auipc	a6,0x7fff7
    96b0:	65880813          	addi	a6,a6,1624 # 80000d04 <zeroes.4490>
    96b4:	00700313          	li	t1,7
    96b8:	03412683          	lw	a3,52(sp)
    96bc:	01072023          	sw	a6,0(a4)
    96c0:	03812603          	lw	a2,56(sp)
    96c4:	00168693          	addi	a3,a3,1
    96c8:	00870593          	addi	a1,a4,8
    96cc:	43b8c063          	blt	a7,s11,9aec <_vfiprintf_r+0xb7c>
    96d0:	01b72223          	sw	s11,4(a4)
    96d4:	00cd8db3          	add	s11,s11,a2
    96d8:	03b12c23          	sw	s11,56(sp)
    96dc:	02d12a23          	sw	a3,52(sp)
    96e0:	00700613          	li	a2,7
    96e4:	00058713          	mv	a4,a1
    96e8:	02d65063          	bge	a2,a3,9708 <_vfiprintf_r+0x798>
    96ec:	03010613          	addi	a2,sp,48
    96f0:	00040593          	mv	a1,s0
    96f4:	00098513          	mv	a0,s3
    96f8:	fffff097          	auipc	ra,0xfffff
    96fc:	774080e7          	jalr	1908(ra) # 8e6c <__sprint_r>
    9700:	4c051e63          	bnez	a0,9bdc <_vfiprintf_r+0xc6c>
    9704:	000b0713          	mv	a4,s6
    9708:	409c8cb3          	sub	s9,s9,s1
    970c:	07905263          	blez	s9,9770 <_vfiprintf_r+0x800>
    9710:	01000813          	li	a6,16
    9714:	7fff7d97          	auipc	s11,0x7fff7
    9718:	5f0d8d93          	addi	s11,s11,1520 # 80000d04 <zeroes.4490>
    971c:	00700893          	li	a7,7
    9720:	03412683          	lw	a3,52(sp)
    9724:	01b72023          	sw	s11,0(a4)
    9728:	03812603          	lw	a2,56(sp)
    972c:	00168693          	addi	a3,a3,1
    9730:	00870593          	addi	a1,a4,8
    9734:	41984263          	blt	a6,s9,9b38 <_vfiprintf_r+0xbc8>
    9738:	01972223          	sw	s9,4(a4)
    973c:	00cc8cb3          	add	s9,s9,a2
    9740:	03912c23          	sw	s9,56(sp)
    9744:	02d12a23          	sw	a3,52(sp)
    9748:	00700613          	li	a2,7
    974c:	00058713          	mv	a4,a1
    9750:	02d65063          	bge	a2,a3,9770 <_vfiprintf_r+0x800>
    9754:	03010613          	addi	a2,sp,48
    9758:	00040593          	mv	a1,s0
    975c:	00098513          	mv	a0,s3
    9760:	fffff097          	auipc	ra,0xfffff
    9764:	70c080e7          	jalr	1804(ra) # 8e6c <__sprint_r>
    9768:	46051a63          	bnez	a0,9bdc <_vfiprintf_r+0xc6c>
    976c:	000b0713          	mv	a4,s6
    9770:	03812683          	lw	a3,56(sp)
    9774:	00972223          	sw	s1,4(a4)
    9778:	01272023          	sw	s2,0(a4)
    977c:	009684b3          	add	s1,a3,s1
    9780:	03412683          	lw	a3,52(sp)
    9784:	02912c23          	sw	s1,56(sp)
    9788:	00700613          	li	a2,7
    978c:	00168693          	addi	a3,a3,1
    9790:	02d12a23          	sw	a3,52(sp)
    9794:	00870713          	addi	a4,a4,8
    9798:	02d65063          	bge	a2,a3,97b8 <_vfiprintf_r+0x848>
    979c:	03010613          	addi	a2,sp,48
    97a0:	00040593          	mv	a1,s0
    97a4:	00098513          	mv	a0,s3
    97a8:	fffff097          	auipc	ra,0xfffff
    97ac:	6c4080e7          	jalr	1732(ra) # 8e6c <__sprint_r>
    97b0:	42051663          	bnez	a0,9bdc <_vfiprintf_r+0xc6c>
    97b4:	000b0713          	mv	a4,s6
    97b8:	004d7793          	andi	a5,s10,4
    97bc:	3c079063          	bnez	a5,9b7c <_vfiprintf_r+0xc0c>
    97c0:	00012783          	lw	a5,0(sp)
    97c4:	00fa5463          	bge	s4,a5,97cc <_vfiprintf_r+0x85c>
    97c8:	00078a13          	mv	s4,a5
    97cc:	03812783          	lw	a5,56(sp)
    97d0:	014b8bb3          	add	s7,s7,s4
    97d4:	00078e63          	beqz	a5,97f0 <_vfiprintf_r+0x880>
    97d8:	03010613          	addi	a2,sp,48
    97dc:	00040593          	mv	a1,s0
    97e0:	00098513          	mv	a0,s3
    97e4:	fffff097          	auipc	ra,0xfffff
    97e8:	688080e7          	jalr	1672(ra) # 8e6c <__sprint_r>
    97ec:	3e051863          	bnez	a0,9bdc <_vfiprintf_r+0xc6c>
    97f0:	02012a23          	sw	zero,52(sp)
    97f4:	000c0913          	mv	s2,s8
    97f8:	000b0713          	mv	a4,s6
    97fc:	8c9ff06f          	j	90c4 <_vfiprintf_r+0x154>
    9800:	00090513          	mv	a0,s2
    9804:	ffffd097          	auipc	ra,0xffffd
    9808:	5e8080e7          	jalr	1512(ra) # 6dec <strlen>
    980c:	00050493          	mv	s1,a0
    9810:	00000c93          	li	s9,0
    9814:	00012703          	lw	a4,0(sp)
    9818:	d21ff06f          	j	9538 <_vfiprintf_r+0x5c8>
    981c:	010d6d13          	ori	s10,s10,16
    9820:	020d7693          	andi	a3,s10,32
    9824:	02068063          	beqz	a3,9844 <_vfiprintf_r+0x8d4>
    9828:	00790913          	addi	s2,s2,7
    982c:	ff897913          	andi	s2,s2,-8
    9830:	00092d83          	lw	s11,0(s2)
    9834:	00492c83          	lw	s9,4(s2)
    9838:	00890c13          	addi	s8,s2,8
    983c:	00100693          	li	a3,1
    9840:	c4dff06f          	j	948c <_vfiprintf_r+0x51c>
    9844:	010d7693          	andi	a3,s10,16
    9848:	00490c13          	addi	s8,s2,4
    984c:	00068663          	beqz	a3,9858 <_vfiprintf_r+0x8e8>
    9850:	00092d83          	lw	s11,0(s2)
    9854:	0100006f          	j	9864 <_vfiprintf_r+0x8f4>
    9858:	040d7693          	andi	a3,s10,64
    985c:	00068863          	beqz	a3,986c <_vfiprintf_r+0x8fc>
    9860:	00095d83          	lhu	s11,0(s2)
    9864:	00000c93          	li	s9,0
    9868:	fd5ff06f          	j	983c <_vfiprintf_r+0x8cc>
    986c:	200d7693          	andi	a3,s10,512
    9870:	fe0680e3          	beqz	a3,9850 <_vfiprintf_r+0x8e0>
    9874:	00094d83          	lbu	s11,0(s2)
    9878:	fedff06f          	j	9864 <_vfiprintf_r+0x8f4>
    987c:	7fff7797          	auipc	a5,0x7fff7
    9880:	2f478793          	addi	a5,a5,756 # 80000b70 <zeroes.4499+0x34>
    9884:	90dff06f          	j	9190 <_vfiprintf_r+0x220>
    9888:	010d7693          	andi	a3,s10,16
    988c:	00490c13          	addi	s8,s2,4
    9890:	00068663          	beqz	a3,989c <_vfiprintf_r+0x92c>
    9894:	00092d83          	lw	s11,0(s2)
    9898:	0100006f          	j	98a8 <_vfiprintf_r+0x938>
    989c:	040d7693          	andi	a3,s10,64
    98a0:	00068863          	beqz	a3,98b0 <_vfiprintf_r+0x940>
    98a4:	00095d83          	lhu	s11,0(s2)
    98a8:	00000c93          	li	s9,0
    98ac:	905ff06f          	j	91b0 <_vfiprintf_r+0x240>
    98b0:	200d7693          	andi	a3,s10,512
    98b4:	fe0680e3          	beqz	a3,9894 <_vfiprintf_r+0x924>
    98b8:	00094d83          	lbu	s11,0(s2)
    98bc:	fedff06f          	j	98a8 <_vfiprintf_r+0x938>
    98c0:	000d0613          	mv	a2,s10
    98c4:	00100693          	li	a3,1
    98c8:	ae9ff06f          	j	93b0 <_vfiprintf_r+0x440>
    98cc:	00100613          	li	a2,1
    98d0:	38c68063          	beq	a3,a2,9c50 <_vfiprintf_r+0xce0>
    98d4:	00200613          	li	a2,2
    98d8:	14c68c63          	beq	a3,a2,9a30 <_vfiprintf_r+0xac0>
    98dc:	0e010693          	addi	a3,sp,224
    98e0:	01dc9593          	slli	a1,s9,0x1d
    98e4:	007df613          	andi	a2,s11,7
    98e8:	003dd313          	srli	t1,s11,0x3
    98ec:	03060613          	addi	a2,a2,48
    98f0:	0065edb3          	or	s11,a1,t1
    98f4:	003cdc93          	srli	s9,s9,0x3
    98f8:	fec68fa3          	sb	a2,-1(a3)
    98fc:	019de5b3          	or	a1,s11,s9
    9900:	fff68913          	addi	s2,a3,-1
    9904:	02059663          	bnez	a1,9930 <_vfiprintf_r+0x9c0>
    9908:	001d7593          	andi	a1,s10,1
    990c:	00058a63          	beqz	a1,9920 <_vfiprintf_r+0x9b0>
    9910:	03000593          	li	a1,48
    9914:	00b60663          	beq	a2,a1,9920 <_vfiprintf_r+0x9b0>
    9918:	feb90fa3          	sb	a1,-1(s2)
    991c:	ffe68913          	addi	s2,a3,-2
    9920:	0e010793          	addi	a5,sp,224
    9924:	00048c93          	mv	s9,s1
    9928:	412784b3          	sub	s1,a5,s2
    992c:	c0dff06f          	j	9538 <_vfiprintf_r+0x5c8>
    9930:	00090693          	mv	a3,s2
    9934:	fadff06f          	j	98e0 <_vfiprintf_r+0x970>
    9938:	400d7793          	andi	a5,s10,1024
    993c:	00000893          	li	a7,0
    9940:	0e010e13          	addi	t3,sp,224
    9944:	00f12023          	sw	a5,0(sp)
    9948:	00a00613          	li	a2,10
    994c:	00000693          	li	a3,0
    9950:	000d8513          	mv	a0,s11
    9954:	000c8593          	mv	a1,s9
    9958:	01112e23          	sw	a7,28(sp)
    995c:	00e12c23          	sw	a4,24(sp)
    9960:	fffe0913          	addi	s2,t3,-1
    9964:	01c12a23          	sw	t3,20(sp)
    9968:	00006097          	auipc	ra,0x6
    996c:	520080e7          	jalr	1312(ra) # fe88 <__umoddi3>
    9970:	01412e03          	lw	t3,20(sp)
    9974:	01c12883          	lw	a7,28(sp)
    9978:	00012783          	lw	a5,0(sp)
    997c:	03050513          	addi	a0,a0,48
    9980:	feae0fa3          	sb	a0,-1(t3)
    9984:	00188893          	addi	a7,a7,1
    9988:	01812703          	lw	a4,24(sp)
    998c:	06078063          	beqz	a5,99ec <_vfiprintf_r+0xa7c>
    9990:	00412783          	lw	a5,4(sp)
    9994:	0007c683          	lbu	a3,0(a5)
    9998:	05169a63          	bne	a3,a7,99ec <_vfiprintf_r+0xa7c>
    999c:	0ff00793          	li	a5,255
    99a0:	04f88663          	beq	a7,a5,99ec <_vfiprintf_r+0xa7c>
    99a4:	000c9663          	bnez	s9,99b0 <_vfiprintf_r+0xa40>
    99a8:	00900793          	li	a5,9
    99ac:	05b7f063          	bgeu	a5,s11,99ec <_vfiprintf_r+0xa7c>
    99b0:	00c12783          	lw	a5,12(sp)
    99b4:	01012583          	lw	a1,16(sp)
    99b8:	00e12a23          	sw	a4,20(sp)
    99bc:	40f90933          	sub	s2,s2,a5
    99c0:	00078613          	mv	a2,a5
    99c4:	00090513          	mv	a0,s2
    99c8:	00005097          	auipc	ra,0x5
    99cc:	9b0080e7          	jalr	-1616(ra) # e378 <strncpy>
    99d0:	00412783          	lw	a5,4(sp)
    99d4:	00000893          	li	a7,0
    99d8:	01412703          	lw	a4,20(sp)
    99dc:	0017c683          	lbu	a3,1(a5)
    99e0:	00068663          	beqz	a3,99ec <_vfiprintf_r+0xa7c>
    99e4:	00178793          	addi	a5,a5,1
    99e8:	00f12223          	sw	a5,4(sp)
    99ec:	00a00613          	li	a2,10
    99f0:	00000693          	li	a3,0
    99f4:	000d8513          	mv	a0,s11
    99f8:	000c8593          	mv	a1,s9
    99fc:	01112c23          	sw	a7,24(sp)
    9a00:	00e12a23          	sw	a4,20(sp)
    9a04:	00006097          	auipc	ra,0x6
    9a08:	050080e7          	jalr	80(ra) # fa54 <__udivdi3>
    9a0c:	01412703          	lw	a4,20(sp)
    9a10:	01812883          	lw	a7,24(sp)
    9a14:	000c9663          	bnez	s9,9a20 <_vfiprintf_r+0xab0>
    9a18:	00900793          	li	a5,9
    9a1c:	f1b7f2e3          	bgeu	a5,s11,9920 <_vfiprintf_r+0x9b0>
    9a20:	00050d93          	mv	s11,a0
    9a24:	00058c93          	mv	s9,a1
    9a28:	00090e13          	mv	t3,s2
    9a2c:	f1dff06f          	j	9948 <_vfiprintf_r+0x9d8>
    9a30:	0e010913          	addi	s2,sp,224
    9a34:	00812783          	lw	a5,8(sp)
    9a38:	00fdf693          	andi	a3,s11,15
    9a3c:	fff90913          	addi	s2,s2,-1
    9a40:	00d786b3          	add	a3,a5,a3
    9a44:	0006c683          	lbu	a3,0(a3)
    9a48:	004dd313          	srli	t1,s11,0x4
    9a4c:	00d90023          	sb	a3,0(s2)
    9a50:	01cc9693          	slli	a3,s9,0x1c
    9a54:	0066edb3          	or	s11,a3,t1
    9a58:	004cdc93          	srli	s9,s9,0x4
    9a5c:	019de6b3          	or	a3,s11,s9
    9a60:	fc069ae3          	bnez	a3,9a34 <_vfiprintf_r+0xac4>
    9a64:	ebdff06f          	j	9920 <_vfiprintf_r+0x9b0>
    9a68:	0e010913          	addi	s2,sp,224
    9a6c:	ea069ae3          	bnez	a3,9920 <_vfiprintf_r+0x9b0>
    9a70:	00167613          	andi	a2,a2,1
    9a74:	ea0606e3          	beqz	a2,9920 <_vfiprintf_r+0x9b0>
    9a78:	03000693          	li	a3,48
    9a7c:	0cd10fa3          	sb	a3,223(sp)
    9a80:	1e40006f          	j	9c64 <_vfiprintf_r+0xcf4>
    9a84:	1a060263          	beqz	a2,9c28 <_vfiprintf_r+0xcb8>
    9a88:	06c10e23          	sb	a2,124(sp)
    9a8c:	020105a3          	sb	zero,43(sp)
    9a90:	00090c13          	mv	s8,s2
    9a94:	8bdff06f          	j	9350 <_vfiprintf_r+0x3e0>
    9a98:	01058593          	addi	a1,a1,16
    9a9c:	01172223          	sw	a7,4(a4)
    9aa0:	02b12c23          	sw	a1,56(sp)
    9aa4:	02c12a23          	sw	a2,52(sp)
    9aa8:	02c35c63          	bge	t1,a2,9ae0 <_vfiprintf_r+0xb70>
    9aac:	03010613          	addi	a2,sp,48
    9ab0:	00040593          	mv	a1,s0
    9ab4:	00098513          	mv	a0,s3
    9ab8:	00d12c23          	sw	a3,24(sp)
    9abc:	fffff097          	auipc	ra,0xfffff
    9ac0:	3b0080e7          	jalr	944(ra) # 8e6c <__sprint_r>
    9ac4:	10051c63          	bnez	a0,9bdc <_vfiprintf_r+0xc6c>
    9ac8:	01812683          	lw	a3,24(sp)
    9acc:	000b0513          	mv	a0,s6
    9ad0:	00700313          	li	t1,7
    9ad4:	7fff7817          	auipc	a6,0x7fff7
    9ad8:	22080813          	addi	a6,a6,544 # 80000cf4 <blanks.4489>
    9adc:	01000893          	li	a7,16
    9ae0:	ff068693          	addi	a3,a3,-16
    9ae4:	00050713          	mv	a4,a0
    9ae8:	aadff06f          	j	9594 <_vfiprintf_r+0x624>
    9aec:	01060613          	addi	a2,a2,16
    9af0:	01172223          	sw	a7,4(a4)
    9af4:	02c12c23          	sw	a2,56(sp)
    9af8:	02d12a23          	sw	a3,52(sp)
    9afc:	02d35863          	bge	t1,a3,9b2c <_vfiprintf_r+0xbbc>
    9b00:	03010613          	addi	a2,sp,48
    9b04:	00040593          	mv	a1,s0
    9b08:	00098513          	mv	a0,s3
    9b0c:	fffff097          	auipc	ra,0xfffff
    9b10:	360080e7          	jalr	864(ra) # 8e6c <__sprint_r>
    9b14:	0c051463          	bnez	a0,9bdc <_vfiprintf_r+0xc6c>
    9b18:	000b0593          	mv	a1,s6
    9b1c:	00700313          	li	t1,7
    9b20:	7fff7817          	auipc	a6,0x7fff7
    9b24:	1e480813          	addi	a6,a6,484 # 80000d04 <zeroes.4490>
    9b28:	01000893          	li	a7,16
    9b2c:	ff0d8d93          	addi	s11,s11,-16
    9b30:	00058713          	mv	a4,a1
    9b34:	b85ff06f          	j	96b8 <_vfiprintf_r+0x748>
    9b38:	01060613          	addi	a2,a2,16
    9b3c:	01072223          	sw	a6,4(a4)
    9b40:	02c12c23          	sw	a2,56(sp)
    9b44:	02d12a23          	sw	a3,52(sp)
    9b48:	02d8d463          	bge	a7,a3,9b70 <_vfiprintf_r+0xc00>
    9b4c:	03010613          	addi	a2,sp,48
    9b50:	00040593          	mv	a1,s0
    9b54:	00098513          	mv	a0,s3
    9b58:	fffff097          	auipc	ra,0xfffff
    9b5c:	314080e7          	jalr	788(ra) # 8e6c <__sprint_r>
    9b60:	06051e63          	bnez	a0,9bdc <_vfiprintf_r+0xc6c>
    9b64:	000b0593          	mv	a1,s6
    9b68:	00700893          	li	a7,7
    9b6c:	01000813          	li	a6,16
    9b70:	ff0c8c93          	addi	s9,s9,-16
    9b74:	00058713          	mv	a4,a1
    9b78:	ba9ff06f          	j	9720 <_vfiprintf_r+0x7b0>
    9b7c:	00012783          	lw	a5,0(sp)
    9b80:	40fa04b3          	sub	s1,s4,a5
    9b84:	c2905ee3          	blez	s1,97c0 <_vfiprintf_r+0x850>
    9b88:	01000c93          	li	s9,16
    9b8c:	7fff7917          	auipc	s2,0x7fff7
    9b90:	16890913          	addi	s2,s2,360 # 80000cf4 <blanks.4489>
    9b94:	00700d93          	li	s11,7
    9b98:	03412783          	lw	a5,52(sp)
    9b9c:	01272023          	sw	s2,0(a4)
    9ba0:	03812683          	lw	a3,56(sp)
    9ba4:	00178793          	addi	a5,a5,1
    9ba8:	049cc263          	blt	s9,s1,9bec <_vfiprintf_r+0xc7c>
    9bac:	00972223          	sw	s1,4(a4)
    9bb0:	00d484b3          	add	s1,s1,a3
    9bb4:	02912c23          	sw	s1,56(sp)
    9bb8:	02f12a23          	sw	a5,52(sp)
    9bbc:	00700713          	li	a4,7
    9bc0:	c0f750e3          	bge	a4,a5,97c0 <_vfiprintf_r+0x850>
    9bc4:	03010613          	addi	a2,sp,48
    9bc8:	00040593          	mv	a1,s0
    9bcc:	00098513          	mv	a0,s3
    9bd0:	fffff097          	auipc	ra,0xfffff
    9bd4:	29c080e7          	jalr	668(ra) # 8e6c <__sprint_r>
    9bd8:	be0504e3          	beqz	a0,97c0 <_vfiprintf_r+0x850>
    9bdc:	00c45783          	lhu	a5,12(s0)
    9be0:	0407f793          	andi	a5,a5,64
    9be4:	c6078c63          	beqz	a5,905c <_vfiprintf_r+0xec>
    9be8:	c70ff06f          	j	9058 <_vfiprintf_r+0xe8>
    9bec:	01068693          	addi	a3,a3,16
    9bf0:	01972223          	sw	s9,4(a4)
    9bf4:	02d12c23          	sw	a3,56(sp)
    9bf8:	02f12a23          	sw	a5,52(sp)
    9bfc:	00870713          	addi	a4,a4,8
    9c00:	02fdd063          	bge	s11,a5,9c20 <_vfiprintf_r+0xcb0>
    9c04:	03010613          	addi	a2,sp,48
    9c08:	00040593          	mv	a1,s0
    9c0c:	00098513          	mv	a0,s3
    9c10:	fffff097          	auipc	ra,0xfffff
    9c14:	25c080e7          	jalr	604(ra) # 8e6c <__sprint_r>
    9c18:	fc0512e3          	bnez	a0,9bdc <_vfiprintf_r+0xc6c>
    9c1c:	000b0713          	mv	a4,s6
    9c20:	ff048493          	addi	s1,s1,-16
    9c24:	f75ff06f          	j	9b98 <_vfiprintf_r+0xc28>
    9c28:	03812783          	lw	a5,56(sp)
    9c2c:	fa0788e3          	beqz	a5,9bdc <_vfiprintf_r+0xc6c>
    9c30:	03010613          	addi	a2,sp,48
    9c34:	00040593          	mv	a1,s0
    9c38:	00098513          	mv	a0,s3
    9c3c:	fffff097          	auipc	ra,0xfffff
    9c40:	230080e7          	jalr	560(ra) # 8e6c <__sprint_r>
    9c44:	f99ff06f          	j	9bdc <_vfiprintf_r+0xc6c>
    9c48:	fff00693          	li	a3,-1
    9c4c:	c6d49ae3          	bne	s1,a3,98c0 <_vfiprintf_r+0x950>
    9c50:	ce0c94e3          	bnez	s9,9938 <_vfiprintf_r+0x9c8>
    9c54:	00900693          	li	a3,9
    9c58:	cfb6e0e3          	bltu	a3,s11,9938 <_vfiprintf_r+0x9c8>
    9c5c:	030d8313          	addi	t1,s11,48
    9c60:	0c610fa3          	sb	t1,223(sp)
    9c64:	0df10913          	addi	s2,sp,223
    9c68:	cb9ff06f          	j	9920 <_vfiprintf_r+0x9b0>

00009c6c <vfiprintf>:
    9c6c:	7fff8797          	auipc	a5,0x7fff8
    9c70:	10078793          	addi	a5,a5,256 # 80001d6c <_impure_ptr>
    9c74:	00060693          	mv	a3,a2
    9c78:	00058613          	mv	a2,a1
    9c7c:	00050593          	mv	a1,a0
    9c80:	0007a503          	lw	a0,0(a5)
    9c84:	fffff317          	auipc	t1,0xfffff
    9c88:	2ec30067          	jr	748(t1) # 8f70 <_vfiprintf_r>

00009c8c <__sbprintf>:
    9c8c:	00c5d783          	lhu	a5,12(a1)
    9c90:	b8010113          	addi	sp,sp,-1152
    9c94:	46812c23          	sw	s0,1144(sp)
    9c98:	ffd7f793          	andi	a5,a5,-3
    9c9c:	00f11a23          	sh	a5,20(sp)
    9ca0:	0645a783          	lw	a5,100(a1)
    9ca4:	00058413          	mv	s0,a1
    9ca8:	46912a23          	sw	s1,1140(sp)
    9cac:	06f12623          	sw	a5,108(sp)
    9cb0:	00e5d783          	lhu	a5,14(a1)
    9cb4:	47212823          	sw	s2,1136(sp)
    9cb8:	46112e23          	sw	ra,1148(sp)
    9cbc:	00f11b23          	sh	a5,22(sp)
    9cc0:	01c5a783          	lw	a5,28(a1)
    9cc4:	00050913          	mv	s2,a0
    9cc8:	02012023          	sw	zero,32(sp)
    9ccc:	02f12223          	sw	a5,36(sp)
    9cd0:	0245a783          	lw	a5,36(a1)
    9cd4:	00810593          	addi	a1,sp,8
    9cd8:	02f12623          	sw	a5,44(sp)
    9cdc:	07010793          	addi	a5,sp,112
    9ce0:	00f12423          	sw	a5,8(sp)
    9ce4:	00f12c23          	sw	a5,24(sp)
    9ce8:	40000793          	li	a5,1024
    9cec:	00f12823          	sw	a5,16(sp)
    9cf0:	00f12e23          	sw	a5,28(sp)
    9cf4:	fffff097          	auipc	ra,0xfffff
    9cf8:	27c080e7          	jalr	636(ra) # 8f70 <_vfiprintf_r>
    9cfc:	00050493          	mv	s1,a0
    9d00:	00054e63          	bltz	a0,9d1c <__sbprintf+0x90>
    9d04:	00810593          	addi	a1,sp,8
    9d08:	00090513          	mv	a0,s2
    9d0c:	00000097          	auipc	ra,0x0
    9d10:	60c080e7          	jalr	1548(ra) # a318 <_fflush_r>
    9d14:	00050463          	beqz	a0,9d1c <__sbprintf+0x90>
    9d18:	fff00493          	li	s1,-1
    9d1c:	01415783          	lhu	a5,20(sp)
    9d20:	0407f793          	andi	a5,a5,64
    9d24:	00078863          	beqz	a5,9d34 <__sbprintf+0xa8>
    9d28:	00c45783          	lhu	a5,12(s0)
    9d2c:	0407e793          	ori	a5,a5,64
    9d30:	00f41623          	sh	a5,12(s0)
    9d34:	47c12083          	lw	ra,1148(sp)
    9d38:	47812403          	lw	s0,1144(sp)
    9d3c:	00048513          	mv	a0,s1
    9d40:	47012903          	lw	s2,1136(sp)
    9d44:	47412483          	lw	s1,1140(sp)
    9d48:	48010113          	addi	sp,sp,1152
    9d4c:	00008067          	ret

00009d50 <_vsnprintf_r>:
    9d50:	f8010113          	addi	sp,sp,-128
    9d54:	06812c23          	sw	s0,120(sp)
    9d58:	06112e23          	sw	ra,124(sp)
    9d5c:	06912a23          	sw	s1,116(sp)
    9d60:	00060413          	mv	s0,a2
    9d64:	02065263          	bgez	a2,9d88 <_vsnprintf_r+0x38>
    9d68:	08b00793          	li	a5,139
    9d6c:	00f52023          	sw	a5,0(a0)
    9d70:	fff00513          	li	a0,-1
    9d74:	07c12083          	lw	ra,124(sp)
    9d78:	07812403          	lw	s0,120(sp)
    9d7c:	07412483          	lw	s1,116(sp)
    9d80:	08010113          	addi	sp,sp,128
    9d84:	00008067          	ret
    9d88:	00068613          	mv	a2,a3
    9d8c:	20800693          	li	a3,520
    9d90:	00b12423          	sw	a1,8(sp)
    9d94:	00b12c23          	sw	a1,24(sp)
    9d98:	00d11a23          	sh	a3,20(sp)
    9d9c:	00000593          	li	a1,0
    9da0:	00040463          	beqz	s0,9da8 <_vsnprintf_r+0x58>
    9da4:	fff40593          	addi	a1,s0,-1
    9da8:	fff00793          	li	a5,-1
    9dac:	00b12823          	sw	a1,16(sp)
    9db0:	00b12e23          	sw	a1,28(sp)
    9db4:	00070693          	mv	a3,a4
    9db8:	00810593          	addi	a1,sp,8
    9dbc:	00f11b23          	sh	a5,22(sp)
    9dc0:	00050493          	mv	s1,a0
    9dc4:	ffffd097          	auipc	ra,0xffffd
    9dc8:	044080e7          	jalr	68(ra) # 6e08 <_svfprintf_r>
    9dcc:	fff00793          	li	a5,-1
    9dd0:	00f55663          	bge	a0,a5,9ddc <_vsnprintf_r+0x8c>
    9dd4:	08b00793          	li	a5,139
    9dd8:	00f4a023          	sw	a5,0(s1)
    9ddc:	f8040ce3          	beqz	s0,9d74 <_vsnprintf_r+0x24>
    9de0:	00812783          	lw	a5,8(sp)
    9de4:	00078023          	sb	zero,0(a5)
    9de8:	f8dff06f          	j	9d74 <_vsnprintf_r+0x24>

00009dec <vsnprintf>:
    9dec:	7fff8797          	auipc	a5,0x7fff8
    9df0:	f8078793          	addi	a5,a5,-128 # 80001d6c <_impure_ptr>
    9df4:	00068713          	mv	a4,a3
    9df8:	00060693          	mv	a3,a2
    9dfc:	00058613          	mv	a2,a1
    9e00:	00050593          	mv	a1,a0
    9e04:	0007a503          	lw	a0,0(a5)
    9e08:	00000317          	auipc	t1,0x0
    9e0c:	f4830067          	jr	-184(t1) # 9d50 <_vsnprintf_r>

00009e10 <__swbuf_r>:
    9e10:	fe010113          	addi	sp,sp,-32
    9e14:	00812c23          	sw	s0,24(sp)
    9e18:	00912a23          	sw	s1,20(sp)
    9e1c:	01212823          	sw	s2,16(sp)
    9e20:	00112e23          	sw	ra,28(sp)
    9e24:	01312623          	sw	s3,12(sp)
    9e28:	00050913          	mv	s2,a0
    9e2c:	00058493          	mv	s1,a1
    9e30:	00060413          	mv	s0,a2
    9e34:	00050a63          	beqz	a0,9e48 <__swbuf_r+0x38>
    9e38:	03852783          	lw	a5,56(a0)
    9e3c:	00079663          	bnez	a5,9e48 <__swbuf_r+0x38>
    9e40:	00000097          	auipc	ra,0x0
    9e44:	6a4080e7          	jalr	1700(ra) # a4e4 <__sinit>
    9e48:	01842783          	lw	a5,24(s0)
    9e4c:	00f42423          	sw	a5,8(s0)
    9e50:	00c45783          	lhu	a5,12(s0)
    9e54:	0087f793          	andi	a5,a5,8
    9e58:	0a078c63          	beqz	a5,9f10 <__swbuf_r+0x100>
    9e5c:	01042783          	lw	a5,16(s0)
    9e60:	0a078863          	beqz	a5,9f10 <__swbuf_r+0x100>
    9e64:	00c41783          	lh	a5,12(s0)
    9e68:	0ff4f993          	zext.b	s3,s1
    9e6c:	0ff4f493          	zext.b	s1,s1
    9e70:	01279713          	slli	a4,a5,0x12
    9e74:	0a075c63          	bgez	a4,9f2c <__swbuf_r+0x11c>
    9e78:	01042783          	lw	a5,16(s0)
    9e7c:	00042503          	lw	a0,0(s0)
    9e80:	40f50533          	sub	a0,a0,a5
    9e84:	01442783          	lw	a5,20(s0)
    9e88:	00f54c63          	blt	a0,a5,9ea0 <__swbuf_r+0x90>
    9e8c:	00040593          	mv	a1,s0
    9e90:	00090513          	mv	a0,s2
    9e94:	00000097          	auipc	ra,0x0
    9e98:	484080e7          	jalr	1156(ra) # a318 <_fflush_r>
    9e9c:	08051463          	bnez	a0,9f24 <__swbuf_r+0x114>
    9ea0:	00842783          	lw	a5,8(s0)
    9ea4:	00150513          	addi	a0,a0,1
    9ea8:	fff78793          	addi	a5,a5,-1
    9eac:	00f42423          	sw	a5,8(s0)
    9eb0:	00042783          	lw	a5,0(s0)
    9eb4:	00178713          	addi	a4,a5,1
    9eb8:	00e42023          	sw	a4,0(s0)
    9ebc:	01378023          	sb	s3,0(a5)
    9ec0:	01442783          	lw	a5,20(s0)
    9ec4:	00a78c63          	beq	a5,a0,9edc <__swbuf_r+0xcc>
    9ec8:	00c45783          	lhu	a5,12(s0)
    9ecc:	0017f793          	andi	a5,a5,1
    9ed0:	02078063          	beqz	a5,9ef0 <__swbuf_r+0xe0>
    9ed4:	00a00793          	li	a5,10
    9ed8:	00f49c63          	bne	s1,a5,9ef0 <__swbuf_r+0xe0>
    9edc:	00040593          	mv	a1,s0
    9ee0:	00090513          	mv	a0,s2
    9ee4:	00000097          	auipc	ra,0x0
    9ee8:	434080e7          	jalr	1076(ra) # a318 <_fflush_r>
    9eec:	02051c63          	bnez	a0,9f24 <__swbuf_r+0x114>
    9ef0:	01c12083          	lw	ra,28(sp)
    9ef4:	01812403          	lw	s0,24(sp)
    9ef8:	00048513          	mv	a0,s1
    9efc:	01012903          	lw	s2,16(sp)
    9f00:	01412483          	lw	s1,20(sp)
    9f04:	00c12983          	lw	s3,12(sp)
    9f08:	02010113          	addi	sp,sp,32
    9f0c:	00008067          	ret
    9f10:	00040593          	mv	a1,s0
    9f14:	00090513          	mv	a0,s2
    9f18:	00000097          	auipc	ra,0x0
    9f1c:	0ac080e7          	jalr	172(ra) # 9fc4 <__swsetup_r>
    9f20:	f40502e3          	beqz	a0,9e64 <__swbuf_r+0x54>
    9f24:	fff00493          	li	s1,-1
    9f28:	fc9ff06f          	j	9ef0 <__swbuf_r+0xe0>
    9f2c:	00002737          	lui	a4,0x2
    9f30:	00e7e7b3          	or	a5,a5,a4
    9f34:	00f41623          	sh	a5,12(s0)
    9f38:	06442783          	lw	a5,100(s0)
    9f3c:	ffffe737          	lui	a4,0xffffe
    9f40:	fff70713          	addi	a4,a4,-1 # ffffdfff <__stack_top+0x7ffb417f>
    9f44:	00e7f7b3          	and	a5,a5,a4
    9f48:	06f42223          	sw	a5,100(s0)
    9f4c:	f2dff06f          	j	9e78 <__swbuf_r+0x68>

00009f50 <__swbuf>:
    9f50:	7fff8797          	auipc	a5,0x7fff8
    9f54:	e1c78793          	addi	a5,a5,-484 # 80001d6c <_impure_ptr>
    9f58:	00058613          	mv	a2,a1
    9f5c:	00050593          	mv	a1,a0
    9f60:	0007a503          	lw	a0,0(a5)
    9f64:	00000317          	auipc	t1,0x0
    9f68:	eac30067          	jr	-340(t1) # 9e10 <__swbuf_r>

00009f6c <_write_r>:
    9f6c:	ff010113          	addi	sp,sp,-16
    9f70:	00812423          	sw	s0,8(sp)
    9f74:	00050413          	mv	s0,a0
    9f78:	00058513          	mv	a0,a1
    9f7c:	00060593          	mv	a1,a2
    9f80:	00068613          	mv	a2,a3
    9f84:	7fff8797          	auipc	a5,0x7fff8
    9f88:	ee07aa23          	sw	zero,-268(a5) # 80001e78 <errno>
    9f8c:	00112623          	sw	ra,12(sp)
    9f90:	00006097          	auipc	ra,0x6
    9f94:	9f0080e7          	jalr	-1552(ra) # f980 <_write>
    9f98:	fff00793          	li	a5,-1
    9f9c:	00f51c63          	bne	a0,a5,9fb4 <_write_r+0x48>
    9fa0:	7fff8797          	auipc	a5,0x7fff8
    9fa4:	ed878793          	addi	a5,a5,-296 # 80001e78 <errno>
    9fa8:	0007a783          	lw	a5,0(a5)
    9fac:	00078463          	beqz	a5,9fb4 <_write_r+0x48>
    9fb0:	00f42023          	sw	a5,0(s0)
    9fb4:	00c12083          	lw	ra,12(sp)
    9fb8:	00812403          	lw	s0,8(sp)
    9fbc:	01010113          	addi	sp,sp,16
    9fc0:	00008067          	ret

00009fc4 <__swsetup_r>:
    9fc4:	ff010113          	addi	sp,sp,-16
    9fc8:	7fff8797          	auipc	a5,0x7fff8
    9fcc:	da478793          	addi	a5,a5,-604 # 80001d6c <_impure_ptr>
    9fd0:	00912223          	sw	s1,4(sp)
    9fd4:	00050493          	mv	s1,a0
    9fd8:	0007a503          	lw	a0,0(a5)
    9fdc:	00812423          	sw	s0,8(sp)
    9fe0:	00112623          	sw	ra,12(sp)
    9fe4:	00058413          	mv	s0,a1
    9fe8:	00050a63          	beqz	a0,9ffc <__swsetup_r+0x38>
    9fec:	03852783          	lw	a5,56(a0)
    9ff0:	00079663          	bnez	a5,9ffc <__swsetup_r+0x38>
    9ff4:	00000097          	auipc	ra,0x0
    9ff8:	4f0080e7          	jalr	1264(ra) # a4e4 <__sinit>
    9ffc:	00c41703          	lh	a4,12(s0)
    a000:	01071793          	slli	a5,a4,0x10
    a004:	0107d793          	srli	a5,a5,0x10
    a008:	0087f693          	andi	a3,a5,8
    a00c:	08069063          	bnez	a3,a08c <__swsetup_r+0xc8>
    a010:	0107f693          	andi	a3,a5,16
    a014:	02069663          	bnez	a3,a040 <__swsetup_r+0x7c>
    a018:	00900793          	li	a5,9
    a01c:	00f4a023          	sw	a5,0(s1)
    a020:	04076713          	ori	a4,a4,64
    a024:	00e41623          	sh	a4,12(s0)
    a028:	fff00513          	li	a0,-1
    a02c:	00c12083          	lw	ra,12(sp)
    a030:	00812403          	lw	s0,8(sp)
    a034:	00412483          	lw	s1,4(sp)
    a038:	01010113          	addi	sp,sp,16
    a03c:	00008067          	ret
    a040:	0047f793          	andi	a5,a5,4
    a044:	02078e63          	beqz	a5,a080 <__swsetup_r+0xbc>
    a048:	03042583          	lw	a1,48(s0)
    a04c:	00058e63          	beqz	a1,a068 <__swsetup_r+0xa4>
    a050:	04040793          	addi	a5,s0,64
    a054:	00f58863          	beq	a1,a5,a064 <__swsetup_r+0xa0>
    a058:	00048513          	mv	a0,s1
    a05c:	00001097          	auipc	ra,0x1
    a060:	94c080e7          	jalr	-1716(ra) # a9a8 <_free_r>
    a064:	02042823          	sw	zero,48(s0)
    a068:	00c45783          	lhu	a5,12(s0)
    a06c:	00042223          	sw	zero,4(s0)
    a070:	fdb7f793          	andi	a5,a5,-37
    a074:	00f41623          	sh	a5,12(s0)
    a078:	01042783          	lw	a5,16(s0)
    a07c:	00f42023          	sw	a5,0(s0)
    a080:	00c45783          	lhu	a5,12(s0)
    a084:	0087e793          	ori	a5,a5,8
    a088:	00f41623          	sh	a5,12(s0)
    a08c:	01042783          	lw	a5,16(s0)
    a090:	02079263          	bnez	a5,a0b4 <__swsetup_r+0xf0>
    a094:	00c45783          	lhu	a5,12(s0)
    a098:	20000713          	li	a4,512
    a09c:	2807f793          	andi	a5,a5,640
    a0a0:	00e78a63          	beq	a5,a4,a0b4 <__swsetup_r+0xf0>
    a0a4:	00040593          	mv	a1,s0
    a0a8:	00048513          	mv	a0,s1
    a0ac:	00003097          	auipc	ra,0x3
    a0b0:	110080e7          	jalr	272(ra) # d1bc <__smakebuf_r>
    a0b4:	00c45783          	lhu	a5,12(s0)
    a0b8:	0017f713          	andi	a4,a5,1
    a0bc:	02070c63          	beqz	a4,a0f4 <__swsetup_r+0x130>
    a0c0:	01442783          	lw	a5,20(s0)
    a0c4:	00042423          	sw	zero,8(s0)
    a0c8:	40f007b3          	neg	a5,a5
    a0cc:	00f42c23          	sw	a5,24(s0)
    a0d0:	01042783          	lw	a5,16(s0)
    a0d4:	00000513          	li	a0,0
    a0d8:	f4079ae3          	bnez	a5,a02c <__swsetup_r+0x68>
    a0dc:	00c41783          	lh	a5,12(s0)
    a0e0:	0807f713          	andi	a4,a5,128
    a0e4:	f40704e3          	beqz	a4,a02c <__swsetup_r+0x68>
    a0e8:	0407e793          	ori	a5,a5,64
    a0ec:	00f41623          	sh	a5,12(s0)
    a0f0:	f39ff06f          	j	a028 <__swsetup_r+0x64>
    a0f4:	0027f793          	andi	a5,a5,2
    a0f8:	00000713          	li	a4,0
    a0fc:	00079463          	bnez	a5,a104 <__swsetup_r+0x140>
    a100:	01442703          	lw	a4,20(s0)
    a104:	00e42423          	sw	a4,8(s0)
    a108:	fc9ff06f          	j	a0d0 <__swsetup_r+0x10c>

0000a10c <__sflush_r>:
    a10c:	00c59783          	lh	a5,12(a1)
    a110:	fe010113          	addi	sp,sp,-32
    a114:	00812c23          	sw	s0,24(sp)
    a118:	01079713          	slli	a4,a5,0x10
    a11c:	01075713          	srli	a4,a4,0x10
    a120:	00912a23          	sw	s1,20(sp)
    a124:	00112e23          	sw	ra,28(sp)
    a128:	01212823          	sw	s2,16(sp)
    a12c:	01312623          	sw	s3,12(sp)
    a130:	00877693          	andi	a3,a4,8
    a134:	00050493          	mv	s1,a0
    a138:	00058413          	mv	s0,a1
    a13c:	16069e63          	bnez	a3,a2b8 <__sflush_r+0x1ac>
    a140:	00001737          	lui	a4,0x1
    a144:	80070713          	addi	a4,a4,-2048 # 800 <_ZN6tflite12ParseReshapeEPKNS_8OperatorEPNS_13ErrorReporterEPNS_20BuiltinDataAllocatorEPPv+0xe4>
    a148:	00e7e7b3          	or	a5,a5,a4
    a14c:	0045a703          	lw	a4,4(a1)
    a150:	00f59623          	sh	a5,12(a1)
    a154:	02e04663          	bgtz	a4,a180 <__sflush_r+0x74>
    a158:	03c5a703          	lw	a4,60(a1)
    a15c:	02e04263          	bgtz	a4,a180 <__sflush_r+0x74>
    a160:	00000513          	li	a0,0
    a164:	01c12083          	lw	ra,28(sp)
    a168:	01812403          	lw	s0,24(sp)
    a16c:	01412483          	lw	s1,20(sp)
    a170:	01012903          	lw	s2,16(sp)
    a174:	00c12983          	lw	s3,12(sp)
    a178:	02010113          	addi	sp,sp,32
    a17c:	00008067          	ret
    a180:	02842703          	lw	a4,40(s0)
    a184:	fc070ee3          	beqz	a4,a160 <__sflush_r+0x54>
    a188:	0004a903          	lw	s2,0(s1)
    a18c:	01379693          	slli	a3,a5,0x13
    a190:	0004a023          	sw	zero,0(s1)
    a194:	0c06da63          	bgez	a3,a268 <__sflush_r+0x15c>
    a198:	05042603          	lw	a2,80(s0)
    a19c:	00c45783          	lhu	a5,12(s0)
    a1a0:	0047f793          	andi	a5,a5,4
    a1a4:	00078e63          	beqz	a5,a1c0 <__sflush_r+0xb4>
    a1a8:	00442783          	lw	a5,4(s0)
    a1ac:	40f60633          	sub	a2,a2,a5
    a1b0:	03042783          	lw	a5,48(s0)
    a1b4:	00078663          	beqz	a5,a1c0 <__sflush_r+0xb4>
    a1b8:	03c42783          	lw	a5,60(s0)
    a1bc:	40f60633          	sub	a2,a2,a5
    a1c0:	02842783          	lw	a5,40(s0)
    a1c4:	01c42583          	lw	a1,28(s0)
    a1c8:	00000693          	li	a3,0
    a1cc:	00048513          	mv	a0,s1
    a1d0:	000780e7          	jalr	a5
    a1d4:	fff00793          	li	a5,-1
    a1d8:	00c45683          	lhu	a3,12(s0)
    a1dc:	02f51263          	bne	a0,a5,a200 <__sflush_r+0xf4>
    a1e0:	0004a783          	lw	a5,0(s1)
    a1e4:	01d00713          	li	a4,29
    a1e8:	0cf76063          	bltu	a4,a5,a2a8 <__sflush_r+0x19c>
    a1ec:	20400737          	lui	a4,0x20400
    a1f0:	00170713          	addi	a4,a4,1 # 20400001 <__trunctfdf2+0x203ecfa1>
    a1f4:	00f75733          	srl	a4,a4,a5
    a1f8:	00177713          	andi	a4,a4,1
    a1fc:	0a070663          	beqz	a4,a2a8 <__sflush_r+0x19c>
    a200:	fffff7b7          	lui	a5,0xfffff
    a204:	7ff78793          	addi	a5,a5,2047 # fffff7ff <__stack_top+0x7ffb597f>
    a208:	01042703          	lw	a4,16(s0)
    a20c:	00d7f7b3          	and	a5,a5,a3
    a210:	01079793          	slli	a5,a5,0x10
    a214:	4107d793          	srai	a5,a5,0x10
    a218:	00e42023          	sw	a4,0(s0)
    a21c:	00f41623          	sh	a5,12(s0)
    a220:	00042223          	sw	zero,4(s0)
    a224:	01379713          	slli	a4,a5,0x13
    a228:	00075c63          	bgez	a4,a240 <__sflush_r+0x134>
    a22c:	fff00793          	li	a5,-1
    a230:	00f51663          	bne	a0,a5,a23c <__sflush_r+0x130>
    a234:	0004a783          	lw	a5,0(s1)
    a238:	00079463          	bnez	a5,a240 <__sflush_r+0x134>
    a23c:	04a42823          	sw	a0,80(s0)
    a240:	03042583          	lw	a1,48(s0)
    a244:	0124a023          	sw	s2,0(s1)
    a248:	f0058ce3          	beqz	a1,a160 <__sflush_r+0x54>
    a24c:	04040793          	addi	a5,s0,64
    a250:	00f58863          	beq	a1,a5,a260 <__sflush_r+0x154>
    a254:	00048513          	mv	a0,s1
    a258:	00000097          	auipc	ra,0x0
    a25c:	750080e7          	jalr	1872(ra) # a9a8 <_free_r>
    a260:	02042823          	sw	zero,48(s0)
    a264:	efdff06f          	j	a160 <__sflush_r+0x54>
    a268:	01c42583          	lw	a1,28(s0)
    a26c:	00000613          	li	a2,0
    a270:	00100693          	li	a3,1
    a274:	00048513          	mv	a0,s1
    a278:	000700e7          	jalr	a4
    a27c:	fff00793          	li	a5,-1
    a280:	00050613          	mv	a2,a0
    a284:	f0f51ce3          	bne	a0,a5,a19c <__sflush_r+0x90>
    a288:	0004a783          	lw	a5,0(s1)
    a28c:	f00788e3          	beqz	a5,a19c <__sflush_r+0x90>
    a290:	01d00713          	li	a4,29
    a294:	00e78663          	beq	a5,a4,a2a0 <__sflush_r+0x194>
    a298:	01600713          	li	a4,22
    a29c:	06e79263          	bne	a5,a4,a300 <__sflush_r+0x1f4>
    a2a0:	0124a023          	sw	s2,0(s1)
    a2a4:	ebdff06f          	j	a160 <__sflush_r+0x54>
    a2a8:	0406e793          	ori	a5,a3,64
    a2ac:	00f41623          	sh	a5,12(s0)
    a2b0:	fff00513          	li	a0,-1
    a2b4:	eb1ff06f          	j	a164 <__sflush_r+0x58>
    a2b8:	0105a983          	lw	s3,16(a1)
    a2bc:	ea0982e3          	beqz	s3,a160 <__sflush_r+0x54>
    a2c0:	0005a903          	lw	s2,0(a1)
    a2c4:	00377713          	andi	a4,a4,3
    a2c8:	0135a023          	sw	s3,0(a1)
    a2cc:	41390933          	sub	s2,s2,s3
    a2d0:	00000793          	li	a5,0
    a2d4:	00071463          	bnez	a4,a2dc <__sflush_r+0x1d0>
    a2d8:	0145a783          	lw	a5,20(a1)
    a2dc:	00f42423          	sw	a5,8(s0)
    a2e0:	e92050e3          	blez	s2,a160 <__sflush_r+0x54>
    a2e4:	02442783          	lw	a5,36(s0)
    a2e8:	01c42583          	lw	a1,28(s0)
    a2ec:	00090693          	mv	a3,s2
    a2f0:	00098613          	mv	a2,s3
    a2f4:	00048513          	mv	a0,s1
    a2f8:	000780e7          	jalr	a5
    a2fc:	00a04863          	bgtz	a0,a30c <__sflush_r+0x200>
    a300:	00c45783          	lhu	a5,12(s0)
    a304:	0407e793          	ori	a5,a5,64
    a308:	fa5ff06f          	j	a2ac <__sflush_r+0x1a0>
    a30c:	00a989b3          	add	s3,s3,a0
    a310:	40a90933          	sub	s2,s2,a0
    a314:	fcdff06f          	j	a2e0 <__sflush_r+0x1d4>

0000a318 <_fflush_r>:
    a318:	fe010113          	addi	sp,sp,-32
    a31c:	00812c23          	sw	s0,24(sp)
    a320:	00112e23          	sw	ra,28(sp)
    a324:	00050413          	mv	s0,a0
    a328:	00050e63          	beqz	a0,a344 <_fflush_r+0x2c>
    a32c:	03852783          	lw	a5,56(a0)
    a330:	00079a63          	bnez	a5,a344 <_fflush_r+0x2c>
    a334:	00b12623          	sw	a1,12(sp)
    a338:	00000097          	auipc	ra,0x0
    a33c:	1ac080e7          	jalr	428(ra) # a4e4 <__sinit>
    a340:	00c12583          	lw	a1,12(sp)
    a344:	00c59783          	lh	a5,12(a1)
    a348:	00078e63          	beqz	a5,a364 <_fflush_r+0x4c>
    a34c:	00040513          	mv	a0,s0
    a350:	01812403          	lw	s0,24(sp)
    a354:	01c12083          	lw	ra,28(sp)
    a358:	02010113          	addi	sp,sp,32
    a35c:	00000317          	auipc	t1,0x0
    a360:	db030067          	jr	-592(t1) # a10c <__sflush_r>
    a364:	01c12083          	lw	ra,28(sp)
    a368:	01812403          	lw	s0,24(sp)
    a36c:	00000513          	li	a0,0
    a370:	02010113          	addi	sp,sp,32
    a374:	00008067          	ret

0000a378 <fflush>:
    a378:	00050593          	mv	a1,a0
    a37c:	02051063          	bnez	a0,a39c <fflush+0x24>
    a380:	7fff7797          	auipc	a5,0x7fff7
    a384:	02078793          	addi	a5,a5,32 # 800013a0 <_global_impure_ptr>
    a388:	0007a503          	lw	a0,0(a5)
    a38c:	00000597          	auipc	a1,0x0
    a390:	f8c58593          	addi	a1,a1,-116 # a318 <_fflush_r>
    a394:	00001317          	auipc	t1,0x1
    a398:	93c30067          	jr	-1732(t1) # acd0 <_fwalk_reent>
    a39c:	7fff8797          	auipc	a5,0x7fff8
    a3a0:	9d078793          	addi	a5,a5,-1584 # 80001d6c <_impure_ptr>
    a3a4:	0007a503          	lw	a0,0(a5)
    a3a8:	00000317          	auipc	t1,0x0
    a3ac:	f7030067          	jr	-144(t1) # a318 <_fflush_r>

0000a3b0 <__fp_lock>:
    a3b0:	00000513          	li	a0,0
    a3b4:	00008067          	ret

0000a3b8 <std>:
    a3b8:	ff010113          	addi	sp,sp,-16
    a3bc:	00812423          	sw	s0,8(sp)
    a3c0:	00112623          	sw	ra,12(sp)
    a3c4:	00050413          	mv	s0,a0
    a3c8:	00b51623          	sh	a1,12(a0)
    a3cc:	00c51723          	sh	a2,14(a0)
    a3d0:	00052023          	sw	zero,0(a0)
    a3d4:	00052223          	sw	zero,4(a0)
    a3d8:	00052423          	sw	zero,8(a0)
    a3dc:	06052223          	sw	zero,100(a0)
    a3e0:	00052823          	sw	zero,16(a0)
    a3e4:	00052a23          	sw	zero,20(a0)
    a3e8:	00052c23          	sw	zero,24(a0)
    a3ec:	00800613          	li	a2,8
    a3f0:	00000593          	li	a1,0
    a3f4:	05c50513          	addi	a0,a0,92
    a3f8:	ffffc097          	auipc	ra,0xffffc
    a3fc:	dd8080e7          	jalr	-552(ra) # 61d0 <memset>
    a400:	00004797          	auipc	a5,0x4
    a404:	e2878793          	addi	a5,a5,-472 # e228 <__sread>
    a408:	02f42023          	sw	a5,32(s0)
    a40c:	00004797          	auipc	a5,0x4
    a410:	e7878793          	addi	a5,a5,-392 # e284 <__swrite>
    a414:	02f42223          	sw	a5,36(s0)
    a418:	00004797          	auipc	a5,0x4
    a41c:	ef878793          	addi	a5,a5,-264 # e310 <__sseek>
    a420:	02f42423          	sw	a5,40(s0)
    a424:	00004797          	auipc	a5,0x4
    a428:	f4878793          	addi	a5,a5,-184 # e36c <__sclose>
    a42c:	00842e23          	sw	s0,28(s0)
    a430:	02f42623          	sw	a5,44(s0)
    a434:	00c12083          	lw	ra,12(sp)
    a438:	00812403          	lw	s0,8(sp)
    a43c:	01010113          	addi	sp,sp,16
    a440:	00008067          	ret

0000a444 <_cleanup_r>:
    a444:	00005597          	auipc	a1,0x5
    a448:	fd858593          	addi	a1,a1,-40 # f41c <_fclose_r>
    a44c:	00001317          	auipc	t1,0x1
    a450:	88430067          	jr	-1916(t1) # acd0 <_fwalk_reent>

0000a454 <__fp_unlock>:
    a454:	00000513          	li	a0,0
    a458:	00008067          	ret

0000a45c <__sfmoreglue>:
    a45c:	ff010113          	addi	sp,sp,-16
    a460:	00912223          	sw	s1,4(sp)
    a464:	06800613          	li	a2,104
    a468:	fff58493          	addi	s1,a1,-1
    a46c:	02c484b3          	mul	s1,s1,a2
    a470:	01212023          	sw	s2,0(sp)
    a474:	00058913          	mv	s2,a1
    a478:	00812423          	sw	s0,8(sp)
    a47c:	00112623          	sw	ra,12(sp)
    a480:	07448593          	addi	a1,s1,116
    a484:	ffffb097          	auipc	ra,0xffffb
    a488:	518080e7          	jalr	1304(ra) # 599c <_malloc_r>
    a48c:	00050413          	mv	s0,a0
    a490:	02050263          	beqz	a0,a4b4 <__sfmoreglue+0x58>
    a494:	00052023          	sw	zero,0(a0)
    a498:	01252223          	sw	s2,4(a0)
    a49c:	00c50513          	addi	a0,a0,12
    a4a0:	00a42423          	sw	a0,8(s0)
    a4a4:	06848613          	addi	a2,s1,104
    a4a8:	00000593          	li	a1,0
    a4ac:	ffffc097          	auipc	ra,0xffffc
    a4b0:	d24080e7          	jalr	-732(ra) # 61d0 <memset>
    a4b4:	00040513          	mv	a0,s0
    a4b8:	00c12083          	lw	ra,12(sp)
    a4bc:	00812403          	lw	s0,8(sp)
    a4c0:	00412483          	lw	s1,4(sp)
    a4c4:	00012903          	lw	s2,0(sp)
    a4c8:	01010113          	addi	sp,sp,16
    a4cc:	00008067          	ret

0000a4d0 <_cleanup>:
    a4d0:	7fff7797          	auipc	a5,0x7fff7
    a4d4:	ed078793          	addi	a5,a5,-304 # 800013a0 <_global_impure_ptr>
    a4d8:	0007a503          	lw	a0,0(a5)
    a4dc:	00000317          	auipc	t1,0x0
    a4e0:	f6830067          	jr	-152(t1) # a444 <_cleanup_r>

0000a4e4 <__sinit>:
    a4e4:	03852783          	lw	a5,56(a0)
    a4e8:	08079463          	bnez	a5,a570 <__sinit+0x8c>
    a4ec:	ff010113          	addi	sp,sp,-16
    a4f0:	00112623          	sw	ra,12(sp)
    a4f4:	00812423          	sw	s0,8(sp)
    a4f8:	00000797          	auipc	a5,0x0
    a4fc:	f4c78793          	addi	a5,a5,-180 # a444 <_cleanup_r>
    a500:	02f52e23          	sw	a5,60(a0)
    a504:	00300793          	li	a5,3
    a508:	2ef52223          	sw	a5,740(a0)
    a50c:	2ec50793          	addi	a5,a0,748
    a510:	00050413          	mv	s0,a0
    a514:	2ef52423          	sw	a5,744(a0)
    a518:	2e052023          	sw	zero,736(a0)
    a51c:	00452503          	lw	a0,4(a0)
    a520:	00000613          	li	a2,0
    a524:	00400593          	li	a1,4
    a528:	00000097          	auipc	ra,0x0
    a52c:	e90080e7          	jalr	-368(ra) # a3b8 <std>
    a530:	00842503          	lw	a0,8(s0)
    a534:	00100613          	li	a2,1
    a538:	00900593          	li	a1,9
    a53c:	00000097          	auipc	ra,0x0
    a540:	e7c080e7          	jalr	-388(ra) # a3b8 <std>
    a544:	00c42503          	lw	a0,12(s0)
    a548:	00200613          	li	a2,2
    a54c:	01200593          	li	a1,18
    a550:	00000097          	auipc	ra,0x0
    a554:	e68080e7          	jalr	-408(ra) # a3b8 <std>
    a558:	00100793          	li	a5,1
    a55c:	02f42c23          	sw	a5,56(s0)
    a560:	00c12083          	lw	ra,12(sp)
    a564:	00812403          	lw	s0,8(sp)
    a568:	01010113          	addi	sp,sp,16
    a56c:	00008067          	ret
    a570:	00008067          	ret

0000a574 <__sfp>:
    a574:	ff010113          	addi	sp,sp,-16
    a578:	7fff7797          	auipc	a5,0x7fff7
    a57c:	e2878793          	addi	a5,a5,-472 # 800013a0 <_global_impure_ptr>
    a580:	00912223          	sw	s1,4(sp)
    a584:	0007a483          	lw	s1,0(a5)
    a588:	01212023          	sw	s2,0(sp)
    a58c:	00112623          	sw	ra,12(sp)
    a590:	0384a783          	lw	a5,56(s1)
    a594:	00812423          	sw	s0,8(sp)
    a598:	00050913          	mv	s2,a0
    a59c:	00079863          	bnez	a5,a5ac <__sfp+0x38>
    a5a0:	00048513          	mv	a0,s1
    a5a4:	00000097          	auipc	ra,0x0
    a5a8:	f40080e7          	jalr	-192(ra) # a4e4 <__sinit>
    a5ac:	2e048493          	addi	s1,s1,736
    a5b0:	0084a403          	lw	s0,8(s1)
    a5b4:	0044a783          	lw	a5,4(s1)
    a5b8:	fff78793          	addi	a5,a5,-1
    a5bc:	0007da63          	bgez	a5,a5d0 <__sfp+0x5c>
    a5c0:	0004a783          	lw	a5,0(s1)
    a5c4:	08078263          	beqz	a5,a648 <__sfp+0xd4>
    a5c8:	0004a483          	lw	s1,0(s1)
    a5cc:	fe5ff06f          	j	a5b0 <__sfp+0x3c>
    a5d0:	00c41703          	lh	a4,12(s0)
    a5d4:	06071663          	bnez	a4,a640 <__sfp+0xcc>
    a5d8:	ffff07b7          	lui	a5,0xffff0
    a5dc:	00178793          	addi	a5,a5,1 # ffff0001 <__stack_top+0x7ffa6181>
    a5e0:	06042223          	sw	zero,100(s0)
    a5e4:	00042023          	sw	zero,0(s0)
    a5e8:	00042223          	sw	zero,4(s0)
    a5ec:	00042423          	sw	zero,8(s0)
    a5f0:	00f42623          	sw	a5,12(s0)
    a5f4:	00042823          	sw	zero,16(s0)
    a5f8:	00042a23          	sw	zero,20(s0)
    a5fc:	00042c23          	sw	zero,24(s0)
    a600:	00800613          	li	a2,8
    a604:	00000593          	li	a1,0
    a608:	05c40513          	addi	a0,s0,92
    a60c:	ffffc097          	auipc	ra,0xffffc
    a610:	bc4080e7          	jalr	-1084(ra) # 61d0 <memset>
    a614:	02042823          	sw	zero,48(s0)
    a618:	02042a23          	sw	zero,52(s0)
    a61c:	04042223          	sw	zero,68(s0)
    a620:	04042423          	sw	zero,72(s0)
    a624:	00040513          	mv	a0,s0
    a628:	00c12083          	lw	ra,12(sp)
    a62c:	00812403          	lw	s0,8(sp)
    a630:	00412483          	lw	s1,4(sp)
    a634:	00012903          	lw	s2,0(sp)
    a638:	01010113          	addi	sp,sp,16
    a63c:	00008067          	ret
    a640:	06840413          	addi	s0,s0,104
    a644:	f75ff06f          	j	a5b8 <__sfp+0x44>
    a648:	00400593          	li	a1,4
    a64c:	00090513          	mv	a0,s2
    a650:	00000097          	auipc	ra,0x0
    a654:	e0c080e7          	jalr	-500(ra) # a45c <__sfmoreglue>
    a658:	00a4a023          	sw	a0,0(s1)
    a65c:	f60516e3          	bnez	a0,a5c8 <__sfp+0x54>
    a660:	00c00793          	li	a5,12
    a664:	00f92023          	sw	a5,0(s2)
    a668:	00000413          	li	s0,0
    a66c:	fb9ff06f          	j	a624 <__sfp+0xb0>

0000a670 <__sfp_lock_acquire>:
    a670:	00008067          	ret

0000a674 <__sfp_lock_release>:
    a674:	00008067          	ret

0000a678 <__sinit_lock_acquire>:
    a678:	00008067          	ret

0000a67c <__sinit_lock_release>:
    a67c:	00008067          	ret

0000a680 <__fp_lock_all>:
    a680:	7fff7797          	auipc	a5,0x7fff7
    a684:	6ec78793          	addi	a5,a5,1772 # 80001d6c <_impure_ptr>
    a688:	0007a503          	lw	a0,0(a5)
    a68c:	00000597          	auipc	a1,0x0
    a690:	d2458593          	addi	a1,a1,-732 # a3b0 <__fp_lock>
    a694:	00000317          	auipc	t1,0x0
    a698:	59c30067          	jr	1436(t1) # ac30 <_fwalk>

0000a69c <__fp_unlock_all>:
    a69c:	7fff7797          	auipc	a5,0x7fff7
    a6a0:	6d078793          	addi	a5,a5,1744 # 80001d6c <_impure_ptr>
    a6a4:	0007a503          	lw	a0,0(a5)
    a6a8:	00000597          	auipc	a1,0x0
    a6ac:	dac58593          	addi	a1,a1,-596 # a454 <__fp_unlock>
    a6b0:	00000317          	auipc	t1,0x0
    a6b4:	58030067          	jr	1408(t1) # ac30 <_fwalk>

0000a6b8 <__fputwc>:
    a6b8:	fd010113          	addi	sp,sp,-48
    a6bc:	02812423          	sw	s0,40(sp)
    a6c0:	02912223          	sw	s1,36(sp)
    a6c4:	01412c23          	sw	s4,24(sp)
    a6c8:	02112623          	sw	ra,44(sp)
    a6cc:	03212023          	sw	s2,32(sp)
    a6d0:	01312e23          	sw	s3,28(sp)
    a6d4:	01512a23          	sw	s5,20(sp)
    a6d8:	01612823          	sw	s6,16(sp)
    a6dc:	00050a13          	mv	s4,a0
    a6e0:	00058493          	mv	s1,a1
    a6e4:	00060413          	mv	s0,a2
    a6e8:	00003097          	auipc	ra,0x3
    a6ec:	9c8080e7          	jalr	-1592(ra) # d0b0 <__locale_mb_cur_max>
    a6f0:	00100793          	li	a5,1
    a6f4:	04f51a63          	bne	a0,a5,a748 <__fputwc+0x90>
    a6f8:	fff48793          	addi	a5,s1,-1
    a6fc:	0fe00713          	li	a4,254
    a700:	04f76463          	bltu	a4,a5,a748 <__fputwc+0x90>
    a704:	00910623          	sb	s1,12(sp)
    a708:	00100993          	li	s3,1
    a70c:	00000913          	li	s2,0
    a710:	fff00a93          	li	s5,-1
    a714:	00a00b13          	li	s6,10
    a718:	07391463          	bne	s2,s3,a780 <__fputwc+0xc8>
    a71c:	00048513          	mv	a0,s1
    a720:	02c12083          	lw	ra,44(sp)
    a724:	02812403          	lw	s0,40(sp)
    a728:	02412483          	lw	s1,36(sp)
    a72c:	02012903          	lw	s2,32(sp)
    a730:	01c12983          	lw	s3,28(sp)
    a734:	01812a03          	lw	s4,24(sp)
    a738:	01412a83          	lw	s5,20(sp)
    a73c:	01012b03          	lw	s6,16(sp)
    a740:	03010113          	addi	sp,sp,48
    a744:	00008067          	ret
    a748:	05c40693          	addi	a3,s0,92
    a74c:	00048613          	mv	a2,s1
    a750:	00c10593          	addi	a1,sp,12
    a754:	000a0513          	mv	a0,s4
    a758:	00005097          	auipc	ra,0x5
    a75c:	acc080e7          	jalr	-1332(ra) # f224 <_wcrtomb_r>
    a760:	fff00793          	li	a5,-1
    a764:	00050993          	mv	s3,a0
    a768:	faf512e3          	bne	a0,a5,a70c <__fputwc+0x54>
    a76c:	00c45783          	lhu	a5,12(s0)
    a770:	0407e793          	ori	a5,a5,64
    a774:	00f41623          	sh	a5,12(s0)
    a778:	fff00513          	li	a0,-1
    a77c:	fa5ff06f          	j	a720 <__fputwc+0x68>
    a780:	00c10793          	addi	a5,sp,12
    a784:	012787b3          	add	a5,a5,s2
    a788:	0007c583          	lbu	a1,0(a5)
    a78c:	00842783          	lw	a5,8(s0)
    a790:	fff78793          	addi	a5,a5,-1
    a794:	00f42423          	sw	a5,8(s0)
    a798:	0007d863          	bgez	a5,a7a8 <__fputwc+0xf0>
    a79c:	01842703          	lw	a4,24(s0)
    a7a0:	02e7c063          	blt	a5,a4,a7c0 <__fputwc+0x108>
    a7a4:	01658e63          	beq	a1,s6,a7c0 <__fputwc+0x108>
    a7a8:	00042783          	lw	a5,0(s0)
    a7ac:	00178713          	addi	a4,a5,1
    a7b0:	00e42023          	sw	a4,0(s0)
    a7b4:	00b78023          	sb	a1,0(a5)
    a7b8:	00190913          	addi	s2,s2,1
    a7bc:	f5dff06f          	j	a718 <__fputwc+0x60>
    a7c0:	00040613          	mv	a2,s0
    a7c4:	000a0513          	mv	a0,s4
    a7c8:	fffff097          	auipc	ra,0xfffff
    a7cc:	648080e7          	jalr	1608(ra) # 9e10 <__swbuf_r>
    a7d0:	ff5514e3          	bne	a0,s5,a7b8 <__fputwc+0x100>
    a7d4:	fa5ff06f          	j	a778 <__fputwc+0xc0>

0000a7d8 <_fputwc_r>:
    a7d8:	00c61783          	lh	a5,12(a2)
    a7dc:	01279713          	slli	a4,a5,0x12
    a7e0:	02074063          	bltz	a4,a800 <_fputwc_r+0x28>
    a7e4:	06462703          	lw	a4,100(a2)
    a7e8:	000026b7          	lui	a3,0x2
    a7ec:	00d7e7b3          	or	a5,a5,a3
    a7f0:	00f61623          	sh	a5,12(a2)
    a7f4:	000027b7          	lui	a5,0x2
    a7f8:	00f767b3          	or	a5,a4,a5
    a7fc:	06f62223          	sw	a5,100(a2)
    a800:	00000317          	auipc	t1,0x0
    a804:	eb830067          	jr	-328(t1) # a6b8 <__fputwc>

0000a808 <fputwc>:
    a808:	fe010113          	addi	sp,sp,-32
    a80c:	7fff7797          	auipc	a5,0x7fff7
    a810:	56078793          	addi	a5,a5,1376 # 80001d6c <_impure_ptr>
    a814:	00812c23          	sw	s0,24(sp)
    a818:	0007a403          	lw	s0,0(a5)
    a81c:	00912a23          	sw	s1,20(sp)
    a820:	00112e23          	sw	ra,28(sp)
    a824:	00050493          	mv	s1,a0
    a828:	00058613          	mv	a2,a1
    a82c:	02040063          	beqz	s0,a84c <fputwc+0x44>
    a830:	03842783          	lw	a5,56(s0)
    a834:	00079c63          	bnez	a5,a84c <fputwc+0x44>
    a838:	00040513          	mv	a0,s0
    a83c:	00b12623          	sw	a1,12(sp)
    a840:	00000097          	auipc	ra,0x0
    a844:	ca4080e7          	jalr	-860(ra) # a4e4 <__sinit>
    a848:	00c12603          	lw	a2,12(sp)
    a84c:	00040513          	mv	a0,s0
    a850:	01812403          	lw	s0,24(sp)
    a854:	01c12083          	lw	ra,28(sp)
    a858:	00048593          	mv	a1,s1
    a85c:	01412483          	lw	s1,20(sp)
    a860:	02010113          	addi	sp,sp,32
    a864:	00000317          	auipc	t1,0x0
    a868:	f7430067          	jr	-140(t1) # a7d8 <_fputwc_r>

0000a86c <_malloc_trim_r>:
    a86c:	fe010113          	addi	sp,sp,-32
    a870:	00812c23          	sw	s0,24(sp)
    a874:	00912a23          	sw	s1,20(sp)
    a878:	01212823          	sw	s2,16(sp)
    a87c:	01312623          	sw	s3,12(sp)
    a880:	00058413          	mv	s0,a1
    a884:	00112e23          	sw	ra,28(sp)
    a888:	00050913          	mv	s2,a0
    a88c:	7fff7997          	auipc	s3,0x7fff7
    a890:	f5c98993          	addi	s3,s3,-164 # 800017e8 <__malloc_av_>
    a894:	ffffc097          	auipc	ra,0xffffc
    a898:	a18080e7          	jalr	-1512(ra) # 62ac <__malloc_lock>
    a89c:	0089a783          	lw	a5,8(s3)
    a8a0:	00001737          	lui	a4,0x1
    a8a4:	0047a483          	lw	s1,4(a5)
    a8a8:	fef70793          	addi	a5,a4,-17 # fef <_ZN6tflite12_GLOBAL__N_111AverageEvalEP13TfLiteContextP10TfLiteNode+0x6ef>
    a8ac:	40878433          	sub	s0,a5,s0
    a8b0:	ffc4f493          	andi	s1,s1,-4
    a8b4:	00940433          	add	s0,s0,s1
    a8b8:	00c45413          	srli	s0,s0,0xc
    a8bc:	fff40413          	addi	s0,s0,-1
    a8c0:	00c41413          	slli	s0,s0,0xc
    a8c4:	02e45863          	bge	s0,a4,a8f4 <_malloc_trim_r+0x88>
    a8c8:	00090513          	mv	a0,s2
    a8cc:	ffffc097          	auipc	ra,0xffffc
    a8d0:	9e4080e7          	jalr	-1564(ra) # 62b0 <__malloc_unlock>
    a8d4:	00000513          	li	a0,0
    a8d8:	01c12083          	lw	ra,28(sp)
    a8dc:	01812403          	lw	s0,24(sp)
    a8e0:	01412483          	lw	s1,20(sp)
    a8e4:	01012903          	lw	s2,16(sp)
    a8e8:	00c12983          	lw	s3,12(sp)
    a8ec:	02010113          	addi	sp,sp,32
    a8f0:	00008067          	ret
    a8f4:	00000593          	li	a1,0
    a8f8:	00090513          	mv	a0,s2
    a8fc:	ffffc097          	auipc	ra,0xffffc
    a900:	f38080e7          	jalr	-200(ra) # 6834 <_sbrk_r>
    a904:	0089a783          	lw	a5,8(s3)
    a908:	009787b3          	add	a5,a5,s1
    a90c:	faf51ee3          	bne	a0,a5,a8c8 <_malloc_trim_r+0x5c>
    a910:	408005b3          	neg	a1,s0
    a914:	00090513          	mv	a0,s2
    a918:	ffffc097          	auipc	ra,0xffffc
    a91c:	f1c080e7          	jalr	-228(ra) # 6834 <_sbrk_r>
    a920:	fff00793          	li	a5,-1
    a924:	04f51463          	bne	a0,a5,a96c <_malloc_trim_r+0x100>
    a928:	00000593          	li	a1,0
    a92c:	00090513          	mv	a0,s2
    a930:	ffffc097          	auipc	ra,0xffffc
    a934:	f04080e7          	jalr	-252(ra) # 6834 <_sbrk_r>
    a938:	0089a703          	lw	a4,8(s3)
    a93c:	00f00693          	li	a3,15
    a940:	40e507b3          	sub	a5,a0,a4
    a944:	f8f6d2e3          	bge	a3,a5,a8c8 <_malloc_trim_r+0x5c>
    a948:	7fff7697          	auipc	a3,0x7fff7
    a94c:	42868693          	addi	a3,a3,1064 # 80001d70 <__malloc_sbrk_base>
    a950:	0006a683          	lw	a3,0(a3)
    a954:	0017e793          	ori	a5,a5,1
    a958:	00f72223          	sw	a5,4(a4)
    a95c:	40d50533          	sub	a0,a0,a3
    a960:	7fff7697          	auipc	a3,0x7fff7
    a964:	4ea6a823          	sw	a0,1264(a3) # 80001e50 <__malloc_current_mallinfo>
    a968:	f61ff06f          	j	a8c8 <_malloc_trim_r+0x5c>
    a96c:	0089a783          	lw	a5,8(s3)
    a970:	408484b3          	sub	s1,s1,s0
    a974:	0014e493          	ori	s1,s1,1
    a978:	0097a223          	sw	s1,4(a5)
    a97c:	7fff7797          	auipc	a5,0x7fff7
    a980:	4d478793          	addi	a5,a5,1236 # 80001e50 <__malloc_current_mallinfo>
    a984:	0007a783          	lw	a5,0(a5)
    a988:	00090513          	mv	a0,s2
    a98c:	40878433          	sub	s0,a5,s0
    a990:	7fff7797          	auipc	a5,0x7fff7
    a994:	4c87a023          	sw	s0,1216(a5) # 80001e50 <__malloc_current_mallinfo>
    a998:	ffffc097          	auipc	ra,0xffffc
    a99c:	918080e7          	jalr	-1768(ra) # 62b0 <__malloc_unlock>
    a9a0:	00100513          	li	a0,1
    a9a4:	f35ff06f          	j	a8d8 <_malloc_trim_r+0x6c>

0000a9a8 <_free_r>:
    a9a8:	28058263          	beqz	a1,ac2c <_free_r+0x284>
    a9ac:	ff010113          	addi	sp,sp,-16
    a9b0:	00812423          	sw	s0,8(sp)
    a9b4:	00912223          	sw	s1,4(sp)
    a9b8:	00050413          	mv	s0,a0
    a9bc:	00058493          	mv	s1,a1
    a9c0:	00112623          	sw	ra,12(sp)
    a9c4:	ffffc097          	auipc	ra,0xffffc
    a9c8:	8e8080e7          	jalr	-1816(ra) # 62ac <__malloc_lock>
    a9cc:	ffc4a583          	lw	a1,-4(s1)
    a9d0:	ff848693          	addi	a3,s1,-8
    a9d4:	7fff7517          	auipc	a0,0x7fff7
    a9d8:	e1450513          	addi	a0,a0,-492 # 800017e8 <__malloc_av_>
    a9dc:	ffe5f793          	andi	a5,a1,-2
    a9e0:	00f68633          	add	a2,a3,a5
    a9e4:	00462703          	lw	a4,4(a2)
    a9e8:	00852803          	lw	a6,8(a0)
    a9ec:	0015f593          	andi	a1,a1,1
    a9f0:	ffc77713          	andi	a4,a4,-4
    a9f4:	06c81e63          	bne	a6,a2,aa70 <_free_r+0xc8>
    a9f8:	00e787b3          	add	a5,a5,a4
    a9fc:	02059063          	bnez	a1,aa1c <_free_r+0x74>
    aa00:	ff84a703          	lw	a4,-8(s1)
    aa04:	40e686b3          	sub	a3,a3,a4
    aa08:	0086a603          	lw	a2,8(a3)
    aa0c:	00e787b3          	add	a5,a5,a4
    aa10:	00c6a703          	lw	a4,12(a3)
    aa14:	00e62623          	sw	a4,12(a2)
    aa18:	00c72423          	sw	a2,8(a4)
    aa1c:	0017e713          	ori	a4,a5,1
    aa20:	00e6a223          	sw	a4,4(a3)
    aa24:	7fff7717          	auipc	a4,0x7fff7
    aa28:	dcd72623          	sw	a3,-564(a4) # 800017f0 <__malloc_av_+0x8>
    aa2c:	7fff7717          	auipc	a4,0x7fff7
    aa30:	34870713          	addi	a4,a4,840 # 80001d74 <__malloc_trim_threshold>
    aa34:	00072703          	lw	a4,0(a4)
    aa38:	00e7ee63          	bltu	a5,a4,aa54 <_free_r+0xac>
    aa3c:	7fff7797          	auipc	a5,0x7fff7
    aa40:	34c78793          	addi	a5,a5,844 # 80001d88 <__malloc_top_pad>
    aa44:	0007a583          	lw	a1,0(a5)
    aa48:	00040513          	mv	a0,s0
    aa4c:	00000097          	auipc	ra,0x0
    aa50:	e20080e7          	jalr	-480(ra) # a86c <_malloc_trim_r>
    aa54:	00040513          	mv	a0,s0
    aa58:	00812403          	lw	s0,8(sp)
    aa5c:	00c12083          	lw	ra,12(sp)
    aa60:	00412483          	lw	s1,4(sp)
    aa64:	01010113          	addi	sp,sp,16
    aa68:	ffffc317          	auipc	t1,0xffffc
    aa6c:	84830067          	jr	-1976(t1) # 62b0 <__malloc_unlock>
    aa70:	00e62223          	sw	a4,4(a2)
    aa74:	00000813          	li	a6,0
    aa78:	02059663          	bnez	a1,aaa4 <_free_r+0xfc>
    aa7c:	ff84a583          	lw	a1,-8(s1)
    aa80:	7fff7897          	auipc	a7,0x7fff7
    aa84:	d7088893          	addi	a7,a7,-656 # 800017f0 <__malloc_av_+0x8>
    aa88:	40b686b3          	sub	a3,a3,a1
    aa8c:	00b787b3          	add	a5,a5,a1
    aa90:	0086a583          	lw	a1,8(a3)
    aa94:	0b158c63          	beq	a1,a7,ab4c <_free_r+0x1a4>
    aa98:	00c6a883          	lw	a7,12(a3)
    aa9c:	0115a623          	sw	a7,12(a1)
    aaa0:	00b8a423          	sw	a1,8(a7)
    aaa4:	00e605b3          	add	a1,a2,a4
    aaa8:	0045a583          	lw	a1,4(a1)
    aaac:	0015f593          	andi	a1,a1,1
    aab0:	02059c63          	bnez	a1,aae8 <_free_r+0x140>
    aab4:	00e787b3          	add	a5,a5,a4
    aab8:	00862703          	lw	a4,8(a2)
    aabc:	08081c63          	bnez	a6,ab54 <_free_r+0x1ac>
    aac0:	7fff7597          	auipc	a1,0x7fff7
    aac4:	d3058593          	addi	a1,a1,-720 # 800017f0 <__malloc_av_+0x8>
    aac8:	08b71663          	bne	a4,a1,ab54 <_free_r+0x1ac>
    aacc:	7fff7617          	auipc	a2,0x7fff7
    aad0:	d2d62823          	sw	a3,-720(a2) # 800017fc <__malloc_av_+0x14>
    aad4:	7fff7617          	auipc	a2,0x7fff7
    aad8:	d2d62223          	sw	a3,-732(a2) # 800017f8 <__malloc_av_+0x10>
    aadc:	00e6a623          	sw	a4,12(a3)
    aae0:	00e6a423          	sw	a4,8(a3)
    aae4:	00100813          	li	a6,1
    aae8:	0017e713          	ori	a4,a5,1
    aaec:	00e6a223          	sw	a4,4(a3)
    aaf0:	00f68733          	add	a4,a3,a5
    aaf4:	00f72023          	sw	a5,0(a4)
    aaf8:	f4081ee3          	bnez	a6,aa54 <_free_r+0xac>
    aafc:	1ff00713          	li	a4,511
    ab00:	06f76263          	bltu	a4,a5,ab64 <_free_r+0x1bc>
    ab04:	0037d793          	srli	a5,a5,0x3
    ab08:	4027d613          	srai	a2,a5,0x2
    ab0c:	00100713          	li	a4,1
    ab10:	00c71733          	sll	a4,a4,a2
    ab14:	00452603          	lw	a2,4(a0)
    ab18:	00178793          	addi	a5,a5,1
    ab1c:	00379793          	slli	a5,a5,0x3
    ab20:	00c76733          	or	a4,a4,a2
    ab24:	00f507b3          	add	a5,a0,a5
    ab28:	7fff7617          	auipc	a2,0x7fff7
    ab2c:	cce62223          	sw	a4,-828(a2) # 800017ec <__malloc_av_+0x4>
    ab30:	0007a703          	lw	a4,0(a5)
    ab34:	ff878613          	addi	a2,a5,-8
    ab38:	00c6a623          	sw	a2,12(a3)
    ab3c:	00e6a423          	sw	a4,8(a3)
    ab40:	00d7a023          	sw	a3,0(a5)
    ab44:	00d72623          	sw	a3,12(a4)
    ab48:	f0dff06f          	j	aa54 <_free_r+0xac>
    ab4c:	00100813          	li	a6,1
    ab50:	f55ff06f          	j	aaa4 <_free_r+0xfc>
    ab54:	00c62603          	lw	a2,12(a2)
    ab58:	00c72623          	sw	a2,12(a4)
    ab5c:	00e62423          	sw	a4,8(a2)
    ab60:	f89ff06f          	j	aae8 <_free_r+0x140>
    ab64:	0097d613          	srli	a2,a5,0x9
    ab68:	00400713          	li	a4,4
    ab6c:	04c76a63          	bltu	a4,a2,abc0 <_free_r+0x218>
    ab70:	0067d713          	srli	a4,a5,0x6
    ab74:	03870713          	addi	a4,a4,56
    ab78:	00170613          	addi	a2,a4,1
    ab7c:	00361613          	slli	a2,a2,0x3
    ab80:	00c50633          	add	a2,a0,a2
    ab84:	ff860593          	addi	a1,a2,-8
    ab88:	00062603          	lw	a2,0(a2)
    ab8c:	08c59663          	bne	a1,a2,ac18 <_free_r+0x270>
    ab90:	00100793          	li	a5,1
    ab94:	40275713          	srai	a4,a4,0x2
    ab98:	00e79733          	sll	a4,a5,a4
    ab9c:	00452783          	lw	a5,4(a0)
    aba0:	00f76733          	or	a4,a4,a5
    aba4:	7fff7797          	auipc	a5,0x7fff7
    aba8:	c4e7a423          	sw	a4,-952(a5) # 800017ec <__malloc_av_+0x4>
    abac:	00b6a623          	sw	a1,12(a3)
    abb0:	00c6a423          	sw	a2,8(a3)
    abb4:	00d5a423          	sw	a3,8(a1)
    abb8:	00d62623          	sw	a3,12(a2)
    abbc:	e99ff06f          	j	aa54 <_free_r+0xac>
    abc0:	01400713          	li	a4,20
    abc4:	00c76663          	bltu	a4,a2,abd0 <_free_r+0x228>
    abc8:	05b60713          	addi	a4,a2,91
    abcc:	fadff06f          	j	ab78 <_free_r+0x1d0>
    abd0:	05400713          	li	a4,84
    abd4:	00c76863          	bltu	a4,a2,abe4 <_free_r+0x23c>
    abd8:	00c7d713          	srli	a4,a5,0xc
    abdc:	06e70713          	addi	a4,a4,110
    abe0:	f99ff06f          	j	ab78 <_free_r+0x1d0>
    abe4:	15400713          	li	a4,340
    abe8:	00c76863          	bltu	a4,a2,abf8 <_free_r+0x250>
    abec:	00f7d713          	srli	a4,a5,0xf
    abf0:	07770713          	addi	a4,a4,119
    abf4:	f85ff06f          	j	ab78 <_free_r+0x1d0>
    abf8:	55400593          	li	a1,1364
    abfc:	07e00713          	li	a4,126
    ac00:	f6c5ece3          	bltu	a1,a2,ab78 <_free_r+0x1d0>
    ac04:	0127d713          	srli	a4,a5,0x12
    ac08:	07c70713          	addi	a4,a4,124
    ac0c:	f6dff06f          	j	ab78 <_free_r+0x1d0>
    ac10:	00862603          	lw	a2,8(a2)
    ac14:	00c58863          	beq	a1,a2,ac24 <_free_r+0x27c>
    ac18:	00462703          	lw	a4,4(a2)
    ac1c:	ffc77713          	andi	a4,a4,-4
    ac20:	fee7e8e3          	bltu	a5,a4,ac10 <_free_r+0x268>
    ac24:	00c62583          	lw	a1,12(a2)
    ac28:	f85ff06f          	j	abac <_free_r+0x204>
    ac2c:	00008067          	ret

0000ac30 <_fwalk>:
    ac30:	fd010113          	addi	sp,sp,-48
    ac34:	02812423          	sw	s0,40(sp)
    ac38:	03212023          	sw	s2,32(sp)
    ac3c:	01412c23          	sw	s4,24(sp)
    ac40:	01512a23          	sw	s5,20(sp)
    ac44:	02112623          	sw	ra,44(sp)
    ac48:	02912223          	sw	s1,36(sp)
    ac4c:	01312e23          	sw	s3,28(sp)
    ac50:	2e050413          	addi	s0,a0,736
    ac54:	00000913          	li	s2,0
    ac58:	00100a13          	li	s4,1
    ac5c:	fff00a93          	li	s5,-1
    ac60:	02041663          	bnez	s0,ac8c <_fwalk+0x5c>
    ac64:	02c12083          	lw	ra,44(sp)
    ac68:	02812403          	lw	s0,40(sp)
    ac6c:	00090513          	mv	a0,s2
    ac70:	02412483          	lw	s1,36(sp)
    ac74:	02012903          	lw	s2,32(sp)
    ac78:	01c12983          	lw	s3,28(sp)
    ac7c:	01812a03          	lw	s4,24(sp)
    ac80:	01412a83          	lw	s5,20(sp)
    ac84:	03010113          	addi	sp,sp,48
    ac88:	00008067          	ret
    ac8c:	00842483          	lw	s1,8(s0)
    ac90:	00442983          	lw	s3,4(s0)
    ac94:	fff98993          	addi	s3,s3,-1
    ac98:	0009d663          	bgez	s3,aca4 <_fwalk+0x74>
    ac9c:	00042403          	lw	s0,0(s0)
    aca0:	fc1ff06f          	j	ac60 <_fwalk+0x30>
    aca4:	00c4d783          	lhu	a5,12(s1)
    aca8:	02fa7063          	bgeu	s4,a5,acc8 <_fwalk+0x98>
    acac:	00e49783          	lh	a5,14(s1)
    acb0:	01578c63          	beq	a5,s5,acc8 <_fwalk+0x98>
    acb4:	00048513          	mv	a0,s1
    acb8:	00b12623          	sw	a1,12(sp)
    acbc:	000580e7          	jalr	a1
    acc0:	00c12583          	lw	a1,12(sp)
    acc4:	00a96933          	or	s2,s2,a0
    acc8:	06848493          	addi	s1,s1,104
    accc:	fc9ff06f          	j	ac94 <_fwalk+0x64>

0000acd0 <_fwalk_reent>:
    acd0:	fd010113          	addi	sp,sp,-48
    acd4:	02812423          	sw	s0,40(sp)
    acd8:	03212023          	sw	s2,32(sp)
    acdc:	01412c23          	sw	s4,24(sp)
    ace0:	01512a23          	sw	s5,20(sp)
    ace4:	01612823          	sw	s6,16(sp)
    ace8:	01712623          	sw	s7,12(sp)
    acec:	02112623          	sw	ra,44(sp)
    acf0:	02912223          	sw	s1,36(sp)
    acf4:	01312e23          	sw	s3,28(sp)
    acf8:	00050a13          	mv	s4,a0
    acfc:	00058a93          	mv	s5,a1
    ad00:	2e050413          	addi	s0,a0,736
    ad04:	00000913          	li	s2,0
    ad08:	00100b13          	li	s6,1
    ad0c:	fff00b93          	li	s7,-1
    ad10:	02041a63          	bnez	s0,ad44 <_fwalk_reent+0x74>
    ad14:	02c12083          	lw	ra,44(sp)
    ad18:	02812403          	lw	s0,40(sp)
    ad1c:	00090513          	mv	a0,s2
    ad20:	02412483          	lw	s1,36(sp)
    ad24:	02012903          	lw	s2,32(sp)
    ad28:	01c12983          	lw	s3,28(sp)
    ad2c:	01812a03          	lw	s4,24(sp)
    ad30:	01412a83          	lw	s5,20(sp)
    ad34:	01012b03          	lw	s6,16(sp)
    ad38:	00c12b83          	lw	s7,12(sp)
    ad3c:	03010113          	addi	sp,sp,48
    ad40:	00008067          	ret
    ad44:	00842483          	lw	s1,8(s0)
    ad48:	00442983          	lw	s3,4(s0)
    ad4c:	fff98993          	addi	s3,s3,-1
    ad50:	0009d663          	bgez	s3,ad5c <_fwalk_reent+0x8c>
    ad54:	00042403          	lw	s0,0(s0)
    ad58:	fb9ff06f          	j	ad10 <_fwalk_reent+0x40>
    ad5c:	00c4d783          	lhu	a5,12(s1)
    ad60:	00fb7e63          	bgeu	s6,a5,ad7c <_fwalk_reent+0xac>
    ad64:	00e49783          	lh	a5,14(s1)
    ad68:	01778a63          	beq	a5,s7,ad7c <_fwalk_reent+0xac>
    ad6c:	00048593          	mv	a1,s1
    ad70:	000a0513          	mv	a0,s4
    ad74:	000a80e7          	jalr	s5
    ad78:	00a96933          	or	s2,s2,a0
    ad7c:	06848493          	addi	s1,s1,104
    ad80:	fcdff06f          	j	ad4c <_fwalk_reent+0x7c>

0000ad84 <eclear>:
    ad84:	01450793          	addi	a5,a0,20
    ad88:	00250513          	addi	a0,a0,2
    ad8c:	fe051f23          	sh	zero,-2(a0)
    ad90:	fef51ce3          	bne	a0,a5,ad88 <eclear+0x4>
    ad94:	00008067          	ret

0000ad98 <emov>:
    ad98:	00000793          	li	a5,0
    ad9c:	01400713          	li	a4,20
    ada0:	00f506b3          	add	a3,a0,a5
    ada4:	0006d603          	lhu	a2,0(a3)
    ada8:	00f586b3          	add	a3,a1,a5
    adac:	00278793          	addi	a5,a5,2
    adb0:	00c69023          	sh	a2,0(a3)
    adb4:	fee796e3          	bne	a5,a4,ada0 <emov+0x8>
    adb8:	00008067          	ret

0000adbc <ecleaz>:
    adbc:	01a50793          	addi	a5,a0,26
    adc0:	00250513          	addi	a0,a0,2
    adc4:	fe051f23          	sh	zero,-2(a0)
    adc8:	fef51ce3          	bne	a0,a5,adc0 <ecleaz+0x4>
    adcc:	00008067          	ret

0000add0 <emovz>:
    add0:	00000793          	li	a5,0
    add4:	01800713          	li	a4,24
    add8:	00f506b3          	add	a3,a0,a5
    addc:	0006d603          	lhu	a2,0(a3)
    ade0:	00f586b3          	add	a3,a1,a5
    ade4:	00278793          	addi	a5,a5,2
    ade8:	00c69023          	sh	a2,0(a3)
    adec:	fee796e3          	bne	a5,a4,add8 <emovz+0x8>
    adf0:	00059c23          	sh	zero,24(a1)
    adf4:	00008067          	ret

0000adf8 <ecmpm>:
    adf8:	00400793          	li	a5,4
    adfc:	01a00613          	li	a2,26
    ae00:	00f50733          	add	a4,a0,a5
    ae04:	00075683          	lhu	a3,0(a4)
    ae08:	00f58733          	add	a4,a1,a5
    ae0c:	00075703          	lhu	a4,0(a4)
    ae10:	00e68a63          	beq	a3,a4,ae24 <ecmpm+0x2c>
    ae14:	00100513          	li	a0,1
    ae18:	00d76c63          	bltu	a4,a3,ae30 <ecmpm+0x38>
    ae1c:	fff00513          	li	a0,-1
    ae20:	00008067          	ret
    ae24:	00278793          	addi	a5,a5,2
    ae28:	fcc79ce3          	bne	a5,a2,ae00 <ecmpm+0x8>
    ae2c:	00000513          	li	a0,0
    ae30:	00008067          	ret

0000ae34 <eshdn1>:
    ae34:	00450693          	addi	a3,a0,4
    ae38:	00000793          	li	a5,0
    ae3c:	01a50513          	addi	a0,a0,26
    ae40:	ffff8637          	lui	a2,0xffff8
    ae44:	0006d703          	lhu	a4,0(a3)
    ae48:	00177593          	andi	a1,a4,1
    ae4c:	00058463          	beqz	a1,ae54 <eshdn1+0x20>
    ae50:	0017e793          	ori	a5,a5,1
    ae54:	0027f593          	andi	a1,a5,2
    ae58:	00175713          	srli	a4,a4,0x1
    ae5c:	02059063          	bnez	a1,ae7c <eshdn1+0x48>
    ae60:	00179793          	slli	a5,a5,0x1
    ae64:	00e69023          	sh	a4,0(a3)
    ae68:	01079793          	slli	a5,a5,0x10
    ae6c:	00268693          	addi	a3,a3,2
    ae70:	0107d793          	srli	a5,a5,0x10
    ae74:	fcd518e3          	bne	a0,a3,ae44 <eshdn1+0x10>
    ae78:	00008067          	ret
    ae7c:	00c76733          	or	a4,a4,a2
    ae80:	fe1ff06f          	j	ae60 <eshdn1+0x2c>

0000ae84 <eshup1>:
    ae84:	01650693          	addi	a3,a0,22
    ae88:	00000713          	li	a4,0
    ae8c:	0026d783          	lhu	a5,2(a3)
    ae90:	01079613          	slli	a2,a5,0x10
    ae94:	41065613          	srai	a2,a2,0x10
    ae98:	00065463          	bgez	a2,aea0 <eshup1+0x1c>
    ae9c:	00176713          	ori	a4,a4,1
    aea0:	00179793          	slli	a5,a5,0x1
    aea4:	01079793          	slli	a5,a5,0x10
    aea8:	00277613          	andi	a2,a4,2
    aeac:	0107d793          	srli	a5,a5,0x10
    aeb0:	02061063          	bnez	a2,aed0 <eshup1+0x4c>
    aeb4:	00171713          	slli	a4,a4,0x1
    aeb8:	00f69123          	sh	a5,2(a3)
    aebc:	01071713          	slli	a4,a4,0x10
    aec0:	ffe68693          	addi	a3,a3,-2
    aec4:	01075713          	srli	a4,a4,0x10
    aec8:	fcd512e3          	bne	a0,a3,ae8c <eshup1+0x8>
    aecc:	00008067          	ret
    aed0:	0017e793          	ori	a5,a5,1
    aed4:	fe1ff06f          	j	aeb4 <eshup1+0x30>

0000aed8 <eshdn8>:
    aed8:	00450793          	addi	a5,a0,4
    aedc:	00000713          	li	a4,0
    aee0:	01a50513          	addi	a0,a0,26
    aee4:	0007d683          	lhu	a3,0(a5)
    aee8:	00278793          	addi	a5,a5,2
    aeec:	0086d613          	srli	a2,a3,0x8
    aef0:	00c76733          	or	a4,a4,a2
    aef4:	fee79f23          	sh	a4,-2(a5)
    aef8:	00869713          	slli	a4,a3,0x8
    aefc:	01071713          	slli	a4,a4,0x10
    af00:	01075713          	srli	a4,a4,0x10
    af04:	fef510e3          	bne	a0,a5,aee4 <eshdn8+0xc>
    af08:	00008067          	ret

0000af0c <eshup8>:
    af0c:	01650793          	addi	a5,a0,22
    af10:	00000713          	li	a4,0
    af14:	0027d683          	lhu	a3,2(a5)
    af18:	ffe78793          	addi	a5,a5,-2
    af1c:	00869613          	slli	a2,a3,0x8
    af20:	00c76733          	or	a4,a4,a2
    af24:	00e79223          	sh	a4,4(a5)
    af28:	0086d713          	srli	a4,a3,0x8
    af2c:	fef514e3          	bne	a0,a5,af14 <eshup8+0x8>
    af30:	00008067          	ret

0000af34 <eshup6>:
    af34:	00450793          	addi	a5,a0,4
    af38:	01850713          	addi	a4,a0,24
    af3c:	00278793          	addi	a5,a5,2
    af40:	0007d683          	lhu	a3,0(a5)
    af44:	fed79f23          	sh	a3,-2(a5)
    af48:	fef71ae3          	bne	a4,a5,af3c <eshup6+0x8>
    af4c:	00051c23          	sh	zero,24(a0)
    af50:	00008067          	ret

0000af54 <eshdn6>:
    af54:	01850793          	addi	a5,a0,24
    af58:	00450713          	addi	a4,a0,4
    af5c:	ffe78793          	addi	a5,a5,-2
    af60:	0007d683          	lhu	a3,0(a5)
    af64:	00d79123          	sh	a3,2(a5)
    af68:	fef71ae3          	bne	a4,a5,af5c <eshdn6+0x8>
    af6c:	00051223          	sh	zero,4(a0)
    af70:	00008067          	ret

0000af74 <eaddm>:
    af74:	01858593          	addi	a1,a1,24
    af78:	01650713          	addi	a4,a0,22
    af7c:	00000693          	li	a3,0
    af80:	00275783          	lhu	a5,2(a4)
    af84:	0005d603          	lhu	a2,0(a1)
    af88:	ffe70713          	addi	a4,a4,-2
    af8c:	ffe58593          	addi	a1,a1,-2
    af90:	00c787b3          	add	a5,a5,a2
    af94:	00d787b3          	add	a5,a5,a3
    af98:	00f59123          	sh	a5,2(a1)
    af9c:	0107d793          	srli	a5,a5,0x10
    afa0:	0017f693          	andi	a3,a5,1
    afa4:	fce51ee3          	bne	a0,a4,af80 <eaddm+0xc>
    afa8:	00008067          	ret

0000afac <esubm>:
    afac:	01858593          	addi	a1,a1,24
    afb0:	01650713          	addi	a4,a0,22
    afb4:	00000693          	li	a3,0
    afb8:	0005d783          	lhu	a5,0(a1)
    afbc:	ffe70713          	addi	a4,a4,-2
    afc0:	ffe58593          	addi	a1,a1,-2
    afc4:	40d787b3          	sub	a5,a5,a3
    afc8:	00475683          	lhu	a3,4(a4)
    afcc:	40d787b3          	sub	a5,a5,a3
    afd0:	00f59123          	sh	a5,2(a1)
    afd4:	0107d793          	srli	a5,a5,0x10
    afd8:	0017f693          	andi	a3,a5,1
    afdc:	fce51ee3          	bne	a0,a4,afb8 <esubm+0xc>
    afe0:	00008067          	ret

0000afe4 <m16m>:
    afe4:	fe010113          	addi	sp,sp,-32
    afe8:	00010337          	lui	t1,0x10
    afec:	01858893          	addi	a7,a1,24
    aff0:	00011d23          	sh	zero,26(sp)
    aff4:	00011e23          	sh	zero,28(sp)
    aff8:	00458593          	addi	a1,a1,4
    affc:	01c10693          	addi	a3,sp,28
    b000:	fff30313          	addi	t1,t1,-1 # ffff <__umoddi3+0x177>
    b004:	0008d703          	lhu	a4,0(a7)
    b008:	ffe68693          	addi	a3,a3,-2
    b00c:	ffe88893          	addi	a7,a7,-2
    b010:	02071c63          	bnez	a4,b048 <m16m+0x64>
    b014:	fe069f23          	sh	zero,-2(a3)
    b018:	ff1596e3          	bne	a1,a7,b004 <m16m+0x20>
    b01c:	00400793          	li	a5,4
    b020:	01a00713          	li	a4,26
    b024:	00410593          	addi	a1,sp,4
    b028:	00f585b3          	add	a1,a1,a5
    b02c:	0005d583          	lhu	a1,0(a1)
    b030:	00f606b3          	add	a3,a2,a5
    b034:	00278793          	addi	a5,a5,2
    b038:	00b69023          	sh	a1,0(a3)
    b03c:	fee794e3          	bne	a5,a4,b024 <m16m+0x40>
    b040:	02010113          	addi	sp,sp,32
    b044:	00008067          	ret
    b048:	02a70733          	mul	a4,a4,a0
    b04c:	0026d803          	lhu	a6,2(a3)
    b050:	006777b3          	and	a5,a4,t1
    b054:	010787b3          	add	a5,a5,a6
    b058:	0107d813          	srli	a6,a5,0x10
    b05c:	00f69123          	sh	a5,2(a3)
    b060:	01075793          	srli	a5,a4,0x10
    b064:	0006d703          	lhu	a4,0(a3)
    b068:	00e787b3          	add	a5,a5,a4
    b06c:	010787b3          	add	a5,a5,a6
    b070:	00f69023          	sh	a5,0(a3)
    b074:	0107d793          	srli	a5,a5,0x10
    b078:	fef69f23          	sh	a5,-2(a3)
    b07c:	f9dff06f          	j	b018 <m16m+0x34>

0000b080 <eisnan>:
    b080:	01255783          	lhu	a5,18(a0)
    b084:	fff7c793          	not	a5,a5
    b088:	01179713          	slli	a4,a5,0x11
    b08c:	00071c63          	bnez	a4,b0a4 <eisnan+0x24>
    b090:	01250793          	addi	a5,a0,18
    b094:	00250513          	addi	a0,a0,2
    b098:	ffe55703          	lhu	a4,-2(a0)
    b09c:	00071863          	bnez	a4,b0ac <eisnan+0x2c>
    b0a0:	fea79ae3          	bne	a5,a0,b094 <eisnan+0x14>
    b0a4:	00000513          	li	a0,0
    b0a8:	00008067          	ret
    b0ac:	00100513          	li	a0,1
    b0b0:	00008067          	ret

0000b0b4 <eisneg>:
    b0b4:	ff010113          	addi	sp,sp,-16
    b0b8:	00812423          	sw	s0,8(sp)
    b0bc:	00112623          	sw	ra,12(sp)
    b0c0:	00050413          	mv	s0,a0
    b0c4:	00000097          	auipc	ra,0x0
    b0c8:	fbc080e7          	jalr	-68(ra) # b080 <eisnan>
    b0cc:	00051e63          	bnez	a0,b0e8 <eisneg+0x34>
    b0d0:	01241503          	lh	a0,18(s0)
    b0d4:	01f55513          	srli	a0,a0,0x1f
    b0d8:	00c12083          	lw	ra,12(sp)
    b0dc:	00812403          	lw	s0,8(sp)
    b0e0:	01010113          	addi	sp,sp,16
    b0e4:	00008067          	ret
    b0e8:	00000513          	li	a0,0
    b0ec:	fedff06f          	j	b0d8 <eisneg+0x24>

0000b0f0 <emovi>:
    b0f0:	01251783          	lh	a5,18(a0)
    b0f4:	ff010113          	addi	sp,sp,-16
    b0f8:	00112623          	sw	ra,12(sp)
    b0fc:	00812423          	sw	s0,8(sp)
    b100:	00912223          	sw	s1,4(sp)
    b104:	01212023          	sw	s2,0(sp)
    b108:	0607da63          	bgez	a5,b17c <emovi+0x8c>
    b10c:	fff00793          	li	a5,-1
    b110:	00f59023          	sh	a5,0(a1)
    b114:	01255703          	lhu	a4,18(a0)
    b118:	000087b7          	lui	a5,0x8
    b11c:	fff78793          	addi	a5,a5,-1 # 7fff <_svfprintf_r+0x11f7>
    b120:	00e7f733          	and	a4,a5,a4
    b124:	00e59123          	sh	a4,2(a1)
    b128:	01050913          	addi	s2,a0,16
    b12c:	06f71863          	bne	a4,a5,b19c <emovi+0xac>
    b130:	00058413          	mv	s0,a1
    b134:	00050493          	mv	s1,a0
    b138:	00000097          	auipc	ra,0x0
    b13c:	f48080e7          	jalr	-184(ra) # b080 <eisnan>
    b140:	04050263          	beqz	a0,b184 <emovi+0x94>
    b144:	00640793          	addi	a5,s0,6
    b148:	00041223          	sh	zero,4(s0)
    b14c:	ffc48513          	addi	a0,s1,-4
    b150:	ffe90913          	addi	s2,s2,-2
    b154:	00295703          	lhu	a4,2(s2)
    b158:	00278793          	addi	a5,a5,2
    b15c:	fee79f23          	sh	a4,-2(a5)
    b160:	fea918e3          	bne	s2,a0,b150 <emovi+0x60>
    b164:	00c12083          	lw	ra,12(sp)
    b168:	00812403          	lw	s0,8(sp)
    b16c:	00412483          	lw	s1,4(sp)
    b170:	00012903          	lw	s2,0(sp)
    b174:	01010113          	addi	sp,sp,16
    b178:	00008067          	ret
    b17c:	00059023          	sh	zero,0(a1)
    b180:	f95ff06f          	j	b114 <emovi+0x24>
    b184:	00440793          	addi	a5,s0,4
    b188:	01a40593          	addi	a1,s0,26
    b18c:	00278793          	addi	a5,a5,2
    b190:	fe079f23          	sh	zero,-2(a5)
    b194:	feb79ce3          	bne	a5,a1,b18c <emovi+0x9c>
    b198:	fcdff06f          	j	b164 <emovi+0x74>
    b19c:	00658793          	addi	a5,a1,6
    b1a0:	00059223          	sh	zero,4(a1)
    b1a4:	ffe50513          	addi	a0,a0,-2
    b1a8:	ffe90913          	addi	s2,s2,-2
    b1ac:	00295703          	lhu	a4,2(s2)
    b1b0:	00278793          	addi	a5,a5,2
    b1b4:	fee79f23          	sh	a4,-2(a5)
    b1b8:	fea918e3          	bne	s2,a0,b1a8 <emovi+0xb8>
    b1bc:	00059c23          	sh	zero,24(a1)
    b1c0:	fa5ff06f          	j	b164 <emovi+0x74>

0000b1c4 <ecmp>:
    b1c4:	fb010113          	addi	sp,sp,-80
    b1c8:	04912223          	sw	s1,68(sp)
    b1cc:	05212023          	sw	s2,64(sp)
    b1d0:	04112623          	sw	ra,76(sp)
    b1d4:	04812423          	sw	s0,72(sp)
    b1d8:	00050913          	mv	s2,a0
    b1dc:	00058493          	mv	s1,a1
    b1e0:	00000097          	auipc	ra,0x0
    b1e4:	ea0080e7          	jalr	-352(ra) # b080 <eisnan>
    b1e8:	0e051663          	bnez	a0,b2d4 <ecmp+0x110>
    b1ec:	00048513          	mv	a0,s1
    b1f0:	00000097          	auipc	ra,0x0
    b1f4:	e90080e7          	jalr	-368(ra) # b080 <eisnan>
    b1f8:	00050413          	mv	s0,a0
    b1fc:	0c051c63          	bnez	a0,b2d4 <ecmp+0x110>
    b200:	00810593          	addi	a1,sp,8
    b204:	00090513          	mv	a0,s2
    b208:	00000097          	auipc	ra,0x0
    b20c:	ee8080e7          	jalr	-280(ra) # b0f0 <emovi>
    b210:	02410593          	addi	a1,sp,36
    b214:	00048513          	mv	a0,s1
    b218:	00000097          	auipc	ra,0x0
    b21c:	ed8080e7          	jalr	-296(ra) # b0f0 <emovi>
    b220:	00815703          	lhu	a4,8(sp)
    b224:	02415783          	lhu	a5,36(sp)
    b228:	06e78063          	beq	a5,a4,b288 <ecmp+0xc4>
    b22c:	00200793          	li	a5,2
    b230:	01800693          	li	a3,24
    b234:	00810613          	addi	a2,sp,8
    b238:	00f60633          	add	a2,a2,a5
    b23c:	00065603          	lhu	a2,0(a2) # ffff8000 <__stack_top+0x7ffae180>
    b240:	02061c63          	bnez	a2,b278 <ecmp+0xb4>
    b244:	02410613          	addi	a2,sp,36
    b248:	00f60633          	add	a2,a2,a5
    b24c:	00065603          	lhu	a2,0(a2)
    b250:	02061463          	bnez	a2,b278 <ecmp+0xb4>
    b254:	00278793          	addi	a5,a5,2
    b258:	fcd79ee3          	bne	a5,a3,b234 <ecmp+0x70>
    b25c:	00040513          	mv	a0,s0
    b260:	04c12083          	lw	ra,76(sp)
    b264:	04812403          	lw	s0,72(sp)
    b268:	04412483          	lw	s1,68(sp)
    b26c:	04012903          	lw	s2,64(sp)
    b270:	05010113          	addi	sp,sp,80
    b274:	00008067          	ret
    b278:	00100413          	li	s0,1
    b27c:	fe0700e3          	beqz	a4,b25c <ecmp+0x98>
    b280:	fff00413          	li	s0,-1
    b284:	fd9ff06f          	j	b25c <ecmp+0x98>
    b288:	00100713          	li	a4,1
    b28c:	00078463          	beqz	a5,b294 <ecmp+0xd0>
    b290:	fff00713          	li	a4,-1
    b294:	00000793          	li	a5,0
    b298:	01800593          	li	a1,24
    b29c:	00810693          	addi	a3,sp,8
    b2a0:	00f686b3          	add	a3,a3,a5
    b2a4:	0006d603          	lhu	a2,0(a3)
    b2a8:	02410693          	addi	a3,sp,36
    b2ac:	00f686b3          	add	a3,a3,a5
    b2b0:	0006d683          	lhu	a3,0(a3)
    b2b4:	00d60a63          	beq	a2,a3,b2c8 <ecmp+0x104>
    b2b8:	00070413          	mv	s0,a4
    b2bc:	fac6e0e3          	bltu	a3,a2,b25c <ecmp+0x98>
    b2c0:	40e00433          	neg	s0,a4
    b2c4:	f99ff06f          	j	b25c <ecmp+0x98>
    b2c8:	00278793          	addi	a5,a5,2
    b2cc:	fcb798e3          	bne	a5,a1,b29c <ecmp+0xd8>
    b2d0:	f8dff06f          	j	b25c <ecmp+0x98>
    b2d4:	ffe00413          	li	s0,-2
    b2d8:	f85ff06f          	j	b25c <ecmp+0x98>

0000b2dc <eisinf>:
    b2dc:	01255783          	lhu	a5,18(a0)
    b2e0:	fff7c793          	not	a5,a5
    b2e4:	01179713          	slli	a4,a5,0x11
    b2e8:	02071263          	bnez	a4,b30c <eisinf+0x30>
    b2ec:	ff010113          	addi	sp,sp,-16
    b2f0:	00112623          	sw	ra,12(sp)
    b2f4:	00000097          	auipc	ra,0x0
    b2f8:	d8c080e7          	jalr	-628(ra) # b080 <eisnan>
    b2fc:	00c12083          	lw	ra,12(sp)
    b300:	00153513          	seqz	a0,a0
    b304:	01010113          	addi	sp,sp,16
    b308:	00008067          	ret
    b30c:	00000513          	li	a0,0
    b310:	00008067          	ret

0000b314 <einfin.isra.2>:
    b314:	01250713          	addi	a4,a0,18
    b318:	00050793          	mv	a5,a0
    b31c:	00278793          	addi	a5,a5,2
    b320:	fe079f23          	sh	zero,-2(a5)
    b324:	fee79ce3          	bne	a5,a4,b31c <einfin.isra.2+0x8>
    b328:	01255783          	lhu	a5,18(a0)
    b32c:	00008737          	lui	a4,0x8
    b330:	fff70713          	addi	a4,a4,-1 # 7fff <_svfprintf_r+0x11f7>
    b334:	00e7e7b3          	or	a5,a5,a4
    b338:	00f51923          	sh	a5,18(a0)
    b33c:	00008067          	ret

0000b340 <eshift.part.3>:
    b340:	fe010113          	addi	sp,sp,-32
    b344:	00812c23          	sw	s0,24(sp)
    b348:	01312623          	sw	s3,12(sp)
    b34c:	00112e23          	sw	ra,28(sp)
    b350:	00912a23          	sw	s1,20(sp)
    b354:	01212823          	sw	s2,16(sp)
    b358:	01412423          	sw	s4,8(sp)
    b35c:	01512223          	sw	s5,4(sp)
    b360:	00050993          	mv	s3,a0
    b364:	00058413          	mv	s0,a1
    b368:	1005da63          	bgez	a1,b47c <eshift.part.3+0x13c>
    b36c:	40b00933          	neg	s2,a1
    b370:	00090a13          	mv	s4,s2
    b374:	00000493          	li	s1,0
    b378:	00f00a93          	li	s5,15
    b37c:	034ace63          	blt	s5,s4,b3b8 <eshift.part.3+0x78>
    b380:	00495913          	srli	s2,s2,0x4
    b384:	ff000593          	li	a1,-16
    b388:	02b905b3          	mul	a1,s2,a1
    b38c:	00700a13          	li	s4,7
    b390:	40858433          	sub	s0,a1,s0
    b394:	00040913          	mv	s2,s0
    b398:	032a4e63          	blt	s4,s2,b3d4 <eshift.part.3+0x94>
    b39c:	00345593          	srli	a1,s0,0x3
    b3a0:	ff800793          	li	a5,-8
    b3a4:	02f585b3          	mul	a1,a1,a5
    b3a8:	00858433          	add	s0,a1,s0
    b3ac:	04041263          	bnez	s0,b3f0 <eshift.part.3+0xb0>
    b3b0:	00903533          	snez	a0,s1
    b3b4:	0a40006f          	j	b458 <eshift.part.3+0x118>
    b3b8:	0189d783          	lhu	a5,24(s3)
    b3bc:	00098513          	mv	a0,s3
    b3c0:	ff0a0a13          	addi	s4,s4,-16
    b3c4:	00f4e4b3          	or	s1,s1,a5
    b3c8:	00000097          	auipc	ra,0x0
    b3cc:	b8c080e7          	jalr	-1140(ra) # af54 <eshdn6>
    b3d0:	fadff06f          	j	b37c <eshift.part.3+0x3c>
    b3d4:	0189c783          	lbu	a5,24(s3)
    b3d8:	00098513          	mv	a0,s3
    b3dc:	ff890913          	addi	s2,s2,-8
    b3e0:	0097e4b3          	or	s1,a5,s1
    b3e4:	00000097          	auipc	ra,0x0
    b3e8:	af4080e7          	jalr	-1292(ra) # aed8 <eshdn8>
    b3ec:	fadff06f          	j	b398 <eshift.part.3+0x58>
    b3f0:	0189d783          	lhu	a5,24(s3)
    b3f4:	00098513          	mv	a0,s3
    b3f8:	fff40413          	addi	s0,s0,-1
    b3fc:	0017f793          	andi	a5,a5,1
    b400:	0097e4b3          	or	s1,a5,s1
    b404:	00000097          	auipc	ra,0x0
    b408:	a30080e7          	jalr	-1488(ra) # ae34 <eshdn1>
    b40c:	fa1ff06f          	j	b3ac <eshift.part.3+0x6c>
    b410:	00098513          	mv	a0,s3
    b414:	00000097          	auipc	ra,0x0
    b418:	b20080e7          	jalr	-1248(ra) # af34 <eshup6>
    b41c:	ff048493          	addi	s1,s1,-16
    b420:	fe9948e3          	blt	s2,s1,b410 <eshift.part.3+0xd0>
    b424:	00445593          	srli	a1,s0,0x4
    b428:	ff000793          	li	a5,-16
    b42c:	02f585b3          	mul	a1,a1,a5
    b430:	00700913          	li	s2,7
    b434:	00b40433          	add	s0,s0,a1
    b438:	00040493          	mv	s1,s0
    b43c:	04994663          	blt	s2,s1,b488 <eshift.part.3+0x148>
    b440:	00345593          	srli	a1,s0,0x3
    b444:	ff800793          	li	a5,-8
    b448:	02f585b3          	mul	a1,a1,a5
    b44c:	00b40433          	add	s0,s0,a1
    b450:	04041663          	bnez	s0,b49c <eshift.part.3+0x15c>
    b454:	00000513          	li	a0,0
    b458:	01c12083          	lw	ra,28(sp)
    b45c:	01812403          	lw	s0,24(sp)
    b460:	01412483          	lw	s1,20(sp)
    b464:	01012903          	lw	s2,16(sp)
    b468:	00c12983          	lw	s3,12(sp)
    b46c:	00812a03          	lw	s4,8(sp)
    b470:	00412a83          	lw	s5,4(sp)
    b474:	02010113          	addi	sp,sp,32
    b478:	00008067          	ret
    b47c:	00058493          	mv	s1,a1
    b480:	00f00913          	li	s2,15
    b484:	f9dff06f          	j	b420 <eshift.part.3+0xe0>
    b488:	00098513          	mv	a0,s3
    b48c:	00000097          	auipc	ra,0x0
    b490:	a80080e7          	jalr	-1408(ra) # af0c <eshup8>
    b494:	ff848493          	addi	s1,s1,-8
    b498:	fa5ff06f          	j	b43c <eshift.part.3+0xfc>
    b49c:	00098513          	mv	a0,s3
    b4a0:	00000097          	auipc	ra,0x0
    b4a4:	9e4080e7          	jalr	-1564(ra) # ae84 <eshup1>
    b4a8:	fff40413          	addi	s0,s0,-1
    b4ac:	fa5ff06f          	j	b450 <eshift.part.3+0x110>

0000b4b0 <enormlz>:
    b4b0:	00455783          	lhu	a5,4(a0)
    b4b4:	ff010113          	addi	sp,sp,-16
    b4b8:	00912223          	sw	s1,4(sp)
    b4bc:	00112623          	sw	ra,12(sp)
    b4c0:	00812423          	sw	s0,8(sp)
    b4c4:	01212023          	sw	s2,0(sp)
    b4c8:	00050493          	mv	s1,a0
    b4cc:	02078263          	beqz	a5,b4f0 <enormlz+0x40>
    b4d0:	f007f793          	andi	a5,a5,-256
    b4d4:	00000413          	li	s0,0
    b4d8:	00078863          	beqz	a5,b4e8 <enormlz+0x38>
    b4dc:	00000097          	auipc	ra,0x0
    b4e0:	9fc080e7          	jalr	-1540(ra) # aed8 <eshdn8>
    b4e4:	ff800413          	li	s0,-8
    b4e8:	f6f00913          	li	s2,-145
    b4ec:	0a40006f          	j	b590 <enormlz+0xe0>
    b4f0:	00651783          	lh	a5,6(a0)
    b4f4:	00000413          	li	s0,0
    b4f8:	0a000913          	li	s2,160
    b4fc:	0207da63          	bgez	a5,b530 <enormlz+0x80>
    b500:	00040513          	mv	a0,s0
    b504:	00c12083          	lw	ra,12(sp)
    b508:	00812403          	lw	s0,8(sp)
    b50c:	00412483          	lw	s1,4(sp)
    b510:	00012903          	lw	s2,0(sp)
    b514:	01010113          	addi	sp,sp,16
    b518:	00008067          	ret
    b51c:	00048513          	mv	a0,s1
    b520:	01040413          	addi	s0,s0,16
    b524:	00000097          	auipc	ra,0x0
    b528:	a10080e7          	jalr	-1520(ra) # af34 <eshup6>
    b52c:	fd240ae3          	beq	s0,s2,b500 <enormlz+0x50>
    b530:	0064d783          	lhu	a5,6(s1)
    b534:	fe0784e3          	beqz	a5,b51c <enormlz+0x6c>
    b538:	0064d783          	lhu	a5,6(s1)
    b53c:	f007f793          	andi	a5,a5,-256
    b540:	02078463          	beqz	a5,b568 <enormlz+0xb8>
    b544:	0a000913          	li	s2,160
    b548:	00649783          	lh	a5,6(s1)
    b54c:	fa07cae3          	bltz	a5,b500 <enormlz+0x50>
    b550:	00048513          	mv	a0,s1
    b554:	00140413          	addi	s0,s0,1
    b558:	00000097          	auipc	ra,0x0
    b55c:	92c080e7          	jalr	-1748(ra) # ae84 <eshup1>
    b560:	fe8954e3          	bge	s2,s0,b548 <enormlz+0x98>
    b564:	f9dff06f          	j	b500 <enormlz+0x50>
    b568:	00048513          	mv	a0,s1
    b56c:	00000097          	auipc	ra,0x0
    b570:	9a0080e7          	jalr	-1632(ra) # af0c <eshup8>
    b574:	00840413          	addi	s0,s0,8
    b578:	fc1ff06f          	j	b538 <enormlz+0x88>
    b57c:	00048513          	mv	a0,s1
    b580:	fff40413          	addi	s0,s0,-1
    b584:	00000097          	auipc	ra,0x0
    b588:	8b0080e7          	jalr	-1872(ra) # ae34 <eshdn1>
    b58c:	f7240ae3          	beq	s0,s2,b500 <enormlz+0x50>
    b590:	0044d783          	lhu	a5,4(s1)
    b594:	fe0794e3          	bnez	a5,b57c <enormlz+0xcc>
    b598:	f69ff06f          	j	b500 <enormlz+0x50>

0000b59c <enan.constprop.12>:
    b59c:	01050713          	addi	a4,a0,16
    b5a0:	00050793          	mv	a5,a0
    b5a4:	00278793          	addi	a5,a5,2
    b5a8:	fe079f23          	sh	zero,-2(a5)
    b5ac:	fee79ce3          	bne	a5,a4,b5a4 <enan.constprop.12+0x8>
    b5b0:	7fffc7b7          	lui	a5,0x7fffc
    b5b4:	00f52823          	sw	a5,16(a0)
    b5b8:	00008067          	ret

0000b5bc <emovo.isra.6>:
    b5bc:	00050713          	mv	a4,a0
    b5c0:	00075683          	lhu	a3,0(a4)
    b5c4:	00058513          	mv	a0,a1
    b5c8:	00275783          	lhu	a5,2(a4)
    b5cc:	00068663          	beqz	a3,b5d8 <emovo.isra.6+0x1c>
    b5d0:	ffff86b7          	lui	a3,0xffff8
    b5d4:	00d7e7b3          	or	a5,a5,a3
    b5d8:	00f51923          	sh	a5,18(a0)
    b5dc:	00275603          	lhu	a2,2(a4)
    b5e0:	000086b7          	lui	a3,0x8
    b5e4:	fff68693          	addi	a3,a3,-1 # 7fff <_svfprintf_r+0x11f7>
    b5e8:	00670793          	addi	a5,a4,6
    b5ec:	02d61063          	bne	a2,a3,b60c <emovo.isra.6+0x50>
    b5f0:	01a70713          	addi	a4,a4,26
    b5f4:	0007d683          	lhu	a3,0(a5) # 7fffc000 <__trunctfdf2+0x7ffe8fa0>
    b5f8:	02069a63          	bnez	a3,b62c <emovo.isra.6+0x70>
    b5fc:	00278793          	addi	a5,a5,2
    b600:	fee79ae3          	bne	a5,a4,b5f4 <emovo.isra.6+0x38>
    b604:	00000317          	auipc	t1,0x0
    b608:	d1030067          	jr	-752(t1) # b314 <einfin.isra.2>
    b60c:	01050513          	addi	a0,a0,16
    b610:	01870713          	addi	a4,a4,24
    b614:	00278793          	addi	a5,a5,2
    b618:	ffe7d683          	lhu	a3,-2(a5)
    b61c:	ffe50513          	addi	a0,a0,-2
    b620:	00d51123          	sh	a3,2(a0)
    b624:	fee798e3          	bne	a5,a4,b614 <emovo.isra.6+0x58>
    b628:	00008067          	ret
    b62c:	00000317          	auipc	t1,0x0
    b630:	f7030067          	jr	-144(t1) # b59c <enan.constprop.12>

0000b634 <e113toe.isra.8>:
    b634:	fd010113          	addi	sp,sp,-48
    b638:	02912223          	sw	s1,36(sp)
    b63c:	00050493          	mv	s1,a0
    b640:	00410513          	addi	a0,sp,4
    b644:	02812423          	sw	s0,40(sp)
    b648:	02112623          	sw	ra,44(sp)
    b64c:	00058413          	mv	s0,a1
    b650:	fffff097          	auipc	ra,0xfffff
    b654:	76c080e7          	jalr	1900(ra) # adbc <ecleaz>
    b658:	00e4d703          	lhu	a4,14(s1)
    b65c:	01071793          	slli	a5,a4,0x10
    b660:	4107d793          	srai	a5,a5,0x10
    b664:	0407c463          	bltz	a5,b6ac <e113toe.isra.8+0x78>
    b668:	00011223          	sh	zero,4(sp)
    b66c:	000086b7          	lui	a3,0x8
    b670:	fff68693          	addi	a3,a3,-1 # 7fff <_svfprintf_r+0x11f7>
    b674:	00d77733          	and	a4,a4,a3
    b678:	00e48793          	addi	a5,s1,14
    b67c:	08d71463          	bne	a4,a3,b704 <e113toe.isra.8+0xd0>
    b680:	00048713          	mv	a4,s1
    b684:	00075683          	lhu	a3,0(a4)
    b688:	02068863          	beqz	a3,b6b8 <e113toe.isra.8+0x84>
    b68c:	00040513          	mv	a0,s0
    b690:	00000097          	auipc	ra,0x0
    b694:	f0c080e7          	jalr	-244(ra) # b59c <enan.constprop.12>
    b698:	02c12083          	lw	ra,44(sp)
    b69c:	02812403          	lw	s0,40(sp)
    b6a0:	02412483          	lw	s1,36(sp)
    b6a4:	03010113          	addi	sp,sp,48
    b6a8:	00008067          	ret
    b6ac:	fff00793          	li	a5,-1
    b6b0:	00f11223          	sh	a5,4(sp)
    b6b4:	fb9ff06f          	j	b66c <e113toe.isra.8+0x38>
    b6b8:	00270713          	addi	a4,a4,2
    b6bc:	fce794e3          	bne	a5,a4,b684 <e113toe.isra.8+0x50>
    b6c0:	00040513          	mv	a0,s0
    b6c4:	fffff097          	auipc	ra,0xfffff
    b6c8:	6c0080e7          	jalr	1728(ra) # ad84 <eclear>
    b6cc:	00040513          	mv	a0,s0
    b6d0:	00000097          	auipc	ra,0x0
    b6d4:	c44080e7          	jalr	-956(ra) # b314 <einfin.isra.2>
    b6d8:	00e49783          	lh	a5,14(s1)
    b6dc:	fa07dee3          	bgez	a5,b698 <e113toe.isra.8+0x64>
    b6e0:	00040513          	mv	a0,s0
    b6e4:	00000097          	auipc	ra,0x0
    b6e8:	99c080e7          	jalr	-1636(ra) # b080 <eisnan>
    b6ec:	fa0516e3          	bnez	a0,b698 <e113toe.isra.8+0x64>
    b6f0:	01245783          	lhu	a5,18(s0)
    b6f4:	ffff8737          	lui	a4,0xffff8
    b6f8:	00e7c7b3          	xor	a5,a5,a4
    b6fc:	00f41923          	sh	a5,18(s0)
    b700:	f99ff06f          	j	b698 <e113toe.isra.8+0x64>
    b704:	00e11323          	sh	a4,6(sp)
    b708:	00410693          	addi	a3,sp,4
    b70c:	ffe78793          	addi	a5,a5,-2
    b710:	0007d603          	lhu	a2,0(a5)
    b714:	00268693          	addi	a3,a3,2
    b718:	00c69223          	sh	a2,4(a3)
    b71c:	fef498e3          	bne	s1,a5,b70c <e113toe.isra.8+0xd8>
    b720:	00071e63          	bnez	a4,b73c <e113toe.isra.8+0x108>
    b724:	00011423          	sh	zero,8(sp)
    b728:	00040593          	mv	a1,s0
    b72c:	00410513          	addi	a0,sp,4
    b730:	00000097          	auipc	ra,0x0
    b734:	e8c080e7          	jalr	-372(ra) # b5bc <emovo.isra.6>
    b738:	f61ff06f          	j	b698 <e113toe.isra.8+0x64>
    b73c:	00100793          	li	a5,1
    b740:	fff00593          	li	a1,-1
    b744:	00410513          	addi	a0,sp,4
    b748:	00f11423          	sh	a5,8(sp)
    b74c:	00000097          	auipc	ra,0x0
    b750:	bf4080e7          	jalr	-1036(ra) # b340 <eshift.part.3>
    b754:	fd5ff06f          	j	b728 <e113toe.isra.8+0xf4>

0000b758 <emdnorm>:
    b758:	fe010113          	addi	sp,sp,-32
    b75c:	00812c23          	sw	s0,24(sp)
    b760:	00912a23          	sw	s1,20(sp)
    b764:	01212823          	sw	s2,16(sp)
    b768:	01312623          	sw	s3,12(sp)
    b76c:	01412423          	sw	s4,8(sp)
    b770:	01512223          	sw	s5,4(sp)
    b774:	00068913          	mv	s2,a3
    b778:	00078413          	mv	s0,a5
    b77c:	00112e23          	sw	ra,28(sp)
    b780:	00050493          	mv	s1,a0
    b784:	00058993          	mv	s3,a1
    b788:	00060a13          	mv	s4,a2
    b78c:	00070a93          	mv	s5,a4
    b790:	00000097          	auipc	ra,0x0
    b794:	d20080e7          	jalr	-736(ra) # b4b0 <enormlz>
    b798:	09000793          	li	a5,144
    b79c:	40a90933          	sub	s2,s2,a0
    b7a0:	04a7d463          	bge	a5,a0,b7e8 <emdnorm+0x90>
    b7a4:	000087b7          	lui	a5,0x8
    b7a8:	ffe78793          	addi	a5,a5,-2 # 7ffe <_svfprintf_r+0x11f6>
    b7ac:	0527ce63          	blt	a5,s2,b808 <emdnorm+0xb0>
    b7b0:	00248793          	addi	a5,s1,2
    b7b4:	01a48493          	addi	s1,s1,26
    b7b8:	00278793          	addi	a5,a5,2
    b7bc:	fe079f23          	sh	zero,-2(a5)
    b7c0:	fe979ce3          	bne	a5,s1,b7b8 <emdnorm+0x60>
    b7c4:	01c12083          	lw	ra,28(sp)
    b7c8:	01812403          	lw	s0,24(sp)
    b7cc:	01412483          	lw	s1,20(sp)
    b7d0:	01012903          	lw	s2,16(sp)
    b7d4:	00c12983          	lw	s3,12(sp)
    b7d8:	00812a03          	lw	s4,8(sp)
    b7dc:	00412a83          	lw	s5,4(sp)
    b7e0:	02010113          	addi	sp,sp,32
    b7e4:	00008067          	ret
    b7e8:	02095063          	bgez	s2,b808 <emdnorm+0xb0>
    b7ec:	f7000793          	li	a5,-144
    b7f0:	18f94e63          	blt	s2,a5,b98c <emdnorm+0x234>
    b7f4:	00090593          	mv	a1,s2
    b7f8:	00048513          	mv	a0,s1
    b7fc:	00000097          	auipc	ra,0x0
    b800:	b44080e7          	jalr	-1212(ra) # b340 <eshift.part.3>
    b804:	1a051063          	bnez	a0,b9a4 <emdnorm+0x24c>
    b808:	140a8863          	beqz	s5,b958 <emdnorm+0x200>
    b80c:	00442703          	lw	a4,4(s0)
    b810:	00042783          	lw	a5,0(s0)
    b814:	06f70863          	beq	a4,a5,b884 <emdnorm+0x12c>
    b818:	01a40513          	addi	a0,s0,26
    b81c:	fffff097          	auipc	ra,0xfffff
    b820:	5a0080e7          	jalr	1440(ra) # adbc <ecleaz>
    b824:	00442783          	lw	a5,4(s0)
    b828:	03800713          	li	a4,56
    b82c:	1ce78c63          	beq	a5,a4,ba04 <emdnorm+0x2ac>
    b830:	16f74e63          	blt	a4,a5,b9ac <emdnorm+0x254>
    b834:	01800713          	li	a4,24
    b838:	20e78463          	beq	a5,a4,ba40 <emdnorm+0x2e8>
    b83c:	03500713          	li	a4,53
    b840:	1ee78063          	beq	a5,a4,ba20 <emdnorm+0x2c8>
    b844:	00c00713          	li	a4,12
    b848:	00e42423          	sw	a4,8(s0)
    b84c:	80010737          	lui	a4,0x80010
    b850:	fff70713          	addi	a4,a4,-1 # 8000ffff <__stack_top+0xfffc617f>
    b854:	00e42a23          	sw	a4,20(s0)
    b858:	00100713          	li	a4,1
    b85c:	00e41c23          	sh	a4,24(s0)
    b860:	00b00713          	li	a4,11
    b864:	00e42623          	sw	a4,12(s0)
    b868:	00c42703          	lw	a4,12(s0)
    b86c:	01845683          	lhu	a3,24(s0)
    b870:	00870713          	addi	a4,a4,8
    b874:	00171713          	slli	a4,a4,0x1
    b878:	00e40733          	add	a4,s0,a4
    b87c:	00d71523          	sh	a3,10(a4)
    b880:	00f42023          	sw	a5,0(s0)
    b884:	03204463          	bgtz	s2,b8ac <emdnorm+0x154>
    b888:	00442703          	lw	a4,4(s0)
    b88c:	09000793          	li	a5,144
    b890:	00f70e63          	beq	a4,a5,b8ac <emdnorm+0x154>
    b894:	0184d783          	lhu	a5,24(s1)
    b898:	00048513          	mv	a0,s1
    b89c:	0017f793          	andi	a5,a5,1
    b8a0:	00f9e9b3          	or	s3,s3,a5
    b8a4:	fffff097          	auipc	ra,0xfffff
    b8a8:	590080e7          	jalr	1424(ra) # ae34 <eshdn1>
    b8ac:	00842683          	lw	a3,8(s0)
    b8b0:	01445603          	lhu	a2,20(s0)
    b8b4:	00442583          	lw	a1,4(s0)
    b8b8:	00169713          	slli	a4,a3,0x1
    b8bc:	00e48733          	add	a4,s1,a4
    b8c0:	00075783          	lhu	a5,0(a4)
    b8c4:	00c7f7b3          	and	a5,a5,a2
    b8c8:	08f00613          	li	a2,143
    b8cc:	00b64a63          	blt	a2,a1,b8e0 <emdnorm+0x188>
    b8d0:	00168693          	addi	a3,a3,1
    b8d4:	00070613          	mv	a2,a4
    b8d8:	00c00593          	li	a1,12
    b8dc:	16d5d663          	bge	a1,a3,ba48 <emdnorm+0x2f0>
    b8e0:	01445683          	lhu	a3,20(s0)
    b8e4:	00075603          	lhu	a2,0(a4)
    b8e8:	fff6c693          	not	a3,a3
    b8ec:	00c6f6b3          	and	a3,a3,a2
    b8f0:	00d71023          	sh	a3,0(a4)
    b8f4:	01645703          	lhu	a4,22(s0)
    b8f8:	00f776b3          	and	a3,a4,a5
    b8fc:	02068463          	beqz	a3,b924 <emdnorm+0x1cc>
    b900:	16f71463          	bne	a4,a5,ba68 <emdnorm+0x310>
    b904:	16099063          	bnez	s3,ba64 <emdnorm+0x30c>
    b908:	00c42783          	lw	a5,12(s0)
    b90c:	01845703          	lhu	a4,24(s0)
    b910:	00179793          	slli	a5,a5,0x1
    b914:	00f487b3          	add	a5,s1,a5
    b918:	0007d783          	lhu	a5,0(a5)
    b91c:	00e7f7b3          	and	a5,a5,a4
    b920:	14079463          	bnez	a5,ba68 <emdnorm+0x310>
    b924:	01204e63          	bgtz	s2,b940 <emdnorm+0x1e8>
    b928:	00442703          	lw	a4,4(s0)
    b92c:	09000793          	li	a5,144
    b930:	00f70863          	beq	a4,a5,b940 <emdnorm+0x1e8>
    b934:	00048513          	mv	a0,s1
    b938:	fffff097          	auipc	ra,0xfffff
    b93c:	54c080e7          	jalr	1356(ra) # ae84 <eshup1>
    b940:	0044d783          	lhu	a5,4(s1)
    b944:	00078a63          	beqz	a5,b958 <emdnorm+0x200>
    b948:	00048513          	mv	a0,s1
    b94c:	fffff097          	auipc	ra,0xfffff
    b950:	4e8080e7          	jalr	1256(ra) # ae34 <eshdn1>
    b954:	00190913          	addi	s2,s2,1
    b958:	000087b7          	lui	a5,0x8
    b95c:	00049c23          	sh	zero,24(s1)
    b960:	ffe78793          	addi	a5,a5,-2 # 7ffe <_svfprintf_r+0x11f6>
    b964:	1127dc63          	bge	a5,s2,ba7c <emdnorm+0x324>
    b968:	ffff87b7          	lui	a5,0xffff8
    b96c:	fff7c793          	not	a5,a5
    b970:	00f49123          	sh	a5,2(s1)
    b974:	00448793          	addi	a5,s1,4
    b978:	01848493          	addi	s1,s1,24
    b97c:	00079023          	sh	zero,0(a5) # ffff8000 <__stack_top+0x7ffae180>
    b980:	00278793          	addi	a5,a5,2
    b984:	fef49ce3          	bne	s1,a5,b97c <emdnorm+0x224>
    b988:	e3dff06f          	j	b7c4 <emdnorm+0x6c>
    b98c:	00248793          	addi	a5,s1,2
    b990:	01a48493          	addi	s1,s1,26
    b994:	00278793          	addi	a5,a5,2
    b998:	fe079f23          	sh	zero,-2(a5)
    b99c:	fe979ce3          	bne	a5,s1,b994 <emdnorm+0x23c>
    b9a0:	e25ff06f          	j	b7c4 <emdnorm+0x6c>
    b9a4:	00100993          	li	s3,1
    b9a8:	e61ff06f          	j	b808 <emdnorm+0xb0>
    b9ac:	04000713          	li	a4,64
    b9b0:	02e78863          	beq	a5,a4,b9e0 <emdnorm+0x288>
    b9b4:	07100713          	li	a4,113
    b9b8:	e8e796e3          	bne	a5,a4,b844 <emdnorm+0xec>
    b9bc:	40008737          	lui	a4,0x40008
    b9c0:	fff70713          	addi	a4,a4,-1 # 40007fff <__trunctfdf2+0x3fff4f9f>
    b9c4:	00a00693          	li	a3,10
    b9c8:	00e42a23          	sw	a4,20(s0)
    b9cc:	00d42423          	sw	a3,8(s0)
    b9d0:	ffff8737          	lui	a4,0xffff8
    b9d4:	00e41c23          	sh	a4,24(s0)
    b9d8:	00d42623          	sw	a3,12(s0)
    b9dc:	e8dff06f          	j	b868 <emdnorm+0x110>
    b9e0:	00700713          	li	a4,7
    b9e4:	00e42423          	sw	a4,8(s0)
    b9e8:	80010737          	lui	a4,0x80010
    b9ec:	fff70713          	addi	a4,a4,-1 # 8000ffff <__stack_top+0xfffc617f>
    b9f0:	00e42a23          	sw	a4,20(s0)
    b9f4:	00100713          	li	a4,1
    b9f8:	00e41c23          	sh	a4,24(s0)
    b9fc:	00600713          	li	a4,6
    ba00:	e65ff06f          	j	b864 <emdnorm+0x10c>
    ba04:	00600693          	li	a3,6
    ba08:	00800737          	lui	a4,0x800
    ba0c:	0ff70713          	addi	a4,a4,255 # 8000ff <__trunctfdf2+0x7ed09f>
    ba10:	00e42a23          	sw	a4,20(s0)
    ba14:	00d42423          	sw	a3,8(s0)
    ba18:	10000713          	li	a4,256
    ba1c:	fb9ff06f          	j	b9d4 <emdnorm+0x27c>
    ba20:	04000737          	lui	a4,0x4000
    ba24:	7ff70713          	addi	a4,a4,2047 # 40007ff <__trunctfdf2+0x3fed79f>
    ba28:	00600693          	li	a3,6
    ba2c:	00e42a23          	sw	a4,20(s0)
    ba30:	00001737          	lui	a4,0x1
    ba34:	00d42423          	sw	a3,8(s0)
    ba38:	80070713          	addi	a4,a4,-2048 # 800 <_ZN6tflite12ParseReshapeEPKNS_8OperatorEPNS_13ErrorReporterEPNS_20BuiltinDataAllocatorEPPv+0xe4>
    ba3c:	f99ff06f          	j	b9d4 <emdnorm+0x27c>
    ba40:	00400693          	li	a3,4
    ba44:	fc5ff06f          	j	ba08 <emdnorm+0x2b0>
    ba48:	00265503          	lhu	a0,2(a2)
    ba4c:	00050463          	beqz	a0,ba54 <emdnorm+0x2fc>
    ba50:	0017e793          	ori	a5,a5,1
    ba54:	00061123          	sh	zero,2(a2)
    ba58:	00168693          	addi	a3,a3,1
    ba5c:	00260613          	addi	a2,a2,2
    ba60:	e7dff06f          	j	b8dc <emdnorm+0x184>
    ba64:	ec0a10e3          	bnez	s4,b924 <emdnorm+0x1cc>
    ba68:	00048593          	mv	a1,s1
    ba6c:	01a40513          	addi	a0,s0,26
    ba70:	fffff097          	auipc	ra,0xfffff
    ba74:	504080e7          	jalr	1284(ra) # af74 <eaddm>
    ba78:	eadff06f          	j	b924 <emdnorm+0x1cc>
    ba7c:	00095663          	bgez	s2,ba88 <emdnorm+0x330>
    ba80:	00049123          	sh	zero,2(s1)
    ba84:	d41ff06f          	j	b7c4 <emdnorm+0x6c>
    ba88:	01249123          	sh	s2,2(s1)
    ba8c:	d39ff06f          	j	b7c4 <emdnorm+0x6c>

0000ba90 <eiremain>:
    ba90:	fe010113          	addi	sp,sp,-32
    ba94:	01412423          	sw	s4,8(sp)
    ba98:	00255a03          	lhu	s4,2(a0)
    ba9c:	00812c23          	sw	s0,24(sp)
    baa0:	00058413          	mv	s0,a1
    baa4:	00112e23          	sw	ra,28(sp)
    baa8:	00912a23          	sw	s1,20(sp)
    baac:	01212823          	sw	s2,16(sp)
    bab0:	01512223          	sw	s5,4(sp)
    bab4:	01612023          	sw	s6,0(sp)
    bab8:	00060913          	mv	s2,a2
    babc:	03460b13          	addi	s6,a2,52
    bac0:	01312623          	sw	s3,12(sp)
    bac4:	00050a93          	mv	s5,a0
    bac8:	00000097          	auipc	ra,0x0
    bacc:	9e8080e7          	jalr	-1560(ra) # b4b0 <enormlz>
    bad0:	00245483          	lhu	s1,2(s0)
    bad4:	40aa0a33          	sub	s4,s4,a0
    bad8:	00040513          	mv	a0,s0
    badc:	00000097          	auipc	ra,0x0
    bae0:	9d4080e7          	jalr	-1580(ra) # b4b0 <enormlz>
    bae4:	40a484b3          	sub	s1,s1,a0
    bae8:	000b0513          	mv	a0,s6
    baec:	fffff097          	auipc	ra,0xfffff
    baf0:	2d0080e7          	jalr	720(ra) # adbc <ecleaz>
    baf4:	0544d463          	bge	s1,s4,bb3c <eiremain+0xac>
    baf8:	00040513          	mv	a0,s0
    bafc:	01812403          	lw	s0,24(sp)
    bb00:	01c12083          	lw	ra,28(sp)
    bb04:	00c12983          	lw	s3,12(sp)
    bb08:	00812a03          	lw	s4,8(sp)
    bb0c:	00412a83          	lw	s5,4(sp)
    bb10:	00012b03          	lw	s6,0(sp)
    bb14:	00090793          	mv	a5,s2
    bb18:	00048693          	mv	a3,s1
    bb1c:	01012903          	lw	s2,16(sp)
    bb20:	01412483          	lw	s1,20(sp)
    bb24:	00000713          	li	a4,0
    bb28:	00000613          	li	a2,0
    bb2c:	00000593          	li	a1,0
    bb30:	02010113          	addi	sp,sp,32
    bb34:	00000317          	auipc	t1,0x0
    bb38:	c2430067          	jr	-988(t1) # b758 <emdnorm>
    bb3c:	00040593          	mv	a1,s0
    bb40:	000a8513          	mv	a0,s5
    bb44:	fffff097          	auipc	ra,0xfffff
    bb48:	2b4080e7          	jalr	692(ra) # adf8 <ecmpm>
    bb4c:	00000993          	li	s3,0
    bb50:	00a04c63          	bgtz	a0,bb68 <eiremain+0xd8>
    bb54:	00040593          	mv	a1,s0
    bb58:	000a8513          	mv	a0,s5
    bb5c:	fffff097          	auipc	ra,0xfffff
    bb60:	450080e7          	jalr	1104(ra) # afac <esubm>
    bb64:	00100993          	li	s3,1
    bb68:	000b0513          	mv	a0,s6
    bb6c:	fffff097          	auipc	ra,0xfffff
    bb70:	318080e7          	jalr	792(ra) # ae84 <eshup1>
    bb74:	04c95783          	lhu	a5,76(s2)
    bb78:	00040513          	mv	a0,s0
    bb7c:	fff48493          	addi	s1,s1,-1
    bb80:	00f9e9b3          	or	s3,s3,a5
    bb84:	05391623          	sh	s3,76(s2)
    bb88:	fffff097          	auipc	ra,0xfffff
    bb8c:	2fc080e7          	jalr	764(ra) # ae84 <eshup1>
    bb90:	f65ff06f          	j	baf4 <eiremain+0x64>

0000bb94 <emul>:
    bb94:	f7010113          	addi	sp,sp,-144
    bb98:	08812423          	sw	s0,136(sp)
    bb9c:	08912223          	sw	s1,132(sp)
    bba0:	07312e23          	sw	s3,124(sp)
    bba4:	07412c23          	sw	s4,120(sp)
    bba8:	08112623          	sw	ra,140(sp)
    bbac:	09212023          	sw	s2,128(sp)
    bbb0:	07512a23          	sw	s5,116(sp)
    bbb4:	07612823          	sw	s6,112(sp)
    bbb8:	07712623          	sw	s7,108(sp)
    bbbc:	07812423          	sw	s8,104(sp)
    bbc0:	00050493          	mv	s1,a0
    bbc4:	00058413          	mv	s0,a1
    bbc8:	00060993          	mv	s3,a2
    bbcc:	00068a13          	mv	s4,a3
    bbd0:	fffff097          	auipc	ra,0xfffff
    bbd4:	4b0080e7          	jalr	1200(ra) # b080 <eisnan>
    bbd8:	04050263          	beqz	a0,bc1c <emul+0x88>
    bbdc:	00098593          	mv	a1,s3
    bbe0:	00048513          	mv	a0,s1
    bbe4:	fffff097          	auipc	ra,0xfffff
    bbe8:	1b4080e7          	jalr	436(ra) # ad98 <emov>
    bbec:	08c12083          	lw	ra,140(sp)
    bbf0:	08812403          	lw	s0,136(sp)
    bbf4:	08412483          	lw	s1,132(sp)
    bbf8:	08012903          	lw	s2,128(sp)
    bbfc:	07c12983          	lw	s3,124(sp)
    bc00:	07812a03          	lw	s4,120(sp)
    bc04:	07412a83          	lw	s5,116(sp)
    bc08:	07012b03          	lw	s6,112(sp)
    bc0c:	06c12b83          	lw	s7,108(sp)
    bc10:	06812c03          	lw	s8,104(sp)
    bc14:	09010113          	addi	sp,sp,144
    bc18:	00008067          	ret
    bc1c:	00040513          	mv	a0,s0
    bc20:	fffff097          	auipc	ra,0xfffff
    bc24:	460080e7          	jalr	1120(ra) # b080 <eisnan>
    bc28:	00050863          	beqz	a0,bc38 <emul+0xa4>
    bc2c:	00098593          	mv	a1,s3
    bc30:	00040513          	mv	a0,s0
    bc34:	fb1ff06f          	j	bbe4 <emul+0x50>
    bc38:	00048513          	mv	a0,s1
    bc3c:	fffff097          	auipc	ra,0xfffff
    bc40:	6a0080e7          	jalr	1696(ra) # b2dc <eisinf>
    bc44:	08051263          	bnez	a0,bcc8 <emul+0x134>
    bc48:	00040513          	mv	a0,s0
    bc4c:	fffff097          	auipc	ra,0xfffff
    bc50:	690080e7          	jalr	1680(ra) # b2dc <eisinf>
    bc54:	00050e63          	beqz	a0,bc70 <emul+0xdc>
    bc58:	7fff5597          	auipc	a1,0x7fff5
    bc5c:	0bc58593          	addi	a1,a1,188 # 80000d14 <ezero>
    bc60:	00048513          	mv	a0,s1
    bc64:	fffff097          	auipc	ra,0xfffff
    bc68:	560080e7          	jalr	1376(ra) # b1c4 <ecmp>
    bc6c:	06050a63          	beqz	a0,bce0 <emul+0x14c>
    bc70:	00048513          	mv	a0,s1
    bc74:	fffff097          	auipc	ra,0xfffff
    bc78:	668080e7          	jalr	1640(ra) # b2dc <eisinf>
    bc7c:	00051a63          	bnez	a0,bc90 <emul+0xfc>
    bc80:	00040513          	mv	a0,s0
    bc84:	fffff097          	auipc	ra,0xfffff
    bc88:	658080e7          	jalr	1624(ra) # b2dc <eisinf>
    bc8c:	06050663          	beqz	a0,bcf8 <emul+0x164>
    bc90:	00048513          	mv	a0,s1
    bc94:	fffff097          	auipc	ra,0xfffff
    bc98:	420080e7          	jalr	1056(ra) # b0b4 <eisneg>
    bc9c:	00050493          	mv	s1,a0
    bca0:	00040513          	mv	a0,s0
    bca4:	fffff097          	auipc	ra,0xfffff
    bca8:	410080e7          	jalr	1040(ra) # b0b4 <eisneg>
    bcac:	04a48263          	beq	s1,a0,bcf0 <emul+0x15c>
    bcb0:	ffff87b7          	lui	a5,0xffff8
    bcb4:	00f99923          	sh	a5,18(s3)
    bcb8:	00098513          	mv	a0,s3
    bcbc:	fffff097          	auipc	ra,0xfffff
    bcc0:	658080e7          	jalr	1624(ra) # b314 <einfin.isra.2>
    bcc4:	f29ff06f          	j	bbec <emul+0x58>
    bcc8:	7fff5597          	auipc	a1,0x7fff5
    bccc:	04c58593          	addi	a1,a1,76 # 80000d14 <ezero>
    bcd0:	00040513          	mv	a0,s0
    bcd4:	fffff097          	auipc	ra,0xfffff
    bcd8:	4f0080e7          	jalr	1264(ra) # b1c4 <ecmp>
    bcdc:	f60516e3          	bnez	a0,bc48 <emul+0xb4>
    bce0:	00098513          	mv	a0,s3
    bce4:	00000097          	auipc	ra,0x0
    bce8:	8b8080e7          	jalr	-1864(ra) # b59c <enan.constprop.12>
    bcec:	f01ff06f          	j	bbec <emul+0x58>
    bcf0:	00099923          	sh	zero,18(s3)
    bcf4:	fc5ff06f          	j	bcb8 <emul+0x124>
    bcf8:	00048513          	mv	a0,s1
    bcfc:	00c10593          	addi	a1,sp,12
    bd00:	fffff097          	auipc	ra,0xfffff
    bd04:	3f0080e7          	jalr	1008(ra) # b0f0 <emovi>
    bd08:	00040513          	mv	a0,s0
    bd0c:	02810593          	addi	a1,sp,40
    bd10:	fffff097          	auipc	ra,0xfffff
    bd14:	3e0080e7          	jalr	992(ra) # b0f0 <emovi>
    bd18:	00e15403          	lhu	s0,14(sp)
    bd1c:	02a15483          	lhu	s1,42(sp)
    bd20:	10040663          	beqz	s0,be2c <emul+0x298>
    bd24:	02a15783          	lhu	a5,42(sp)
    bd28:	00048b13          	mv	s6,s1
    bd2c:	10078e63          	beqz	a5,be48 <emul+0x2b4>
    bd30:	02812783          	lw	a5,40(sp)
    bd34:	034a0913          	addi	s2,s4,52
    bd38:	04ea0b93          	addi	s7,s4,78
    bd3c:	02fa2a23          	sw	a5,52(s4)
    bd40:	038a0793          	addi	a5,s4,56
    bd44:	00079023          	sh	zero,0(a5) # ffff8000 <__stack_top+0x7ffae180>
    bd48:	00278793          	addi	a5,a5,2
    bd4c:	ff779ce3          	bne	a5,s7,bd44 <emul+0x1b0>
    bd50:	00c10493          	addi	s1,sp,12
    bd54:	ff810c13          	addi	s8,sp,-8
    bd58:	00000a93          	li	s5,0
    bd5c:	0184d503          	lhu	a0,24(s1)
    bd60:	02050263          	beqz	a0,bd84 <emul+0x1f0>
    bd64:	02810593          	addi	a1,sp,40
    bd68:	04410613          	addi	a2,sp,68
    bd6c:	fffff097          	auipc	ra,0xfffff
    bd70:	278080e7          	jalr	632(ra) # afe4 <m16m>
    bd74:	00090593          	mv	a1,s2
    bd78:	04410513          	addi	a0,sp,68
    bd7c:	fffff097          	auipc	ra,0xfffff
    bd80:	1f8080e7          	jalr	504(ra) # af74 <eaddm>
    bd84:	04ca5783          	lhu	a5,76(s4)
    bd88:	00090513          	mv	a0,s2
    bd8c:	ffe48493          	addi	s1,s1,-2
    bd90:	00faeab3          	or	s5,s5,a5
    bd94:	fffff097          	auipc	ra,0xfffff
    bd98:	1c0080e7          	jalr	448(ra) # af54 <eshdn6>
    bd9c:	fc9c10e3          	bne	s8,s1,bd5c <emul+0x1c8>
    bda0:	00090593          	mv	a1,s2
    bda4:	02810793          	addi	a5,sp,40
    bda8:	0005d703          	lhu	a4,0(a1)
    bdac:	00258593          	addi	a1,a1,2
    bdb0:	00278793          	addi	a5,a5,2
    bdb4:	fee79f23          	sh	a4,-2(a5)
    bdb8:	ff7598e3          	bne	a1,s7,bda8 <emul+0x214>
    bdbc:	ffffc6b7          	lui	a3,0xffffc
    bdc0:	01640433          	add	s0,s0,s6
    bdc4:	00268693          	addi	a3,a3,2 # ffffc002 <__stack_top+0x7ffb2182>
    bdc8:	000a0793          	mv	a5,s4
    bdcc:	04000713          	li	a4,64
    bdd0:	00d406b3          	add	a3,s0,a3
    bdd4:	00000613          	li	a2,0
    bdd8:	000a8593          	mv	a1,s5
    bddc:	02810513          	addi	a0,sp,40
    bde0:	00000097          	auipc	ra,0x0
    bde4:	978080e7          	jalr	-1672(ra) # b758 <emdnorm>
    bde8:	00c15703          	lhu	a4,12(sp)
    bdec:	02815783          	lhu	a5,40(sp)
    bdf0:	08f71263          	bne	a4,a5,be74 <emul+0x2e0>
    bdf4:	02011423          	sh	zero,40(sp)
    bdf8:	00098593          	mv	a1,s3
    bdfc:	02810513          	addi	a0,sp,40
    be00:	fffff097          	auipc	ra,0xfffff
    be04:	7bc080e7          	jalr	1980(ra) # b5bc <emovo.isra.6>
    be08:	de5ff06f          	j	bbec <emul+0x58>
    be0c:	00278793          	addi	a5,a5,2
    be10:	0027d683          	lhu	a3,2(a5)
    be14:	02068063          	beqz	a3,be34 <emul+0x2a0>
    be18:	00c10513          	addi	a0,sp,12
    be1c:	fffff097          	auipc	ra,0xfffff
    be20:	694080e7          	jalr	1684(ra) # b4b0 <enormlz>
    be24:	40a00433          	neg	s0,a0
    be28:	efdff06f          	j	bd24 <emul+0x190>
    be2c:	00c10793          	addi	a5,sp,12
    be30:	02010713          	addi	a4,sp,32
    be34:	fce79ce3          	bne	a5,a4,be0c <emul+0x278>
    be38:	00098513          	mv	a0,s3
    be3c:	fffff097          	auipc	ra,0xfffff
    be40:	f48080e7          	jalr	-184(ra) # ad84 <eclear>
    be44:	da9ff06f          	j	bbec <emul+0x58>
    be48:	02810793          	addi	a5,sp,40
    be4c:	03c10713          	addi	a4,sp,60
    be50:	fee784e3          	beq	a5,a4,be38 <emul+0x2a4>
    be54:	00278793          	addi	a5,a5,2
    be58:	0027d683          	lhu	a3,2(a5)
    be5c:	fe068ae3          	beqz	a3,be50 <emul+0x2bc>
    be60:	02810513          	addi	a0,sp,40
    be64:	fffff097          	auipc	ra,0xfffff
    be68:	64c080e7          	jalr	1612(ra) # b4b0 <enormlz>
    be6c:	40a48b33          	sub	s6,s1,a0
    be70:	ec1ff06f          	j	bd30 <emul+0x19c>
    be74:	fff00793          	li	a5,-1
    be78:	02f11423          	sh	a5,40(sp)
    be7c:	f7dff06f          	j	bdf8 <emul+0x264>

0000be80 <ediv>:
    be80:	f7010113          	addi	sp,sp,-144
    be84:	08812423          	sw	s0,136(sp)
    be88:	08912223          	sw	s1,132(sp)
    be8c:	09212023          	sw	s2,128(sp)
    be90:	07512a23          	sw	s5,116(sp)
    be94:	08112623          	sw	ra,140(sp)
    be98:	07312e23          	sw	s3,124(sp)
    be9c:	07412c23          	sw	s4,120(sp)
    bea0:	07612823          	sw	s6,112(sp)
    bea4:	07712623          	sw	s7,108(sp)
    bea8:	07812423          	sw	s8,104(sp)
    beac:	07912223          	sw	s9,100(sp)
    beb0:	00050493          	mv	s1,a0
    beb4:	00058413          	mv	s0,a1
    beb8:	00060913          	mv	s2,a2
    bebc:	00068a93          	mv	s5,a3
    bec0:	fffff097          	auipc	ra,0xfffff
    bec4:	1c0080e7          	jalr	448(ra) # b080 <eisnan>
    bec8:	04050463          	beqz	a0,bf10 <ediv+0x90>
    becc:	00090593          	mv	a1,s2
    bed0:	00048513          	mv	a0,s1
    bed4:	fffff097          	auipc	ra,0xfffff
    bed8:	ec4080e7          	jalr	-316(ra) # ad98 <emov>
    bedc:	08c12083          	lw	ra,140(sp)
    bee0:	08812403          	lw	s0,136(sp)
    bee4:	08412483          	lw	s1,132(sp)
    bee8:	08012903          	lw	s2,128(sp)
    beec:	07c12983          	lw	s3,124(sp)
    bef0:	07812a03          	lw	s4,120(sp)
    bef4:	07412a83          	lw	s5,116(sp)
    bef8:	07012b03          	lw	s6,112(sp)
    befc:	06c12b83          	lw	s7,108(sp)
    bf00:	06812c03          	lw	s8,104(sp)
    bf04:	06412c83          	lw	s9,100(sp)
    bf08:	09010113          	addi	sp,sp,144
    bf0c:	00008067          	ret
    bf10:	00040513          	mv	a0,s0
    bf14:	fffff097          	auipc	ra,0xfffff
    bf18:	16c080e7          	jalr	364(ra) # b080 <eisnan>
    bf1c:	00050863          	beqz	a0,bf2c <ediv+0xac>
    bf20:	00090593          	mv	a1,s2
    bf24:	00040513          	mv	a0,s0
    bf28:	fadff06f          	j	bed4 <ediv+0x54>
    bf2c:	7fff5597          	auipc	a1,0x7fff5
    bf30:	de858593          	addi	a1,a1,-536 # 80000d14 <ezero>
    bf34:	00048513          	mv	a0,s1
    bf38:	fffff097          	auipc	ra,0xfffff
    bf3c:	28c080e7          	jalr	652(ra) # b1c4 <ecmp>
    bf40:	06050063          	beqz	a0,bfa0 <ediv+0x120>
    bf44:	00048513          	mv	a0,s1
    bf48:	fffff097          	auipc	ra,0xfffff
    bf4c:	394080e7          	jalr	916(ra) # b2dc <eisinf>
    bf50:	00050993          	mv	s3,a0
    bf54:	00040513          	mv	a0,s0
    bf58:	fffff097          	auipc	ra,0xfffff
    bf5c:	384080e7          	jalr	900(ra) # b2dc <eisinf>
    bf60:	06099463          	bnez	s3,bfc8 <ediv+0x148>
    bf64:	06050c63          	beqz	a0,bfdc <ediv+0x15c>
    bf68:	00048513          	mv	a0,s1
    bf6c:	fffff097          	auipc	ra,0xfffff
    bf70:	148080e7          	jalr	328(ra) # b0b4 <eisneg>
    bf74:	00050493          	mv	s1,a0
    bf78:	00040513          	mv	a0,s0
    bf7c:	fffff097          	auipc	ra,0xfffff
    bf80:	138080e7          	jalr	312(ra) # b0b4 <eisneg>
    bf84:	24a48e63          	beq	s1,a0,c1e0 <ediv+0x360>
    bf88:	ffff87b7          	lui	a5,0xffff8
    bf8c:	00f91923          	sh	a5,18(s2)
    bf90:	00090513          	mv	a0,s2
    bf94:	fffff097          	auipc	ra,0xfffff
    bf98:	380080e7          	jalr	896(ra) # b314 <einfin.isra.2>
    bf9c:	f41ff06f          	j	bedc <ediv+0x5c>
    bfa0:	7fff5597          	auipc	a1,0x7fff5
    bfa4:	d7458593          	addi	a1,a1,-652 # 80000d14 <ezero>
    bfa8:	00040513          	mv	a0,s0
    bfac:	fffff097          	auipc	ra,0xfffff
    bfb0:	218080e7          	jalr	536(ra) # b1c4 <ecmp>
    bfb4:	f80518e3          	bnez	a0,bf44 <ediv+0xc4>
    bfb8:	00090513          	mv	a0,s2
    bfbc:	fffff097          	auipc	ra,0xfffff
    bfc0:	5e0080e7          	jalr	1504(ra) # b59c <enan.constprop.12>
    bfc4:	f19ff06f          	j	bedc <ediv+0x5c>
    bfc8:	fe0518e3          	bnez	a0,bfb8 <ediv+0x138>
    bfcc:	00090513          	mv	a0,s2
    bfd0:	fffff097          	auipc	ra,0xfffff
    bfd4:	db4080e7          	jalr	-588(ra) # ad84 <eclear>
    bfd8:	f05ff06f          	j	bedc <ediv+0x5c>
    bfdc:	00048513          	mv	a0,s1
    bfe0:	00c10593          	addi	a1,sp,12
    bfe4:	fffff097          	auipc	ra,0xfffff
    bfe8:	10c080e7          	jalr	268(ra) # b0f0 <emovi>
    bfec:	00040513          	mv	a0,s0
    bff0:	02810593          	addi	a1,sp,40
    bff4:	fffff097          	auipc	ra,0xfffff
    bff8:	0fc080e7          	jalr	252(ra) # b0f0 <emovi>
    bffc:	02a15483          	lhu	s1,42(sp)
    c000:	00e15403          	lhu	s0,14(sp)
    c004:	16048c63          	beqz	s1,c17c <ediv+0x2fc>
    c008:	00e15783          	lhu	a5,14(sp)
    c00c:	00040b93          	mv	s7,s0
    c010:	1a078c63          	beqz	a5,c1c8 <ediv+0x348>
    c014:	02812703          	lw	a4,40(sp)
    c018:	038a8793          	addi	a5,s5,56
    c01c:	04ea8b13          	addi	s6,s5,78
    c020:	02eaaa23          	sw	a4,52(s5)
    c024:	00078993          	mv	s3,a5
    c028:	00278793          	addi	a5,a5,2 # ffff8002 <__stack_top+0x7ffae182>
    c02c:	fe079f23          	sh	zero,-2(a5)
    c030:	ff679ce3          	bne	a5,s6,c028 <ediv+0x1a8>
    c034:	02810513          	addi	a0,sp,40
    c038:	fffff097          	auipc	ra,0xfffff
    c03c:	dfc080e7          	jalr	-516(ra) # ae34 <eshdn1>
    c040:	01215c03          	lhu	s8,18(sp)
    c044:	00010a37          	lui	s4,0x10
    c048:	fffa0a13          	addi	s4,s4,-1 # ffff <__umoddi3+0x177>
    c04c:	034c0cb3          	mul	s9,s8,s4
    c050:	02c15783          	lhu	a5,44(sp)
    c054:	02e15403          	lhu	s0,46(sp)
    c058:	01079793          	slli	a5,a5,0x10
    c05c:	008787b3          	add	a5,a5,s0
    c060:	000a0413          	mv	s0,s4
    c064:	00fce863          	bltu	s9,a5,c074 <ediv+0x1f4>
    c068:	0387d433          	divu	s0,a5,s8
    c06c:	01041413          	slli	s0,s0,0x10
    c070:	01045413          	srli	s0,s0,0x10
    c074:	00c10593          	addi	a1,sp,12
    c078:	00040513          	mv	a0,s0
    c07c:	04410613          	addi	a2,sp,68
    c080:	fffff097          	auipc	ra,0xfffff
    c084:	f64080e7          	jalr	-156(ra) # afe4 <m16m>
    c088:	02810593          	addi	a1,sp,40
    c08c:	04410513          	addi	a0,sp,68
    c090:	fffff097          	auipc	ra,0xfffff
    c094:	d68080e7          	jalr	-664(ra) # adf8 <ecmpm>
    c098:	02a05a63          	blez	a0,c0cc <ediv+0x24c>
    c09c:	04410593          	addi	a1,sp,68
    c0a0:	00c10513          	addi	a0,sp,12
    c0a4:	fffff097          	auipc	ra,0xfffff
    c0a8:	f08080e7          	jalr	-248(ra) # afac <esubm>
    c0ac:	02810593          	addi	a1,sp,40
    c0b0:	04410513          	addi	a0,sp,68
    c0b4:	fffff097          	auipc	ra,0xfffff
    c0b8:	d44080e7          	jalr	-700(ra) # adf8 <ecmpm>
    c0bc:	12a04663          	bgtz	a0,c1e8 <ediv+0x368>
    c0c0:	fff40413          	addi	s0,s0,-1
    c0c4:	01041413          	slli	s0,s0,0x10
    c0c8:	01045413          	srli	s0,s0,0x10
    c0cc:	02810593          	addi	a1,sp,40
    c0d0:	04410513          	addi	a0,sp,68
    c0d4:	fffff097          	auipc	ra,0xfffff
    c0d8:	ed8080e7          	jalr	-296(ra) # afac <esubm>
    c0dc:	02810513          	addi	a0,sp,40
    c0e0:	00899023          	sh	s0,0(s3)
    c0e4:	00298993          	addi	s3,s3,2
    c0e8:	fffff097          	auipc	ra,0xfffff
    c0ec:	e4c080e7          	jalr	-436(ra) # af34 <eshup6>
    c0f0:	f73b10e3          	bne	s6,s3,c050 <ediv+0x1d0>
    c0f4:	02810713          	addi	a4,sp,40
    c0f8:	03e10693          	addi	a3,sp,62
    c0fc:	00070793          	mv	a5,a4
    c100:	00000593          	li	a1,0
    c104:	0047d603          	lhu	a2,4(a5)
    c108:	00278793          	addi	a5,a5,2
    c10c:	00c5e5b3          	or	a1,a1,a2
    c110:	fef69ae3          	bne	a3,a5,c104 <ediv+0x284>
    c114:	00b035b3          	snez	a1,a1
    c118:	034a8793          	addi	a5,s5,52
    c11c:	0007d683          	lhu	a3,0(a5)
    c120:	00278793          	addi	a5,a5,2
    c124:	00270713          	addi	a4,a4,2
    c128:	fed71f23          	sh	a3,-2(a4)
    c12c:	fefb18e3          	bne	s6,a5,c11c <ediv+0x29c>
    c130:	000046b7          	lui	a3,0x4
    c134:	417484b3          	sub	s1,s1,s7
    c138:	fff68693          	addi	a3,a3,-1 # 3fff <__muldf3+0x32b>
    c13c:	000a8793          	mv	a5,s5
    c140:	04000713          	li	a4,64
    c144:	00d486b3          	add	a3,s1,a3
    c148:	00000613          	li	a2,0
    c14c:	02810513          	addi	a0,sp,40
    c150:	fffff097          	auipc	ra,0xfffff
    c154:	608080e7          	jalr	1544(ra) # b758 <emdnorm>
    c158:	00c15703          	lhu	a4,12(sp)
    c15c:	02815783          	lhu	a5,40(sp)
    c160:	0af71463          	bne	a4,a5,c208 <ediv+0x388>
    c164:	02011423          	sh	zero,40(sp)
    c168:	00090593          	mv	a1,s2
    c16c:	02810513          	addi	a0,sp,40
    c170:	fffff097          	auipc	ra,0xfffff
    c174:	44c080e7          	jalr	1100(ra) # b5bc <emovo.isra.6>
    c178:	d65ff06f          	j	bedc <ediv+0x5c>
    c17c:	02810793          	addi	a5,sp,40
    c180:	03c10713          	addi	a4,sp,60
    c184:	e4e784e3          	beq	a5,a4,bfcc <ediv+0x14c>
    c188:	00278793          	addi	a5,a5,2
    c18c:	0027d683          	lhu	a3,2(a5)
    c190:	fe068ae3          	beqz	a3,c184 <ediv+0x304>
    c194:	02810513          	addi	a0,sp,40
    c198:	fffff097          	auipc	ra,0xfffff
    c19c:	318080e7          	jalr	792(ra) # b4b0 <enormlz>
    c1a0:	40a004b3          	neg	s1,a0
    c1a4:	e65ff06f          	j	c008 <ediv+0x188>
    c1a8:	00278793          	addi	a5,a5,2
    c1ac:	0027d683          	lhu	a3,2(a5)
    c1b0:	02068063          	beqz	a3,c1d0 <ediv+0x350>
    c1b4:	00c10513          	addi	a0,sp,12
    c1b8:	fffff097          	auipc	ra,0xfffff
    c1bc:	2f8080e7          	jalr	760(ra) # b4b0 <enormlz>
    c1c0:	40a40bb3          	sub	s7,s0,a0
    c1c4:	e51ff06f          	j	c014 <ediv+0x194>
    c1c8:	00c10793          	addi	a5,sp,12
    c1cc:	02010713          	addi	a4,sp,32
    c1d0:	fce79ce3          	bne	a5,a4,c1a8 <ediv+0x328>
    c1d4:	00c15703          	lhu	a4,12(sp)
    c1d8:	02815783          	lhu	a5,40(sp)
    c1dc:	daf716e3          	bne	a4,a5,bf88 <ediv+0x108>
    c1e0:	00091923          	sh	zero,18(s2)
    c1e4:	dadff06f          	j	bf90 <ediv+0x110>
    c1e8:	ffe40413          	addi	s0,s0,-2
    c1ec:	01041413          	slli	s0,s0,0x10
    c1f0:	04410593          	addi	a1,sp,68
    c1f4:	00c10513          	addi	a0,sp,12
    c1f8:	01045413          	srli	s0,s0,0x10
    c1fc:	fffff097          	auipc	ra,0xfffff
    c200:	db0080e7          	jalr	-592(ra) # afac <esubm>
    c204:	ec9ff06f          	j	c0cc <ediv+0x24c>
    c208:	fff00793          	li	a5,-1
    c20c:	02f11423          	sh	a5,40(sp)
    c210:	f59ff06f          	j	c168 <ediv+0x2e8>

0000c214 <_ldtoa_r>:
    c214:	0005ae03          	lw	t3,0(a1)
    c218:	0045a303          	lw	t1,4(a1)
    c21c:	0085a883          	lw	a7,8(a1)
    c220:	00c5a583          	lw	a1,12(a1)
    c224:	e2010113          	addi	sp,sp,-480
    c228:	1c812c23          	sw	s0,472(sp)
    c22c:	02b12623          	sw	a1,44(sp)
    c230:	00078413          	mv	s0,a5
    c234:	04052583          	lw	a1,64(a0)
    c238:	fff00793          	li	a5,-1
    c23c:	14f12823          	sw	a5,336(sp)
    c240:	09000793          	li	a5,144
    c244:	1d212823          	sw	s2,464(sp)
    c248:	1d512223          	sw	s5,452(sp)
    c24c:	1b812c23          	sw	s8,440(sp)
    c250:	1b912a23          	sw	s9,436(sp)
    c254:	1c112e23          	sw	ra,476(sp)
    c258:	1c912a23          	sw	s1,468(sp)
    c25c:	1d312623          	sw	s3,460(sp)
    c260:	1d412423          	sw	s4,456(sp)
    c264:	1d612023          	sw	s6,448(sp)
    c268:	1b712e23          	sw	s7,444(sp)
    c26c:	1ba12823          	sw	s10,432(sp)
    c270:	1bb12623          	sw	s11,428(sp)
    c274:	01012823          	sw	a6,16(sp)
    c278:	03c12023          	sw	t3,32(sp)
    c27c:	02612223          	sw	t1,36(sp)
    c280:	03112423          	sw	a7,40(sp)
    c284:	14f12a23          	sw	a5,340(sp)
    c288:	00050913          	mv	s2,a0
    c28c:	00060a93          	mv	s5,a2
    c290:	00068c13          	mv	s8,a3
    c294:	00070c93          	mv	s9,a4
    c298:	02058263          	beqz	a1,c2bc <_ldtoa_r+0xa8>
    c29c:	04452783          	lw	a5,68(a0)
    c2a0:	00100713          	li	a4,1
    c2a4:	00f71733          	sll	a4,a4,a5
    c2a8:	00f5a223          	sw	a5,4(a1)
    c2ac:	00e5a423          	sw	a4,8(a1)
    c2b0:	00001097          	auipc	ra,0x1
    c2b4:	138080e7          	jalr	312(ra) # d3e8 <_Bfree>
    c2b8:	04092023          	sw	zero,64(s2)
    c2bc:	02010513          	addi	a0,sp,32
    c2c0:	05010593          	addi	a1,sp,80
    c2c4:	fffff097          	auipc	ra,0xfffff
    c2c8:	370080e7          	jalr	880(ra) # b634 <e113toe.isra.8>
    c2cc:	05010513          	addi	a0,sp,80
    c2d0:	fffff097          	auipc	ra,0xfffff
    c2d4:	de4080e7          	jalr	-540(ra) # b0b4 <eisneg>
    c2d8:	1c050463          	beqz	a0,c4a0 <_ldtoa_r+0x28c>
    c2dc:	00100793          	li	a5,1
    c2e0:	00f42023          	sw	a5,0(s0)
    c2e4:	00300793          	li	a5,3
    c2e8:	1cfa8063          	beq	s5,a5,c4a8 <_ldtoa_r+0x294>
    c2ec:	01400493          	li	s1,20
    c2f0:	000a8a63          	beqz	s5,c304 <_ldtoa_r+0xf0>
    c2f4:	fffc0493          	addi	s1,s8,-1
    c2f8:	02a00793          	li	a5,42
    c2fc:	0097d463          	bge	a5,s1,c304 <_ldtoa_r+0xf0>
    c300:	02a00493          	li	s1,42
    c304:	15412783          	lw	a5,340(sp)
    c308:	05010513          	addi	a0,sp,80
    c30c:	00f12a23          	sw	a5,20(sp)
    c310:	fffff097          	auipc	ra,0xfffff
    c314:	d70080e7          	jalr	-656(ra) # b080 <eisnan>
    c318:	00050b13          	mv	s6,a0
    c31c:	7fff5597          	auipc	a1,0x7fff5
    c320:	c4c58593          	addi	a1,a1,-948 # 80000f68 <emtens+0x104>
    c324:	3a0514e3          	bnez	a0,cecc <_ldtoa_r+0xcb8>
    c328:	09000793          	li	a5,144
    c32c:	06c10593          	addi	a1,sp,108
    c330:	05010513          	addi	a0,sp,80
    c334:	14f12a23          	sw	a5,340(sp)
    c338:	fffff097          	auipc	ra,0xfffff
    c33c:	a60080e7          	jalr	-1440(ra) # ad98 <emov>
    c340:	07e15783          	lhu	a5,126(sp)
    c344:	00012423          	sw	zero,8(sp)
    c348:	01079713          	slli	a4,a5,0x10
    c34c:	41075713          	srai	a4,a4,0x10
    c350:	02075063          	bgez	a4,c370 <_ldtoa_r+0x15c>
    c354:	00008737          	lui	a4,0x8
    c358:	fff70713          	addi	a4,a4,-1 # 7fff <_svfprintf_r+0x11f7>
    c35c:	00e7f7b3          	and	a5,a5,a4
    c360:	06f11f23          	sh	a5,126(sp)
    c364:	000107b7          	lui	a5,0x10
    c368:	fff78793          	addi	a5,a5,-1 # ffff <__umoddi3+0x177>
    c36c:	00f12423          	sw	a5,8(sp)
    c370:	08810593          	addi	a1,sp,136
    c374:	7fff5517          	auipc	a0,0x7fff5
    c378:	ab850513          	addi	a0,a0,-1352 # 80000e2c <eone>
    c37c:	fffff097          	auipc	ra,0xfffff
    c380:	a1c080e7          	jalr	-1508(ra) # ad98 <emov>
    c384:	07e15703          	lhu	a4,126(sp)
    c388:	320710e3          	bnez	a4,cea8 <_ldtoa_r+0xc94>
    c38c:	06c10793          	addi	a5,sp,108
    c390:	07e10713          	addi	a4,sp,126
    c394:	0007d683          	lhu	a3,0(a5)
    c398:	12069463          	bnez	a3,c4c0 <_ldtoa_r+0x2ac>
    c39c:	00278793          	addi	a5,a5,2
    c3a0:	fef71ae3          	bne	a4,a5,c394 <_ldtoa_r+0x180>
    c3a4:	00000413          	li	s0,0
    c3a8:	0c010593          	addi	a1,sp,192
    c3ac:	08810513          	addi	a0,sp,136
    c3b0:	fffff097          	auipc	ra,0xfffff
    c3b4:	d40080e7          	jalr	-704(ra) # b0f0 <emovi>
    c3b8:	08810593          	addi	a1,sp,136
    c3bc:	0c010513          	addi	a0,sp,192
    c3c0:	fffff097          	auipc	ra,0xfffff
    c3c4:	a10080e7          	jalr	-1520(ra) # add0 <emovz>
    c3c8:	0c010593          	addi	a1,sp,192
    c3cc:	06c10513          	addi	a0,sp,108
    c3d0:	fffff097          	auipc	ra,0xfffff
    c3d4:	d20080e7          	jalr	-736(ra) # b0f0 <emovi>
    c3d8:	06c10593          	addi	a1,sp,108
    c3dc:	0c010513          	addi	a0,sp,192
    c3e0:	fffff097          	auipc	ra,0xfffff
    c3e4:	9f0080e7          	jalr	-1552(ra) # add0 <emovz>
    c3e8:	15010613          	addi	a2,sp,336
    c3ec:	06c10593          	addi	a1,sp,108
    c3f0:	08810513          	addi	a0,sp,136
    c3f4:	fffff097          	auipc	ra,0xfffff
    c3f8:	69c080e7          	jalr	1692(ra) # ba90 <eiremain>
    c3fc:	19c15983          	lhu	s3,412(sp)
    c400:	7fff5a17          	auipc	s4,0x7fff5
    c404:	914a0a13          	addi	s4,s4,-1772 # 80000d14 <ezero>
    c408:	00099c63          	bnez	s3,c420 <_ldtoa_r+0x20c>
    c40c:	000a0593          	mv	a1,s4
    c410:	06c10513          	addi	a0,sp,108
    c414:	fffff097          	auipc	ra,0xfffff
    c418:	db0080e7          	jalr	-592(ra) # b1c4 <ecmp>
    c41c:	76051c63          	bnez	a0,cb94 <_ldtoa_r+0x980>
    c420:	00812783          	lw	a5,8(sp)
    c424:	7c078a63          	beqz	a5,cbf8 <_ldtoa_r+0x9e4>
    c428:	02d00793          	li	a5,45
    c42c:	10f10a23          	sb	a5,276(sp)
    c430:	00300793          	li	a5,3
    c434:	00048a13          	mv	s4,s1
    c438:	00fa9a63          	bne	s5,a5,c44c <_ldtoa_r+0x238>
    c43c:	00848a33          	add	s4,s1,s0
    c440:	02a00793          	li	a5,42
    c444:	0147d463          	bge	a5,s4,c44c <_ldtoa_r+0x238>
    c448:	02a00a13          	li	s4,42
    c44c:	00a00793          	li	a5,10
    c450:	7af99863          	bne	s3,a5,cc00 <_ldtoa_r+0x9ec>
    c454:	03100793          	li	a5,49
    c458:	10f10aa3          	sb	a5,277(sp)
    c45c:	02e00793          	li	a5,46
    c460:	10f10b23          	sb	a5,278(sp)
    c464:	11710993          	addi	s3,sp,279
    c468:	01405a63          	blez	s4,c47c <_ldtoa_r+0x268>
    c46c:	03000793          	li	a5,48
    c470:	10f10ba3          	sb	a5,279(sp)
    c474:	fffa0a13          	addi	s4,s4,-1
    c478:	11810993          	addi	s3,sp,280
    c47c:	00140413          	addi	s0,s0,1
    c480:	780a5a63          	bgez	s4,cc14 <_ldtoa_r+0xa00>
    c484:	00040613          	mv	a2,s0
    c488:	7fff5597          	auipc	a1,0x7fff5
    c48c:	b0458593          	addi	a1,a1,-1276 # 80000f8c <emtens+0x128>
    c490:	00098513          	mv	a0,s3
    c494:	ffffa097          	auipc	ra,0xffffa
    c498:	744080e7          	jalr	1860(ra) # 6bd8 <sprintf>
    c49c:	2450006f          	j	cee0 <_ldtoa_r+0xccc>
    c4a0:	00042023          	sw	zero,0(s0)
    c4a4:	e41ff06f          	j	c2e4 <_ldtoa_r+0xd0>
    c4a8:	000c0493          	mv	s1,s8
    c4ac:	e4dff06f          	j	c2f8 <_ldtoa_r+0xe4>
    c4b0:	07c11783          	lh	a5,124(sp)
    c4b4:	7fff5597          	auipc	a1,0x7fff5
    c4b8:	ad458593          	addi	a1,a1,-1324 # 80000f88 <emtens+0x124>
    c4bc:	2007d8e3          	bgez	a5,cecc <_ldtoa_r+0xcb8>
    c4c0:	06c10593          	addi	a1,sp,108
    c4c4:	7fff5517          	auipc	a0,0x7fff5
    c4c8:	96850513          	addi	a0,a0,-1688 # 80000e2c <eone>
    c4cc:	fffff097          	auipc	ra,0xfffff
    c4d0:	cf8080e7          	jalr	-776(ra) # b1c4 <ecmp>
    c4d4:	ec0508e3          	beqz	a0,c3a4 <_ldtoa_r+0x190>
    c4d8:	4c055e63          	bgez	a0,c9b4 <_ldtoa_r+0x7a0>
    c4dc:	0a410593          	addi	a1,sp,164
    c4e0:	06c10513          	addi	a0,sp,108
    c4e4:	fffff097          	auipc	ra,0xfffff
    c4e8:	8b4080e7          	jalr	-1868(ra) # ad98 <emov>
    c4ec:	000047b7          	lui	a5,0x4
    c4f0:	08e78793          	addi	a5,a5,142 # 408e <__muldf3+0x3ba>
    c4f4:	0af11b23          	sh	a5,182(sp)
    c4f8:	01000793          	li	a5,16
    c4fc:	00f12623          	sw	a5,12(sp)
    c500:	000087b7          	lui	a5,0x8
    c504:	fff78793          	addi	a5,a5,-1 # 7fff <_svfprintf_r+0x11f7>
    c508:	00f12c23          	sw	a5,24(sp)
    c50c:	ffffc7b7          	lui	a5,0xffffc
    c510:	00278793          	addi	a5,a5,2 # ffffc002 <__stack_top+0x7ffb2182>
    c514:	00000413          	li	s0,0
    c518:	7fff5b97          	auipc	s7,0x7fff5
    c51c:	8b0b8b93          	addi	s7,s7,-1872 # 80000dc8 <etens+0xa0>
    c520:	00f12e23          	sw	a5,28(sp)
    c524:	7fff5997          	auipc	s3,0x7fff5
    c528:	90898993          	addi	s3,s3,-1784 # 80000e2c <eone>
    c52c:	15010693          	addi	a3,sp,336
    c530:	08810613          	addi	a2,sp,136
    c534:	0a410593          	addi	a1,sp,164
    c538:	000b8513          	mv	a0,s7
    c53c:	00000097          	auipc	ra,0x0
    c540:	944080e7          	jalr	-1724(ra) # be80 <ediv>
    c544:	03c10593          	addi	a1,sp,60
    c548:	08810513          	addi	a0,sp,136
    c54c:	fffff097          	auipc	ra,0xfffff
    c550:	84c080e7          	jalr	-1972(ra) # ad98 <emov>
    c554:	01812783          	lw	a5,24(sp)
    c558:	04e15a03          	lhu	s4,78(sp)
    c55c:	00fa7d33          	and	s10,s4,a5
    c560:	01c12783          	lw	a5,28(sp)
    c564:	00fd0d33          	add	s10,s10,a5
    c568:	07a04063          	bgtz	s10,c5c8 <_ldtoa_r+0x3b4>
    c56c:	0c010513          	addi	a0,sp,192
    c570:	fffff097          	auipc	ra,0xfffff
    c574:	814080e7          	jalr	-2028(ra) # ad84 <eclear>
    c578:	010a1a13          	slli	s4,s4,0x10
    c57c:	410a5a13          	srai	s4,s4,0x10
    c580:	120a5a63          	bgez	s4,c6b4 <_ldtoa_r+0x4a0>
    c584:	00000793          	li	a5,0
    c588:	03c10713          	addi	a4,sp,60
    c58c:	00f70733          	add	a4,a4,a5
    c590:	00075683          	lhu	a3,0(a4)
    c594:	0c010713          	addi	a4,sp,192
    c598:	00f70733          	add	a4,a4,a5
    c59c:	00075703          	lhu	a4,0(a4)
    c5a0:	40e68263          	beq	a3,a4,c9a4 <_ldtoa_r+0x790>
    c5a4:	00098513          	mv	a0,s3
    c5a8:	fffff097          	auipc	ra,0xfffff
    c5ac:	ad8080e7          	jalr	-1320(ra) # b080 <eisnan>
    c5b0:	08050a63          	beqz	a0,c644 <_ldtoa_r+0x430>
    c5b4:	0c010593          	addi	a1,sp,192
    c5b8:	00098513          	mv	a0,s3
    c5bc:	ffffe097          	auipc	ra,0xffffe
    c5c0:	7dc080e7          	jalr	2012(ra) # ad98 <emov>
    c5c4:	0f00006f          	j	c6b4 <_ldtoa_r+0x4a0>
    c5c8:	09000793          	li	a5,144
    c5cc:	41a78d33          	sub	s10,a5,s10
    c5d0:	0c010593          	addi	a1,sp,192
    c5d4:	03c10513          	addi	a0,sp,60
    c5d8:	ffffe097          	auipc	ra,0xffffe
    c5dc:	7c0080e7          	jalr	1984(ra) # ad98 <emov>
    c5e0:	0da05a63          	blez	s10,c6b4 <_ldtoa_r+0x4a0>
    c5e4:	0c010713          	addi	a4,sp,192
    c5e8:	000d0793          	mv	a5,s10
    c5ec:	00f00693          	li	a3,15
    c5f0:	04f6c263          	blt	a3,a5,c634 <_ldtoa_r+0x420>
    c5f4:	004d5793          	srli	a5,s10,0x4
    c5f8:	00179713          	slli	a4,a5,0x1
    c5fc:	0c010693          	addi	a3,sp,192
    c600:	00e68733          	add	a4,a3,a4
    c604:	ff000693          	li	a3,-16
    c608:	02d787b3          	mul	a5,a5,a3
    c60c:	7fff4697          	auipc	a3,0x7fff4
    c610:	70868693          	addi	a3,a3,1800 # 80000d14 <ezero>
    c614:	01a787b3          	add	a5,a5,s10
    c618:	00179793          	slli	a5,a5,0x1
    c61c:	00f687b3          	add	a5,a3,a5
    c620:	12c7d783          	lhu	a5,300(a5)
    c624:	00075683          	lhu	a3,0(a4)
    c628:	00d7f7b3          	and	a5,a5,a3
    c62c:	00f71023          	sh	a5,0(a4)
    c630:	f49ff06f          	j	c578 <_ldtoa_r+0x364>
    c634:	00071023          	sh	zero,0(a4)
    c638:	ff078793          	addi	a5,a5,-16
    c63c:	00270713          	addi	a4,a4,2
    c640:	fb1ff06f          	j	c5f0 <_ldtoa_r+0x3dc>
    c644:	0c010513          	addi	a0,sp,192
    c648:	fffff097          	auipc	ra,0xfffff
    c64c:	a38080e7          	jalr	-1480(ra) # b080 <eisnan>
    c650:	00050863          	beqz	a0,c660 <_ldtoa_r+0x44c>
    c654:	0c010593          	addi	a1,sp,192
    c658:	00058513          	mv	a0,a1
    c65c:	f61ff06f          	j	c5bc <_ldtoa_r+0x3a8>
    c660:	00098513          	mv	a0,s3
    c664:	fffff097          	auipc	ra,0xfffff
    c668:	c78080e7          	jalr	-904(ra) # b2dc <eisinf>
    c66c:	00050a13          	mv	s4,a0
    c670:	0c010513          	addi	a0,sp,192
    c674:	fffff097          	auipc	ra,0xfffff
    c678:	c68080e7          	jalr	-920(ra) # b2dc <eisinf>
    c67c:	00050d13          	mv	s10,a0
    c680:	160a0e63          	beqz	s4,c7fc <_ldtoa_r+0x5e8>
    c684:	14050263          	beqz	a0,c7c8 <_ldtoa_r+0x5b4>
    c688:	00098513          	mv	a0,s3
    c68c:	fffff097          	auipc	ra,0xfffff
    c690:	a28080e7          	jalr	-1496(ra) # b0b4 <eisneg>
    c694:	00050a13          	mv	s4,a0
    c698:	0c010513          	addi	a0,sp,192
    c69c:	fffff097          	auipc	ra,0xfffff
    c6a0:	a18080e7          	jalr	-1512(ra) # b0b4 <eisneg>
    c6a4:	12aa1263          	bne	s4,a0,c7c8 <_ldtoa_r+0x5b4>
    c6a8:	0c010513          	addi	a0,sp,192
    c6ac:	fffff097          	auipc	ra,0xfffff
    c6b0:	ef0080e7          	jalr	-272(ra) # b59c <enan.constprop.12>
    c6b4:	00000793          	li	a5,0
    c6b8:	08810713          	addi	a4,sp,136
    c6bc:	00f70733          	add	a4,a4,a5
    c6c0:	00075683          	lhu	a3,0(a4)
    c6c4:	0c010713          	addi	a4,sp,192
    c6c8:	00f70733          	add	a4,a4,a5
    c6cc:	00075703          	lhu	a4,0(a4)
    c6d0:	02e69463          	bne	a3,a4,c6f8 <_ldtoa_r+0x4e4>
    c6d4:	00278793          	addi	a5,a5,2
    c6d8:	01200713          	li	a4,18
    c6dc:	fce79ee3          	bne	a5,a4,c6b8 <_ldtoa_r+0x4a4>
    c6e0:	0a410593          	addi	a1,sp,164
    c6e4:	08810513          	addi	a0,sp,136
    c6e8:	ffffe097          	auipc	ra,0xffffe
    c6ec:	6b0080e7          	jalr	1712(ra) # ad98 <emov>
    c6f0:	00c12783          	lw	a5,12(sp)
    c6f4:	00f40433          	add	s0,s0,a5
    c6f8:	00c12783          	lw	a5,12(sp)
    c6fc:	014b8b93          	addi	s7,s7,20
    c700:	0017d793          	srli	a5,a5,0x1
    c704:	00f12623          	sw	a5,12(sp)
    c708:	e33b92e3          	bne	s7,s3,c52c <_ldtoa_r+0x318>
    c70c:	0b615783          	lhu	a5,182(sp)
    c710:	07e15703          	lhu	a4,126(sp)
    c714:	06c10593          	addi	a1,sp,108
    c718:	0a410513          	addi	a0,sp,164
    c71c:	00e787b3          	add	a5,a5,a4
    c720:	ffffc737          	lui	a4,0xffffc
    c724:	f7270713          	addi	a4,a4,-142 # ffffbf72 <__stack_top+0x7ffb20f2>
    c728:	00e787b3          	add	a5,a5,a4
    c72c:	0af11b23          	sh	a5,182(sp)
    c730:	ffffe097          	auipc	ra,0xffffe
    c734:	668080e7          	jalr	1640(ra) # ad98 <emov>
    c738:	000b8513          	mv	a0,s7
    c73c:	08810593          	addi	a1,sp,136
    c740:	ffffe097          	auipc	ra,0xffffe
    c744:	658080e7          	jalr	1624(ra) # ad98 <emov>
    c748:	00001a37          	lui	s4,0x1
    c74c:	7fff4997          	auipc	s3,0x7fff4
    c750:	5dc98993          	addi	s3,s3,1500 # 80000d28 <etens>
    c754:	7fff4b97          	auipc	s7,0x7fff4
    c758:	6c4b8b93          	addi	s7,s7,1732 # 80000e18 <etens+0xf0>
    c75c:	0a410593          	addi	a1,sp,164
    c760:	000b8513          	mv	a0,s7
    c764:	fffff097          	auipc	ra,0xfffff
    c768:	a60080e7          	jalr	-1440(ra) # b1c4 <ecmp>
    c76c:	c2a04ee3          	bgtz	a0,c3a8 <_ldtoa_r+0x194>
    c770:	0a410593          	addi	a1,sp,164
    c774:	00098513          	mv	a0,s3
    c778:	fffff097          	auipc	ra,0xfffff
    c77c:	a4c080e7          	jalr	-1460(ra) # b1c4 <ecmp>
    c780:	02a04c63          	bgtz	a0,c7b8 <_ldtoa_r+0x5a4>
    c784:	0a410613          	addi	a2,sp,164
    c788:	00060593          	mv	a1,a2
    c78c:	15010693          	addi	a3,sp,336
    c790:	00098513          	mv	a0,s3
    c794:	fffff097          	auipc	ra,0xfffff
    c798:	6ec080e7          	jalr	1772(ra) # be80 <ediv>
    c79c:	08810613          	addi	a2,sp,136
    c7a0:	15010693          	addi	a3,sp,336
    c7a4:	00060593          	mv	a1,a2
    c7a8:	00098513          	mv	a0,s3
    c7ac:	fffff097          	auipc	ra,0xfffff
    c7b0:	3e8080e7          	jalr	1000(ra) # bb94 <emul>
    c7b4:	01440433          	add	s0,s0,s4
    c7b8:	001a5a13          	srli	s4,s4,0x1
    c7bc:	bf7986e3          	beq	s3,s7,c3a8 <_ldtoa_r+0x194>
    c7c0:	01498993          	addi	s3,s3,20
    c7c4:	f99ff06f          	j	c75c <_ldtoa_r+0x548>
    c7c8:	00098513          	mv	a0,s3
    c7cc:	0c010593          	addi	a1,sp,192
    c7d0:	ffffe097          	auipc	ra,0xffffe
    c7d4:	5c8080e7          	jalr	1480(ra) # ad98 <emov>
    c7d8:	0c010513          	addi	a0,sp,192
    c7dc:	fffff097          	auipc	ra,0xfffff
    c7e0:	8a4080e7          	jalr	-1884(ra) # b080 <eisnan>
    c7e4:	ec0518e3          	bnez	a0,c6b4 <_ldtoa_r+0x4a0>
    c7e8:	0d215783          	lhu	a5,210(sp)
    c7ec:	ffff8737          	lui	a4,0xffff8
    c7f0:	00e7c7b3          	xor	a5,a5,a4
    c7f4:	0cf11923          	sh	a5,210(sp)
    c7f8:	ebdff06f          	j	c6b4 <_ldtoa_r+0x4a0>
    c7fc:	e4051ce3          	bnez	a0,c654 <_ldtoa_r+0x440>
    c800:	0dc10593          	addi	a1,sp,220
    c804:	00098513          	mv	a0,s3
    c808:	fffff097          	auipc	ra,0xfffff
    c80c:	8e8080e7          	jalr	-1816(ra) # b0f0 <emovi>
    c810:	0f810593          	addi	a1,sp,248
    c814:	0c010513          	addi	a0,sp,192
    c818:	fffff097          	auipc	ra,0xfffff
    c81c:	8d8080e7          	jalr	-1832(ra) # b0f0 <emovi>
    c820:	0dc15783          	lhu	a5,220(sp)
    c824:	0de15d83          	lhu	s11,222(sp)
    c828:	0fa15a03          	lhu	s4,250(sp)
    c82c:	fff7c793          	not	a5,a5
    c830:	0cf11e23          	sh	a5,220(sp)
    c834:	414d85b3          	sub	a1,s11,s4
    c838:	02b05e63          	blez	a1,c874 <_ldtoa_r+0x660>
    c83c:	11410593          	addi	a1,sp,276
    c840:	0f810513          	addi	a0,sp,248
    c844:	ffffe097          	auipc	ra,0xffffe
    c848:	58c080e7          	jalr	1420(ra) # add0 <emovz>
    c84c:	0f810593          	addi	a1,sp,248
    c850:	0dc10513          	addi	a0,sp,220
    c854:	ffffe097          	auipc	ra,0xffffe
    c858:	57c080e7          	jalr	1404(ra) # add0 <emovz>
    c85c:	0dc10593          	addi	a1,sp,220
    c860:	11410513          	addi	a0,sp,276
    c864:	ffffe097          	auipc	ra,0xffffe
    c868:	56c080e7          	jalr	1388(ra) # add0 <emovz>
    c86c:	41ba05b3          	sub	a1,s4,s11
    c870:	0fa15a03          	lhu	s4,250(sp)
    c874:	04058e63          	beqz	a1,c8d0 <_ldtoa_r+0x6bc>
    c878:	f6f00793          	li	a5,-145
    c87c:	0af5c063          	blt	a1,a5,c91c <_ldtoa_r+0x708>
    c880:	0dc10513          	addi	a0,sp,220
    c884:	fffff097          	auipc	ra,0xfffff
    c888:	abc080e7          	jalr	-1348(ra) # b340 <eshift.part.3>
    c88c:	00050d93          	mv	s11,a0
    c890:	0dc15703          	lhu	a4,220(sp)
    c894:	0f815783          	lhu	a5,248(sp)
    c898:	0f810593          	addi	a1,sp,248
    c89c:	0dc10513          	addi	a0,sp,220
    c8a0:	0ef71a63          	bne	a4,a5,c994 <_ldtoa_r+0x780>
    c8a4:	ffffe097          	auipc	ra,0xffffe
    c8a8:	6d0080e7          	jalr	1744(ra) # af74 <eaddm>
    c8ac:	15010793          	addi	a5,sp,336
    c8b0:	04000713          	li	a4,64
    c8b4:	000a0693          	mv	a3,s4
    c8b8:	000d0613          	mv	a2,s10
    c8bc:	000d8593          	mv	a1,s11
    c8c0:	0f810513          	addi	a0,sp,248
    c8c4:	fffff097          	auipc	ra,0xfffff
    c8c8:	e94080e7          	jalr	-364(ra) # b758 <emdnorm>
    c8cc:	0500006f          	j	c91c <_ldtoa_r+0x708>
    c8d0:	0f810593          	addi	a1,sp,248
    c8d4:	0dc10513          	addi	a0,sp,220
    c8d8:	ffffe097          	auipc	ra,0xffffe
    c8dc:	520080e7          	jalr	1312(ra) # adf8 <ecmpm>
    c8e0:	06051c63          	bnez	a0,c958 <_ldtoa_r+0x744>
    c8e4:	0dc15703          	lhu	a4,220(sp)
    c8e8:	0f815783          	lhu	a5,248(sp)
    c8ec:	00f70a63          	beq	a4,a5,c900 <_ldtoa_r+0x6ec>
    c8f0:	0c010513          	addi	a0,sp,192
    c8f4:	ffffe097          	auipc	ra,0xffffe
    c8f8:	490080e7          	jalr	1168(ra) # ad84 <eclear>
    c8fc:	db9ff06f          	j	c6b4 <_ldtoa_r+0x4a0>
    c900:	0fa15783          	lhu	a5,250(sp)
    c904:	02079663          	bnez	a5,c930 <_ldtoa_r+0x71c>
    c908:	0fe11783          	lh	a5,254(sp)
    c90c:	0207c263          	bltz	a5,c930 <_ldtoa_r+0x71c>
    c910:	0f810513          	addi	a0,sp,248
    c914:	ffffe097          	auipc	ra,0xffffe
    c918:	570080e7          	jalr	1392(ra) # ae84 <eshup1>
    c91c:	0c010593          	addi	a1,sp,192
    c920:	0f810513          	addi	a0,sp,248
    c924:	fffff097          	auipc	ra,0xfffff
    c928:	c98080e7          	jalr	-872(ra) # b5bc <emovo.isra.6>
    c92c:	d89ff06f          	j	c6b4 <_ldtoa_r+0x4a0>
    c930:	0f810793          	addi	a5,sp,248
    c934:	10e10713          	addi	a4,sp,270
    c938:	0027d683          	lhu	a3,2(a5)
    c93c:	00068863          	beqz	a3,c94c <_ldtoa_r+0x738>
    c940:	001a0a13          	addi	s4,s4,1 # 1001 <_ZN6tflite12_GLOBAL__N_111AverageEvalEP13TfLiteContextP10TfLiteNode+0x701>
    c944:	0f411d23          	sh	s4,250(sp)
    c948:	fd5ff06f          	j	c91c <_ldtoa_r+0x708>
    c94c:	00278793          	addi	a5,a5,2
    c950:	fef714e3          	bne	a4,a5,c938 <_ldtoa_r+0x724>
    c954:	ff1ff06f          	j	c944 <_ldtoa_r+0x730>
    c958:	00000d93          	li	s11,0
    c95c:	f2a05ae3          	blez	a0,c890 <_ldtoa_r+0x67c>
    c960:	11410593          	addi	a1,sp,276
    c964:	0f810513          	addi	a0,sp,248
    c968:	ffffe097          	auipc	ra,0xffffe
    c96c:	468080e7          	jalr	1128(ra) # add0 <emovz>
    c970:	0f810593          	addi	a1,sp,248
    c974:	0dc10513          	addi	a0,sp,220
    c978:	ffffe097          	auipc	ra,0xffffe
    c97c:	458080e7          	jalr	1112(ra) # add0 <emovz>
    c980:	0dc10593          	addi	a1,sp,220
    c984:	11410513          	addi	a0,sp,276
    c988:	ffffe097          	auipc	ra,0xffffe
    c98c:	448080e7          	jalr	1096(ra) # add0 <emovz>
    c990:	f01ff06f          	j	c890 <_ldtoa_r+0x67c>
    c994:	ffffe097          	auipc	ra,0xffffe
    c998:	618080e7          	jalr	1560(ra) # afac <esubm>
    c99c:	00100d13          	li	s10,1
    c9a0:	f0dff06f          	j	c8ac <_ldtoa_r+0x698>
    c9a4:	00278793          	addi	a5,a5,2
    c9a8:	01200713          	li	a4,18
    c9ac:	bce79ee3          	bne	a5,a4,c588 <_ldtoa_r+0x374>
    c9b0:	d05ff06f          	j	c6b4 <_ldtoa_r+0x4a0>
    c9b4:	07e15783          	lhu	a5,126(sp)
    c9b8:	00000413          	li	s0,0
    c9bc:	7fff4997          	auipc	s3,0x7fff4
    c9c0:	45c98993          	addi	s3,s3,1116 # 80000e18 <etens+0xf0>
    c9c4:	0c078863          	beqz	a5,ca94 <_ldtoa_r+0x880>
    c9c8:	0c010593          	addi	a1,sp,192
    c9cc:	06c10513          	addi	a0,sp,108
    c9d0:	000049b7          	lui	s3,0x4
    c9d4:	ffffe097          	auipc	ra,0xffffe
    c9d8:	71c080e7          	jalr	1820(ra) # b0f0 <emovi>
    c9dc:	ffe98993          	addi	s3,s3,-2 # 3ffe <__muldf3+0x32a>
    c9e0:	fd500a13          	li	s4,-43
    c9e4:	0d815783          	lhu	a5,216(sp)
    c9e8:	0077f793          	andi	a5,a5,7
    c9ec:	06079c63          	bnez	a5,ca64 <_ldtoa_r+0x850>
    c9f0:	0a410593          	addi	a1,sp,164
    c9f4:	0c010513          	addi	a0,sp,192
    c9f8:	ffffe097          	auipc	ra,0xffffe
    c9fc:	3d8080e7          	jalr	984(ra) # add0 <emovz>
    ca00:	0a410513          	addi	a0,sp,164
    ca04:	ffffe097          	auipc	ra,0xffffe
    ca08:	430080e7          	jalr	1072(ra) # ae34 <eshdn1>
    ca0c:	0a410513          	addi	a0,sp,164
    ca10:	ffffe097          	auipc	ra,0xffffe
    ca14:	424080e7          	jalr	1060(ra) # ae34 <eshdn1>
    ca18:	0a410593          	addi	a1,sp,164
    ca1c:	0c010513          	addi	a0,sp,192
    ca20:	ffffe097          	auipc	ra,0xffffe
    ca24:	554080e7          	jalr	1364(ra) # af74 <eaddm>
    ca28:	0a615783          	lhu	a5,166(sp)
    ca2c:	00378793          	addi	a5,a5,3
    ca30:	0af11323          	sh	a5,166(sp)
    ca34:	0a815783          	lhu	a5,168(sp)
    ca38:	14079263          	bnez	a5,cb7c <_ldtoa_r+0x968>
    ca3c:	0bc15783          	lhu	a5,188(sp)
    ca40:	02079263          	bnez	a5,ca64 <_ldtoa_r+0x850>
    ca44:	0a615783          	lhu	a5,166(sp)
    ca48:	00f9ee63          	bltu	s3,a5,ca64 <_ldtoa_r+0x850>
    ca4c:	0c010593          	addi	a1,sp,192
    ca50:	0a410513          	addi	a0,sp,164
    ca54:	fff40413          	addi	s0,s0,-1
    ca58:	ffffe097          	auipc	ra,0xffffe
    ca5c:	378080e7          	jalr	888(ra) # add0 <emovz>
    ca60:	f94412e3          	bne	s0,s4,c9e4 <_ldtoa_r+0x7d0>
    ca64:	06c10593          	addi	a1,sp,108
    ca68:	0c010513          	addi	a0,sp,192
    ca6c:	fffff097          	auipc	ra,0xfffff
    ca70:	b50080e7          	jalr	-1200(ra) # b5bc <emovo.isra.6>
    ca74:	0280006f          	j	ca9c <_ldtoa_r+0x888>
    ca78:	06c10613          	addi	a2,sp,108
    ca7c:	15010693          	addi	a3,sp,336
    ca80:	00060593          	mv	a1,a2
    ca84:	00098513          	mv	a0,s3
    ca88:	fffff097          	auipc	ra,0xfffff
    ca8c:	10c080e7          	jalr	268(ra) # bb94 <emul>
    ca90:	fff40413          	addi	s0,s0,-1
    ca94:	07c11783          	lh	a5,124(sp)
    ca98:	fe07d0e3          	bgez	a5,ca78 <_ldtoa_r+0x864>
    ca9c:	0c010593          	addi	a1,sp,192
    caa0:	06c10513          	addi	a0,sp,108
    caa4:	ffffe097          	auipc	ra,0xffffe
    caa8:	2f4080e7          	jalr	756(ra) # ad98 <emov>
    caac:	08810593          	addi	a1,sp,136
    cab0:	7fff4517          	auipc	a0,0x7fff4
    cab4:	37c50513          	addi	a0,a0,892 # 80000e2c <eone>
    cab8:	ffffe097          	auipc	ra,0xffffe
    cabc:	2e0080e7          	jalr	736(ra) # ad98 <emov>
    cac0:	00000b93          	li	s7,0
    cac4:	fffff9b7          	lui	s3,0xfffff
    cac8:	7fff4d97          	auipc	s11,0x7fff4
    cacc:	39cd8d93          	addi	s11,s11,924 # 80000e64 <emtens>
    cad0:	00200d13          	li	s10,2
    cad4:	017d8733          	add	a4,s11,s7
    cad8:	7fff4797          	auipc	a5,0x7fff4
    cadc:	25078793          	addi	a5,a5,592 # 80000d28 <etens>
    cae0:	0c010593          	addi	a1,sp,192
    cae4:	7fff4517          	auipc	a0,0x7fff4
    cae8:	34850513          	addi	a0,a0,840 # 80000e2c <eone>
    caec:	00e12623          	sw	a4,12(sp)
    caf0:	01778a33          	add	s4,a5,s7
    caf4:	ffffe097          	auipc	ra,0xffffe
    caf8:	6d0080e7          	jalr	1744(ra) # b1c4 <ecmp>
    cafc:	00c12703          	lw	a4,12(sp)
    cb00:	04a05e63          	blez	a0,cb5c <_ldtoa_r+0x948>
    cb04:	0c010593          	addi	a1,sp,192
    cb08:	00070513          	mv	a0,a4
    cb0c:	ffffe097          	auipc	ra,0xffffe
    cb10:	6b8080e7          	jalr	1720(ra) # b1c4 <ecmp>
    cb14:	02054c63          	bltz	a0,cb4c <_ldtoa_r+0x938>
    cb18:	0c010613          	addi	a2,sp,192
    cb1c:	00060593          	mv	a1,a2
    cb20:	15010693          	addi	a3,sp,336
    cb24:	000a0513          	mv	a0,s4
    cb28:	fffff097          	auipc	ra,0xfffff
    cb2c:	06c080e7          	jalr	108(ra) # bb94 <emul>
    cb30:	08810613          	addi	a2,sp,136
    cb34:	15010693          	addi	a3,sp,336
    cb38:	00060593          	mv	a1,a2
    cb3c:	000a0513          	mv	a0,s4
    cb40:	fffff097          	auipc	ra,0xfffff
    cb44:	054080e7          	jalr	84(ra) # bb94 <emul>
    cb48:	01340433          	add	s0,s0,s3
    cb4c:	014b8b93          	addi	s7,s7,20
    cb50:	10400793          	li	a5,260
    cb54:	03a9c9b3          	div	s3,s3,s10
    cb58:	f6fb9ee3          	bne	s7,a5,cad4 <_ldtoa_r+0x8c0>
    cb5c:	08810613          	addi	a2,sp,136
    cb60:	15010693          	addi	a3,sp,336
    cb64:	7fff4597          	auipc	a1,0x7fff4
    cb68:	2c858593          	addi	a1,a1,712 # 80000e2c <eone>
    cb6c:	00060513          	mv	a0,a2
    cb70:	fffff097          	auipc	ra,0xfffff
    cb74:	310080e7          	jalr	784(ra) # be80 <ediv>
    cb78:	831ff06f          	j	c3a8 <_ldtoa_r+0x194>
    cb7c:	0a410513          	addi	a0,sp,164
    cb80:	ffffe097          	auipc	ra,0xffffe
    cb84:	2b4080e7          	jalr	692(ra) # ae34 <eshdn1>
    cb88:	0a615783          	lhu	a5,166(sp)
    cb8c:	00178793          	addi	a5,a5,1
    cb90:	ea1ff06f          	j	ca30 <_ldtoa_r+0x81c>
    cb94:	06c10513          	addi	a0,sp,108
    cb98:	ffffe097          	auipc	ra,0xffffe
    cb9c:	2ec080e7          	jalr	748(ra) # ae84 <eshup1>
    cba0:	0a410593          	addi	a1,sp,164
    cba4:	06c10513          	addi	a0,sp,108
    cba8:	ffffe097          	auipc	ra,0xffffe
    cbac:	228080e7          	jalr	552(ra) # add0 <emovz>
    cbb0:	0a410513          	addi	a0,sp,164
    cbb4:	ffffe097          	auipc	ra,0xffffe
    cbb8:	2d0080e7          	jalr	720(ra) # ae84 <eshup1>
    cbbc:	0a410513          	addi	a0,sp,164
    cbc0:	ffffe097          	auipc	ra,0xffffe
    cbc4:	2c4080e7          	jalr	708(ra) # ae84 <eshup1>
    cbc8:	06c10593          	addi	a1,sp,108
    cbcc:	0a410513          	addi	a0,sp,164
    cbd0:	ffffe097          	auipc	ra,0xffffe
    cbd4:	3a4080e7          	jalr	932(ra) # af74 <eaddm>
    cbd8:	15010613          	addi	a2,sp,336
    cbdc:	06c10593          	addi	a1,sp,108
    cbe0:	08810513          	addi	a0,sp,136
    cbe4:	fffff097          	auipc	ra,0xfffff
    cbe8:	eac080e7          	jalr	-340(ra) # ba90 <eiremain>
    cbec:	fff40413          	addi	s0,s0,-1
    cbf0:	19c15983          	lhu	s3,412(sp)
    cbf4:	815ff06f          	j	c408 <_ldtoa_r+0x1f4>
    cbf8:	02000793          	li	a5,32
    cbfc:	831ff06f          	j	c42c <_ldtoa_r+0x218>
    cc00:	03098993          	addi	s3,s3,48 # fffff030 <__stack_top+0x7ffb51b0>
    cc04:	02e00793          	li	a5,46
    cc08:	11310aa3          	sb	s3,277(sp)
    cc0c:	10f10b23          	sb	a5,278(sp)
    cc10:	11710993          	addi	s3,sp,279
    cc14:	01698bb3          	add	s7,s3,s6
    cc18:	056a5663          	bge	s4,s6,cc64 <_ldtoa_r+0xa50>
    cc1c:	19c15783          	lhu	a5,412(sp)
    cc20:	00400713          	li	a4,4
    cc24:	fffb8993          	addi	s3,s7,-1
    cc28:	84f75ee3          	bge	a4,a5,c484 <_ldtoa_r+0x270>
    cc2c:	00500713          	li	a4,5
    cc30:	0ae78063          	beq	a5,a4,ccd0 <_ldtoa_r+0xabc>
    cc34:	00098793          	mv	a5,s3
    cc38:	02e00613          	li	a2,46
    cc3c:	03800593          	li	a1,56
    cc40:	03000693          	li	a3,48
    cc44:	fff78793          	addi	a5,a5,-1
    cc48:	0007c703          	lbu	a4,0(a5)
    cc4c:	07f77713          	andi	a4,a4,127
    cc50:	0c0a5863          	bgez	s4,cd20 <_ldtoa_r+0xb0c>
    cc54:	03100713          	li	a4,49
    cc58:	00e78023          	sb	a4,0(a5)
    cc5c:	00140413          	addi	s0,s0,1
    cc60:	825ff06f          	j	c484 <_ldtoa_r+0x270>
    cc64:	06c10513          	addi	a0,sp,108
    cc68:	ffffe097          	auipc	ra,0xffffe
    cc6c:	21c080e7          	jalr	540(ra) # ae84 <eshup1>
    cc70:	0a410593          	addi	a1,sp,164
    cc74:	06c10513          	addi	a0,sp,108
    cc78:	ffffe097          	auipc	ra,0xffffe
    cc7c:	158080e7          	jalr	344(ra) # add0 <emovz>
    cc80:	0a410513          	addi	a0,sp,164
    cc84:	ffffe097          	auipc	ra,0xffffe
    cc88:	200080e7          	jalr	512(ra) # ae84 <eshup1>
    cc8c:	0a410513          	addi	a0,sp,164
    cc90:	ffffe097          	auipc	ra,0xffffe
    cc94:	1f4080e7          	jalr	500(ra) # ae84 <eshup1>
    cc98:	06c10593          	addi	a1,sp,108
    cc9c:	0a410513          	addi	a0,sp,164
    cca0:	ffffe097          	auipc	ra,0xffffe
    cca4:	2d4080e7          	jalr	724(ra) # af74 <eaddm>
    cca8:	15010613          	addi	a2,sp,336
    ccac:	06c10593          	addi	a1,sp,108
    ccb0:	08810513          	addi	a0,sp,136
    ccb4:	fffff097          	auipc	ra,0xfffff
    ccb8:	ddc080e7          	jalr	-548(ra) # ba90 <eiremain>
    ccbc:	19c14783          	lbu	a5,412(sp)
    ccc0:	001b0b13          	addi	s6,s6,1
    ccc4:	03078793          	addi	a5,a5,48
    ccc8:	00fb8023          	sb	a5,0(s7)
    cccc:	f49ff06f          	j	cc14 <_ldtoa_r+0xa00>
    ccd0:	08810593          	addi	a1,sp,136
    ccd4:	06c10513          	addi	a0,sp,108
    ccd8:	fffff097          	auipc	ra,0xfffff
    ccdc:	8e4080e7          	jalr	-1820(ra) # b5bc <emovo.isra.6>
    cce0:	7fff4597          	auipc	a1,0x7fff4
    cce4:	03458593          	addi	a1,a1,52 # 80000d14 <ezero>
    cce8:	08810513          	addi	a0,sp,136
    ccec:	ffffe097          	auipc	ra,0xffffe
    ccf0:	4d8080e7          	jalr	1240(ra) # b1c4 <ecmp>
    ccf4:	f40510e3          	bnez	a0,cc34 <_ldtoa_r+0xa20>
    ccf8:	f80a4663          	bltz	s4,c484 <_ldtoa_r+0x270>
    ccfc:	ffebc783          	lbu	a5,-2(s7)
    cd00:	fd278793          	addi	a5,a5,-46
    cd04:	0017b793          	seqz	a5,a5
    cd08:	fff7c793          	not	a5,a5
    cd0c:	00f987b3          	add	a5,s3,a5
    cd10:	0007c783          	lbu	a5,0(a5)
    cd14:	0017f793          	andi	a5,a5,1
    cd18:	f0079ee3          	bnez	a5,cc34 <_ldtoa_r+0xa20>
    cd1c:	f68ff06f          	j	c484 <_ldtoa_r+0x270>
    cd20:	02c71463          	bne	a4,a2,cd48 <_ldtoa_r+0xb34>
    cd24:	fff7c703          	lbu	a4,-1(a5)
    cd28:	03800693          	li	a3,56
    cd2c:	00e6e863          	bltu	a3,a4,cd3c <_ldtoa_r+0xb28>
    cd30:	00170713          	addi	a4,a4,1 # ffff8001 <__stack_top+0x7ffae181>
    cd34:	fee78fa3          	sb	a4,-1(a5)
    cd38:	f4cff06f          	j	c484 <_ldtoa_r+0x270>
    cd3c:	00140413          	addi	s0,s0,1
    cd40:	03100713          	li	a4,49
    cd44:	ff1ff06f          	j	cd34 <_ldtoa_r+0xb20>
    cd48:	00e5e863          	bltu	a1,a4,cd58 <_ldtoa_r+0xb44>
    cd4c:	00170713          	addi	a4,a4,1
    cd50:	00e78023          	sb	a4,0(a5)
    cd54:	f30ff06f          	j	c484 <_ldtoa_r+0x270>
    cd58:	00d78023          	sb	a3,0(a5)
    cd5c:	ee9ff06f          	j	cc44 <_ldtoa_r+0xa30>
    cd60:	00140793          	addi	a5,s0,1
    cd64:	00fca023          	sw	a5,0(s9)
    cd68:	02e00693          	li	a3,46
    cd6c:	000a0793          	mv	a5,s4
    cd70:	0007c703          	lbu	a4,0(a5)
    cd74:	00071663          	bnez	a4,cd80 <_ldtoa_r+0xb6c>
    cd78:	04500713          	li	a4,69
    cd7c:	02c0006f          	j	cda8 <_ldtoa_r+0xb94>
    cd80:	00178613          	addi	a2,a5,1
    cd84:	00d70663          	beq	a4,a3,cd90 <_ldtoa_r+0xb7c>
    cd88:	00060793          	mv	a5,a2
    cd8c:	fe5ff06f          	j	cd70 <_ldtoa_r+0xb5c>
    cd90:	0017c703          	lbu	a4,1(a5)
    cd94:	00178793          	addi	a5,a5,1
    cd98:	fee78fa3          	sb	a4,-1(a5)
    cd9c:	fe071ae3          	bnez	a4,cd90 <_ldtoa_r+0xb7c>
    cda0:	fd9ff06f          	j	cd78 <_ldtoa_r+0xb64>
    cda4:	fff78793          	addi	a5,a5,-1
    cda8:	0007c683          	lbu	a3,0(a5)
    cdac:	00e68463          	beq	a3,a4,cdb4 <_ldtoa_r+0xba0>
    cdb0:	fefa6ae3          	bltu	s4,a5,cda4 <_ldtoa_r+0xb90>
    cdb4:	00078023          	sb	zero,0(a5)
    cdb8:	1640006f          	j	cf1c <_ldtoa_r+0xd08>
    cdbc:	00178793          	addi	a5,a5,1
    cdc0:	1680006f          	j	cf28 <_ldtoa_r+0xd14>
    cdc4:	00068993          	mv	s3,a3
    cdc8:	1700006f          	j	cf38 <_ldtoa_r+0xd24>
    cdcc:	fff98993          	addi	s3,s3,-1
    cdd0:	00098023          	sb	zero,0(s3)
    cdd4:	fff9c703          	lbu	a4,-1(s3)
    cdd8:	00d71663          	bne	a4,a3,cde4 <_ldtoa_r+0xbd0>
    cddc:	41498733          	sub	a4,s3,s4
    cde0:	fee7c6e3          	blt	a5,a4,cdcc <_ldtoa_r+0xbb8>
    cde4:	00300713          	li	a4,3
    cde8:	009c0793          	addi	a5,s8,9
    cdec:	02ea9263          	bne	s5,a4,ce10 <_ldtoa_r+0xbfc>
    cdf0:	00848433          	add	s0,s1,s0
    cdf4:	00045863          	bgez	s0,ce04 <_ldtoa_r+0xbf0>
    cdf8:	10010a23          	sb	zero,276(sp)
    cdfc:	000ca023          	sw	zero,0(s9)
    ce00:	000a0993          	mv	s3,s4
    ce04:	000ca783          	lw	a5,0(s9)
    ce08:	00fc0c33          	add	s8,s8,a5
    ce0c:	003c0793          	addi	a5,s8,3
    ce10:	04092223          	sw	zero,68(s2)
    ce14:	00400713          	li	a4,4
    ce18:	01470693          	addi	a3,a4,20
    ce1c:	04492583          	lw	a1,68(s2)
    ce20:	06d7fc63          	bgeu	a5,a3,ce98 <_ldtoa_r+0xc84>
    ce24:	00090513          	mv	a0,s2
    ce28:	00000097          	auipc	ra,0x0
    ce2c:	510080e7          	jalr	1296(ra) # d338 <_Balloc>
    ce30:	04a92023          	sw	a0,64(s2)
    ce34:	000a0593          	mv	a1,s4
    ce38:	00050413          	mv	s0,a0
    ce3c:	ffffa097          	auipc	ra,0xffffa
    ce40:	f94080e7          	jalr	-108(ra) # 6dd0 <strcpy>
    ce44:	01012783          	lw	a5,16(sp)
    ce48:	00078863          	beqz	a5,ce58 <_ldtoa_r+0xc44>
    ce4c:	414989b3          	sub	s3,s3,s4
    ce50:	013409b3          	add	s3,s0,s3
    ce54:	0137a023          	sw	s3,0(a5)
    ce58:	00040513          	mv	a0,s0
    ce5c:	1dc12083          	lw	ra,476(sp)
    ce60:	1d812403          	lw	s0,472(sp)
    ce64:	1d412483          	lw	s1,468(sp)
    ce68:	1d012903          	lw	s2,464(sp)
    ce6c:	1cc12983          	lw	s3,460(sp)
    ce70:	1c812a03          	lw	s4,456(sp)
    ce74:	1c412a83          	lw	s5,452(sp)
    ce78:	1c012b03          	lw	s6,448(sp)
    ce7c:	1bc12b83          	lw	s7,444(sp)
    ce80:	1b812c03          	lw	s8,440(sp)
    ce84:	1b412c83          	lw	s9,436(sp)
    ce88:	1b012d03          	lw	s10,432(sp)
    ce8c:	1ac12d83          	lw	s11,428(sp)
    ce90:	1e010113          	addi	sp,sp,480
    ce94:	00008067          	ret
    ce98:	00158593          	addi	a1,a1,1
    ce9c:	04b92223          	sw	a1,68(s2)
    cea0:	00171713          	slli	a4,a4,0x1
    cea4:	f75ff06f          	j	ce18 <_ldtoa_r+0xc04>
    cea8:	000087b7          	lui	a5,0x8
    ceac:	fff78793          	addi	a5,a5,-1 # 7fff <_svfprintf_r+0x11f7>
    ceb0:	e0f71063          	bne	a4,a5,c4b0 <_ldtoa_r+0x29c>
    ceb4:	00812783          	lw	a5,8(sp)
    ceb8:	7fff4597          	auipc	a1,0x7fff4
    cebc:	0c458593          	addi	a1,a1,196 # 80000f7c <emtens+0x118>
    cec0:	00078663          	beqz	a5,cecc <_ldtoa_r+0xcb8>
    cec4:	7fff4597          	auipc	a1,0x7fff4
    cec8:	0ac58593          	addi	a1,a1,172 # 80000f70 <emtens+0x10c>
    cecc:	11410513          	addi	a0,sp,276
    ced0:	00002437          	lui	s0,0x2
    ced4:	ffffa097          	auipc	ra,0xffffa
    ced8:	d04080e7          	jalr	-764(ra) # 6bd8 <sprintf>
    cedc:	70f40413          	addi	s0,s0,1807 # 270f <frexp+0x3f>
    cee0:	01412783          	lw	a5,20(sp)
    cee4:	05010513          	addi	a0,sp,80
    cee8:	16812023          	sw	s0,352(sp)
    ceec:	14f12a23          	sw	a5,340(sp)
    cef0:	ffffe097          	auipc	ra,0xffffe
    cef4:	3ec080e7          	jalr	1004(ra) # b2dc <eisinf>
    cef8:	11410a13          	addi	s4,sp,276
    cefc:	00051a63          	bnez	a0,cf10 <_ldtoa_r+0xcfc>
    cf00:	05010513          	addi	a0,sp,80
    cf04:	ffffe097          	auipc	ra,0xffffe
    cf08:	17c080e7          	jalr	380(ra) # b080 <eisnan>
    cf0c:	e4050ae3          	beqz	a0,cd60 <_ldtoa_r+0xb4c>
    cf10:	000027b7          	lui	a5,0x2
    cf14:	70f78793          	addi	a5,a5,1807 # 270f <frexp+0x3f>
    cf18:	00fca023          	sw	a5,0(s9)
    cf1c:	000a0793          	mv	a5,s4
    cf20:	02000613          	li	a2,32
    cf24:	02d00693          	li	a3,45
    cf28:	0007c703          	lbu	a4,0(a5)
    cf2c:	e8c708e3          	beq	a4,a2,cdbc <_ldtoa_r+0xba8>
    cf30:	e8d706e3          	beq	a4,a3,cdbc <_ldtoa_r+0xba8>
    cf34:	000a0993          	mv	s3,s4
    cf38:	00178793          	addi	a5,a5,1
    cf3c:	fff7c703          	lbu	a4,-1(a5)
    cf40:	00198693          	addi	a3,s3,1
    cf44:	fee68fa3          	sb	a4,-1(a3)
    cf48:	e6071ee3          	bnez	a4,cdc4 <_ldtoa_r+0xbb0>
    cf4c:	00200713          	li	a4,2
    cf50:	00100793          	li	a5,1
    cf54:	00ea8863          	beq	s5,a4,cf64 <_ldtoa_r+0xd50>
    cf58:	00048793          	mv	a5,s1
    cf5c:	0084d463          	bge	s1,s0,cf64 <_ldtoa_r+0xd50>
    cf60:	00040793          	mv	a5,s0
    cf64:	03000693          	li	a3,48
    cf68:	e6dff06f          	j	cdd4 <_ldtoa_r+0xbc0>

0000cf6c <_ldcheck>:
    cf6c:	00052783          	lw	a5,0(a0)
    cf70:	fc010113          	addi	sp,sp,-64
    cf74:	01410593          	addi	a1,sp,20
    cf78:	00f12023          	sw	a5,0(sp)
    cf7c:	00452783          	lw	a5,4(a0)
    cf80:	02112e23          	sw	ra,60(sp)
    cf84:	00f12223          	sw	a5,4(sp)
    cf88:	00852783          	lw	a5,8(a0)
    cf8c:	00f12423          	sw	a5,8(sp)
    cf90:	00c52783          	lw	a5,12(a0)
    cf94:	00010513          	mv	a0,sp
    cf98:	00f12623          	sw	a5,12(sp)
    cf9c:	ffffe097          	auipc	ra,0xffffe
    cfa0:	698080e7          	jalr	1688(ra) # b634 <e113toe.isra.8>
    cfa4:	02615783          	lhu	a5,38(sp)
    cfa8:	00000513          	li	a0,0
    cfac:	fff7c793          	not	a5,a5
    cfb0:	01179713          	slli	a4,a5,0x11
    cfb4:	00071c63          	bnez	a4,cfcc <_ldcheck+0x60>
    cfb8:	01410513          	addi	a0,sp,20
    cfbc:	ffffe097          	auipc	ra,0xffffe
    cfc0:	0c4080e7          	jalr	196(ra) # b080 <eisnan>
    cfc4:	00153513          	seqz	a0,a0
    cfc8:	00150513          	addi	a0,a0,1
    cfcc:	03c12083          	lw	ra,60(sp)
    cfd0:	04010113          	addi	sp,sp,64
    cfd4:	00008067          	ret

0000cfd8 <__localeconv_l>:
    cfd8:	0f050513          	addi	a0,a0,240
    cfdc:	00008067          	ret

0000cfe0 <_localeconv_r>:
    cfe0:	7fff5797          	auipc	a5,0x7fff5
    cfe4:	d8c78793          	addi	a5,a5,-628 # 80001d6c <_impure_ptr>
    cfe8:	0007a783          	lw	a5,0(a5)
    cfec:	0347a503          	lw	a0,52(a5)
    cff0:	00051663          	bnez	a0,cffc <_localeconv_r+0x1c>
    cff4:	7fff5517          	auipc	a0,0x7fff5
    cff8:	bfc50513          	addi	a0,a0,-1028 # 80001bf0 <__global_locale>
    cffc:	0f050513          	addi	a0,a0,240
    d000:	00008067          	ret

0000d004 <localeconv>:
    d004:	7fff5797          	auipc	a5,0x7fff5
    d008:	d6878793          	addi	a5,a5,-664 # 80001d6c <_impure_ptr>
    d00c:	0007a783          	lw	a5,0(a5)
    d010:	0347a503          	lw	a0,52(a5)
    d014:	00051663          	bnez	a0,d020 <localeconv+0x1c>
    d018:	7fff5517          	auipc	a0,0x7fff5
    d01c:	bd850513          	addi	a0,a0,-1064 # 80001bf0 <__global_locale>
    d020:	0f050513          	addi	a0,a0,240
    d024:	00008067          	ret

0000d028 <_setlocale_r>:
    d028:	02061463          	bnez	a2,d050 <_setlocale_r+0x28>
    d02c:	7fff4517          	auipc	a0,0x7fff4
    d030:	f6450513          	addi	a0,a0,-156 # 80000f90 <emtens+0x12c>
    d034:	00008067          	ret
    d038:	7fff4517          	auipc	a0,0x7fff4
    d03c:	f5850513          	addi	a0,a0,-168 # 80000f90 <emtens+0x12c>
    d040:	00c12083          	lw	ra,12(sp)
    d044:	00812403          	lw	s0,8(sp)
    d048:	01010113          	addi	sp,sp,16
    d04c:	00008067          	ret
    d050:	ff010113          	addi	sp,sp,-16
    d054:	7fff4597          	auipc	a1,0x7fff4
    d058:	f4058593          	addi	a1,a1,-192 # 80000f94 <emtens+0x130>
    d05c:	00060513          	mv	a0,a2
    d060:	00812423          	sw	s0,8(sp)
    d064:	00112623          	sw	ra,12(sp)
    d068:	00060413          	mv	s0,a2
    d06c:	ffffa097          	auipc	ra,0xffffa
    d070:	be8080e7          	jalr	-1048(ra) # 6c54 <strcmp>
    d074:	fc0502e3          	beqz	a0,d038 <_setlocale_r+0x10>
    d078:	7fff4597          	auipc	a1,0x7fff4
    d07c:	f1858593          	addi	a1,a1,-232 # 80000f90 <emtens+0x12c>
    d080:	00040513          	mv	a0,s0
    d084:	ffffa097          	auipc	ra,0xffffa
    d088:	bd0080e7          	jalr	-1072(ra) # 6c54 <strcmp>
    d08c:	fa0506e3          	beqz	a0,d038 <_setlocale_r+0x10>
    d090:	7fff3597          	auipc	a1,0x7fff3
    d094:	0dc58593          	addi	a1,a1,220 # 8000016c <__trunctfdf2+0x7ffed10c>
    d098:	00040513          	mv	a0,s0
    d09c:	ffffa097          	auipc	ra,0xffffa
    d0a0:	bb8080e7          	jalr	-1096(ra) # 6c54 <strcmp>
    d0a4:	f8050ae3          	beqz	a0,d038 <_setlocale_r+0x10>
    d0a8:	00000513          	li	a0,0
    d0ac:	f95ff06f          	j	d040 <_setlocale_r+0x18>

0000d0b0 <__locale_mb_cur_max>:
    d0b0:	7fff5797          	auipc	a5,0x7fff5
    d0b4:	cbc78793          	addi	a5,a5,-836 # 80001d6c <_impure_ptr>
    d0b8:	0007a783          	lw	a5,0(a5)
    d0bc:	0347a783          	lw	a5,52(a5)
    d0c0:	00079663          	bnez	a5,d0cc <__locale_mb_cur_max+0x1c>
    d0c4:	7fff5797          	auipc	a5,0x7fff5
    d0c8:	b2c78793          	addi	a5,a5,-1236 # 80001bf0 <__global_locale>
    d0cc:	1287c503          	lbu	a0,296(a5)
    d0d0:	00008067          	ret

0000d0d4 <__locale_ctype_ptr_l>:
    d0d4:	0ec52503          	lw	a0,236(a0)
    d0d8:	00008067          	ret

0000d0dc <__locale_ctype_ptr>:
    d0dc:	7fff5797          	auipc	a5,0x7fff5
    d0e0:	c9078793          	addi	a5,a5,-880 # 80001d6c <_impure_ptr>
    d0e4:	0007a783          	lw	a5,0(a5)
    d0e8:	0347a783          	lw	a5,52(a5)
    d0ec:	00079663          	bnez	a5,d0f8 <__locale_ctype_ptr+0x1c>
    d0f0:	7fff5797          	auipc	a5,0x7fff5
    d0f4:	b0078793          	addi	a5,a5,-1280 # 80001bf0 <__global_locale>
    d0f8:	0ec7a503          	lw	a0,236(a5)
    d0fc:	00008067          	ret

0000d100 <setlocale>:
    d100:	7fff5797          	auipc	a5,0x7fff5
    d104:	c6c78793          	addi	a5,a5,-916 # 80001d6c <_impure_ptr>
    d108:	00058613          	mv	a2,a1
    d10c:	00050593          	mv	a1,a0
    d110:	0007a503          	lw	a0,0(a5)
    d114:	00000317          	auipc	t1,0x0
    d118:	f1430067          	jr	-236(t1) # d028 <_setlocale_r>

0000d11c <__swhatbuf_r>:
    d11c:	f8010113          	addi	sp,sp,-128
    d120:	06912a23          	sw	s1,116(sp)
    d124:	00058493          	mv	s1,a1
    d128:	00e59583          	lh	a1,14(a1)
    d12c:	06812c23          	sw	s0,120(sp)
    d130:	06112e23          	sw	ra,124(sp)
    d134:	00060413          	mv	s0,a2
    d138:	0005de63          	bgez	a1,d154 <__swhatbuf_r+0x38>
    d13c:	00c4d783          	lhu	a5,12(s1)
    d140:	0006a023          	sw	zero,0(a3)
    d144:	0807f793          	andi	a5,a5,128
    d148:	04079a63          	bnez	a5,d19c <__swhatbuf_r+0x80>
    d14c:	40000793          	li	a5,1024
    d150:	0500006f          	j	d1a0 <__swhatbuf_r+0x84>
    d154:	01810613          	addi	a2,sp,24
    d158:	00d12623          	sw	a3,12(sp)
    d15c:	00002097          	auipc	ra,0x2
    d160:	3d0080e7          	jalr	976(ra) # f52c <_fstat_r>
    d164:	00c12683          	lw	a3,12(sp)
    d168:	fc054ae3          	bltz	a0,d13c <__swhatbuf_r+0x20>
    d16c:	01c12703          	lw	a4,28(sp)
    d170:	0000f7b7          	lui	a5,0xf
    d174:	00001537          	lui	a0,0x1
    d178:	00e7f7b3          	and	a5,a5,a4
    d17c:	ffffe737          	lui	a4,0xffffe
    d180:	00e787b3          	add	a5,a5,a4
    d184:	0017b793          	seqz	a5,a5
    d188:	00f6a023          	sw	a5,0(a3)
    d18c:	40000793          	li	a5,1024
    d190:	00f42023          	sw	a5,0(s0)
    d194:	80050513          	addi	a0,a0,-2048 # 800 <_ZN6tflite12ParseReshapeEPKNS_8OperatorEPNS_13ErrorReporterEPNS_20BuiltinDataAllocatorEPPv+0xe4>
    d198:	0100006f          	j	d1a8 <__swhatbuf_r+0x8c>
    d19c:	04000793          	li	a5,64
    d1a0:	00f42023          	sw	a5,0(s0)
    d1a4:	00000513          	li	a0,0
    d1a8:	07c12083          	lw	ra,124(sp)
    d1ac:	07812403          	lw	s0,120(sp)
    d1b0:	07412483          	lw	s1,116(sp)
    d1b4:	08010113          	addi	sp,sp,128
    d1b8:	00008067          	ret

0000d1bc <__smakebuf_r>:
    d1bc:	00c5d783          	lhu	a5,12(a1)
    d1c0:	fe010113          	addi	sp,sp,-32
    d1c4:	00812c23          	sw	s0,24(sp)
    d1c8:	00112e23          	sw	ra,28(sp)
    d1cc:	00912a23          	sw	s1,20(sp)
    d1d0:	01212823          	sw	s2,16(sp)
    d1d4:	0027f793          	andi	a5,a5,2
    d1d8:	00058413          	mv	s0,a1
    d1dc:	02078863          	beqz	a5,d20c <__smakebuf_r+0x50>
    d1e0:	04340793          	addi	a5,s0,67
    d1e4:	00f42023          	sw	a5,0(s0)
    d1e8:	00f42823          	sw	a5,16(s0)
    d1ec:	00100793          	li	a5,1
    d1f0:	00f42a23          	sw	a5,20(s0)
    d1f4:	01c12083          	lw	ra,28(sp)
    d1f8:	01812403          	lw	s0,24(sp)
    d1fc:	01412483          	lw	s1,20(sp)
    d200:	01012903          	lw	s2,16(sp)
    d204:	02010113          	addi	sp,sp,32
    d208:	00008067          	ret
    d20c:	00c10693          	addi	a3,sp,12
    d210:	00810613          	addi	a2,sp,8
    d214:	00050493          	mv	s1,a0
    d218:	00000097          	auipc	ra,0x0
    d21c:	f04080e7          	jalr	-252(ra) # d11c <__swhatbuf_r>
    d220:	00812583          	lw	a1,8(sp)
    d224:	00050913          	mv	s2,a0
    d228:	00048513          	mv	a0,s1
    d22c:	ffff8097          	auipc	ra,0xffff8
    d230:	770080e7          	jalr	1904(ra) # 599c <_malloc_r>
    d234:	02051063          	bnez	a0,d254 <__smakebuf_r+0x98>
    d238:	00c41783          	lh	a5,12(s0)
    d23c:	2007f713          	andi	a4,a5,512
    d240:	fa071ae3          	bnez	a4,d1f4 <__smakebuf_r+0x38>
    d244:	ffc7f793          	andi	a5,a5,-4
    d248:	0027e793          	ori	a5,a5,2
    d24c:	00f41623          	sh	a5,12(s0)
    d250:	f91ff06f          	j	d1e0 <__smakebuf_r+0x24>
    d254:	ffffd797          	auipc	a5,0xffffd
    d258:	1f078793          	addi	a5,a5,496 # a444 <_cleanup_r>
    d25c:	02f4ae23          	sw	a5,60(s1)
    d260:	00c45783          	lhu	a5,12(s0)
    d264:	00a42023          	sw	a0,0(s0)
    d268:	00a42823          	sw	a0,16(s0)
    d26c:	0807e793          	ori	a5,a5,128
    d270:	00f41623          	sh	a5,12(s0)
    d274:	00812783          	lw	a5,8(sp)
    d278:	00f42a23          	sw	a5,20(s0)
    d27c:	00c12783          	lw	a5,12(sp)
    d280:	02078463          	beqz	a5,d2a8 <__smakebuf_r+0xec>
    d284:	00e41583          	lh	a1,14(s0)
    d288:	00048513          	mv	a0,s1
    d28c:	00002097          	auipc	ra,0x2
    d290:	2f4080e7          	jalr	756(ra) # f580 <_isatty_r>
    d294:	00050a63          	beqz	a0,d2a8 <__smakebuf_r+0xec>
    d298:	00c45783          	lhu	a5,12(s0)
    d29c:	ffc7f793          	andi	a5,a5,-4
    d2a0:	0017e793          	ori	a5,a5,1
    d2a4:	00f41623          	sh	a5,12(s0)
    d2a8:	00c45783          	lhu	a5,12(s0)
    d2ac:	00f96933          	or	s2,s2,a5
    d2b0:	01241623          	sh	s2,12(s0)
    d2b4:	f41ff06f          	j	d1f4 <__smakebuf_r+0x38>

0000d2b8 <_mbtowc_r>:
    d2b8:	7fff5797          	auipc	a5,0x7fff5
    d2bc:	ab478793          	addi	a5,a5,-1356 # 80001d6c <_impure_ptr>
    d2c0:	0007a783          	lw	a5,0(a5)
    d2c4:	0347a783          	lw	a5,52(a5)
    d2c8:	00079663          	bnez	a5,d2d4 <_mbtowc_r+0x1c>
    d2cc:	7fff5797          	auipc	a5,0x7fff5
    d2d0:	92478793          	addi	a5,a5,-1756 # 80001bf0 <__global_locale>
    d2d4:	0e47a303          	lw	t1,228(a5)
    d2d8:	00030067          	jr	t1

0000d2dc <__ascii_mbtowc>:
    d2dc:	02059a63          	bnez	a1,d310 <__ascii_mbtowc+0x34>
    d2e0:	ff010113          	addi	sp,sp,-16
    d2e4:	00c10593          	addi	a1,sp,12
    d2e8:	00000513          	li	a0,0
    d2ec:	00060e63          	beqz	a2,d308 <__ascii_mbtowc+0x2c>
    d2f0:	ffe00513          	li	a0,-2
    d2f4:	00068a63          	beqz	a3,d308 <__ascii_mbtowc+0x2c>
    d2f8:	00064783          	lbu	a5,0(a2)
    d2fc:	00f5a023          	sw	a5,0(a1)
    d300:	00064503          	lbu	a0,0(a2)
    d304:	00a03533          	snez	a0,a0
    d308:	01010113          	addi	sp,sp,16
    d30c:	00008067          	ret
    d310:	00000513          	li	a0,0
    d314:	02060063          	beqz	a2,d334 <__ascii_mbtowc+0x58>
    d318:	ffe00513          	li	a0,-2
    d31c:	00068c63          	beqz	a3,d334 <__ascii_mbtowc+0x58>
    d320:	00064783          	lbu	a5,0(a2)
    d324:	00f5a023          	sw	a5,0(a1)
    d328:	00064503          	lbu	a0,0(a2)
    d32c:	00a03533          	snez	a0,a0
    d330:	00008067          	ret
    d334:	00008067          	ret

0000d338 <_Balloc>:
    d338:	04c52783          	lw	a5,76(a0)
    d33c:	ff010113          	addi	sp,sp,-16
    d340:	00912223          	sw	s1,4(sp)
    d344:	01212023          	sw	s2,0(sp)
    d348:	00112623          	sw	ra,12(sp)
    d34c:	00812423          	sw	s0,8(sp)
    d350:	00050493          	mv	s1,a0
    d354:	00058913          	mv	s2,a1
    d358:	04078463          	beqz	a5,d3a0 <_Balloc+0x68>
    d35c:	04c4a703          	lw	a4,76(s1)
    d360:	00291793          	slli	a5,s2,0x2
    d364:	00f707b3          	add	a5,a4,a5
    d368:	0007a503          	lw	a0,0(a5)
    d36c:	06051463          	bnez	a0,d3d4 <_Balloc+0x9c>
    d370:	00100413          	li	s0,1
    d374:	01241433          	sll	s0,s0,s2
    d378:	00540613          	addi	a2,s0,5
    d37c:	00261613          	slli	a2,a2,0x2
    d380:	00100593          	li	a1,1
    d384:	00048513          	mv	a0,s1
    d388:	00002097          	auipc	ra,0x2
    d38c:	fa0080e7          	jalr	-96(ra) # f328 <_calloc_r>
    d390:	02050463          	beqz	a0,d3b8 <_Balloc+0x80>
    d394:	01252223          	sw	s2,4(a0)
    d398:	00852423          	sw	s0,8(a0)
    d39c:	0400006f          	j	d3dc <_Balloc+0xa4>
    d3a0:	02100613          	li	a2,33
    d3a4:	00400593          	li	a1,4
    d3a8:	00002097          	auipc	ra,0x2
    d3ac:	f80080e7          	jalr	-128(ra) # f328 <_calloc_r>
    d3b0:	04a4a623          	sw	a0,76(s1)
    d3b4:	fa0514e3          	bnez	a0,d35c <_Balloc+0x24>
    d3b8:	00000513          	li	a0,0
    d3bc:	00c12083          	lw	ra,12(sp)
    d3c0:	00812403          	lw	s0,8(sp)
    d3c4:	00412483          	lw	s1,4(sp)
    d3c8:	00012903          	lw	s2,0(sp)
    d3cc:	01010113          	addi	sp,sp,16
    d3d0:	00008067          	ret
    d3d4:	00052703          	lw	a4,0(a0)
    d3d8:	00e7a023          	sw	a4,0(a5)
    d3dc:	00052823          	sw	zero,16(a0)
    d3e0:	00052623          	sw	zero,12(a0)
    d3e4:	fd9ff06f          	j	d3bc <_Balloc+0x84>

0000d3e8 <_Bfree>:
    d3e8:	02058063          	beqz	a1,d408 <_Bfree+0x20>
    d3ec:	0045a783          	lw	a5,4(a1)
    d3f0:	00279713          	slli	a4,a5,0x2
    d3f4:	04c52783          	lw	a5,76(a0)
    d3f8:	00e787b3          	add	a5,a5,a4
    d3fc:	0007a703          	lw	a4,0(a5)
    d400:	00e5a023          	sw	a4,0(a1)
    d404:	00b7a023          	sw	a1,0(a5)
    d408:	00008067          	ret

0000d40c <__multadd>:
    d40c:	fd010113          	addi	sp,sp,-48
    d410:	01312e23          	sw	s3,28(sp)
    d414:	00050993          	mv	s3,a0
    d418:	00010537          	lui	a0,0x10
    d41c:	02812423          	sw	s0,40(sp)
    d420:	02912223          	sw	s1,36(sp)
    d424:	00058413          	mv	s0,a1
    d428:	0105a483          	lw	s1,16(a1)
    d42c:	02112623          	sw	ra,44(sp)
    d430:	03212023          	sw	s2,32(sp)
    d434:	01458593          	addi	a1,a1,20
    d438:	00000813          	li	a6,0
    d43c:	fff50513          	addi	a0,a0,-1 # ffff <__umoddi3+0x177>
    d440:	0005a783          	lw	a5,0(a1)
    d444:	00458593          	addi	a1,a1,4
    d448:	00180813          	addi	a6,a6,1
    d44c:	00a7f733          	and	a4,a5,a0
    d450:	02c70733          	mul	a4,a4,a2
    d454:	0107d793          	srli	a5,a5,0x10
    d458:	02c787b3          	mul	a5,a5,a2
    d45c:	00d70733          	add	a4,a4,a3
    d460:	01075693          	srli	a3,a4,0x10
    d464:	00a77733          	and	a4,a4,a0
    d468:	00d787b3          	add	a5,a5,a3
    d46c:	0107d693          	srli	a3,a5,0x10
    d470:	01079793          	slli	a5,a5,0x10
    d474:	00e787b3          	add	a5,a5,a4
    d478:	fef5ae23          	sw	a5,-4(a1)
    d47c:	fc9842e3          	blt	a6,s1,d440 <__multadd+0x34>
    d480:	06068a63          	beqz	a3,d4f4 <__multadd+0xe8>
    d484:	00842783          	lw	a5,8(s0)
    d488:	04f4ca63          	blt	s1,a5,d4dc <__multadd+0xd0>
    d48c:	00442583          	lw	a1,4(s0)
    d490:	00098513          	mv	a0,s3
    d494:	00d12623          	sw	a3,12(sp)
    d498:	00158593          	addi	a1,a1,1
    d49c:	00000097          	auipc	ra,0x0
    d4a0:	e9c080e7          	jalr	-356(ra) # d338 <_Balloc>
    d4a4:	01042603          	lw	a2,16(s0)
    d4a8:	00c40593          	addi	a1,s0,12
    d4ac:	00050913          	mv	s2,a0
    d4b0:	00260613          	addi	a2,a2,2
    d4b4:	00261613          	slli	a2,a2,0x2
    d4b8:	00c50513          	addi	a0,a0,12
    d4bc:	ffff9097          	auipc	ra,0xffff9
    d4c0:	be0080e7          	jalr	-1056(ra) # 609c <memcpy>
    d4c4:	00040593          	mv	a1,s0
    d4c8:	00098513          	mv	a0,s3
    d4cc:	00000097          	auipc	ra,0x0
    d4d0:	f1c080e7          	jalr	-228(ra) # d3e8 <_Bfree>
    d4d4:	00c12683          	lw	a3,12(sp)
    d4d8:	00090413          	mv	s0,s2
    d4dc:	00448793          	addi	a5,s1,4
    d4e0:	00279793          	slli	a5,a5,0x2
    d4e4:	00f407b3          	add	a5,s0,a5
    d4e8:	00d7a223          	sw	a3,4(a5)
    d4ec:	00148493          	addi	s1,s1,1
    d4f0:	00942823          	sw	s1,16(s0)
    d4f4:	00040513          	mv	a0,s0
    d4f8:	02c12083          	lw	ra,44(sp)
    d4fc:	02812403          	lw	s0,40(sp)
    d500:	02412483          	lw	s1,36(sp)
    d504:	02012903          	lw	s2,32(sp)
    d508:	01c12983          	lw	s3,28(sp)
    d50c:	03010113          	addi	sp,sp,48
    d510:	00008067          	ret

0000d514 <__s2b>:
    d514:	fd010113          	addi	sp,sp,-48
    d518:	00868793          	addi	a5,a3,8
    d51c:	01412c23          	sw	s4,24(sp)
    d520:	00068a13          	mv	s4,a3
    d524:	00900693          	li	a3,9
    d528:	02812423          	sw	s0,40(sp)
    d52c:	02912223          	sw	s1,36(sp)
    d530:	01312e23          	sw	s3,28(sp)
    d534:	00058413          	mv	s0,a1
    d538:	02d7c7b3          	div	a5,a5,a3
    d53c:	02112623          	sw	ra,44(sp)
    d540:	03212023          	sw	s2,32(sp)
    d544:	01512a23          	sw	s5,20(sp)
    d548:	00050993          	mv	s3,a0
    d54c:	00060493          	mv	s1,a2
    d550:	00100693          	li	a3,1
    d554:	00000593          	li	a1,0
    d558:	08f6c863          	blt	a3,a5,d5e8 <__s2b+0xd4>
    d55c:	00098513          	mv	a0,s3
    d560:	00e12623          	sw	a4,12(sp)
    d564:	00000097          	auipc	ra,0x0
    d568:	dd4080e7          	jalr	-556(ra) # d338 <_Balloc>
    d56c:	00c12703          	lw	a4,12(sp)
    d570:	00100793          	li	a5,1
    d574:	00f52823          	sw	a5,16(a0)
    d578:	00e52a23          	sw	a4,20(a0)
    d57c:	00900793          	li	a5,9
    d580:	0697da63          	bge	a5,s1,d5f4 <__s2b+0xe0>
    d584:	00940a93          	addi	s5,s0,9
    d588:	000a8913          	mv	s2,s5
    d58c:	00940433          	add	s0,s0,s1
    d590:	00190913          	addi	s2,s2,1
    d594:	fff94683          	lbu	a3,-1(s2)
    d598:	00050593          	mv	a1,a0
    d59c:	00a00613          	li	a2,10
    d5a0:	fd068693          	addi	a3,a3,-48
    d5a4:	00098513          	mv	a0,s3
    d5a8:	00000097          	auipc	ra,0x0
    d5ac:	e64080e7          	jalr	-412(ra) # d40c <__multadd>
    d5b0:	fe8910e3          	bne	s2,s0,d590 <__s2b+0x7c>
    d5b4:	ff848413          	addi	s0,s1,-8
    d5b8:	008a8433          	add	s0,s5,s0
    d5bc:	00048913          	mv	s2,s1
    d5c0:	05494063          	blt	s2,s4,d600 <__s2b+0xec>
    d5c4:	02c12083          	lw	ra,44(sp)
    d5c8:	02812403          	lw	s0,40(sp)
    d5cc:	02412483          	lw	s1,36(sp)
    d5d0:	02012903          	lw	s2,32(sp)
    d5d4:	01c12983          	lw	s3,28(sp)
    d5d8:	01812a03          	lw	s4,24(sp)
    d5dc:	01412a83          	lw	s5,20(sp)
    d5e0:	03010113          	addi	sp,sp,48
    d5e4:	00008067          	ret
    d5e8:	00169693          	slli	a3,a3,0x1
    d5ec:	00158593          	addi	a1,a1,1
    d5f0:	f69ff06f          	j	d558 <__s2b+0x44>
    d5f4:	00a40413          	addi	s0,s0,10
    d5f8:	00900493          	li	s1,9
    d5fc:	fc1ff06f          	j	d5bc <__s2b+0xa8>
    d600:	409907b3          	sub	a5,s2,s1
    d604:	00f407b3          	add	a5,s0,a5
    d608:	0007c683          	lbu	a3,0(a5)
    d60c:	00050593          	mv	a1,a0
    d610:	00a00613          	li	a2,10
    d614:	fd068693          	addi	a3,a3,-48
    d618:	00098513          	mv	a0,s3
    d61c:	00000097          	auipc	ra,0x0
    d620:	df0080e7          	jalr	-528(ra) # d40c <__multadd>
    d624:	00190913          	addi	s2,s2,1
    d628:	f99ff06f          	j	d5c0 <__s2b+0xac>

0000d62c <__hi0bits>:
    d62c:	ffff0737          	lui	a4,0xffff0
    d630:	00e57733          	and	a4,a0,a4
    d634:	00050793          	mv	a5,a0
    d638:	00000513          	li	a0,0
    d63c:	00071663          	bnez	a4,d648 <__hi0bits+0x1c>
    d640:	01079793          	slli	a5,a5,0x10
    d644:	01000513          	li	a0,16
    d648:	ff000737          	lui	a4,0xff000
    d64c:	00e7f733          	and	a4,a5,a4
    d650:	00071663          	bnez	a4,d65c <__hi0bits+0x30>
    d654:	00850513          	addi	a0,a0,8
    d658:	00879793          	slli	a5,a5,0x8
    d65c:	f0000737          	lui	a4,0xf0000
    d660:	00e7f733          	and	a4,a5,a4
    d664:	00071663          	bnez	a4,d670 <__hi0bits+0x44>
    d668:	00450513          	addi	a0,a0,4
    d66c:	00479793          	slli	a5,a5,0x4
    d670:	c0000737          	lui	a4,0xc0000
    d674:	00e7f733          	and	a4,a5,a4
    d678:	00071663          	bnez	a4,d684 <__hi0bits+0x58>
    d67c:	00250513          	addi	a0,a0,2
    d680:	00279793          	slli	a5,a5,0x2
    d684:	0007ca63          	bltz	a5,d698 <__hi0bits+0x6c>
    d688:	00179713          	slli	a4,a5,0x1
    d68c:	00150513          	addi	a0,a0,1
    d690:	00074463          	bltz	a4,d698 <__hi0bits+0x6c>
    d694:	02000513          	li	a0,32
    d698:	00008067          	ret

0000d69c <__lo0bits>:
    d69c:	00052783          	lw	a5,0(a0)
    d6a0:	0077f713          	andi	a4,a5,7
    d6a4:	02070e63          	beqz	a4,d6e0 <__lo0bits+0x44>
    d6a8:	0017f693          	andi	a3,a5,1
    d6ac:	00000713          	li	a4,0
    d6b0:	00069c63          	bnez	a3,d6c8 <__lo0bits+0x2c>
    d6b4:	0027f713          	andi	a4,a5,2
    d6b8:	00070c63          	beqz	a4,d6d0 <__lo0bits+0x34>
    d6bc:	0017d793          	srli	a5,a5,0x1
    d6c0:	00f52023          	sw	a5,0(a0)
    d6c4:	00100713          	li	a4,1
    d6c8:	00070513          	mv	a0,a4
    d6cc:	00008067          	ret
    d6d0:	0027d793          	srli	a5,a5,0x2
    d6d4:	00f52023          	sw	a5,0(a0)
    d6d8:	00200713          	li	a4,2
    d6dc:	fedff06f          	j	d6c8 <__lo0bits+0x2c>
    d6e0:	01079693          	slli	a3,a5,0x10
    d6e4:	0106d693          	srli	a3,a3,0x10
    d6e8:	00000713          	li	a4,0
    d6ec:	00069663          	bnez	a3,d6f8 <__lo0bits+0x5c>
    d6f0:	0107d793          	srli	a5,a5,0x10
    d6f4:	01000713          	li	a4,16
    d6f8:	0ff7f693          	zext.b	a3,a5
    d6fc:	00069663          	bnez	a3,d708 <__lo0bits+0x6c>
    d700:	00870713          	addi	a4,a4,8 # c0000008 <__stack_top+0x3ffb6188>
    d704:	0087d793          	srli	a5,a5,0x8
    d708:	00f7f693          	andi	a3,a5,15
    d70c:	00069663          	bnez	a3,d718 <__lo0bits+0x7c>
    d710:	00470713          	addi	a4,a4,4
    d714:	0047d793          	srli	a5,a5,0x4
    d718:	0037f693          	andi	a3,a5,3
    d71c:	00069663          	bnez	a3,d728 <__lo0bits+0x8c>
    d720:	00270713          	addi	a4,a4,2
    d724:	0027d793          	srli	a5,a5,0x2
    d728:	0017f693          	andi	a3,a5,1
    d72c:	00069863          	bnez	a3,d73c <__lo0bits+0xa0>
    d730:	0017d793          	srli	a5,a5,0x1
    d734:	00170713          	addi	a4,a4,1
    d738:	00078663          	beqz	a5,d744 <__lo0bits+0xa8>
    d73c:	00f52023          	sw	a5,0(a0)
    d740:	f89ff06f          	j	d6c8 <__lo0bits+0x2c>
    d744:	02000713          	li	a4,32
    d748:	f81ff06f          	j	d6c8 <__lo0bits+0x2c>

0000d74c <__i2b>:
    d74c:	ff010113          	addi	sp,sp,-16
    d750:	00812423          	sw	s0,8(sp)
    d754:	00058413          	mv	s0,a1
    d758:	00100593          	li	a1,1
    d75c:	00112623          	sw	ra,12(sp)
    d760:	00000097          	auipc	ra,0x0
    d764:	bd8080e7          	jalr	-1064(ra) # d338 <_Balloc>
    d768:	00852a23          	sw	s0,20(a0)
    d76c:	00c12083          	lw	ra,12(sp)
    d770:	00812403          	lw	s0,8(sp)
    d774:	00100713          	li	a4,1
    d778:	00e52823          	sw	a4,16(a0)
    d77c:	01010113          	addi	sp,sp,16
    d780:	00008067          	ret

0000d784 <__multiply>:
    d784:	0105a703          	lw	a4,16(a1)
    d788:	01062783          	lw	a5,16(a2)
    d78c:	fd010113          	addi	sp,sp,-48
    d790:	02912223          	sw	s1,36(sp)
    d794:	02112623          	sw	ra,44(sp)
    d798:	02812423          	sw	s0,40(sp)
    d79c:	03212023          	sw	s2,32(sp)
    d7a0:	01312e23          	sw	s3,28(sp)
    d7a4:	00058493          	mv	s1,a1
    d7a8:	00f75663          	bge	a4,a5,d7b4 <__multiply+0x30>
    d7ac:	00060493          	mv	s1,a2
    d7b0:	00058613          	mv	a2,a1
    d7b4:	0104a983          	lw	s3,16(s1)
    d7b8:	01062903          	lw	s2,16(a2)
    d7bc:	0084a783          	lw	a5,8(s1)
    d7c0:	0044a583          	lw	a1,4(s1)
    d7c4:	01298433          	add	s0,s3,s2
    d7c8:	0087d463          	bge	a5,s0,d7d0 <__multiply+0x4c>
    d7cc:	00158593          	addi	a1,a1,1
    d7d0:	00c12623          	sw	a2,12(sp)
    d7d4:	00000097          	auipc	ra,0x0
    d7d8:	b64080e7          	jalr	-1180(ra) # d338 <_Balloc>
    d7dc:	00c12603          	lw	a2,12(sp)
    d7e0:	01450813          	addi	a6,a0,20
    d7e4:	00241313          	slli	t1,s0,0x2
    d7e8:	00680333          	add	t1,a6,t1
    d7ec:	00080793          	mv	a5,a6
    d7f0:	0467ec63          	bltu	a5,t1,d848 <__multiply+0xc4>
    d7f4:	01448593          	addi	a1,s1,20
    d7f8:	00299893          	slli	a7,s3,0x2
    d7fc:	01460613          	addi	a2,a2,20
    d800:	00291e13          	slli	t3,s2,0x2
    d804:	000106b7          	lui	a3,0x10
    d808:	011588b3          	add	a7,a1,a7
    d80c:	01c60e33          	add	t3,a2,t3
    d810:	fff68693          	addi	a3,a3,-1 # ffff <__umoddi3+0x177>
    d814:	05c66063          	bltu	a2,t3,d854 <__multiply+0xd0>
    d818:	00805863          	blez	s0,d828 <__multiply+0xa4>
    d81c:	ffc30313          	addi	t1,t1,-4
    d820:	00032783          	lw	a5,0(t1)
    d824:	10078e63          	beqz	a5,d940 <__multiply+0x1bc>
    d828:	00852823          	sw	s0,16(a0)
    d82c:	02c12083          	lw	ra,44(sp)
    d830:	02812403          	lw	s0,40(sp)
    d834:	02412483          	lw	s1,36(sp)
    d838:	02012903          	lw	s2,32(sp)
    d83c:	01c12983          	lw	s3,28(sp)
    d840:	03010113          	addi	sp,sp,48
    d844:	00008067          	ret
    d848:	0007a023          	sw	zero,0(a5)
    d84c:	00478793          	addi	a5,a5,4
    d850:	fa1ff06f          	j	d7f0 <__multiply+0x6c>
    d854:	00062f83          	lw	t6,0(a2)
    d858:	00dfffb3          	and	t6,t6,a3
    d85c:	060f8463          	beqz	t6,d8c4 <__multiply+0x140>
    d860:	00080f13          	mv	t5,a6
    d864:	00058293          	mv	t0,a1
    d868:	00000493          	li	s1,0
    d86c:	0002a703          	lw	a4,0(t0) # 6284 <memset+0xb4>
    d870:	000f2383          	lw	t2,0(t5)
    d874:	004f0f13          	addi	t5,t5,4
    d878:	00d77eb3          	and	t4,a4,a3
    d87c:	03fe8eb3          	mul	t4,t4,t6
    d880:	00d3f7b3          	and	a5,t2,a3
    d884:	0103d393          	srli	t2,t2,0x10
    d888:	00428293          	addi	t0,t0,4
    d88c:	00fe8eb3          	add	t4,t4,a5
    d890:	01075793          	srli	a5,a4,0x10
    d894:	03f787b3          	mul	a5,a5,t6
    d898:	009e8eb3          	add	t4,t4,s1
    d89c:	010ed713          	srli	a4,t4,0x10
    d8a0:	00defeb3          	and	t4,t4,a3
    d8a4:	007787b3          	add	a5,a5,t2
    d8a8:	00e787b3          	add	a5,a5,a4
    d8ac:	0107d493          	srli	s1,a5,0x10
    d8b0:	01079793          	slli	a5,a5,0x10
    d8b4:	01d7e7b3          	or	a5,a5,t4
    d8b8:	feff2e23          	sw	a5,-4(t5)
    d8bc:	fb12e8e3          	bltu	t0,a7,d86c <__multiply+0xe8>
    d8c0:	009f2023          	sw	s1,0(t5)
    d8c4:	00265283          	lhu	t0,2(a2)
    d8c8:	06028663          	beqz	t0,d934 <__multiply+0x1b0>
    d8cc:	00082783          	lw	a5,0(a6)
    d8d0:	00080e93          	mv	t4,a6
    d8d4:	00058f13          	mv	t5,a1
    d8d8:	00000f93          	li	t6,0
    d8dc:	000f2703          	lw	a4,0(t5)
    d8e0:	002ed383          	lhu	t2,2(t4)
    d8e4:	00d7f7b3          	and	a5,a5,a3
    d8e8:	00d77733          	and	a4,a4,a3
    d8ec:	02570733          	mul	a4,a4,t0
    d8f0:	004e8e93          	addi	t4,t4,4
    d8f4:	004f0f13          	addi	t5,t5,4
    d8f8:	00770733          	add	a4,a4,t2
    d8fc:	01f70733          	add	a4,a4,t6
    d900:	01071f93          	slli	t6,a4,0x10
    d904:	00ffe7b3          	or	a5,t6,a5
    d908:	fefeae23          	sw	a5,-4(t4)
    d90c:	ffef5783          	lhu	a5,-2(t5)
    d910:	000eaf83          	lw	t6,0(t4)
    d914:	01075713          	srli	a4,a4,0x10
    d918:	025787b3          	mul	a5,a5,t0
    d91c:	00dfffb3          	and	t6,t6,a3
    d920:	01f787b3          	add	a5,a5,t6
    d924:	00e787b3          	add	a5,a5,a4
    d928:	0107df93          	srli	t6,a5,0x10
    d92c:	fb1f68e3          	bltu	t5,a7,d8dc <__multiply+0x158>
    d930:	00fea023          	sw	a5,0(t4)
    d934:	00460613          	addi	a2,a2,4
    d938:	00480813          	addi	a6,a6,4
    d93c:	ed9ff06f          	j	d814 <__multiply+0x90>
    d940:	fff40413          	addi	s0,s0,-1
    d944:	ed5ff06f          	j	d818 <__multiply+0x94>

0000d948 <__pow5mult>:
    d948:	fe010113          	addi	sp,sp,-32
    d94c:	00912a23          	sw	s1,20(sp)
    d950:	01212823          	sw	s2,16(sp)
    d954:	01312623          	sw	s3,12(sp)
    d958:	00112e23          	sw	ra,28(sp)
    d95c:	00812c23          	sw	s0,24(sp)
    d960:	01412423          	sw	s4,8(sp)
    d964:	00367793          	andi	a5,a2,3
    d968:	00050913          	mv	s2,a0
    d96c:	00060493          	mv	s1,a2
    d970:	00058993          	mv	s3,a1
    d974:	02078663          	beqz	a5,d9a0 <__pow5mult+0x58>
    d978:	fff78793          	addi	a5,a5,-1
    d97c:	7fff3717          	auipc	a4,0x7fff3
    d980:	62470713          	addi	a4,a4,1572 # 80000fa0 <p05.3308>
    d984:	00279793          	slli	a5,a5,0x2
    d988:	00f707b3          	add	a5,a4,a5
    d98c:	0007a603          	lw	a2,0(a5)
    d990:	00000693          	li	a3,0
    d994:	00000097          	auipc	ra,0x0
    d998:	a78080e7          	jalr	-1416(ra) # d40c <__multadd>
    d99c:	00050993          	mv	s3,a0
    d9a0:	4024d493          	srai	s1,s1,0x2
    d9a4:	08048863          	beqz	s1,da34 <__pow5mult+0xec>
    d9a8:	04892403          	lw	s0,72(s2)
    d9ac:	02041063          	bnez	s0,d9cc <__pow5mult+0x84>
    d9b0:	27100593          	li	a1,625
    d9b4:	00090513          	mv	a0,s2
    d9b8:	00000097          	auipc	ra,0x0
    d9bc:	d94080e7          	jalr	-620(ra) # d74c <__i2b>
    d9c0:	04a92423          	sw	a0,72(s2)
    d9c4:	00050413          	mv	s0,a0
    d9c8:	00052023          	sw	zero,0(a0)
    d9cc:	0014f793          	andi	a5,s1,1
    d9d0:	02078863          	beqz	a5,da00 <__pow5mult+0xb8>
    d9d4:	00098593          	mv	a1,s3
    d9d8:	00040613          	mv	a2,s0
    d9dc:	00090513          	mv	a0,s2
    d9e0:	00000097          	auipc	ra,0x0
    d9e4:	da4080e7          	jalr	-604(ra) # d784 <__multiply>
    d9e8:	00050a13          	mv	s4,a0
    d9ec:	00098593          	mv	a1,s3
    d9f0:	00090513          	mv	a0,s2
    d9f4:	00000097          	auipc	ra,0x0
    d9f8:	9f4080e7          	jalr	-1548(ra) # d3e8 <_Bfree>
    d9fc:	000a0993          	mv	s3,s4
    da00:	4014d493          	srai	s1,s1,0x1
    da04:	02048863          	beqz	s1,da34 <__pow5mult+0xec>
    da08:	00042503          	lw	a0,0(s0)
    da0c:	02051063          	bnez	a0,da2c <__pow5mult+0xe4>
    da10:	00040613          	mv	a2,s0
    da14:	00040593          	mv	a1,s0
    da18:	00090513          	mv	a0,s2
    da1c:	00000097          	auipc	ra,0x0
    da20:	d68080e7          	jalr	-664(ra) # d784 <__multiply>
    da24:	00a42023          	sw	a0,0(s0)
    da28:	00052023          	sw	zero,0(a0)
    da2c:	00050413          	mv	s0,a0
    da30:	f9dff06f          	j	d9cc <__pow5mult+0x84>
    da34:	01c12083          	lw	ra,28(sp)
    da38:	01812403          	lw	s0,24(sp)
    da3c:	00098513          	mv	a0,s3
    da40:	01412483          	lw	s1,20(sp)
    da44:	01012903          	lw	s2,16(sp)
    da48:	00c12983          	lw	s3,12(sp)
    da4c:	00812a03          	lw	s4,8(sp)
    da50:	02010113          	addi	sp,sp,32
    da54:	00008067          	ret

0000da58 <__lshift>:
    da58:	fd010113          	addi	sp,sp,-48
    da5c:	02912223          	sw	s1,36(sp)
    da60:	00058493          	mv	s1,a1
    da64:	01312e23          	sw	s3,28(sp)
    da68:	0104a983          	lw	s3,16(s1)
    da6c:	02812423          	sw	s0,40(sp)
    da70:	0045a583          	lw	a1,4(a1)
    da74:	40565413          	srai	s0,a2,0x5
    da78:	0084a783          	lw	a5,8(s1)
    da7c:	013409b3          	add	s3,s0,s3
    da80:	03212023          	sw	s2,32(sp)
    da84:	01512a23          	sw	s5,20(sp)
    da88:	02112623          	sw	ra,44(sp)
    da8c:	01412c23          	sw	s4,24(sp)
    da90:	00050a93          	mv	s5,a0
    da94:	00198913          	addi	s2,s3,1
    da98:	0d27ca63          	blt	a5,s2,db6c <__lshift+0x114>
    da9c:	000a8513          	mv	a0,s5
    daa0:	00c12623          	sw	a2,12(sp)
    daa4:	00000097          	auipc	ra,0x0
    daa8:	894080e7          	jalr	-1900(ra) # d338 <_Balloc>
    daac:	00c12603          	lw	a2,12(sp)
    dab0:	01450793          	addi	a5,a0,20
    dab4:	00050a13          	mv	s4,a0
    dab8:	00078693          	mv	a3,a5
    dabc:	00000713          	li	a4,0
    dac0:	00468693          	addi	a3,a3,4
    dac4:	0a874a63          	blt	a4,s0,db78 <__lshift+0x120>
    dac8:	00045463          	bgez	s0,dad0 <__lshift+0x78>
    dacc:	00000413          	li	s0,0
    dad0:	0104a683          	lw	a3,16(s1)
    dad4:	00241413          	slli	s0,s0,0x2
    dad8:	00878733          	add	a4,a5,s0
    dadc:	00269693          	slli	a3,a3,0x2
    dae0:	01448793          	addi	a5,s1,20
    dae4:	01f67613          	andi	a2,a2,31
    dae8:	00d786b3          	add	a3,a5,a3
    daec:	08060c63          	beqz	a2,db84 <__lshift+0x12c>
    daf0:	02000813          	li	a6,32
    daf4:	40c80833          	sub	a6,a6,a2
    daf8:	00000593          	li	a1,0
    dafc:	0007a503          	lw	a0,0(a5)
    db00:	00470713          	addi	a4,a4,4
    db04:	00478793          	addi	a5,a5,4
    db08:	00c51533          	sll	a0,a0,a2
    db0c:	00b565b3          	or	a1,a0,a1
    db10:	feb72e23          	sw	a1,-4(a4)
    db14:	ffc7a583          	lw	a1,-4(a5)
    db18:	0105d5b3          	srl	a1,a1,a6
    db1c:	fed7e0e3          	bltu	a5,a3,dafc <__lshift+0xa4>
    db20:	00b72023          	sw	a1,0(a4)
    db24:	00058463          	beqz	a1,db2c <__lshift+0xd4>
    db28:	00298913          	addi	s2,s3,2
    db2c:	fff90913          	addi	s2,s2,-1
    db30:	012a2823          	sw	s2,16(s4)
    db34:	000a8513          	mv	a0,s5
    db38:	00048593          	mv	a1,s1
    db3c:	00000097          	auipc	ra,0x0
    db40:	8ac080e7          	jalr	-1876(ra) # d3e8 <_Bfree>
    db44:	02c12083          	lw	ra,44(sp)
    db48:	02812403          	lw	s0,40(sp)
    db4c:	000a0513          	mv	a0,s4
    db50:	02412483          	lw	s1,36(sp)
    db54:	02012903          	lw	s2,32(sp)
    db58:	01c12983          	lw	s3,28(sp)
    db5c:	01812a03          	lw	s4,24(sp)
    db60:	01412a83          	lw	s5,20(sp)
    db64:	03010113          	addi	sp,sp,48
    db68:	00008067          	ret
    db6c:	00158593          	addi	a1,a1,1
    db70:	00179793          	slli	a5,a5,0x1
    db74:	f25ff06f          	j	da98 <__lshift+0x40>
    db78:	fe06ae23          	sw	zero,-4(a3)
    db7c:	00170713          	addi	a4,a4,1
    db80:	f41ff06f          	j	dac0 <__lshift+0x68>
    db84:	00478793          	addi	a5,a5,4
    db88:	ffc7a603          	lw	a2,-4(a5)
    db8c:	00470713          	addi	a4,a4,4
    db90:	fec72e23          	sw	a2,-4(a4)
    db94:	fed7e8e3          	bltu	a5,a3,db84 <__lshift+0x12c>
    db98:	f95ff06f          	j	db2c <__lshift+0xd4>

0000db9c <__mcmp>:
    db9c:	01052783          	lw	a5,16(a0)
    dba0:	0105a703          	lw	a4,16(a1)
    dba4:	40e787b3          	sub	a5,a5,a4
    dba8:	02079c63          	bnez	a5,dbe0 <__mcmp+0x44>
    dbac:	00271713          	slli	a4,a4,0x2
    dbb0:	01450513          	addi	a0,a0,20
    dbb4:	01458593          	addi	a1,a1,20
    dbb8:	00e506b3          	add	a3,a0,a4
    dbbc:	00e585b3          	add	a1,a1,a4
    dbc0:	ffc68693          	addi	a3,a3,-4
    dbc4:	ffc58593          	addi	a1,a1,-4
    dbc8:	0006a603          	lw	a2,0(a3)
    dbcc:	0005a703          	lw	a4,0(a1)
    dbd0:	00e60c63          	beq	a2,a4,dbe8 <__mcmp+0x4c>
    dbd4:	fff00793          	li	a5,-1
    dbd8:	00e66463          	bltu	a2,a4,dbe0 <__mcmp+0x44>
    dbdc:	00100793          	li	a5,1
    dbe0:	00078513          	mv	a0,a5
    dbe4:	00008067          	ret
    dbe8:	fcd56ce3          	bltu	a0,a3,dbc0 <__mcmp+0x24>
    dbec:	ff5ff06f          	j	dbe0 <__mcmp+0x44>

0000dbf0 <__mdiff>:
    dbf0:	fe010113          	addi	sp,sp,-32
    dbf4:	00912a23          	sw	s1,20(sp)
    dbf8:	00058493          	mv	s1,a1
    dbfc:	01312623          	sw	s3,12(sp)
    dc00:	00060593          	mv	a1,a2
    dc04:	00050993          	mv	s3,a0
    dc08:	00048513          	mv	a0,s1
    dc0c:	00812c23          	sw	s0,24(sp)
    dc10:	00112e23          	sw	ra,28(sp)
    dc14:	01212823          	sw	s2,16(sp)
    dc18:	00060413          	mv	s0,a2
    dc1c:	00000097          	auipc	ra,0x0
    dc20:	f80080e7          	jalr	-128(ra) # db9c <__mcmp>
    dc24:	02051e63          	bnez	a0,dc60 <__mdiff+0x70>
    dc28:	00000593          	li	a1,0
    dc2c:	00098513          	mv	a0,s3
    dc30:	fffff097          	auipc	ra,0xfffff
    dc34:	708080e7          	jalr	1800(ra) # d338 <_Balloc>
    dc38:	00100793          	li	a5,1
    dc3c:	00f52823          	sw	a5,16(a0)
    dc40:	00052a23          	sw	zero,20(a0)
    dc44:	01c12083          	lw	ra,28(sp)
    dc48:	01812403          	lw	s0,24(sp)
    dc4c:	01412483          	lw	s1,20(sp)
    dc50:	01012903          	lw	s2,16(sp)
    dc54:	00c12983          	lw	s3,12(sp)
    dc58:	02010113          	addi	sp,sp,32
    dc5c:	00008067          	ret
    dc60:	00100913          	li	s2,1
    dc64:	00054a63          	bltz	a0,dc78 <__mdiff+0x88>
    dc68:	00040793          	mv	a5,s0
    dc6c:	00000913          	li	s2,0
    dc70:	00048413          	mv	s0,s1
    dc74:	00078493          	mv	s1,a5
    dc78:	00442583          	lw	a1,4(s0)
    dc7c:	00098513          	mv	a0,s3
    dc80:	fffff097          	auipc	ra,0xfffff
    dc84:	6b8080e7          	jalr	1720(ra) # d338 <_Balloc>
    dc88:	01042303          	lw	t1,16(s0)
    dc8c:	0104a883          	lw	a7,16(s1)
    dc90:	01440613          	addi	a2,s0,20
    dc94:	00231e13          	slli	t3,t1,0x2
    dc98:	01448813          	addi	a6,s1,20
    dc9c:	00289893          	slli	a7,a7,0x2
    dca0:	00010eb7          	lui	t4,0x10
    dca4:	01252623          	sw	s2,12(a0)
    dca8:	01c60e33          	add	t3,a2,t3
    dcac:	011808b3          	add	a7,a6,a7
    dcb0:	01450693          	addi	a3,a0,20
    dcb4:	00000f13          	li	t5,0
    dcb8:	fffe8e93          	addi	t4,t4,-1 # ffff <__umoddi3+0x177>
    dcbc:	00062703          	lw	a4,0(a2)
    dcc0:	00082f83          	lw	t6,0(a6)
    dcc4:	00468693          	addi	a3,a3,4
    dcc8:	01d775b3          	and	a1,a4,t4
    dccc:	01dff7b3          	and	a5,t6,t4
    dcd0:	01e585b3          	add	a1,a1,t5
    dcd4:	40f585b3          	sub	a1,a1,a5
    dcd8:	010fdf93          	srli	t6,t6,0x10
    dcdc:	01075793          	srli	a5,a4,0x10
    dce0:	41f787b3          	sub	a5,a5,t6
    dce4:	4105d713          	srai	a4,a1,0x10
    dce8:	00e787b3          	add	a5,a5,a4
    dcec:	4107df13          	srai	t5,a5,0x10
    dcf0:	01d5f5b3          	and	a1,a1,t4
    dcf4:	01079793          	slli	a5,a5,0x10
    dcf8:	00b7e7b3          	or	a5,a5,a1
    dcfc:	00480813          	addi	a6,a6,4
    dd00:	fef6ae23          	sw	a5,-4(a3)
    dd04:	00460613          	addi	a2,a2,4
    dd08:	fb186ae3          	bltu	a6,a7,dcbc <__mdiff+0xcc>
    dd0c:	000105b7          	lui	a1,0x10
    dd10:	fff58593          	addi	a1,a1,-1 # ffff <__umoddi3+0x177>
    dd14:	01c66c63          	bltu	a2,t3,dd2c <__mdiff+0x13c>
    dd18:	ffc68693          	addi	a3,a3,-4
    dd1c:	0006a783          	lw	a5,0(a3)
    dd20:	04078263          	beqz	a5,dd64 <__mdiff+0x174>
    dd24:	00652823          	sw	t1,16(a0)
    dd28:	f1dff06f          	j	dc44 <__mdiff+0x54>
    dd2c:	00062783          	lw	a5,0(a2)
    dd30:	00468693          	addi	a3,a3,4
    dd34:	00460613          	addi	a2,a2,4
    dd38:	00b7f733          	and	a4,a5,a1
    dd3c:	01e70733          	add	a4,a4,t5
    dd40:	41075813          	srai	a6,a4,0x10
    dd44:	0107d793          	srli	a5,a5,0x10
    dd48:	010787b3          	add	a5,a5,a6
    dd4c:	4107df13          	srai	t5,a5,0x10
    dd50:	00b77733          	and	a4,a4,a1
    dd54:	01079793          	slli	a5,a5,0x10
    dd58:	00e7e7b3          	or	a5,a5,a4
    dd5c:	fef6ae23          	sw	a5,-4(a3)
    dd60:	fb5ff06f          	j	dd14 <__mdiff+0x124>
    dd64:	fff30313          	addi	t1,t1,-1
    dd68:	fb1ff06f          	j	dd18 <__mdiff+0x128>

0000dd6c <__ulp>:
    dd6c:	7ff007b7          	lui	a5,0x7ff00
    dd70:	00b7f5b3          	and	a1,a5,a1
    dd74:	fcc007b7          	lui	a5,0xfcc00
    dd78:	00f585b3          	add	a1,a1,a5
    dd7c:	00b05863          	blez	a1,dd8c <__ulp+0x20>
    dd80:	00000793          	li	a5,0
    dd84:	00078513          	mv	a0,a5
    dd88:	00008067          	ret
    dd8c:	40b005b3          	neg	a1,a1
    dd90:	4145d793          	srai	a5,a1,0x14
    dd94:	01300713          	li	a4,19
    dd98:	00f74863          	blt	a4,a5,dda8 <__ulp+0x3c>
    dd9c:	000805b7          	lui	a1,0x80
    dda0:	40f5d5b3          	sra	a1,a1,a5
    dda4:	fddff06f          	j	dd80 <__ulp+0x14>
    dda8:	fec78713          	addi	a4,a5,-20 # fcbfffec <__stack_top+0x7cbb616c>
    ddac:	01e00693          	li	a3,30
    ddb0:	00000593          	li	a1,0
    ddb4:	00100793          	li	a5,1
    ddb8:	fce6c6e3          	blt	a3,a4,dd84 <__ulp+0x18>
    ddbc:	800007b7          	lui	a5,0x80000
    ddc0:	00e7d7b3          	srl	a5,a5,a4
    ddc4:	fc1ff06f          	j	dd84 <__ulp+0x18>

0000ddc8 <__b2d>:
    ddc8:	fd010113          	addi	sp,sp,-48
    ddcc:	02912223          	sw	s1,36(sp)
    ddd0:	01052483          	lw	s1,16(a0)
    ddd4:	01312e23          	sw	s3,28(sp)
    ddd8:	01450993          	addi	s3,a0,20
    dddc:	00249493          	slli	s1,s1,0x2
    dde0:	009984b3          	add	s1,s3,s1
    dde4:	02812423          	sw	s0,40(sp)
    dde8:	ffc4a403          	lw	s0,-4(s1)
    ddec:	03212023          	sw	s2,32(sp)
    ddf0:	00b12623          	sw	a1,12(sp)
    ddf4:	00040513          	mv	a0,s0
    ddf8:	02112623          	sw	ra,44(sp)
    ddfc:	00000097          	auipc	ra,0x0
    de00:	830080e7          	jalr	-2000(ra) # d62c <__hi0bits>
    de04:	00c12583          	lw	a1,12(sp)
    de08:	02000793          	li	a5,32
    de0c:	40a787b3          	sub	a5,a5,a0
    de10:	00f5a023          	sw	a5,0(a1) # 80000 <__trunctfdf2+0x6cfa0>
    de14:	00a00793          	li	a5,10
    de18:	ffc48913          	addi	s2,s1,-4
    de1c:	04a7cc63          	blt	a5,a0,de74 <__b2d+0xac>
    de20:	00b00793          	li	a5,11
    de24:	40a787b3          	sub	a5,a5,a0
    de28:	3ff00737          	lui	a4,0x3ff00
    de2c:	00f456b3          	srl	a3,s0,a5
    de30:	00e6e6b3          	or	a3,a3,a4
    de34:	00000713          	li	a4,0
    de38:	0129f463          	bgeu	s3,s2,de40 <__b2d+0x78>
    de3c:	ff84a703          	lw	a4,-8(s1)
    de40:	01550513          	addi	a0,a0,21
    de44:	00a41533          	sll	a0,s0,a0
    de48:	00f757b3          	srl	a5,a4,a5
    de4c:	00f567b3          	or	a5,a0,a5
    de50:	02c12083          	lw	ra,44(sp)
    de54:	02812403          	lw	s0,40(sp)
    de58:	02412483          	lw	s1,36(sp)
    de5c:	02012903          	lw	s2,32(sp)
    de60:	01c12983          	lw	s3,28(sp)
    de64:	00078513          	mv	a0,a5
    de68:	00068593          	mv	a1,a3
    de6c:	03010113          	addi	sp,sp,48
    de70:	00008067          	ret
    de74:	00000793          	li	a5,0
    de78:	0129f663          	bgeu	s3,s2,de84 <__b2d+0xbc>
    de7c:	ff84a783          	lw	a5,-8(s1)
    de80:	ff848913          	addi	s2,s1,-8
    de84:	ff550513          	addi	a0,a0,-11
    de88:	02050e63          	beqz	a0,dec4 <__b2d+0xfc>
    de8c:	02000713          	li	a4,32
    de90:	40a70633          	sub	a2,a4,a0
    de94:	00c7d733          	srl	a4,a5,a2
    de98:	00a41433          	sll	s0,s0,a0
    de9c:	00e46433          	or	s0,s0,a4
    dea0:	3ff006b7          	lui	a3,0x3ff00
    dea4:	00d466b3          	or	a3,s0,a3
    dea8:	00000713          	li	a4,0
    deac:	0129f463          	bgeu	s3,s2,deb4 <__b2d+0xec>
    deb0:	ffc92703          	lw	a4,-4(s2)
    deb4:	00a797b3          	sll	a5,a5,a0
    deb8:	00c75733          	srl	a4,a4,a2
    debc:	00e7e7b3          	or	a5,a5,a4
    dec0:	f91ff06f          	j	de50 <__b2d+0x88>
    dec4:	3ff006b7          	lui	a3,0x3ff00
    dec8:	00d466b3          	or	a3,s0,a3
    decc:	f85ff06f          	j	de50 <__b2d+0x88>

0000ded0 <__d2b>:
    ded0:	fd010113          	addi	sp,sp,-48
    ded4:	02812423          	sw	s0,40(sp)
    ded8:	00058413          	mv	s0,a1
    dedc:	00100593          	li	a1,1
    dee0:	02912223          	sw	s1,36(sp)
    dee4:	03212023          	sw	s2,32(sp)
    dee8:	00060493          	mv	s1,a2
    deec:	01312e23          	sw	s3,28(sp)
    def0:	01412c23          	sw	s4,24(sp)
    def4:	00070913          	mv	s2,a4
    def8:	02112623          	sw	ra,44(sp)
    defc:	00068a13          	mv	s4,a3
    df00:	fffff097          	auipc	ra,0xfffff
    df04:	438080e7          	jalr	1080(ra) # d338 <_Balloc>
    df08:	00100737          	lui	a4,0x100
    df0c:	fff70793          	addi	a5,a4,-1 # fffff <__trunctfdf2+0xecf9f>
    df10:	0097f7b3          	and	a5,a5,s1
    df14:	0144d493          	srli	s1,s1,0x14
    df18:	7ff4f493          	andi	s1,s1,2047
    df1c:	00050993          	mv	s3,a0
    df20:	08049c63          	bnez	s1,dfb8 <__d2b+0xe8>
    df24:	00f12623          	sw	a5,12(sp)
    df28:	0a040063          	beqz	s0,dfc8 <__d2b+0xf8>
    df2c:	00810513          	addi	a0,sp,8
    df30:	00812423          	sw	s0,8(sp)
    df34:	fffff097          	auipc	ra,0xfffff
    df38:	768080e7          	jalr	1896(ra) # d69c <__lo0bits>
    df3c:	00812683          	lw	a3,8(sp)
    df40:	08050063          	beqz	a0,dfc0 <__d2b+0xf0>
    df44:	00c12703          	lw	a4,12(sp)
    df48:	02000793          	li	a5,32
    df4c:	40a787b3          	sub	a5,a5,a0
    df50:	00f717b3          	sll	a5,a4,a5
    df54:	00d7e7b3          	or	a5,a5,a3
    df58:	00a75733          	srl	a4,a4,a0
    df5c:	00f9aa23          	sw	a5,20(s3)
    df60:	00e12623          	sw	a4,12(sp)
    df64:	00c12403          	lw	s0,12(sp)
    df68:	0089ac23          	sw	s0,24(s3)
    df6c:	00803433          	snez	s0,s0
    df70:	00140413          	addi	s0,s0,1
    df74:	0089a823          	sw	s0,16(s3)
    df78:	06048c63          	beqz	s1,dff0 <__d2b+0x120>
    df7c:	bcd48493          	addi	s1,s1,-1075
    df80:	00a484b3          	add	s1,s1,a0
    df84:	03500793          	li	a5,53
    df88:	009a2023          	sw	s1,0(s4)
    df8c:	40a78533          	sub	a0,a5,a0
    df90:	00a92023          	sw	a0,0(s2)
    df94:	02c12083          	lw	ra,44(sp)
    df98:	02812403          	lw	s0,40(sp)
    df9c:	00098513          	mv	a0,s3
    dfa0:	02412483          	lw	s1,36(sp)
    dfa4:	02012903          	lw	s2,32(sp)
    dfa8:	01c12983          	lw	s3,28(sp)
    dfac:	01812a03          	lw	s4,24(sp)
    dfb0:	03010113          	addi	sp,sp,48
    dfb4:	00008067          	ret
    dfb8:	00e7e7b3          	or	a5,a5,a4
    dfbc:	f69ff06f          	j	df24 <__d2b+0x54>
    dfc0:	00d9aa23          	sw	a3,20(s3)
    dfc4:	fa1ff06f          	j	df64 <__d2b+0x94>
    dfc8:	00c10513          	addi	a0,sp,12
    dfcc:	fffff097          	auipc	ra,0xfffff
    dfd0:	6d0080e7          	jalr	1744(ra) # d69c <__lo0bits>
    dfd4:	00c12783          	lw	a5,12(sp)
    dfd8:	02050513          	addi	a0,a0,32
    dfdc:	00100413          	li	s0,1
    dfe0:	00f9aa23          	sw	a5,20(s3)
    dfe4:	00100793          	li	a5,1
    dfe8:	00f9a823          	sw	a5,16(s3)
    dfec:	f8dff06f          	j	df78 <__d2b+0xa8>
    dff0:	00241793          	slli	a5,s0,0x2
    dff4:	bce50513          	addi	a0,a0,-1074
    dff8:	00f987b3          	add	a5,s3,a5
    dffc:	00aa2023          	sw	a0,0(s4)
    e000:	0107a503          	lw	a0,16(a5) # 80000010 <__stack_top+0xfffb6190>
    e004:	00541413          	slli	s0,s0,0x5
    e008:	fffff097          	auipc	ra,0xfffff
    e00c:	624080e7          	jalr	1572(ra) # d62c <__hi0bits>
    e010:	40a40433          	sub	s0,s0,a0
    e014:	00892023          	sw	s0,0(s2)
    e018:	f7dff06f          	j	df94 <__d2b+0xc4>

0000e01c <__ratio>:
    e01c:	fd010113          	addi	sp,sp,-48
    e020:	03212023          	sw	s2,32(sp)
    e024:	00058913          	mv	s2,a1
    e028:	00810593          	addi	a1,sp,8
    e02c:	02112623          	sw	ra,44(sp)
    e030:	02812423          	sw	s0,40(sp)
    e034:	02912223          	sw	s1,36(sp)
    e038:	01312e23          	sw	s3,28(sp)
    e03c:	01412c23          	sw	s4,24(sp)
    e040:	00050a13          	mv	s4,a0
    e044:	00000097          	auipc	ra,0x0
    e048:	d84080e7          	jalr	-636(ra) # ddc8 <__b2d>
    e04c:	00050993          	mv	s3,a0
    e050:	00058493          	mv	s1,a1
    e054:	00058413          	mv	s0,a1
    e058:	00090513          	mv	a0,s2
    e05c:	00c10593          	addi	a1,sp,12
    e060:	00000097          	auipc	ra,0x0
    e064:	d68080e7          	jalr	-664(ra) # ddc8 <__b2d>
    e068:	01092783          	lw	a5,16(s2)
    e06c:	010a2703          	lw	a4,16(s4)
    e070:	00812683          	lw	a3,8(sp)
    e074:	40f70733          	sub	a4,a4,a5
    e078:	00c12783          	lw	a5,12(sp)
    e07c:	00571713          	slli	a4,a4,0x5
    e080:	40f686b3          	sub	a3,a3,a5
    e084:	00d707b3          	add	a5,a4,a3
    e088:	04f05663          	blez	a5,e0d4 <__ratio+0xb8>
    e08c:	01479793          	slli	a5,a5,0x14
    e090:	00058613          	mv	a2,a1
    e094:	00978433          	add	s0,a5,s1
    e098:	00060713          	mv	a4,a2
    e09c:	00040593          	mv	a1,s0
    e0a0:	00050613          	mv	a2,a0
    e0a4:	00070693          	mv	a3,a4
    e0a8:	00098513          	mv	a0,s3
    e0ac:	ffff5097          	auipc	ra,0xffff5
    e0b0:	444080e7          	jalr	1092(ra) # 34f0 <__divdf3>
    e0b4:	02c12083          	lw	ra,44(sp)
    e0b8:	02812403          	lw	s0,40(sp)
    e0bc:	02412483          	lw	s1,36(sp)
    e0c0:	02012903          	lw	s2,32(sp)
    e0c4:	01c12983          	lw	s3,28(sp)
    e0c8:	01812a03          	lw	s4,24(sp)
    e0cc:	03010113          	addi	sp,sp,48
    e0d0:	00008067          	ret
    e0d4:	fff00737          	lui	a4,0xfff00
    e0d8:	02e787b3          	mul	a5,a5,a4
    e0dc:	00b78633          	add	a2,a5,a1
    e0e0:	fb9ff06f          	j	e098 <__ratio+0x7c>

0000e0e4 <_mprec_log10>:
    e0e4:	ff010113          	addi	sp,sp,-16
    e0e8:	00812423          	sw	s0,8(sp)
    e0ec:	00112623          	sw	ra,12(sp)
    e0f0:	01212223          	sw	s2,4(sp)
    e0f4:	01312023          	sw	s3,0(sp)
    e0f8:	01700793          	li	a5,23
    e0fc:	00050413          	mv	s0,a0
    e100:	02a7ca63          	blt	a5,a0,e134 <_mprec_log10+0x50>
    e104:	00351413          	slli	s0,a0,0x3
    e108:	7fff3797          	auipc	a5,0x7fff3
    e10c:	e9878793          	addi	a5,a5,-360 # 80000fa0 <p05.3308>
    e110:	00878433          	add	s0,a5,s0
    e114:	01042503          	lw	a0,16(s0)
    e118:	01442583          	lw	a1,20(s0)
    e11c:	00c12083          	lw	ra,12(sp)
    e120:	00812403          	lw	s0,8(sp)
    e124:	00412903          	lw	s2,4(sp)
    e128:	00012983          	lw	s3,0(sp)
    e12c:	01010113          	addi	sp,sp,16
    e130:	00008067          	ret
    e134:	7fff3797          	auipc	a5,0x7fff3
    e138:	27478793          	addi	a5,a5,628 # 800013a8 <_global_impure_ptr+0x8>
    e13c:	0007a503          	lw	a0,0(a5)
    e140:	0047a583          	lw	a1,4(a5)
    e144:	7fff3797          	auipc	a5,0x7fff3
    e148:	26c78793          	addi	a5,a5,620 # 800013b0 <_global_impure_ptr+0x10>
    e14c:	0007a903          	lw	s2,0(a5)
    e150:	0047a983          	lw	s3,4(a5)
    e154:	00090613          	mv	a2,s2
    e158:	00098693          	mv	a3,s3
    e15c:	fff40413          	addi	s0,s0,-1
    e160:	ffff6097          	auipc	ra,0xffff6
    e164:	b74080e7          	jalr	-1164(ra) # 3cd4 <__muldf3>
    e168:	fe0416e3          	bnez	s0,e154 <_mprec_log10+0x70>
    e16c:	fb1ff06f          	j	e11c <_mprec_log10+0x38>

0000e170 <__copybits>:
    e170:	fff58793          	addi	a5,a1,-1
    e174:	01062703          	lw	a4,16(a2)
    e178:	4057d793          	srai	a5,a5,0x5
    e17c:	00178793          	addi	a5,a5,1
    e180:	00279793          	slli	a5,a5,0x2
    e184:	01460693          	addi	a3,a2,20
    e188:	00271713          	slli	a4,a4,0x2
    e18c:	00f507b3          	add	a5,a0,a5
    e190:	00e68733          	add	a4,a3,a4
    e194:	00e6e663          	bltu	a3,a4,e1a0 <__copybits+0x30>
    e198:	00f56e63          	bltu	a0,a5,e1b4 <__copybits+0x44>
    e19c:	00008067          	ret
    e1a0:	00468693          	addi	a3,a3,4 # 3ff00004 <__trunctfdf2+0x3feecfa4>
    e1a4:	ffc6a603          	lw	a2,-4(a3)
    e1a8:	00450513          	addi	a0,a0,4
    e1ac:	fec52e23          	sw	a2,-4(a0)
    e1b0:	fe5ff06f          	j	e194 <__copybits+0x24>
    e1b4:	00450513          	addi	a0,a0,4
    e1b8:	fe052e23          	sw	zero,-4(a0)
    e1bc:	fddff06f          	j	e198 <__copybits+0x28>

0000e1c0 <__any_on>:
    e1c0:	01052683          	lw	a3,16(a0)
    e1c4:	4055d793          	srai	a5,a1,0x5
    e1c8:	01450713          	addi	a4,a0,20
    e1cc:	04f6c063          	blt	a3,a5,e20c <__any_on+0x4c>
    e1d0:	02d7d463          	bge	a5,a3,e1f8 <__any_on+0x38>
    e1d4:	01f5f593          	andi	a1,a1,31
    e1d8:	02058063          	beqz	a1,e1f8 <__any_on+0x38>
    e1dc:	00279693          	slli	a3,a5,0x2
    e1e0:	00d706b3          	add	a3,a4,a3
    e1e4:	0006a603          	lw	a2,0(a3)
    e1e8:	00100513          	li	a0,1
    e1ec:	00b656b3          	srl	a3,a2,a1
    e1f0:	00b695b3          	sll	a1,a3,a1
    e1f4:	02b61863          	bne	a2,a1,e224 <__any_on+0x64>
    e1f8:	00279793          	slli	a5,a5,0x2
    e1fc:	00f707b3          	add	a5,a4,a5
    e200:	00f76a63          	bltu	a4,a5,e214 <__any_on+0x54>
    e204:	00000513          	li	a0,0
    e208:	00008067          	ret
    e20c:	00068793          	mv	a5,a3
    e210:	fe9ff06f          	j	e1f8 <__any_on+0x38>
    e214:	ffc78793          	addi	a5,a5,-4
    e218:	0007a683          	lw	a3,0(a5)
    e21c:	fe0682e3          	beqz	a3,e200 <__any_on+0x40>
    e220:	00100513          	li	a0,1
    e224:	00008067          	ret

0000e228 <__sread>:
    e228:	ff010113          	addi	sp,sp,-16
    e22c:	00812423          	sw	s0,8(sp)
    e230:	00058413          	mv	s0,a1
    e234:	00e59583          	lh	a1,14(a1)
    e238:	00112623          	sw	ra,12(sp)
    e23c:	00001097          	auipc	ra,0x1
    e240:	3ec080e7          	jalr	1004(ra) # f628 <_read_r>
    e244:	02054063          	bltz	a0,e264 <__sread+0x3c>
    e248:	05042783          	lw	a5,80(s0)
    e24c:	00a787b3          	add	a5,a5,a0
    e250:	04f42823          	sw	a5,80(s0)
    e254:	00c12083          	lw	ra,12(sp)
    e258:	00812403          	lw	s0,8(sp)
    e25c:	01010113          	addi	sp,sp,16
    e260:	00008067          	ret
    e264:	00c45783          	lhu	a5,12(s0)
    e268:	fffff737          	lui	a4,0xfffff
    e26c:	fff70713          	addi	a4,a4,-1 # ffffefff <__stack_top+0x7ffb517f>
    e270:	00e7f7b3          	and	a5,a5,a4
    e274:	00f41623          	sh	a5,12(s0)
    e278:	fddff06f          	j	e254 <__sread+0x2c>

0000e27c <__seofread>:
    e27c:	00000513          	li	a0,0
    e280:	00008067          	ret

0000e284 <__swrite>:
    e284:	00c5d783          	lhu	a5,12(a1)
    e288:	fe010113          	addi	sp,sp,-32
    e28c:	00812c23          	sw	s0,24(sp)
    e290:	00912a23          	sw	s1,20(sp)
    e294:	01212823          	sw	s2,16(sp)
    e298:	01312623          	sw	s3,12(sp)
    e29c:	00112e23          	sw	ra,28(sp)
    e2a0:	1007f793          	andi	a5,a5,256
    e2a4:	00050493          	mv	s1,a0
    e2a8:	00058413          	mv	s0,a1
    e2ac:	00060913          	mv	s2,a2
    e2b0:	00068993          	mv	s3,a3
    e2b4:	00078c63          	beqz	a5,e2cc <__swrite+0x48>
    e2b8:	00e59583          	lh	a1,14(a1)
    e2bc:	00200693          	li	a3,2
    e2c0:	00000613          	li	a2,0
    e2c4:	00001097          	auipc	ra,0x1
    e2c8:	30c080e7          	jalr	780(ra) # f5d0 <_lseek_r>
    e2cc:	00c45783          	lhu	a5,12(s0)
    e2d0:	fffff737          	lui	a4,0xfffff
    e2d4:	fff70713          	addi	a4,a4,-1 # ffffefff <__stack_top+0x7ffb517f>
    e2d8:	00e7f7b3          	and	a5,a5,a4
    e2dc:	00f41623          	sh	a5,12(s0)
    e2e0:	00e41583          	lh	a1,14(s0)
    e2e4:	01812403          	lw	s0,24(sp)
    e2e8:	01c12083          	lw	ra,28(sp)
    e2ec:	00098693          	mv	a3,s3
    e2f0:	00090613          	mv	a2,s2
    e2f4:	00c12983          	lw	s3,12(sp)
    e2f8:	01012903          	lw	s2,16(sp)
    e2fc:	00048513          	mv	a0,s1
    e300:	01412483          	lw	s1,20(sp)
    e304:	02010113          	addi	sp,sp,32
    e308:	ffffc317          	auipc	t1,0xffffc
    e30c:	c6430067          	jr	-924(t1) # 9f6c <_write_r>

0000e310 <__sseek>:
    e310:	ff010113          	addi	sp,sp,-16
    e314:	00812423          	sw	s0,8(sp)
    e318:	00058413          	mv	s0,a1
    e31c:	00e59583          	lh	a1,14(a1)
    e320:	00112623          	sw	ra,12(sp)
    e324:	00001097          	auipc	ra,0x1
    e328:	2ac080e7          	jalr	684(ra) # f5d0 <_lseek_r>
    e32c:	fff00793          	li	a5,-1
    e330:	00c45703          	lhu	a4,12(s0)
    e334:	02f51263          	bne	a0,a5,e358 <__sseek+0x48>
    e338:	fffff7b7          	lui	a5,0xfffff
    e33c:	fff78793          	addi	a5,a5,-1 # ffffefff <__stack_top+0x7ffb517f>
    e340:	00e7f7b3          	and	a5,a5,a4
    e344:	00f41623          	sh	a5,12(s0)
    e348:	00c12083          	lw	ra,12(sp)
    e34c:	00812403          	lw	s0,8(sp)
    e350:	01010113          	addi	sp,sp,16
    e354:	00008067          	ret
    e358:	000017b7          	lui	a5,0x1
    e35c:	00f767b3          	or	a5,a4,a5
    e360:	00f41623          	sh	a5,12(s0)
    e364:	04a42823          	sw	a0,80(s0)
    e368:	fe1ff06f          	j	e348 <__sseek+0x38>

0000e36c <__sclose>:
    e36c:	00e59583          	lh	a1,14(a1)
    e370:	00001317          	auipc	t1,0x1
    e374:	05c30067          	jr	92(t1) # f3cc <_close_r>

0000e378 <strncpy>:
    e378:	00050793          	mv	a5,a0
    e37c:	00060e63          	beqz	a2,e398 <strncpy+0x20>
    e380:	00158593          	addi	a1,a1,1
    e384:	fff5c703          	lbu	a4,-1(a1)
    e388:	00178793          	addi	a5,a5,1 # 1001 <_ZN6tflite12_GLOBAL__N_111AverageEvalEP13TfLiteContextP10TfLiteNode+0x701>
    e38c:	fff60613          	addi	a2,a2,-1
    e390:	fee78fa3          	sb	a4,-1(a5)
    e394:	fe0714e3          	bnez	a4,e37c <strncpy+0x4>
    e398:	00c78633          	add	a2,a5,a2
    e39c:	00c79463          	bne	a5,a2,e3a4 <strncpy+0x2c>
    e3a0:	00008067          	ret
    e3a4:	00178793          	addi	a5,a5,1
    e3a8:	fe078fa3          	sb	zero,-1(a5)
    e3ac:	ff1ff06f          	j	e39c <strncpy+0x24>

0000e3b0 <__ssprint_r>:
    e3b0:	00862783          	lw	a5,8(a2)
    e3b4:	fd010113          	addi	sp,sp,-48
    e3b8:	01312e23          	sw	s3,28(sp)
    e3bc:	02112623          	sw	ra,44(sp)
    e3c0:	02812423          	sw	s0,40(sp)
    e3c4:	02912223          	sw	s1,36(sp)
    e3c8:	03212023          	sw	s2,32(sp)
    e3cc:	01412c23          	sw	s4,24(sp)
    e3d0:	01512a23          	sw	s5,20(sp)
    e3d4:	01612823          	sw	s6,16(sp)
    e3d8:	01712623          	sw	s7,12(sp)
    e3dc:	01812423          	sw	s8,8(sp)
    e3e0:	01912223          	sw	s9,4(sp)
    e3e4:	01a12023          	sw	s10,0(sp)
    e3e8:	00060993          	mv	s3,a2
    e3ec:	12078a63          	beqz	a5,e520 <__ssprint_r+0x170>
    e3f0:	00062a83          	lw	s5,0(a2)
    e3f4:	00050a13          	mv	s4,a0
    e3f8:	00058413          	mv	s0,a1
    e3fc:	00000b13          	li	s6,0
    e400:	00000913          	li	s2,0
    e404:	00300b93          	li	s7,3
    e408:	00200c13          	li	s8,2
    e40c:	08090263          	beqz	s2,e490 <__ssprint_r+0xe0>
    e410:	00842d03          	lw	s10,8(s0)
    e414:	0da96463          	bltu	s2,s10,e4dc <__ssprint_r+0x12c>
    e418:	00c45783          	lhu	a5,12(s0)
    e41c:	4807f713          	andi	a4,a5,1152
    e420:	0a070e63          	beqz	a4,e4dc <__ssprint_r+0x12c>
    e424:	00042483          	lw	s1,0(s0)
    e428:	01042583          	lw	a1,16(s0)
    e42c:	40b48cb3          	sub	s9,s1,a1
    e430:	01442483          	lw	s1,20(s0)
    e434:	001c8713          	addi	a4,s9,1
    e438:	01270733          	add	a4,a4,s2
    e43c:	029b84b3          	mul	s1,s7,s1
    e440:	0384c4b3          	div	s1,s1,s8
    e444:	00e4f463          	bgeu	s1,a4,e44c <__ssprint_r+0x9c>
    e448:	00070493          	mv	s1,a4
    e44c:	4007f793          	andi	a5,a5,1024
    e450:	10078863          	beqz	a5,e560 <__ssprint_r+0x1b0>
    e454:	00048593          	mv	a1,s1
    e458:	000a0513          	mv	a0,s4
    e45c:	ffff7097          	auipc	ra,0xffff7
    e460:	540080e7          	jalr	1344(ra) # 599c <_malloc_r>
    e464:	00050d13          	mv	s10,a0
    e468:	02051c63          	bnez	a0,e4a0 <__ssprint_r+0xf0>
    e46c:	00c00793          	li	a5,12
    e470:	00fa2023          	sw	a5,0(s4)
    e474:	00c45783          	lhu	a5,12(s0)
    e478:	fff00513          	li	a0,-1
    e47c:	0407e793          	ori	a5,a5,64
    e480:	00f41623          	sh	a5,12(s0)
    e484:	0009a423          	sw	zero,8(s3)
    e488:	0009a223          	sw	zero,4(s3)
    e48c:	09c0006f          	j	e528 <__ssprint_r+0x178>
    e490:	000aab03          	lw	s6,0(s5)
    e494:	004aa903          	lw	s2,4(s5)
    e498:	008a8a93          	addi	s5,s5,8
    e49c:	f71ff06f          	j	e40c <__ssprint_r+0x5c>
    e4a0:	01042583          	lw	a1,16(s0)
    e4a4:	000c8613          	mv	a2,s9
    e4a8:	ffff8097          	auipc	ra,0xffff8
    e4ac:	bf4080e7          	jalr	-1036(ra) # 609c <memcpy>
    e4b0:	00c45783          	lhu	a5,12(s0)
    e4b4:	b7f7f793          	andi	a5,a5,-1153
    e4b8:	0807e793          	ori	a5,a5,128
    e4bc:	00f41623          	sh	a5,12(s0)
    e4c0:	01a42823          	sw	s10,16(s0)
    e4c4:	00942a23          	sw	s1,20(s0)
    e4c8:	019d0d33          	add	s10,s10,s9
    e4cc:	419484b3          	sub	s1,s1,s9
    e4d0:	01a42023          	sw	s10,0(s0)
    e4d4:	00942423          	sw	s1,8(s0)
    e4d8:	00090d13          	mv	s10,s2
    e4dc:	01a97463          	bgeu	s2,s10,e4e4 <__ssprint_r+0x134>
    e4e0:	00090d13          	mv	s10,s2
    e4e4:	00042503          	lw	a0,0(s0)
    e4e8:	000d0613          	mv	a2,s10
    e4ec:	000b0593          	mv	a1,s6
    e4f0:	ffff8097          	auipc	ra,0xffff8
    e4f4:	c84080e7          	jalr	-892(ra) # 6174 <memmove>
    e4f8:	00842783          	lw	a5,8(s0)
    e4fc:	41a787b3          	sub	a5,a5,s10
    e500:	00f42423          	sw	a5,8(s0)
    e504:	00042783          	lw	a5,0(s0)
    e508:	01a78d33          	add	s10,a5,s10
    e50c:	0089a783          	lw	a5,8(s3)
    e510:	01a42023          	sw	s10,0(s0)
    e514:	41278933          	sub	s2,a5,s2
    e518:	0129a423          	sw	s2,8(s3)
    e51c:	f6091ae3          	bnez	s2,e490 <__ssprint_r+0xe0>
    e520:	0009a223          	sw	zero,4(s3)
    e524:	00000513          	li	a0,0
    e528:	02c12083          	lw	ra,44(sp)
    e52c:	02812403          	lw	s0,40(sp)
    e530:	02412483          	lw	s1,36(sp)
    e534:	02012903          	lw	s2,32(sp)
    e538:	01c12983          	lw	s3,28(sp)
    e53c:	01812a03          	lw	s4,24(sp)
    e540:	01412a83          	lw	s5,20(sp)
    e544:	01012b03          	lw	s6,16(sp)
    e548:	00c12b83          	lw	s7,12(sp)
    e54c:	00812c03          	lw	s8,8(sp)
    e550:	00412c83          	lw	s9,4(sp)
    e554:	00012d03          	lw	s10,0(sp)
    e558:	03010113          	addi	sp,sp,48
    e55c:	00008067          	ret
    e560:	00048613          	mv	a2,s1
    e564:	000a0513          	mv	a0,s4
    e568:	ffff8097          	auipc	ra,0xffff8
    e56c:	d4c080e7          	jalr	-692(ra) # 62b4 <_realloc_r>
    e570:	00050d13          	mv	s10,a0
    e574:	f40516e3          	bnez	a0,e4c0 <__ssprint_r+0x110>
    e578:	01042583          	lw	a1,16(s0)
    e57c:	000a0513          	mv	a0,s4
    e580:	ffffc097          	auipc	ra,0xffffc
    e584:	428080e7          	jalr	1064(ra) # a9a8 <_free_r>
    e588:	ee5ff06f          	j	e46c <__ssprint_r+0xbc>

0000e58c <_svfiprintf_r>:
    e58c:	00c5d783          	lhu	a5,12(a1)
    e590:	ee010113          	addi	sp,sp,-288
    e594:	10912a23          	sw	s1,276(sp)
    e598:	11212823          	sw	s2,272(sp)
    e59c:	11412423          	sw	s4,264(sp)
    e5a0:	11512223          	sw	s5,260(sp)
    e5a4:	10112e23          	sw	ra,284(sp)
    e5a8:	10812c23          	sw	s0,280(sp)
    e5ac:	11312623          	sw	s3,268(sp)
    e5b0:	11612023          	sw	s6,256(sp)
    e5b4:	0f712e23          	sw	s7,252(sp)
    e5b8:	0f812c23          	sw	s8,248(sp)
    e5bc:	0f912a23          	sw	s9,244(sp)
    e5c0:	0fa12823          	sw	s10,240(sp)
    e5c4:	0fb12623          	sw	s11,236(sp)
    e5c8:	0807f793          	andi	a5,a5,128
    e5cc:	00050a13          	mv	s4,a0
    e5d0:	00058913          	mv	s2,a1
    e5d4:	00060a93          	mv	s5,a2
    e5d8:	00068493          	mv	s1,a3
    e5dc:	02078e63          	beqz	a5,e618 <_svfiprintf_r+0x8c>
    e5e0:	0105a783          	lw	a5,16(a1)
    e5e4:	02079a63          	bnez	a5,e618 <_svfiprintf_r+0x8c>
    e5e8:	04000593          	li	a1,64
    e5ec:	ffff7097          	auipc	ra,0xffff7
    e5f0:	3b0080e7          	jalr	944(ra) # 599c <_malloc_r>
    e5f4:	00a92023          	sw	a0,0(s2)
    e5f8:	00a92823          	sw	a0,16(s2)
    e5fc:	00051a63          	bnez	a0,e610 <_svfiprintf_r+0x84>
    e600:	00c00793          	li	a5,12
    e604:	00fa2023          	sw	a5,0(s4)
    e608:	fff00b93          	li	s7,-1
    e60c:	3590006f          	j	f164 <_svfiprintf_r+0xbd8>
    e610:	04000793          	li	a5,64
    e614:	00f92a23          	sw	a5,20(s2)
    e618:	03c10b13          	addi	s6,sp,60
    e61c:	03612823          	sw	s6,48(sp)
    e620:	02012c23          	sw	zero,56(sp)
    e624:	02012a23          	sw	zero,52(sp)
    e628:	000b0713          	mv	a4,s6
    e62c:	00012623          	sw	zero,12(sp)
    e630:	00012223          	sw	zero,4(sp)
    e634:	00012423          	sw	zero,8(sp)
    e638:	00012823          	sw	zero,16(sp)
    e63c:	00000b93          	li	s7,0
    e640:	000a8413          	mv	s0,s5
    e644:	02500693          	li	a3,37
    e648:	00044783          	lbu	a5,0(s0)
    e64c:	00078463          	beqz	a5,e654 <_svfiprintf_r+0xc8>
    e650:	0ad79663          	bne	a5,a3,e6fc <_svfiprintf_r+0x170>
    e654:	415409b3          	sub	s3,s0,s5
    e658:	04098863          	beqz	s3,e6a8 <_svfiprintf_r+0x11c>
    e65c:	03812783          	lw	a5,56(sp)
    e660:	01572023          	sw	s5,0(a4)
    e664:	01372223          	sw	s3,4(a4)
    e668:	013787b3          	add	a5,a5,s3
    e66c:	02f12c23          	sw	a5,56(sp)
    e670:	03412783          	lw	a5,52(sp)
    e674:	00700693          	li	a3,7
    e678:	00870713          	addi	a4,a4,8
    e67c:	00178793          	addi	a5,a5,1
    e680:	02f12a23          	sw	a5,52(sp)
    e684:	02f6d063          	bge	a3,a5,e6a4 <_svfiprintf_r+0x118>
    e688:	03010613          	addi	a2,sp,48
    e68c:	00090593          	mv	a1,s2
    e690:	000a0513          	mv	a0,s4
    e694:	00000097          	auipc	ra,0x0
    e698:	d1c080e7          	jalr	-740(ra) # e3b0 <__ssprint_r>
    e69c:	2a051ee3          	bnez	a0,f158 <_svfiprintf_r+0xbcc>
    e6a0:	000b0713          	mv	a4,s6
    e6a4:	013b8bb3          	add	s7,s7,s3
    e6a8:	00044783          	lbu	a5,0(s0)
    e6ac:	32078ae3          	beqz	a5,f1e0 <_svfiprintf_r+0xc54>
    e6b0:	00140693          	addi	a3,s0,1
    e6b4:	020105a3          	sb	zero,43(sp)
    e6b8:	fff00413          	li	s0,-1
    e6bc:	00000993          	li	s3,0
    e6c0:	00000d13          	li	s10,0
    e6c4:	00900c13          	li	s8,9
    e6c8:	02a00c93          	li	s9,42
    e6cc:	0006c603          	lbu	a2,0(a3)
    e6d0:	00168a93          	addi	s5,a3,1
    e6d4:	05a00513          	li	a0,90
    e6d8:	fe060693          	addi	a3,a2,-32
    e6dc:	12d562e3          	bltu	a0,a3,f000 <_svfiprintf_r+0xa74>
    e6e0:	7fff3797          	auipc	a5,0x7fff3
    e6e4:	9e878793          	addi	a5,a5,-1560 # 800010c8 <__mprec_bigtens+0x28>
    e6e8:	00269693          	slli	a3,a3,0x2
    e6ec:	00f686b3          	add	a3,a3,a5
    e6f0:	0006a683          	lw	a3,0(a3)
    e6f4:	00f686b3          	add	a3,a3,a5
    e6f8:	00068067          	jr	a3
    e6fc:	00140413          	addi	s0,s0,1
    e700:	f49ff06f          	j	e648 <_svfiprintf_r+0xbc>
    e704:	7fff2797          	auipc	a5,0x7fff2
    e708:	45878793          	addi	a5,a5,1112 # 80000b5c <zeroes.4499+0x20>
    e70c:	00f12623          	sw	a5,12(sp)
    e710:	020d7693          	andi	a3,s10,32
    e714:	6e068863          	beqz	a3,ee04 <_svfiprintf_r+0x878>
    e718:	00748493          	addi	s1,s1,7
    e71c:	ff84f493          	andi	s1,s1,-8
    e720:	0004ad83          	lw	s11,0(s1)
    e724:	0044ac83          	lw	s9,4(s1)
    e728:	00848c13          	addi	s8,s1,8
    e72c:	001d7693          	andi	a3,s10,1
    e730:	00068e63          	beqz	a3,e74c <_svfiprintf_r+0x1c0>
    e734:	019de6b3          	or	a3,s11,s9
    e738:	00068a63          	beqz	a3,e74c <_svfiprintf_r+0x1c0>
    e73c:	03000693          	li	a3,48
    e740:	02d10623          	sb	a3,44(sp)
    e744:	02c106a3          	sb	a2,45(sp)
    e748:	002d6d13          	ori	s10,s10,2
    e74c:	bffd7d13          	andi	s10,s10,-1025
    e750:	3200006f          	j	ea70 <_svfiprintf_r+0x4e4>
    e754:	000a0513          	mv	a0,s4
    e758:	00e12023          	sw	a4,0(sp)
    e75c:	fffff097          	auipc	ra,0xfffff
    e760:	884080e7          	jalr	-1916(ra) # cfe0 <_localeconv_r>
    e764:	00452783          	lw	a5,4(a0)
    e768:	00078513          	mv	a0,a5
    e76c:	00f12823          	sw	a5,16(sp)
    e770:	ffff8097          	auipc	ra,0xffff8
    e774:	67c080e7          	jalr	1660(ra) # 6dec <strlen>
    e778:	00a12423          	sw	a0,8(sp)
    e77c:	000a0513          	mv	a0,s4
    e780:	fffff097          	auipc	ra,0xfffff
    e784:	860080e7          	jalr	-1952(ra) # cfe0 <_localeconv_r>
    e788:	00852783          	lw	a5,8(a0)
    e78c:	00012703          	lw	a4,0(sp)
    e790:	00f12223          	sw	a5,4(sp)
    e794:	00812783          	lw	a5,8(sp)
    e798:	00078c63          	beqz	a5,e7b0 <_svfiprintf_r+0x224>
    e79c:	00412783          	lw	a5,4(sp)
    e7a0:	00078863          	beqz	a5,e7b0 <_svfiprintf_r+0x224>
    e7a4:	0007c683          	lbu	a3,0(a5)
    e7a8:	00068463          	beqz	a3,e7b0 <_svfiprintf_r+0x224>
    e7ac:	400d6d13          	ori	s10,s10,1024
    e7b0:	000a8693          	mv	a3,s5
    e7b4:	f19ff06f          	j	e6cc <_svfiprintf_r+0x140>
    e7b8:	02b14683          	lbu	a3,43(sp)
    e7bc:	fe069ae3          	bnez	a3,e7b0 <_svfiprintf_r+0x224>
    e7c0:	02000693          	li	a3,32
    e7c4:	02d105a3          	sb	a3,43(sp)
    e7c8:	fe9ff06f          	j	e7b0 <_svfiprintf_r+0x224>
    e7cc:	001d6d13          	ori	s10,s10,1
    e7d0:	fe1ff06f          	j	e7b0 <_svfiprintf_r+0x224>
    e7d4:	0004a983          	lw	s3,0(s1)
    e7d8:	00448493          	addi	s1,s1,4
    e7dc:	fc09dae3          	bgez	s3,e7b0 <_svfiprintf_r+0x224>
    e7e0:	413009b3          	neg	s3,s3
    e7e4:	004d6d13          	ori	s10,s10,4
    e7e8:	fc9ff06f          	j	e7b0 <_svfiprintf_r+0x224>
    e7ec:	02b00693          	li	a3,43
    e7f0:	fd5ff06f          	j	e7c4 <_svfiprintf_r+0x238>
    e7f4:	000ac603          	lbu	a2,0(s5)
    e7f8:	001a8693          	addi	a3,s5,1
    e7fc:	05961263          	bne	a2,s9,e840 <_svfiprintf_r+0x2b4>
    e800:	0004a403          	lw	s0,0(s1)
    e804:	00448613          	addi	a2,s1,4
    e808:	00045463          	bgez	s0,e810 <_svfiprintf_r+0x284>
    e80c:	fff00413          	li	s0,-1
    e810:	00060493          	mv	s1,a2
    e814:	00068a93          	mv	s5,a3
    e818:	f99ff06f          	j	e7b0 <_svfiprintf_r+0x224>
    e81c:	00a00793          	li	a5,10
    e820:	02f40433          	mul	s0,s0,a5
    e824:	00168693          	addi	a3,a3,1
    e828:	fff6c603          	lbu	a2,-1(a3)
    e82c:	00b40433          	add	s0,s0,a1
    e830:	fd060593          	addi	a1,a2,-48
    e834:	febc74e3          	bgeu	s8,a1,e81c <_svfiprintf_r+0x290>
    e838:	00068a93          	mv	s5,a3
    e83c:	e9dff06f          	j	e6d8 <_svfiprintf_r+0x14c>
    e840:	00000413          	li	s0,0
    e844:	fedff06f          	j	e830 <_svfiprintf_r+0x2a4>
    e848:	080d6d13          	ori	s10,s10,128
    e84c:	f65ff06f          	j	e7b0 <_svfiprintf_r+0x224>
    e850:	000a8693          	mv	a3,s5
    e854:	00000993          	li	s3,0
    e858:	00a00793          	li	a5,10
    e85c:	02f989b3          	mul	s3,s3,a5
    e860:	fd060613          	addi	a2,a2,-48
    e864:	00168693          	addi	a3,a3,1
    e868:	013609b3          	add	s3,a2,s3
    e86c:	fff6c603          	lbu	a2,-1(a3)
    e870:	fd060593          	addi	a1,a2,-48
    e874:	febc72e3          	bgeu	s8,a1,e858 <_svfiprintf_r+0x2cc>
    e878:	fc1ff06f          	j	e838 <_svfiprintf_r+0x2ac>
    e87c:	000ac603          	lbu	a2,0(s5)
    e880:	06800693          	li	a3,104
    e884:	00d61863          	bne	a2,a3,e894 <_svfiprintf_r+0x308>
    e888:	001a8a93          	addi	s5,s5,1
    e88c:	200d6d13          	ori	s10,s10,512
    e890:	f21ff06f          	j	e7b0 <_svfiprintf_r+0x224>
    e894:	040d6d13          	ori	s10,s10,64
    e898:	f19ff06f          	j	e7b0 <_svfiprintf_r+0x224>
    e89c:	000ac603          	lbu	a2,0(s5)
    e8a0:	06c00693          	li	a3,108
    e8a4:	00d61863          	bne	a2,a3,e8b4 <_svfiprintf_r+0x328>
    e8a8:	001a8a93          	addi	s5,s5,1
    e8ac:	020d6d13          	ori	s10,s10,32
    e8b0:	f01ff06f          	j	e7b0 <_svfiprintf_r+0x224>
    e8b4:	010d6d13          	ori	s10,s10,16
    e8b8:	ef9ff06f          	j	e7b0 <_svfiprintf_r+0x224>
    e8bc:	0004a683          	lw	a3,0(s1)
    e8c0:	00448c13          	addi	s8,s1,4
    e8c4:	020105a3          	sb	zero,43(sp)
    e8c8:	06d10e23          	sb	a3,124(sp)
    e8cc:	00100413          	li	s0,1
    e8d0:	00000c93          	li	s9,0
    e8d4:	07c10493          	addi	s1,sp,124
    e8d8:	1dc0006f          	j	eab4 <_svfiprintf_r+0x528>
    e8dc:	010d6d13          	ori	s10,s10,16
    e8e0:	020d7693          	andi	a3,s10,32
    e8e4:	06068263          	beqz	a3,e948 <_svfiprintf_r+0x3bc>
    e8e8:	00748493          	addi	s1,s1,7
    e8ec:	ff84f493          	andi	s1,s1,-8
    e8f0:	0004ad83          	lw	s11,0(s1)
    e8f4:	0044ac83          	lw	s9,4(s1)
    e8f8:	00848c13          	addi	s8,s1,8
    e8fc:	100cd2e3          	bgez	s9,f200 <_svfiprintf_r+0xc74>
    e900:	41b00333          	neg	t1,s11
    e904:	006036b3          	snez	a3,t1
    e908:	41900833          	neg	a6,s9
    e90c:	40d80cb3          	sub	s9,a6,a3
    e910:	02d00693          	li	a3,45
    e914:	02d105a3          	sb	a3,43(sp)
    e918:	00030d93          	mv	s11,t1
    e91c:	00100693          	li	a3,1
    e920:	fff00613          	li	a2,-1
    e924:	52c40263          	beq	s0,a2,ee48 <_svfiprintf_r+0x8bc>
    e928:	000d0613          	mv	a2,s10
    e92c:	019de5b3          	or	a1,s11,s9
    e930:	f7fd7d13          	andi	s10,s10,-129
    e934:	50059a63          	bnez	a1,ee48 <_svfiprintf_r+0x8bc>
    e938:	6a040663          	beqz	s0,efe4 <_svfiprintf_r+0xa58>
    e93c:	00100613          	li	a2,1
    e940:	50c69863          	bne	a3,a2,ee50 <_svfiprintf_r+0x8c4>
    e944:	0d10006f          	j	f214 <_svfiprintf_r+0xc88>
    e948:	010d7693          	andi	a3,s10,16
    e94c:	00448c13          	addi	s8,s1,4
    e950:	00068863          	beqz	a3,e960 <_svfiprintf_r+0x3d4>
    e954:	0004ad83          	lw	s11,0(s1)
    e958:	41fddc93          	srai	s9,s11,0x1f
    e95c:	fa1ff06f          	j	e8fc <_svfiprintf_r+0x370>
    e960:	040d7693          	andi	a3,s10,64
    e964:	0004a303          	lw	t1,0(s1)
    e968:	00068863          	beqz	a3,e978 <_svfiprintf_r+0x3ec>
    e96c:	01031d93          	slli	s11,t1,0x10
    e970:	410ddd93          	srai	s11,s11,0x10
    e974:	fe5ff06f          	j	e958 <_svfiprintf_r+0x3cc>
    e978:	200d7693          	andi	a3,s10,512
    e97c:	00030d93          	mv	s11,t1
    e980:	fc068ce3          	beqz	a3,e958 <_svfiprintf_r+0x3cc>
    e984:	01831d93          	slli	s11,t1,0x18
    e988:	418ddd93          	srai	s11,s11,0x18
    e98c:	fcdff06f          	j	e958 <_svfiprintf_r+0x3cc>
    e990:	020d7613          	andi	a2,s10,32
    e994:	0004a683          	lw	a3,0(s1)
    e998:	00448493          	addi	s1,s1,4
    e99c:	00060a63          	beqz	a2,e9b0 <_svfiprintf_r+0x424>
    e9a0:	41fbd793          	srai	a5,s7,0x1f
    e9a4:	0176a023          	sw	s7,0(a3)
    e9a8:	00f6a223          	sw	a5,4(a3)
    e9ac:	c95ff06f          	j	e640 <_svfiprintf_r+0xb4>
    e9b0:	010d7613          	andi	a2,s10,16
    e9b4:	00060663          	beqz	a2,e9c0 <_svfiprintf_r+0x434>
    e9b8:	0176a023          	sw	s7,0(a3)
    e9bc:	c85ff06f          	j	e640 <_svfiprintf_r+0xb4>
    e9c0:	040d7613          	andi	a2,s10,64
    e9c4:	00060663          	beqz	a2,e9d0 <_svfiprintf_r+0x444>
    e9c8:	01769023          	sh	s7,0(a3)
    e9cc:	c75ff06f          	j	e640 <_svfiprintf_r+0xb4>
    e9d0:	200d7793          	andi	a5,s10,512
    e9d4:	fe0782e3          	beqz	a5,e9b8 <_svfiprintf_r+0x42c>
    e9d8:	01768023          	sb	s7,0(a3)
    e9dc:	c65ff06f          	j	e640 <_svfiprintf_r+0xb4>
    e9e0:	010d6d13          	ori	s10,s10,16
    e9e4:	020d7693          	andi	a3,s10,32
    e9e8:	02068463          	beqz	a3,ea10 <_svfiprintf_r+0x484>
    e9ec:	00748493          	addi	s1,s1,7
    e9f0:	ff84f493          	andi	s1,s1,-8
    e9f4:	0004ad83          	lw	s11,0(s1)
    e9f8:	0044ac83          	lw	s9,4(s1)
    e9fc:	00848c13          	addi	s8,s1,8
    ea00:	bffd7d13          	andi	s10,s10,-1025
    ea04:	00000693          	li	a3,0
    ea08:	020105a3          	sb	zero,43(sp)
    ea0c:	f15ff06f          	j	e920 <_svfiprintf_r+0x394>
    ea10:	010d7693          	andi	a3,s10,16
    ea14:	00448c13          	addi	s8,s1,4
    ea18:	00068663          	beqz	a3,ea24 <_svfiprintf_r+0x498>
    ea1c:	0004ad83          	lw	s11,0(s1)
    ea20:	0100006f          	j	ea30 <_svfiprintf_r+0x4a4>
    ea24:	040d7693          	andi	a3,s10,64
    ea28:	00068863          	beqz	a3,ea38 <_svfiprintf_r+0x4ac>
    ea2c:	0004dd83          	lhu	s11,0(s1)
    ea30:	00000c93          	li	s9,0
    ea34:	fcdff06f          	j	ea00 <_svfiprintf_r+0x474>
    ea38:	200d7693          	andi	a3,s10,512
    ea3c:	fe0680e3          	beqz	a3,ea1c <_svfiprintf_r+0x490>
    ea40:	0004cd83          	lbu	s11,0(s1)
    ea44:	fedff06f          	j	ea30 <_svfiprintf_r+0x4a4>
    ea48:	ffff86b7          	lui	a3,0xffff8
    ea4c:	0004ad83          	lw	s11,0(s1)
    ea50:	8306c693          	xori	a3,a3,-2000
    ea54:	7fff2797          	auipc	a5,0x7fff2
    ea58:	10878793          	addi	a5,a5,264 # 80000b5c <zeroes.4499+0x20>
    ea5c:	00448c13          	addi	s8,s1,4
    ea60:	00000c93          	li	s9,0
    ea64:	002d6d13          	ori	s10,s10,2
    ea68:	02d11623          	sh	a3,44(sp)
    ea6c:	00f12623          	sw	a5,12(sp)
    ea70:	00200693          	li	a3,2
    ea74:	f95ff06f          	j	ea08 <_svfiprintf_r+0x47c>
    ea78:	020105a3          	sb	zero,43(sp)
    ea7c:	fff00693          	li	a3,-1
    ea80:	00e12023          	sw	a4,0(sp)
    ea84:	00448c13          	addi	s8,s1,4
    ea88:	0004a483          	lw	s1,0(s1)
    ea8c:	2ed40863          	beq	s0,a3,ed7c <_svfiprintf_r+0x7f0>
    ea90:	00040613          	mv	a2,s0
    ea94:	00000593          	li	a1,0
    ea98:	00048513          	mv	a0,s1
    ea9c:	ffff7097          	auipc	ra,0xffff7
    eaa0:	5dc080e7          	jalr	1500(ra) # 6078 <memchr>
    eaa4:	00000c93          	li	s9,0
    eaa8:	00012703          	lw	a4,0(sp)
    eaac:	00050463          	beqz	a0,eab4 <_svfiprintf_r+0x528>
    eab0:	40950433          	sub	s0,a0,s1
    eab4:	01912023          	sw	s9,0(sp)
    eab8:	008cd463          	bge	s9,s0,eac0 <_svfiprintf_r+0x534>
    eabc:	00812023          	sw	s0,0(sp)
    eac0:	02b14683          	lbu	a3,43(sp)
    eac4:	00068863          	beqz	a3,ead4 <_svfiprintf_r+0x548>
    eac8:	00012783          	lw	a5,0(sp)
    eacc:	00178793          	addi	a5,a5,1
    ead0:	00f12023          	sw	a5,0(sp)
    ead4:	002d7d93          	andi	s11,s10,2
    ead8:	000d8863          	beqz	s11,eae8 <_svfiprintf_r+0x55c>
    eadc:	00012783          	lw	a5,0(sp)
    eae0:	00278793          	addi	a5,a5,2
    eae4:	00f12023          	sw	a5,0(sp)
    eae8:	084d7793          	andi	a5,s10,132
    eaec:	00f12a23          	sw	a5,20(sp)
    eaf0:	06079863          	bnez	a5,eb60 <_svfiprintf_r+0x5d4>
    eaf4:	00012783          	lw	a5,0(sp)
    eaf8:	40f986b3          	sub	a3,s3,a5
    eafc:	06d05263          	blez	a3,eb60 <_svfiprintf_r+0x5d4>
    eb00:	01000893          	li	a7,16
    eb04:	7fff2817          	auipc	a6,0x7fff2
    eb08:	73080813          	addi	a6,a6,1840 # 80001234 <blanks.4475>
    eb0c:	00700313          	li	t1,7
    eb10:	03412603          	lw	a2,52(sp)
    eb14:	01072023          	sw	a6,0(a4)
    eb18:	03812583          	lw	a1,56(sp)
    eb1c:	00160613          	addi	a2,a2,1
    eb20:	00870513          	addi	a0,a4,8
    eb24:	4ed8c863          	blt	a7,a3,f014 <_svfiprintf_r+0xa88>
    eb28:	00d72223          	sw	a3,4(a4)
    eb2c:	00b686b3          	add	a3,a3,a1
    eb30:	02d12c23          	sw	a3,56(sp)
    eb34:	02c12a23          	sw	a2,52(sp)
    eb38:	00700693          	li	a3,7
    eb3c:	00050713          	mv	a4,a0
    eb40:	02c6d063          	bge	a3,a2,eb60 <_svfiprintf_r+0x5d4>
    eb44:	03010613          	addi	a2,sp,48
    eb48:	00090593          	mv	a1,s2
    eb4c:	000a0513          	mv	a0,s4
    eb50:	00000097          	auipc	ra,0x0
    eb54:	860080e7          	jalr	-1952(ra) # e3b0 <__ssprint_r>
    eb58:	60051063          	bnez	a0,f158 <_svfiprintf_r+0xbcc>
    eb5c:	000b0713          	mv	a4,s6
    eb60:	02b14683          	lbu	a3,43(sp)
    eb64:	04068a63          	beqz	a3,ebb8 <_svfiprintf_r+0x62c>
    eb68:	02b10613          	addi	a2,sp,43
    eb6c:	00c72023          	sw	a2,0(a4)
    eb70:	00100613          	li	a2,1
    eb74:	03412683          	lw	a3,52(sp)
    eb78:	00c72223          	sw	a2,4(a4)
    eb7c:	03812603          	lw	a2,56(sp)
    eb80:	00168693          	addi	a3,a3,1 # ffff8001 <__stack_top+0x7ffae181>
    eb84:	02d12a23          	sw	a3,52(sp)
    eb88:	00160613          	addi	a2,a2,1
    eb8c:	02c12c23          	sw	a2,56(sp)
    eb90:	00700613          	li	a2,7
    eb94:	00870713          	addi	a4,a4,8
    eb98:	02d65063          	bge	a2,a3,ebb8 <_svfiprintf_r+0x62c>
    eb9c:	03010613          	addi	a2,sp,48
    eba0:	00090593          	mv	a1,s2
    eba4:	000a0513          	mv	a0,s4
    eba8:	00000097          	auipc	ra,0x0
    ebac:	808080e7          	jalr	-2040(ra) # e3b0 <__ssprint_r>
    ebb0:	5a051463          	bnez	a0,f158 <_svfiprintf_r+0xbcc>
    ebb4:	000b0713          	mv	a4,s6
    ebb8:	040d8a63          	beqz	s11,ec0c <_svfiprintf_r+0x680>
    ebbc:	02c10613          	addi	a2,sp,44
    ebc0:	00c72023          	sw	a2,0(a4)
    ebc4:	00200613          	li	a2,2
    ebc8:	03412683          	lw	a3,52(sp)
    ebcc:	00c72223          	sw	a2,4(a4)
    ebd0:	03812603          	lw	a2,56(sp)
    ebd4:	00168693          	addi	a3,a3,1
    ebd8:	02d12a23          	sw	a3,52(sp)
    ebdc:	00260613          	addi	a2,a2,2
    ebe0:	02c12c23          	sw	a2,56(sp)
    ebe4:	00700613          	li	a2,7
    ebe8:	00870713          	addi	a4,a4,8
    ebec:	02d65063          	bge	a2,a3,ec0c <_svfiprintf_r+0x680>
    ebf0:	03010613          	addi	a2,sp,48
    ebf4:	00090593          	mv	a1,s2
    ebf8:	000a0513          	mv	a0,s4
    ebfc:	fffff097          	auipc	ra,0xfffff
    ec00:	7b4080e7          	jalr	1972(ra) # e3b0 <__ssprint_r>
    ec04:	54051a63          	bnez	a0,f158 <_svfiprintf_r+0xbcc>
    ec08:	000b0713          	mv	a4,s6
    ec0c:	01412783          	lw	a5,20(sp)
    ec10:	08000693          	li	a3,128
    ec14:	06d79863          	bne	a5,a3,ec84 <_svfiprintf_r+0x6f8>
    ec18:	00012783          	lw	a5,0(sp)
    ec1c:	40f98db3          	sub	s11,s3,a5
    ec20:	07b05263          	blez	s11,ec84 <_svfiprintf_r+0x6f8>
    ec24:	01000893          	li	a7,16
    ec28:	7fff2817          	auipc	a6,0x7fff2
    ec2c:	61c80813          	addi	a6,a6,1564 # 80001244 <zeroes.4476>
    ec30:	00700313          	li	t1,7
    ec34:	03412683          	lw	a3,52(sp)
    ec38:	01072023          	sw	a6,0(a4)
    ec3c:	03812603          	lw	a2,56(sp)
    ec40:	00168693          	addi	a3,a3,1
    ec44:	00870593          	addi	a1,a4,8
    ec48:	43b8c063          	blt	a7,s11,f068 <_svfiprintf_r+0xadc>
    ec4c:	01b72223          	sw	s11,4(a4)
    ec50:	00cd8db3          	add	s11,s11,a2
    ec54:	03b12c23          	sw	s11,56(sp)
    ec58:	02d12a23          	sw	a3,52(sp)
    ec5c:	00700613          	li	a2,7
    ec60:	00058713          	mv	a4,a1
    ec64:	02d65063          	bge	a2,a3,ec84 <_svfiprintf_r+0x6f8>
    ec68:	03010613          	addi	a2,sp,48
    ec6c:	00090593          	mv	a1,s2
    ec70:	000a0513          	mv	a0,s4
    ec74:	fffff097          	auipc	ra,0xfffff
    ec78:	73c080e7          	jalr	1852(ra) # e3b0 <__ssprint_r>
    ec7c:	4c051e63          	bnez	a0,f158 <_svfiprintf_r+0xbcc>
    ec80:	000b0713          	mv	a4,s6
    ec84:	408c8cb3          	sub	s9,s9,s0
    ec88:	07905263          	blez	s9,ecec <_svfiprintf_r+0x760>
    ec8c:	01000813          	li	a6,16
    ec90:	7fff2d97          	auipc	s11,0x7fff2
    ec94:	5b4d8d93          	addi	s11,s11,1460 # 80001244 <zeroes.4476>
    ec98:	00700893          	li	a7,7
    ec9c:	03412683          	lw	a3,52(sp)
    eca0:	01b72023          	sw	s11,0(a4)
    eca4:	03812603          	lw	a2,56(sp)
    eca8:	00168693          	addi	a3,a3,1
    ecac:	00870593          	addi	a1,a4,8
    ecb0:	41984263          	blt	a6,s9,f0b4 <_svfiprintf_r+0xb28>
    ecb4:	01972223          	sw	s9,4(a4)
    ecb8:	00cc8cb3          	add	s9,s9,a2
    ecbc:	03912c23          	sw	s9,56(sp)
    ecc0:	02d12a23          	sw	a3,52(sp)
    ecc4:	00700613          	li	a2,7
    ecc8:	00058713          	mv	a4,a1
    eccc:	02d65063          	bge	a2,a3,ecec <_svfiprintf_r+0x760>
    ecd0:	03010613          	addi	a2,sp,48
    ecd4:	00090593          	mv	a1,s2
    ecd8:	000a0513          	mv	a0,s4
    ecdc:	fffff097          	auipc	ra,0xfffff
    ece0:	6d4080e7          	jalr	1748(ra) # e3b0 <__ssprint_r>
    ece4:	46051a63          	bnez	a0,f158 <_svfiprintf_r+0xbcc>
    ece8:	000b0713          	mv	a4,s6
    ecec:	03812683          	lw	a3,56(sp)
    ecf0:	00872223          	sw	s0,4(a4)
    ecf4:	00972023          	sw	s1,0(a4)
    ecf8:	00868433          	add	s0,a3,s0
    ecfc:	03412683          	lw	a3,52(sp)
    ed00:	02812c23          	sw	s0,56(sp)
    ed04:	00700613          	li	a2,7
    ed08:	00168693          	addi	a3,a3,1
    ed0c:	02d12a23          	sw	a3,52(sp)
    ed10:	00870713          	addi	a4,a4,8
    ed14:	02d65063          	bge	a2,a3,ed34 <_svfiprintf_r+0x7a8>
    ed18:	03010613          	addi	a2,sp,48
    ed1c:	00090593          	mv	a1,s2
    ed20:	000a0513          	mv	a0,s4
    ed24:	fffff097          	auipc	ra,0xfffff
    ed28:	68c080e7          	jalr	1676(ra) # e3b0 <__ssprint_r>
    ed2c:	42051663          	bnez	a0,f158 <_svfiprintf_r+0xbcc>
    ed30:	000b0713          	mv	a4,s6
    ed34:	004d7793          	andi	a5,s10,4
    ed38:	3c079063          	bnez	a5,f0f8 <_svfiprintf_r+0xb6c>
    ed3c:	00012783          	lw	a5,0(sp)
    ed40:	00f9d463          	bge	s3,a5,ed48 <_svfiprintf_r+0x7bc>
    ed44:	00078993          	mv	s3,a5
    ed48:	03812783          	lw	a5,56(sp)
    ed4c:	013b8bb3          	add	s7,s7,s3
    ed50:	00078e63          	beqz	a5,ed6c <_svfiprintf_r+0x7e0>
    ed54:	03010613          	addi	a2,sp,48
    ed58:	00090593          	mv	a1,s2
    ed5c:	000a0513          	mv	a0,s4
    ed60:	fffff097          	auipc	ra,0xfffff
    ed64:	650080e7          	jalr	1616(ra) # e3b0 <__ssprint_r>
    ed68:	3e051863          	bnez	a0,f158 <_svfiprintf_r+0xbcc>
    ed6c:	02012a23          	sw	zero,52(sp)
    ed70:	000c0493          	mv	s1,s8
    ed74:	000b0713          	mv	a4,s6
    ed78:	8c9ff06f          	j	e640 <_svfiprintf_r+0xb4>
    ed7c:	00048513          	mv	a0,s1
    ed80:	ffff8097          	auipc	ra,0xffff8
    ed84:	06c080e7          	jalr	108(ra) # 6dec <strlen>
    ed88:	00050413          	mv	s0,a0
    ed8c:	00000c93          	li	s9,0
    ed90:	00012703          	lw	a4,0(sp)
    ed94:	d21ff06f          	j	eab4 <_svfiprintf_r+0x528>
    ed98:	010d6d13          	ori	s10,s10,16
    ed9c:	020d7693          	andi	a3,s10,32
    eda0:	02068063          	beqz	a3,edc0 <_svfiprintf_r+0x834>
    eda4:	00748493          	addi	s1,s1,7
    eda8:	ff84f493          	andi	s1,s1,-8
    edac:	0004ad83          	lw	s11,0(s1)
    edb0:	0044ac83          	lw	s9,4(s1)
    edb4:	00848c13          	addi	s8,s1,8
    edb8:	00100693          	li	a3,1
    edbc:	c4dff06f          	j	ea08 <_svfiprintf_r+0x47c>
    edc0:	010d7693          	andi	a3,s10,16
    edc4:	00448c13          	addi	s8,s1,4
    edc8:	00068663          	beqz	a3,edd4 <_svfiprintf_r+0x848>
    edcc:	0004ad83          	lw	s11,0(s1)
    edd0:	0100006f          	j	ede0 <_svfiprintf_r+0x854>
    edd4:	040d7693          	andi	a3,s10,64
    edd8:	00068863          	beqz	a3,ede8 <_svfiprintf_r+0x85c>
    eddc:	0004dd83          	lhu	s11,0(s1)
    ede0:	00000c93          	li	s9,0
    ede4:	fd5ff06f          	j	edb8 <_svfiprintf_r+0x82c>
    ede8:	200d7693          	andi	a3,s10,512
    edec:	fe0680e3          	beqz	a3,edcc <_svfiprintf_r+0x840>
    edf0:	0004cd83          	lbu	s11,0(s1)
    edf4:	fedff06f          	j	ede0 <_svfiprintf_r+0x854>
    edf8:	7fff2797          	auipc	a5,0x7fff2
    edfc:	d7878793          	addi	a5,a5,-648 # 80000b70 <zeroes.4499+0x34>
    ee00:	90dff06f          	j	e70c <_svfiprintf_r+0x180>
    ee04:	010d7693          	andi	a3,s10,16
    ee08:	00448c13          	addi	s8,s1,4
    ee0c:	00068663          	beqz	a3,ee18 <_svfiprintf_r+0x88c>
    ee10:	0004ad83          	lw	s11,0(s1)
    ee14:	0100006f          	j	ee24 <_svfiprintf_r+0x898>
    ee18:	040d7693          	andi	a3,s10,64
    ee1c:	00068863          	beqz	a3,ee2c <_svfiprintf_r+0x8a0>
    ee20:	0004dd83          	lhu	s11,0(s1)
    ee24:	00000c93          	li	s9,0
    ee28:	905ff06f          	j	e72c <_svfiprintf_r+0x1a0>
    ee2c:	200d7693          	andi	a3,s10,512
    ee30:	fe0680e3          	beqz	a3,ee10 <_svfiprintf_r+0x884>
    ee34:	0004cd83          	lbu	s11,0(s1)
    ee38:	fedff06f          	j	ee24 <_svfiprintf_r+0x898>
    ee3c:	000d0613          	mv	a2,s10
    ee40:	00100693          	li	a3,1
    ee44:	ae9ff06f          	j	e92c <_svfiprintf_r+0x3a0>
    ee48:	00100613          	li	a2,1
    ee4c:	3ac68e63          	beq	a3,a2,f208 <_svfiprintf_r+0xc7c>
    ee50:	00200613          	li	a2,2
    ee54:	14c68c63          	beq	a3,a2,efac <_svfiprintf_r+0xa20>
    ee58:	0e010693          	addi	a3,sp,224
    ee5c:	01dc9593          	slli	a1,s9,0x1d
    ee60:	007df613          	andi	a2,s11,7
    ee64:	003dd313          	srli	t1,s11,0x3
    ee68:	03060613          	addi	a2,a2,48
    ee6c:	0065edb3          	or	s11,a1,t1
    ee70:	003cdc93          	srli	s9,s9,0x3
    ee74:	fec68fa3          	sb	a2,-1(a3)
    ee78:	019de5b3          	or	a1,s11,s9
    ee7c:	fff68493          	addi	s1,a3,-1
    ee80:	02059663          	bnez	a1,eeac <_svfiprintf_r+0x920>
    ee84:	001d7593          	andi	a1,s10,1
    ee88:	00058a63          	beqz	a1,ee9c <_svfiprintf_r+0x910>
    ee8c:	03000593          	li	a1,48
    ee90:	00b60663          	beq	a2,a1,ee9c <_svfiprintf_r+0x910>
    ee94:	feb48fa3          	sb	a1,-1(s1)
    ee98:	ffe68493          	addi	s1,a3,-2
    ee9c:	0e010793          	addi	a5,sp,224
    eea0:	00040c93          	mv	s9,s0
    eea4:	40978433          	sub	s0,a5,s1
    eea8:	c0dff06f          	j	eab4 <_svfiprintf_r+0x528>
    eeac:	00048693          	mv	a3,s1
    eeb0:	fadff06f          	j	ee5c <_svfiprintf_r+0x8d0>
    eeb4:	400d7793          	andi	a5,s10,1024
    eeb8:	00000893          	li	a7,0
    eebc:	0e010e13          	addi	t3,sp,224
    eec0:	00f12023          	sw	a5,0(sp)
    eec4:	00a00613          	li	a2,10
    eec8:	00000693          	li	a3,0
    eecc:	000d8513          	mv	a0,s11
    eed0:	000c8593          	mv	a1,s9
    eed4:	01112e23          	sw	a7,28(sp)
    eed8:	00e12c23          	sw	a4,24(sp)
    eedc:	fffe0493          	addi	s1,t3,-1
    eee0:	01c12a23          	sw	t3,20(sp)
    eee4:	00001097          	auipc	ra,0x1
    eee8:	fa4080e7          	jalr	-92(ra) # fe88 <__umoddi3>
    eeec:	01412e03          	lw	t3,20(sp)
    eef0:	01c12883          	lw	a7,28(sp)
    eef4:	00012783          	lw	a5,0(sp)
    eef8:	03050513          	addi	a0,a0,48
    eefc:	feae0fa3          	sb	a0,-1(t3)
    ef00:	00188893          	addi	a7,a7,1
    ef04:	01812703          	lw	a4,24(sp)
    ef08:	06078063          	beqz	a5,ef68 <_svfiprintf_r+0x9dc>
    ef0c:	00412783          	lw	a5,4(sp)
    ef10:	0007c683          	lbu	a3,0(a5)
    ef14:	05169a63          	bne	a3,a7,ef68 <_svfiprintf_r+0x9dc>
    ef18:	0ff00793          	li	a5,255
    ef1c:	04f88663          	beq	a7,a5,ef68 <_svfiprintf_r+0x9dc>
    ef20:	000c9663          	bnez	s9,ef2c <_svfiprintf_r+0x9a0>
    ef24:	00900793          	li	a5,9
    ef28:	05b7f063          	bgeu	a5,s11,ef68 <_svfiprintf_r+0x9dc>
    ef2c:	00812783          	lw	a5,8(sp)
    ef30:	01012583          	lw	a1,16(sp)
    ef34:	00e12a23          	sw	a4,20(sp)
    ef38:	40f484b3          	sub	s1,s1,a5
    ef3c:	00078613          	mv	a2,a5
    ef40:	00048513          	mv	a0,s1
    ef44:	fffff097          	auipc	ra,0xfffff
    ef48:	434080e7          	jalr	1076(ra) # e378 <strncpy>
    ef4c:	00412783          	lw	a5,4(sp)
    ef50:	00000893          	li	a7,0
    ef54:	01412703          	lw	a4,20(sp)
    ef58:	0017c683          	lbu	a3,1(a5)
    ef5c:	00068663          	beqz	a3,ef68 <_svfiprintf_r+0x9dc>
    ef60:	00178793          	addi	a5,a5,1
    ef64:	00f12223          	sw	a5,4(sp)
    ef68:	00a00613          	li	a2,10
    ef6c:	00000693          	li	a3,0
    ef70:	000d8513          	mv	a0,s11
    ef74:	000c8593          	mv	a1,s9
    ef78:	01112c23          	sw	a7,24(sp)
    ef7c:	00e12a23          	sw	a4,20(sp)
    ef80:	00001097          	auipc	ra,0x1
    ef84:	ad4080e7          	jalr	-1324(ra) # fa54 <__udivdi3>
    ef88:	01412703          	lw	a4,20(sp)
    ef8c:	01812883          	lw	a7,24(sp)
    ef90:	000c9663          	bnez	s9,ef9c <_svfiprintf_r+0xa10>
    ef94:	00900793          	li	a5,9
    ef98:	f1b7f2e3          	bgeu	a5,s11,ee9c <_svfiprintf_r+0x910>
    ef9c:	00050d93          	mv	s11,a0
    efa0:	00058c93          	mv	s9,a1
    efa4:	00048e13          	mv	t3,s1
    efa8:	f1dff06f          	j	eec4 <_svfiprintf_r+0x938>
    efac:	0e010493          	addi	s1,sp,224
    efb0:	00c12783          	lw	a5,12(sp)
    efb4:	00fdf693          	andi	a3,s11,15
    efb8:	fff48493          	addi	s1,s1,-1
    efbc:	00d786b3          	add	a3,a5,a3
    efc0:	0006c683          	lbu	a3,0(a3)
    efc4:	004dd313          	srli	t1,s11,0x4
    efc8:	00d48023          	sb	a3,0(s1)
    efcc:	01cc9693          	slli	a3,s9,0x1c
    efd0:	0066edb3          	or	s11,a3,t1
    efd4:	004cdc93          	srli	s9,s9,0x4
    efd8:	019de6b3          	or	a3,s11,s9
    efdc:	fc069ae3          	bnez	a3,efb0 <_svfiprintf_r+0xa24>
    efe0:	ebdff06f          	j	ee9c <_svfiprintf_r+0x910>
    efe4:	0e010493          	addi	s1,sp,224
    efe8:	ea069ae3          	bnez	a3,ee9c <_svfiprintf_r+0x910>
    efec:	00167613          	andi	a2,a2,1
    eff0:	ea0606e3          	beqz	a2,ee9c <_svfiprintf_r+0x910>
    eff4:	03000693          	li	a3,48
    eff8:	0cd10fa3          	sb	a3,223(sp)
    effc:	2200006f          	j	f21c <_svfiprintf_r+0xc90>
    f000:	1e060063          	beqz	a2,f1e0 <_svfiprintf_r+0xc54>
    f004:	06c10e23          	sb	a2,124(sp)
    f008:	020105a3          	sb	zero,43(sp)
    f00c:	00048c13          	mv	s8,s1
    f010:	8bdff06f          	j	e8cc <_svfiprintf_r+0x340>
    f014:	01058593          	addi	a1,a1,16
    f018:	01172223          	sw	a7,4(a4)
    f01c:	02b12c23          	sw	a1,56(sp)
    f020:	02c12a23          	sw	a2,52(sp)
    f024:	02c35c63          	bge	t1,a2,f05c <_svfiprintf_r+0xad0>
    f028:	03010613          	addi	a2,sp,48
    f02c:	00090593          	mv	a1,s2
    f030:	000a0513          	mv	a0,s4
    f034:	00d12c23          	sw	a3,24(sp)
    f038:	fffff097          	auipc	ra,0xfffff
    f03c:	378080e7          	jalr	888(ra) # e3b0 <__ssprint_r>
    f040:	10051c63          	bnez	a0,f158 <_svfiprintf_r+0xbcc>
    f044:	01812683          	lw	a3,24(sp)
    f048:	000b0513          	mv	a0,s6
    f04c:	00700313          	li	t1,7
    f050:	7fff2817          	auipc	a6,0x7fff2
    f054:	1e480813          	addi	a6,a6,484 # 80001234 <blanks.4475>
    f058:	01000893          	li	a7,16
    f05c:	ff068693          	addi	a3,a3,-16
    f060:	00050713          	mv	a4,a0
    f064:	aadff06f          	j	eb10 <_svfiprintf_r+0x584>
    f068:	01060613          	addi	a2,a2,16
    f06c:	01172223          	sw	a7,4(a4)
    f070:	02c12c23          	sw	a2,56(sp)
    f074:	02d12a23          	sw	a3,52(sp)
    f078:	02d35863          	bge	t1,a3,f0a8 <_svfiprintf_r+0xb1c>
    f07c:	03010613          	addi	a2,sp,48
    f080:	00090593          	mv	a1,s2
    f084:	000a0513          	mv	a0,s4
    f088:	fffff097          	auipc	ra,0xfffff
    f08c:	328080e7          	jalr	808(ra) # e3b0 <__ssprint_r>
    f090:	0c051463          	bnez	a0,f158 <_svfiprintf_r+0xbcc>
    f094:	000b0593          	mv	a1,s6
    f098:	00700313          	li	t1,7
    f09c:	7fff2817          	auipc	a6,0x7fff2
    f0a0:	1a880813          	addi	a6,a6,424 # 80001244 <zeroes.4476>
    f0a4:	01000893          	li	a7,16
    f0a8:	ff0d8d93          	addi	s11,s11,-16
    f0ac:	00058713          	mv	a4,a1
    f0b0:	b85ff06f          	j	ec34 <_svfiprintf_r+0x6a8>
    f0b4:	01060613          	addi	a2,a2,16
    f0b8:	01072223          	sw	a6,4(a4)
    f0bc:	02c12c23          	sw	a2,56(sp)
    f0c0:	02d12a23          	sw	a3,52(sp)
    f0c4:	02d8d463          	bge	a7,a3,f0ec <_svfiprintf_r+0xb60>
    f0c8:	03010613          	addi	a2,sp,48
    f0cc:	00090593          	mv	a1,s2
    f0d0:	000a0513          	mv	a0,s4
    f0d4:	fffff097          	auipc	ra,0xfffff
    f0d8:	2dc080e7          	jalr	732(ra) # e3b0 <__ssprint_r>
    f0dc:	06051e63          	bnez	a0,f158 <_svfiprintf_r+0xbcc>
    f0e0:	000b0593          	mv	a1,s6
    f0e4:	00700893          	li	a7,7
    f0e8:	01000813          	li	a6,16
    f0ec:	ff0c8c93          	addi	s9,s9,-16
    f0f0:	00058713          	mv	a4,a1
    f0f4:	ba9ff06f          	j	ec9c <_svfiprintf_r+0x710>
    f0f8:	00012783          	lw	a5,0(sp)
    f0fc:	40f98433          	sub	s0,s3,a5
    f100:	c2805ee3          	blez	s0,ed3c <_svfiprintf_r+0x7b0>
    f104:	01000c93          	li	s9,16
    f108:	7fff2497          	auipc	s1,0x7fff2
    f10c:	12c48493          	addi	s1,s1,300 # 80001234 <blanks.4475>
    f110:	00700d93          	li	s11,7
    f114:	03412783          	lw	a5,52(sp)
    f118:	00972023          	sw	s1,0(a4)
    f11c:	03812683          	lw	a3,56(sp)
    f120:	00178793          	addi	a5,a5,1
    f124:	088cc063          	blt	s9,s0,f1a4 <_svfiprintf_r+0xc18>
    f128:	008686b3          	add	a3,a3,s0
    f12c:	00872223          	sw	s0,4(a4)
    f130:	02d12c23          	sw	a3,56(sp)
    f134:	02f12a23          	sw	a5,52(sp)
    f138:	00700713          	li	a4,7
    f13c:	c0f750e3          	bge	a4,a5,ed3c <_svfiprintf_r+0x7b0>
    f140:	03010613          	addi	a2,sp,48
    f144:	00090593          	mv	a1,s2
    f148:	000a0513          	mv	a0,s4
    f14c:	fffff097          	auipc	ra,0xfffff
    f150:	264080e7          	jalr	612(ra) # e3b0 <__ssprint_r>
    f154:	be0504e3          	beqz	a0,ed3c <_svfiprintf_r+0x7b0>
    f158:	00c95783          	lhu	a5,12(s2)
    f15c:	0407f793          	andi	a5,a5,64
    f160:	ca079463          	bnez	a5,e608 <_svfiprintf_r+0x7c>
    f164:	11c12083          	lw	ra,284(sp)
    f168:	11812403          	lw	s0,280(sp)
    f16c:	000b8513          	mv	a0,s7
    f170:	11412483          	lw	s1,276(sp)
    f174:	11012903          	lw	s2,272(sp)
    f178:	10c12983          	lw	s3,268(sp)
    f17c:	10812a03          	lw	s4,264(sp)
    f180:	10412a83          	lw	s5,260(sp)
    f184:	10012b03          	lw	s6,256(sp)
    f188:	0fc12b83          	lw	s7,252(sp)
    f18c:	0f812c03          	lw	s8,248(sp)
    f190:	0f412c83          	lw	s9,244(sp)
    f194:	0f012d03          	lw	s10,240(sp)
    f198:	0ec12d83          	lw	s11,236(sp)
    f19c:	12010113          	addi	sp,sp,288
    f1a0:	00008067          	ret
    f1a4:	01068693          	addi	a3,a3,16
    f1a8:	01972223          	sw	s9,4(a4)
    f1ac:	02d12c23          	sw	a3,56(sp)
    f1b0:	02f12a23          	sw	a5,52(sp)
    f1b4:	00870713          	addi	a4,a4,8
    f1b8:	02fdd063          	bge	s11,a5,f1d8 <_svfiprintf_r+0xc4c>
    f1bc:	03010613          	addi	a2,sp,48
    f1c0:	00090593          	mv	a1,s2
    f1c4:	000a0513          	mv	a0,s4
    f1c8:	fffff097          	auipc	ra,0xfffff
    f1cc:	1e8080e7          	jalr	488(ra) # e3b0 <__ssprint_r>
    f1d0:	f80514e3          	bnez	a0,f158 <_svfiprintf_r+0xbcc>
    f1d4:	000b0713          	mv	a4,s6
    f1d8:	ff040413          	addi	s0,s0,-16
    f1dc:	f39ff06f          	j	f114 <_svfiprintf_r+0xb88>
    f1e0:	03812783          	lw	a5,56(sp)
    f1e4:	f6078ae3          	beqz	a5,f158 <_svfiprintf_r+0xbcc>
    f1e8:	03010613          	addi	a2,sp,48
    f1ec:	00090593          	mv	a1,s2
    f1f0:	000a0513          	mv	a0,s4
    f1f4:	fffff097          	auipc	ra,0xfffff
    f1f8:	1bc080e7          	jalr	444(ra) # e3b0 <__ssprint_r>
    f1fc:	f5dff06f          	j	f158 <_svfiprintf_r+0xbcc>
    f200:	fff00693          	li	a3,-1
    f204:	c2d41ce3          	bne	s0,a3,ee3c <_svfiprintf_r+0x8b0>
    f208:	ca0c96e3          	bnez	s9,eeb4 <_svfiprintf_r+0x928>
    f20c:	00900693          	li	a3,9
    f210:	cbb6e2e3          	bltu	a3,s11,eeb4 <_svfiprintf_r+0x928>
    f214:	030d8313          	addi	t1,s11,48
    f218:	0c610fa3          	sb	t1,223(sp)
    f21c:	0df10493          	addi	s1,sp,223
    f220:	c7dff06f          	j	ee9c <_svfiprintf_r+0x910>

0000f224 <_wcrtomb_r>:
    f224:	7fff3797          	auipc	a5,0x7fff3
    f228:	b4878793          	addi	a5,a5,-1208 # 80001d6c <_impure_ptr>
    f22c:	0007a783          	lw	a5,0(a5)
    f230:	fe010113          	addi	sp,sp,-32
    f234:	00812c23          	sw	s0,24(sp)
    f238:	00912a23          	sw	s1,20(sp)
    f23c:	00112e23          	sw	ra,28(sp)
    f240:	00050413          	mv	s0,a0
    f244:	00068493          	mv	s1,a3
    f248:	0347a783          	lw	a5,52(a5)
    f24c:	04059863          	bnez	a1,f29c <_wcrtomb_r+0x78>
    f250:	00079663          	bnez	a5,f25c <_wcrtomb_r+0x38>
    f254:	7fff3797          	auipc	a5,0x7fff3
    f258:	99c78793          	addi	a5,a5,-1636 # 80001bf0 <__global_locale>
    f25c:	0e07a783          	lw	a5,224(a5)
    f260:	00048693          	mv	a3,s1
    f264:	00000613          	li	a2,0
    f268:	00410593          	addi	a1,sp,4
    f26c:	00040513          	mv	a0,s0
    f270:	000780e7          	jalr	a5
    f274:	fff00793          	li	a5,-1
    f278:	00f51863          	bne	a0,a5,f288 <_wcrtomb_r+0x64>
    f27c:	0004a023          	sw	zero,0(s1)
    f280:	08a00793          	li	a5,138
    f284:	00f42023          	sw	a5,0(s0)
    f288:	01c12083          	lw	ra,28(sp)
    f28c:	01812403          	lw	s0,24(sp)
    f290:	01412483          	lw	s1,20(sp)
    f294:	02010113          	addi	sp,sp,32
    f298:	00008067          	ret
    f29c:	00079663          	bnez	a5,f2a8 <_wcrtomb_r+0x84>
    f2a0:	7fff3797          	auipc	a5,0x7fff3
    f2a4:	95078793          	addi	a5,a5,-1712 # 80001bf0 <__global_locale>
    f2a8:	0e07a783          	lw	a5,224(a5)
    f2ac:	00048693          	mv	a3,s1
    f2b0:	fbdff06f          	j	f26c <_wcrtomb_r+0x48>

0000f2b4 <wcrtomb>:
    f2b4:	7fff3797          	auipc	a5,0x7fff3
    f2b8:	ab878793          	addi	a5,a5,-1352 # 80001d6c <_impure_ptr>
    f2bc:	00060693          	mv	a3,a2
    f2c0:	00058613          	mv	a2,a1
    f2c4:	00050593          	mv	a1,a0
    f2c8:	0007a503          	lw	a0,0(a5)
    f2cc:	00000317          	auipc	t1,0x0
    f2d0:	f5830067          	jr	-168(t1) # f224 <_wcrtomb_r>

0000f2d4 <_wctomb_r>:
    f2d4:	7fff3797          	auipc	a5,0x7fff3
    f2d8:	a9878793          	addi	a5,a5,-1384 # 80001d6c <_impure_ptr>
    f2dc:	0007a783          	lw	a5,0(a5)
    f2e0:	0347a783          	lw	a5,52(a5)
    f2e4:	00079663          	bnez	a5,f2f0 <_wctomb_r+0x1c>
    f2e8:	7fff3797          	auipc	a5,0x7fff3
    f2ec:	90878793          	addi	a5,a5,-1784 # 80001bf0 <__global_locale>
    f2f0:	0e07a303          	lw	t1,224(a5)
    f2f4:	00030067          	jr	t1

0000f2f8 <__ascii_wctomb>:
    f2f8:	02058463          	beqz	a1,f320 <__ascii_wctomb+0x28>
    f2fc:	0ff00793          	li	a5,255
    f300:	00c7fa63          	bgeu	a5,a2,f314 <__ascii_wctomb+0x1c>
    f304:	08a00793          	li	a5,138
    f308:	00f52023          	sw	a5,0(a0)
    f30c:	fff00513          	li	a0,-1
    f310:	00008067          	ret
    f314:	00c58023          	sb	a2,0(a1)
    f318:	00100513          	li	a0,1
    f31c:	00008067          	ret
    f320:	00000513          	li	a0,0
    f324:	00008067          	ret

0000f328 <_calloc_r>:
    f328:	02c585b3          	mul	a1,a1,a2
    f32c:	ff010113          	addi	sp,sp,-16
    f330:	00812423          	sw	s0,8(sp)
    f334:	00112623          	sw	ra,12(sp)
    f338:	ffff6097          	auipc	ra,0xffff6
    f33c:	664080e7          	jalr	1636(ra) # 599c <_malloc_r>
    f340:	00050413          	mv	s0,a0
    f344:	04050263          	beqz	a0,f388 <_calloc_r+0x60>
    f348:	ffc52603          	lw	a2,-4(a0)
    f34c:	02400713          	li	a4,36
    f350:	ffc67613          	andi	a2,a2,-4
    f354:	ffc60613          	addi	a2,a2,-4
    f358:	06c76263          	bltu	a4,a2,f3bc <_calloc_r+0x94>
    f35c:	01300693          	li	a3,19
    f360:	00050793          	mv	a5,a0
    f364:	00c6fc63          	bgeu	a3,a2,f37c <_calloc_r+0x54>
    f368:	00052023          	sw	zero,0(a0)
    f36c:	00052223          	sw	zero,4(a0)
    f370:	01b00793          	li	a5,27
    f374:	02c7e463          	bltu	a5,a2,f39c <_calloc_r+0x74>
    f378:	00850793          	addi	a5,a0,8
    f37c:	0007a023          	sw	zero,0(a5)
    f380:	0007a223          	sw	zero,4(a5)
    f384:	0007a423          	sw	zero,8(a5)
    f388:	00040513          	mv	a0,s0
    f38c:	00c12083          	lw	ra,12(sp)
    f390:	00812403          	lw	s0,8(sp)
    f394:	01010113          	addi	sp,sp,16
    f398:	00008067          	ret
    f39c:	00052423          	sw	zero,8(a0)
    f3a0:	00052623          	sw	zero,12(a0)
    f3a4:	01050793          	addi	a5,a0,16
    f3a8:	fce61ae3          	bne	a2,a4,f37c <_calloc_r+0x54>
    f3ac:	00052823          	sw	zero,16(a0)
    f3b0:	01850793          	addi	a5,a0,24
    f3b4:	00052a23          	sw	zero,20(a0)
    f3b8:	fc5ff06f          	j	f37c <_calloc_r+0x54>
    f3bc:	00000593          	li	a1,0
    f3c0:	ffff7097          	auipc	ra,0xffff7
    f3c4:	e10080e7          	jalr	-496(ra) # 61d0 <memset>
    f3c8:	fc1ff06f          	j	f388 <_calloc_r+0x60>

0000f3cc <_close_r>:
    f3cc:	ff010113          	addi	sp,sp,-16
    f3d0:	00812423          	sw	s0,8(sp)
    f3d4:	00050413          	mv	s0,a0
    f3d8:	00058513          	mv	a0,a1
    f3dc:	7fff3797          	auipc	a5,0x7fff3
    f3e0:	a807ae23          	sw	zero,-1380(a5) # 80001e78 <errno>
    f3e4:	00112623          	sw	ra,12(sp)
    f3e8:	00000097          	auipc	ra,0x0
    f3ec:	298080e7          	jalr	664(ra) # f680 <_close>
    f3f0:	fff00793          	li	a5,-1
    f3f4:	00f51c63          	bne	a0,a5,f40c <_close_r+0x40>
    f3f8:	7fff3797          	auipc	a5,0x7fff3
    f3fc:	a8078793          	addi	a5,a5,-1408 # 80001e78 <errno>
    f400:	0007a783          	lw	a5,0(a5)
    f404:	00078463          	beqz	a5,f40c <_close_r+0x40>
    f408:	00f42023          	sw	a5,0(s0)
    f40c:	00c12083          	lw	ra,12(sp)
    f410:	00812403          	lw	s0,8(sp)
    f414:	01010113          	addi	sp,sp,16
    f418:	00008067          	ret

0000f41c <_fclose_r>:
    f41c:	ff010113          	addi	sp,sp,-16
    f420:	00112623          	sw	ra,12(sp)
    f424:	00812423          	sw	s0,8(sp)
    f428:	00912223          	sw	s1,4(sp)
    f42c:	01212023          	sw	s2,0(sp)
    f430:	02059263          	bnez	a1,f454 <_fclose_r+0x38>
    f434:	00000913          	li	s2,0
    f438:	00c12083          	lw	ra,12(sp)
    f43c:	00812403          	lw	s0,8(sp)
    f440:	00090513          	mv	a0,s2
    f444:	00412483          	lw	s1,4(sp)
    f448:	00012903          	lw	s2,0(sp)
    f44c:	01010113          	addi	sp,sp,16
    f450:	00008067          	ret
    f454:	00050493          	mv	s1,a0
    f458:	00058413          	mv	s0,a1
    f45c:	00050a63          	beqz	a0,f470 <_fclose_r+0x54>
    f460:	03852783          	lw	a5,56(a0)
    f464:	00079663          	bnez	a5,f470 <_fclose_r+0x54>
    f468:	ffffb097          	auipc	ra,0xffffb
    f46c:	07c080e7          	jalr	124(ra) # a4e4 <__sinit>
    f470:	00c41783          	lh	a5,12(s0)
    f474:	fc0780e3          	beqz	a5,f434 <_fclose_r+0x18>
    f478:	00040593          	mv	a1,s0
    f47c:	00048513          	mv	a0,s1
    f480:	ffffb097          	auipc	ra,0xffffb
    f484:	c8c080e7          	jalr	-884(ra) # a10c <__sflush_r>
    f488:	02c42783          	lw	a5,44(s0)
    f48c:	00050913          	mv	s2,a0
    f490:	00078c63          	beqz	a5,f4a8 <_fclose_r+0x8c>
    f494:	01c42583          	lw	a1,28(s0)
    f498:	00048513          	mv	a0,s1
    f49c:	000780e7          	jalr	a5
    f4a0:	00055463          	bgez	a0,f4a8 <_fclose_r+0x8c>
    f4a4:	fff00913          	li	s2,-1
    f4a8:	00c45783          	lhu	a5,12(s0)
    f4ac:	0807f793          	andi	a5,a5,128
    f4b0:	00078a63          	beqz	a5,f4c4 <_fclose_r+0xa8>
    f4b4:	01042583          	lw	a1,16(s0)
    f4b8:	00048513          	mv	a0,s1
    f4bc:	ffffb097          	auipc	ra,0xffffb
    f4c0:	4ec080e7          	jalr	1260(ra) # a9a8 <_free_r>
    f4c4:	03042583          	lw	a1,48(s0)
    f4c8:	00058e63          	beqz	a1,f4e4 <_fclose_r+0xc8>
    f4cc:	04040793          	addi	a5,s0,64
    f4d0:	00f58863          	beq	a1,a5,f4e0 <_fclose_r+0xc4>
    f4d4:	00048513          	mv	a0,s1
    f4d8:	ffffb097          	auipc	ra,0xffffb
    f4dc:	4d0080e7          	jalr	1232(ra) # a9a8 <_free_r>
    f4e0:	02042823          	sw	zero,48(s0)
    f4e4:	04442583          	lw	a1,68(s0)
    f4e8:	00058a63          	beqz	a1,f4fc <_fclose_r+0xe0>
    f4ec:	00048513          	mv	a0,s1
    f4f0:	ffffb097          	auipc	ra,0xffffb
    f4f4:	4b8080e7          	jalr	1208(ra) # a9a8 <_free_r>
    f4f8:	04042223          	sw	zero,68(s0)
    f4fc:	ffffb097          	auipc	ra,0xffffb
    f500:	174080e7          	jalr	372(ra) # a670 <__sfp_lock_acquire>
    f504:	00041623          	sh	zero,12(s0)
    f508:	ffffb097          	auipc	ra,0xffffb
    f50c:	16c080e7          	jalr	364(ra) # a674 <__sfp_lock_release>
    f510:	f29ff06f          	j	f438 <_fclose_r+0x1c>

0000f514 <fclose>:
    f514:	7fff3797          	auipc	a5,0x7fff3
    f518:	85878793          	addi	a5,a5,-1960 # 80001d6c <_impure_ptr>
    f51c:	00050593          	mv	a1,a0
    f520:	0007a503          	lw	a0,0(a5)
    f524:	00000317          	auipc	t1,0x0
    f528:	ef830067          	jr	-264(t1) # f41c <_fclose_r>

0000f52c <_fstat_r>:
    f52c:	ff010113          	addi	sp,sp,-16
    f530:	00812423          	sw	s0,8(sp)
    f534:	00050413          	mv	s0,a0
    f538:	00058513          	mv	a0,a1
    f53c:	00060593          	mv	a1,a2
    f540:	7fff3797          	auipc	a5,0x7fff3
    f544:	9207ac23          	sw	zero,-1736(a5) # 80001e78 <errno>
    f548:	00112623          	sw	ra,12(sp)
    f54c:	00000097          	auipc	ra,0x0
    f550:	1d4080e7          	jalr	468(ra) # f720 <_fstat>
    f554:	fff00793          	li	a5,-1
    f558:	00f51c63          	bne	a0,a5,f570 <_fstat_r+0x44>
    f55c:	7fff3797          	auipc	a5,0x7fff3
    f560:	91c78793          	addi	a5,a5,-1764 # 80001e78 <errno>
    f564:	0007a783          	lw	a5,0(a5)
    f568:	00078463          	beqz	a5,f570 <_fstat_r+0x44>
    f56c:	00f42023          	sw	a5,0(s0)
    f570:	00c12083          	lw	ra,12(sp)
    f574:	00812403          	lw	s0,8(sp)
    f578:	01010113          	addi	sp,sp,16
    f57c:	00008067          	ret

0000f580 <_isatty_r>:
    f580:	ff010113          	addi	sp,sp,-16
    f584:	00812423          	sw	s0,8(sp)
    f588:	00050413          	mv	s0,a0
    f58c:	00058513          	mv	a0,a1
    f590:	7fff3797          	auipc	a5,0x7fff3
    f594:	8e07a423          	sw	zero,-1816(a5) # 80001e78 <errno>
    f598:	00112623          	sw	ra,12(sp)
    f59c:	00000097          	auipc	ra,0x0
    f5a0:	200080e7          	jalr	512(ra) # f79c <_isatty>
    f5a4:	fff00793          	li	a5,-1
    f5a8:	00f51c63          	bne	a0,a5,f5c0 <_isatty_r+0x40>
    f5ac:	7fff3797          	auipc	a5,0x7fff3
    f5b0:	8cc78793          	addi	a5,a5,-1844 # 80001e78 <errno>
    f5b4:	0007a783          	lw	a5,0(a5)
    f5b8:	00078463          	beqz	a5,f5c0 <_isatty_r+0x40>
    f5bc:	00f42023          	sw	a5,0(s0)
    f5c0:	00c12083          	lw	ra,12(sp)
    f5c4:	00812403          	lw	s0,8(sp)
    f5c8:	01010113          	addi	sp,sp,16
    f5cc:	00008067          	ret

0000f5d0 <_lseek_r>:
    f5d0:	ff010113          	addi	sp,sp,-16
    f5d4:	00812423          	sw	s0,8(sp)
    f5d8:	00050413          	mv	s0,a0
    f5dc:	00058513          	mv	a0,a1
    f5e0:	00060593          	mv	a1,a2
    f5e4:	00068613          	mv	a2,a3
    f5e8:	7fff3797          	auipc	a5,0x7fff3
    f5ec:	8807a823          	sw	zero,-1904(a5) # 80001e78 <errno>
    f5f0:	00112623          	sw	ra,12(sp)
    f5f4:	00000097          	auipc	ra,0x0
    f5f8:	20c080e7          	jalr	524(ra) # f800 <_lseek>
    f5fc:	fff00793          	li	a5,-1
    f600:	00f51c63          	bne	a0,a5,f618 <_lseek_r+0x48>
    f604:	7fff3797          	auipc	a5,0x7fff3
    f608:	87478793          	addi	a5,a5,-1932 # 80001e78 <errno>
    f60c:	0007a783          	lw	a5,0(a5)
    f610:	00078463          	beqz	a5,f618 <_lseek_r+0x48>
    f614:	00f42023          	sw	a5,0(s0)
    f618:	00c12083          	lw	ra,12(sp)
    f61c:	00812403          	lw	s0,8(sp)
    f620:	01010113          	addi	sp,sp,16
    f624:	00008067          	ret

0000f628 <_read_r>:
    f628:	ff010113          	addi	sp,sp,-16
    f62c:	00812423          	sw	s0,8(sp)
    f630:	00050413          	mv	s0,a0
    f634:	00058513          	mv	a0,a1
    f638:	00060593          	mv	a1,a2
    f63c:	00068613          	mv	a2,a3
    f640:	7fff3797          	auipc	a5,0x7fff3
    f644:	8207ac23          	sw	zero,-1992(a5) # 80001e78 <errno>
    f648:	00112623          	sw	ra,12(sp)
    f64c:	00000097          	auipc	ra,0x0
    f650:	204080e7          	jalr	516(ra) # f850 <_read>
    f654:	fff00793          	li	a5,-1
    f658:	00f51c63          	bne	a0,a5,f670 <_read_r+0x48>
    f65c:	7fff3797          	auipc	a5,0x7fff3
    f660:	81c78793          	addi	a5,a5,-2020 # 80001e78 <errno>
    f664:	0007a783          	lw	a5,0(a5)
    f668:	00078463          	beqz	a5,f670 <_read_r+0x48>
    f66c:	00f42023          	sw	a5,0(s0)
    f670:	00c12083          	lw	ra,12(sp)
    f674:	00812403          	lw	s0,8(sp)
    f678:	01010113          	addi	sp,sp,16
    f67c:	00008067          	ret

0000f680 <_close>:
    f680:	ff010113          	addi	sp,sp,-16
    f684:	00112623          	sw	ra,12(sp)
    f688:	00812423          	sw	s0,8(sp)
    f68c:	00000593          	li	a1,0
    f690:	00000613          	li	a2,0
    f694:	00000693          	li	a3,0
    f698:	00000713          	li	a4,0
    f69c:	00000793          	li	a5,0
    f6a0:	03900893          	li	a7,57
    f6a4:	00000073          	ecall
    f6a8:	00050413          	mv	s0,a0
    f6ac:	00055c63          	bgez	a0,f6c4 <_close+0x44>
    f6b0:	40800433          	neg	s0,s0
    f6b4:	ffff6097          	auipc	ra,0xffff6
    f6b8:	dbc080e7          	jalr	-580(ra) # 5470 <__errno>
    f6bc:	00852023          	sw	s0,0(a0)
    f6c0:	fff00413          	li	s0,-1
    f6c4:	00040513          	mv	a0,s0
    f6c8:	00c12083          	lw	ra,12(sp)
    f6cc:	00812403          	lw	s0,8(sp)
    f6d0:	01010113          	addi	sp,sp,16
    f6d4:	00008067          	ret

0000f6d8 <_exit>:
    f6d8:	00000593          	li	a1,0
    f6dc:	00000613          	li	a2,0
    f6e0:	00000693          	li	a3,0
    f6e4:	00000713          	li	a4,0
    f6e8:	00000793          	li	a5,0
    f6ec:	05d00893          	li	a7,93
    f6f0:	00000073          	ecall
    f6f4:	02055463          	bgez	a0,f71c <_exit+0x44>
    f6f8:	ff010113          	addi	sp,sp,-16
    f6fc:	00812423          	sw	s0,8(sp)
    f700:	00050413          	mv	s0,a0
    f704:	00112623          	sw	ra,12(sp)
    f708:	40800433          	neg	s0,s0
    f70c:	ffff6097          	auipc	ra,0xffff6
    f710:	d64080e7          	jalr	-668(ra) # 5470 <__errno>
    f714:	00852023          	sw	s0,0(a0)
    f718:	0000006f          	j	f718 <_exit+0x40>
    f71c:	0000006f          	j	f71c <_exit+0x44>

0000f720 <_fstat>:
    f720:	f7010113          	addi	sp,sp,-144
    f724:	08912223          	sw	s1,132(sp)
    f728:	08112623          	sw	ra,140(sp)
    f72c:	00058493          	mv	s1,a1
    f730:	08812423          	sw	s0,136(sp)
    f734:	00010593          	mv	a1,sp
    f738:	00000613          	li	a2,0
    f73c:	00000693          	li	a3,0
    f740:	00000713          	li	a4,0
    f744:	00000793          	li	a5,0
    f748:	05000893          	li	a7,80
    f74c:	00000073          	ecall
    f750:	00050413          	mv	s0,a0
    f754:	00055c63          	bgez	a0,f76c <_fstat+0x4c>
    f758:	40800433          	neg	s0,s0
    f75c:	ffff6097          	auipc	ra,0xffff6
    f760:	d14080e7          	jalr	-748(ra) # 5470 <__errno>
    f764:	00852023          	sw	s0,0(a0)
    f768:	fff00413          	li	s0,-1
    f76c:	00048513          	mv	a0,s1
    f770:	00010593          	mv	a1,sp
    f774:	00000097          	auipc	ra,0x0
    f778:	25c080e7          	jalr	604(ra) # f9d0 <_conv_stat>
    f77c:	00040513          	mv	a0,s0
    f780:	08c12083          	lw	ra,140(sp)
    f784:	08812403          	lw	s0,136(sp)
    f788:	08412483          	lw	s1,132(sp)
    f78c:	09010113          	addi	sp,sp,144
    f790:	00008067          	ret

0000f794 <_getpid>:
    f794:	00100513          	li	a0,1
    f798:	00008067          	ret

0000f79c <_isatty>:
    f79c:	f9010113          	addi	sp,sp,-112
    f7a0:	00810593          	addi	a1,sp,8
    f7a4:	06112623          	sw	ra,108(sp)
    f7a8:	00000097          	auipc	ra,0x0
    f7ac:	f78080e7          	jalr	-136(ra) # f720 <_fstat>
    f7b0:	fff00793          	li	a5,-1
    f7b4:	00f50e63          	beq	a0,a5,f7d0 <_isatty+0x34>
    f7b8:	00c12503          	lw	a0,12(sp)
    f7bc:	00d55513          	srli	a0,a0,0xd
    f7c0:	00157513          	andi	a0,a0,1
    f7c4:	06c12083          	lw	ra,108(sp)
    f7c8:	07010113          	addi	sp,sp,112
    f7cc:	00008067          	ret
    f7d0:	00000513          	li	a0,0
    f7d4:	ff1ff06f          	j	f7c4 <_isatty+0x28>

0000f7d8 <_kill>:
    f7d8:	ff010113          	addi	sp,sp,-16
    f7dc:	00112623          	sw	ra,12(sp)
    f7e0:	ffff6097          	auipc	ra,0xffff6
    f7e4:	c90080e7          	jalr	-880(ra) # 5470 <__errno>
    f7e8:	00c12083          	lw	ra,12(sp)
    f7ec:	01600793          	li	a5,22
    f7f0:	00f52023          	sw	a5,0(a0)
    f7f4:	fff00513          	li	a0,-1
    f7f8:	01010113          	addi	sp,sp,16
    f7fc:	00008067          	ret

0000f800 <_lseek>:
    f800:	ff010113          	addi	sp,sp,-16
    f804:	00112623          	sw	ra,12(sp)
    f808:	00812423          	sw	s0,8(sp)
    f80c:	00000693          	li	a3,0
    f810:	00000713          	li	a4,0
    f814:	00000793          	li	a5,0
    f818:	03e00893          	li	a7,62
    f81c:	00000073          	ecall
    f820:	00050413          	mv	s0,a0
    f824:	00055c63          	bgez	a0,f83c <_lseek+0x3c>
    f828:	40800433          	neg	s0,s0
    f82c:	ffff6097          	auipc	ra,0xffff6
    f830:	c44080e7          	jalr	-956(ra) # 5470 <__errno>
    f834:	00852023          	sw	s0,0(a0)
    f838:	fff00413          	li	s0,-1
    f83c:	00040513          	mv	a0,s0
    f840:	00c12083          	lw	ra,12(sp)
    f844:	00812403          	lw	s0,8(sp)
    f848:	01010113          	addi	sp,sp,16
    f84c:	00008067          	ret

0000f850 <_read>:
    f850:	ff010113          	addi	sp,sp,-16
    f854:	00112623          	sw	ra,12(sp)
    f858:	00812423          	sw	s0,8(sp)
    f85c:	00000693          	li	a3,0
    f860:	00000713          	li	a4,0
    f864:	00000793          	li	a5,0
    f868:	03f00893          	li	a7,63
    f86c:	00000073          	ecall
    f870:	00050413          	mv	s0,a0
    f874:	00055c63          	bgez	a0,f88c <_read+0x3c>
    f878:	40800433          	neg	s0,s0
    f87c:	ffff6097          	auipc	ra,0xffff6
    f880:	bf4080e7          	jalr	-1036(ra) # 5470 <__errno>
    f884:	00852023          	sw	s0,0(a0)
    f888:	fff00413          	li	s0,-1
    f88c:	00040513          	mv	a0,s0
    f890:	00c12083          	lw	ra,12(sp)
    f894:	00812403          	lw	s0,8(sp)
    f898:	01010113          	addi	sp,sp,16
    f89c:	00008067          	ret

0000f8a0 <_sbrk>:
    f8a0:	ff010113          	addi	sp,sp,-16
    f8a4:	00912223          	sw	s1,4(sp)
    f8a8:	7fff2497          	auipc	s1,0x7fff2
    f8ac:	4e448493          	addi	s1,s1,1252 # 80001d8c <heap_end.1852>
    f8b0:	0004a783          	lw	a5,0(s1)
    f8b4:	01212023          	sw	s2,0(sp)
    f8b8:	00112623          	sw	ra,12(sp)
    f8bc:	00812423          	sw	s0,8(sp)
    f8c0:	00050913          	mv	s2,a0
    f8c4:	04079e63          	bnez	a5,f920 <_sbrk+0x80>
    f8c8:	00000513          	li	a0,0
    f8cc:	00000593          	li	a1,0
    f8d0:	00000613          	li	a2,0
    f8d4:	00000693          	li	a3,0
    f8d8:	00000713          	li	a4,0
    f8dc:	0d600893          	li	a7,214
    f8e0:	00000073          	ecall
    f8e4:	00050413          	mv	s0,a0
    f8e8:	02055863          	bgez	a0,f918 <_sbrk+0x78>
    f8ec:	ffff6097          	auipc	ra,0xffff6
    f8f0:	b84080e7          	jalr	-1148(ra) # 5470 <__errno>
    f8f4:	40800433          	neg	s0,s0
    f8f8:	00852023          	sw	s0,0(a0)
    f8fc:	fff00513          	li	a0,-1
    f900:	00c12083          	lw	ra,12(sp)
    f904:	00812403          	lw	s0,8(sp)
    f908:	00412483          	lw	s1,4(sp)
    f90c:	00012903          	lw	s2,0(sp)
    f910:	01010113          	addi	sp,sp,16
    f914:	00008067          	ret
    f918:	7fff2797          	auipc	a5,0x7fff2
    f91c:	46a7aa23          	sw	a0,1140(a5) # 80001d8c <heap_end.1852>
    f920:	0004a503          	lw	a0,0(s1)
    f924:	00000593          	li	a1,0
    f928:	00000613          	li	a2,0
    f92c:	00a90533          	add	a0,s2,a0
    f930:	00000693          	li	a3,0
    f934:	00000713          	li	a4,0
    f938:	00000793          	li	a5,0
    f93c:	0d600893          	li	a7,214
    f940:	00000073          	ecall
    f944:	00050413          	mv	s0,a0
    f948:	00055c63          	bgez	a0,f960 <_sbrk+0xc0>
    f94c:	40800433          	neg	s0,s0
    f950:	ffff6097          	auipc	ra,0xffff6
    f954:	b20080e7          	jalr	-1248(ra) # 5470 <__errno>
    f958:	00852023          	sw	s0,0(a0)
    f95c:	fff00413          	li	s0,-1
    f960:	0004a783          	lw	a5,0(s1)
    f964:	fff00513          	li	a0,-1
    f968:	00f90933          	add	s2,s2,a5
    f96c:	f9241ae3          	bne	s0,s2,f900 <_sbrk+0x60>
    f970:	7fff2717          	auipc	a4,0x7fff2
    f974:	40872e23          	sw	s0,1052(a4) # 80001d8c <heap_end.1852>
    f978:	00078513          	mv	a0,a5
    f97c:	f85ff06f          	j	f900 <_sbrk+0x60>

0000f980 <_write>:
    f980:	ff010113          	addi	sp,sp,-16
    f984:	00112623          	sw	ra,12(sp)
    f988:	00812423          	sw	s0,8(sp)
    f98c:	00000693          	li	a3,0
    f990:	00000713          	li	a4,0
    f994:	00000793          	li	a5,0
    f998:	04000893          	li	a7,64
    f99c:	00000073          	ecall
    f9a0:	00050413          	mv	s0,a0
    f9a4:	00055c63          	bgez	a0,f9bc <_write+0x3c>
    f9a8:	40800433          	neg	s0,s0
    f9ac:	ffff6097          	auipc	ra,0xffff6
    f9b0:	ac4080e7          	jalr	-1340(ra) # 5470 <__errno>
    f9b4:	00852023          	sw	s0,0(a0)
    f9b8:	fff00413          	li	s0,-1
    f9bc:	00040513          	mv	a0,s0
    f9c0:	00c12083          	lw	ra,12(sp)
    f9c4:	00812403          	lw	s0,8(sp)
    f9c8:	01010113          	addi	sp,sp,16
    f9cc:	00008067          	ret

0000f9d0 <_conv_stat>:
    f9d0:	0005a783          	lw	a5,0(a1)
    f9d4:	0485a703          	lw	a4,72(a1)
    f9d8:	00f51023          	sh	a5,0(a0)
    f9dc:	0085a783          	lw	a5,8(a1)
    f9e0:	00f51123          	sh	a5,2(a0)
    f9e4:	0105a783          	lw	a5,16(a1)
    f9e8:	00f52223          	sw	a5,4(a0)
    f9ec:	0145a783          	lw	a5,20(a1)
    f9f0:	00f51423          	sh	a5,8(a0)
    f9f4:	0185a783          	lw	a5,24(a1)
    f9f8:	00f51523          	sh	a5,10(a0)
    f9fc:	01c5a783          	lw	a5,28(a1)
    fa00:	00f51623          	sh	a5,12(a0)
    fa04:	0205a783          	lw	a5,32(a1)
    fa08:	00f51723          	sh	a5,14(a0)
    fa0c:	0305a783          	lw	a5,48(a1)
    fa10:	00f52823          	sw	a5,16(a0)
    fa14:	0405a783          	lw	a5,64(a1)
    fa18:	04f52423          	sw	a5,72(a0)
    fa1c:	0385a783          	lw	a5,56(a1)
    fa20:	04f52223          	sw	a5,68(a0)
    fa24:	04c5a783          	lw	a5,76(a1)
    fa28:	00e52c23          	sw	a4,24(a0)
    fa2c:	0585a703          	lw	a4,88(a1)
    fa30:	00f52e23          	sw	a5,28(a0)
    fa34:	05c5a783          	lw	a5,92(a1)
    fa38:	02e52423          	sw	a4,40(a0)
    fa3c:	0685a703          	lw	a4,104(a1)
    fa40:	02f52623          	sw	a5,44(a0)
    fa44:	06c5a783          	lw	a5,108(a1)
    fa48:	02e52c23          	sw	a4,56(a0)
    fa4c:	02f52e23          	sw	a5,60(a0)
    fa50:	00008067          	ret

0000fa54 <__udivdi3>:
    fa54:	00058793          	mv	a5,a1
    fa58:	00060813          	mv	a6,a2
    fa5c:	00068713          	mv	a4,a3
    fa60:	00050313          	mv	t1,a0
    fa64:	28069663          	bnez	a3,fcf0 <__udivdi3+0x29c>
    fa68:	7fff1897          	auipc	a7,0x7fff1
    fa6c:	e1888893          	addi	a7,a7,-488 # 80000880 <__clz_tab>
    fa70:	0ec5f663          	bgeu	a1,a2,fb5c <__udivdi3+0x108>
    fa74:	00010737          	lui	a4,0x10
    fa78:	0ce67863          	bgeu	a2,a4,fb48 <__udivdi3+0xf4>
    fa7c:	0ff00713          	li	a4,255
    fa80:	00c73733          	sltu	a4,a4,a2
    fa84:	00371713          	slli	a4,a4,0x3
    fa88:	00e656b3          	srl	a3,a2,a4
    fa8c:	00d888b3          	add	a7,a7,a3
    fa90:	0008c683          	lbu	a3,0(a7)
    fa94:	00e68733          	add	a4,a3,a4
    fa98:	02000693          	li	a3,32
    fa9c:	40e686b3          	sub	a3,a3,a4
    faa0:	00068c63          	beqz	a3,fab8 <__udivdi3+0x64>
    faa4:	00d797b3          	sll	a5,a5,a3
    faa8:	00e55733          	srl	a4,a0,a4
    faac:	00d61833          	sll	a6,a2,a3
    fab0:	00f765b3          	or	a1,a4,a5
    fab4:	00d51333          	sll	t1,a0,a3
    fab8:	01085513          	srli	a0,a6,0x10
    fabc:	02a5f733          	remu	a4,a1,a0
    fac0:	01081613          	slli	a2,a6,0x10
    fac4:	01065613          	srli	a2,a2,0x10
    fac8:	01035693          	srli	a3,t1,0x10
    facc:	02a5d5b3          	divu	a1,a1,a0
    fad0:	01071713          	slli	a4,a4,0x10
    fad4:	00d766b3          	or	a3,a4,a3
    fad8:	02b607b3          	mul	a5,a2,a1
    fadc:	00058713          	mv	a4,a1
    fae0:	00f6fe63          	bgeu	a3,a5,fafc <__udivdi3+0xa8>
    fae4:	010686b3          	add	a3,a3,a6
    fae8:	fff58713          	addi	a4,a1,-1
    faec:	0106e863          	bltu	a3,a6,fafc <__udivdi3+0xa8>
    faf0:	00f6f663          	bgeu	a3,a5,fafc <__udivdi3+0xa8>
    faf4:	ffe58713          	addi	a4,a1,-2
    faf8:	010686b3          	add	a3,a3,a6
    fafc:	40f686b3          	sub	a3,a3,a5
    fb00:	02a6f7b3          	remu	a5,a3,a0
    fb04:	01031313          	slli	t1,t1,0x10
    fb08:	01035313          	srli	t1,t1,0x10
    fb0c:	02a6d6b3          	divu	a3,a3,a0
    fb10:	01079793          	slli	a5,a5,0x10
    fb14:	0067e333          	or	t1,a5,t1
    fb18:	02d605b3          	mul	a1,a2,a3
    fb1c:	00068513          	mv	a0,a3
    fb20:	00b37c63          	bgeu	t1,a1,fb38 <__udivdi3+0xe4>
    fb24:	00680333          	add	t1,a6,t1
    fb28:	fff68513          	addi	a0,a3,-1
    fb2c:	01036663          	bltu	t1,a6,fb38 <__udivdi3+0xe4>
    fb30:	00b37463          	bgeu	t1,a1,fb38 <__udivdi3+0xe4>
    fb34:	ffe68513          	addi	a0,a3,-2
    fb38:	01071713          	slli	a4,a4,0x10
    fb3c:	00a76733          	or	a4,a4,a0
    fb40:	00000593          	li	a1,0
    fb44:	0e40006f          	j	fc28 <__udivdi3+0x1d4>
    fb48:	010006b7          	lui	a3,0x1000
    fb4c:	01000713          	li	a4,16
    fb50:	f2d66ce3          	bltu	a2,a3,fa88 <__udivdi3+0x34>
    fb54:	01800713          	li	a4,24
    fb58:	f31ff06f          	j	fa88 <__udivdi3+0x34>
    fb5c:	00061663          	bnez	a2,fb68 <__udivdi3+0x114>
    fb60:	00100693          	li	a3,1
    fb64:	02c6d833          	divu	a6,a3,a2
    fb68:	000106b7          	lui	a3,0x10
    fb6c:	0cd87263          	bgeu	a6,a3,fc30 <__udivdi3+0x1dc>
    fb70:	0ff00693          	li	a3,255
    fb74:	0106f463          	bgeu	a3,a6,fb7c <__udivdi3+0x128>
    fb78:	00800713          	li	a4,8
    fb7c:	00e856b3          	srl	a3,a6,a4
    fb80:	00d888b3          	add	a7,a7,a3
    fb84:	0008c683          	lbu	a3,0(a7)
    fb88:	00e686b3          	add	a3,a3,a4
    fb8c:	02000713          	li	a4,32
    fb90:	40d70733          	sub	a4,a4,a3
    fb94:	0a071863          	bnez	a4,fc44 <__udivdi3+0x1f0>
    fb98:	410787b3          	sub	a5,a5,a6
    fb9c:	00100593          	li	a1,1
    fba0:	01085613          	srli	a2,a6,0x10
    fba4:	01081893          	slli	a7,a6,0x10
    fba8:	0108d893          	srli	a7,a7,0x10
    fbac:	01035693          	srli	a3,t1,0x10
    fbb0:	02c7f733          	remu	a4,a5,a2
    fbb4:	02c7d7b3          	divu	a5,a5,a2
    fbb8:	01071713          	slli	a4,a4,0x10
    fbbc:	00d766b3          	or	a3,a4,a3
    fbc0:	02f88533          	mul	a0,a7,a5
    fbc4:	00078713          	mv	a4,a5
    fbc8:	00a6fe63          	bgeu	a3,a0,fbe4 <__udivdi3+0x190>
    fbcc:	010686b3          	add	a3,a3,a6
    fbd0:	fff78713          	addi	a4,a5,-1
    fbd4:	0106e863          	bltu	a3,a6,fbe4 <__udivdi3+0x190>
    fbd8:	00a6f663          	bgeu	a3,a0,fbe4 <__udivdi3+0x190>
    fbdc:	ffe78713          	addi	a4,a5,-2
    fbe0:	010686b3          	add	a3,a3,a6
    fbe4:	40a686b3          	sub	a3,a3,a0
    fbe8:	02c6f7b3          	remu	a5,a3,a2
    fbec:	01031313          	slli	t1,t1,0x10
    fbf0:	01035313          	srli	t1,t1,0x10
    fbf4:	02c6d6b3          	divu	a3,a3,a2
    fbf8:	01079793          	slli	a5,a5,0x10
    fbfc:	0067e333          	or	t1,a5,t1
    fc00:	02d888b3          	mul	a7,a7,a3
    fc04:	00068513          	mv	a0,a3
    fc08:	01137c63          	bgeu	t1,a7,fc20 <__udivdi3+0x1cc>
    fc0c:	00680333          	add	t1,a6,t1
    fc10:	fff68513          	addi	a0,a3,-1 # ffff <__umoddi3+0x177>
    fc14:	01036663          	bltu	t1,a6,fc20 <__udivdi3+0x1cc>
    fc18:	01137463          	bgeu	t1,a7,fc20 <__udivdi3+0x1cc>
    fc1c:	ffe68513          	addi	a0,a3,-2
    fc20:	01071713          	slli	a4,a4,0x10
    fc24:	00a76733          	or	a4,a4,a0
    fc28:	00070513          	mv	a0,a4
    fc2c:	00008067          	ret
    fc30:	010006b7          	lui	a3,0x1000
    fc34:	01000713          	li	a4,16
    fc38:	f4d862e3          	bltu	a6,a3,fb7c <__udivdi3+0x128>
    fc3c:	01800713          	li	a4,24
    fc40:	f3dff06f          	j	fb7c <__udivdi3+0x128>
    fc44:	00e81833          	sll	a6,a6,a4
    fc48:	00d7d5b3          	srl	a1,a5,a3
    fc4c:	00e51333          	sll	t1,a0,a4
    fc50:	00d556b3          	srl	a3,a0,a3
    fc54:	01085513          	srli	a0,a6,0x10
    fc58:	00e797b3          	sll	a5,a5,a4
    fc5c:	02a5f733          	remu	a4,a1,a0
    fc60:	00f6e8b3          	or	a7,a3,a5
    fc64:	01081793          	slli	a5,a6,0x10
    fc68:	0107d793          	srli	a5,a5,0x10
    fc6c:	0108d613          	srli	a2,a7,0x10
    fc70:	02a5d5b3          	divu	a1,a1,a0
    fc74:	01071713          	slli	a4,a4,0x10
    fc78:	00c76733          	or	a4,a4,a2
    fc7c:	02b786b3          	mul	a3,a5,a1
    fc80:	00058613          	mv	a2,a1
    fc84:	00d77e63          	bgeu	a4,a3,fca0 <__udivdi3+0x24c>
    fc88:	01070733          	add	a4,a4,a6
    fc8c:	fff58613          	addi	a2,a1,-1
    fc90:	01076863          	bltu	a4,a6,fca0 <__udivdi3+0x24c>
    fc94:	00d77663          	bgeu	a4,a3,fca0 <__udivdi3+0x24c>
    fc98:	ffe58613          	addi	a2,a1,-2
    fc9c:	01070733          	add	a4,a4,a6
    fca0:	40d706b3          	sub	a3,a4,a3
    fca4:	02a6f733          	remu	a4,a3,a0
    fca8:	01089893          	slli	a7,a7,0x10
    fcac:	0108d893          	srli	a7,a7,0x10
    fcb0:	02a6d6b3          	divu	a3,a3,a0
    fcb4:	01071713          	slli	a4,a4,0x10
    fcb8:	02d785b3          	mul	a1,a5,a3
    fcbc:	011767b3          	or	a5,a4,a7
    fcc0:	00068713          	mv	a4,a3
    fcc4:	00b7fe63          	bgeu	a5,a1,fce0 <__udivdi3+0x28c>
    fcc8:	010787b3          	add	a5,a5,a6
    fccc:	fff68713          	addi	a4,a3,-1 # ffffff <__trunctfdf2+0xfecf9f>
    fcd0:	0107e863          	bltu	a5,a6,fce0 <__udivdi3+0x28c>
    fcd4:	00b7f663          	bgeu	a5,a1,fce0 <__udivdi3+0x28c>
    fcd8:	ffe68713          	addi	a4,a3,-2
    fcdc:	010787b3          	add	a5,a5,a6
    fce0:	40b787b3          	sub	a5,a5,a1
    fce4:	01061593          	slli	a1,a2,0x10
    fce8:	00e5e5b3          	or	a1,a1,a4
    fcec:	eb5ff06f          	j	fba0 <__udivdi3+0x14c>
    fcf0:	18d5e663          	bltu	a1,a3,fe7c <__udivdi3+0x428>
    fcf4:	00010737          	lui	a4,0x10
    fcf8:	04e6f463          	bgeu	a3,a4,fd40 <__udivdi3+0x2ec>
    fcfc:	0ff00813          	li	a6,255
    fd00:	00d83733          	sltu	a4,a6,a3
    fd04:	00371713          	slli	a4,a4,0x3
    fd08:	00e6d833          	srl	a6,a3,a4
    fd0c:	7fff1597          	auipc	a1,0x7fff1
    fd10:	b7458593          	addi	a1,a1,-1164 # 80000880 <__clz_tab>
    fd14:	010585b3          	add	a1,a1,a6
    fd18:	0005c803          	lbu	a6,0(a1)
    fd1c:	02000593          	li	a1,32
    fd20:	00e80833          	add	a6,a6,a4
    fd24:	410585b3          	sub	a1,a1,a6
    fd28:	02059663          	bnez	a1,fd54 <__udivdi3+0x300>
    fd2c:	00100713          	li	a4,1
    fd30:	eef6ece3          	bltu	a3,a5,fc28 <__udivdi3+0x1d4>
    fd34:	00c53533          	sltu	a0,a0,a2
    fd38:	00154713          	xori	a4,a0,1
    fd3c:	eedff06f          	j	fc28 <__udivdi3+0x1d4>
    fd40:	010005b7          	lui	a1,0x1000
    fd44:	01000713          	li	a4,16
    fd48:	fcb6e0e3          	bltu	a3,a1,fd08 <__udivdi3+0x2b4>
    fd4c:	01800713          	li	a4,24
    fd50:	fb9ff06f          	j	fd08 <__udivdi3+0x2b4>
    fd54:	01065733          	srl	a4,a2,a6
    fd58:	00b696b3          	sll	a3,a3,a1
    fd5c:	00d766b3          	or	a3,a4,a3
    fd60:	0106de93          	srli	t4,a3,0x10
    fd64:	0107d733          	srl	a4,a5,a6
    fd68:	03d778b3          	remu	a7,a4,t4
    fd6c:	00b797b3          	sll	a5,a5,a1
    fd70:	01055833          	srl	a6,a0,a6
    fd74:	00f86333          	or	t1,a6,a5
    fd78:	01069793          	slli	a5,a3,0x10
    fd7c:	0107d793          	srli	a5,a5,0x10
    fd80:	01035813          	srli	a6,t1,0x10
    fd84:	00b61633          	sll	a2,a2,a1
    fd88:	03d75733          	divu	a4,a4,t4
    fd8c:	01089893          	slli	a7,a7,0x10
    fd90:	0108e833          	or	a6,a7,a6
    fd94:	02e78f33          	mul	t5,a5,a4
    fd98:	00070e13          	mv	t3,a4
    fd9c:	01e87e63          	bgeu	a6,t5,fdb8 <__udivdi3+0x364>
    fda0:	00d80833          	add	a6,a6,a3
    fda4:	fff70e13          	addi	t3,a4,-1 # ffff <__umoddi3+0x177>
    fda8:	00d86863          	bltu	a6,a3,fdb8 <__udivdi3+0x364>
    fdac:	01e87663          	bgeu	a6,t5,fdb8 <__udivdi3+0x364>
    fdb0:	ffe70e13          	addi	t3,a4,-2
    fdb4:	00d80833          	add	a6,a6,a3
    fdb8:	41e80833          	sub	a6,a6,t5
    fdbc:	03d878b3          	remu	a7,a6,t4
    fdc0:	03d85833          	divu	a6,a6,t4
    fdc4:	01089893          	slli	a7,a7,0x10
    fdc8:	03078eb3          	mul	t4,a5,a6
    fdcc:	01031793          	slli	a5,t1,0x10
    fdd0:	0107d793          	srli	a5,a5,0x10
    fdd4:	00f8e7b3          	or	a5,a7,a5
    fdd8:	00080713          	mv	a4,a6
    fddc:	01d7fe63          	bgeu	a5,t4,fdf8 <__udivdi3+0x3a4>
    fde0:	00d787b3          	add	a5,a5,a3
    fde4:	fff80713          	addi	a4,a6,-1
    fde8:	00d7e863          	bltu	a5,a3,fdf8 <__udivdi3+0x3a4>
    fdec:	01d7f663          	bgeu	a5,t4,fdf8 <__udivdi3+0x3a4>
    fdf0:	ffe80713          	addi	a4,a6,-2
    fdf4:	00d787b3          	add	a5,a5,a3
    fdf8:	010e1e13          	slli	t3,t3,0x10
    fdfc:	41d787b3          	sub	a5,a5,t4
    fe00:	00010eb7          	lui	t4,0x10
    fe04:	00ee6733          	or	a4,t3,a4
    fe08:	fffe8813          	addi	a6,t4,-1 # ffff <__umoddi3+0x177>
    fe0c:	01077333          	and	t1,a4,a6
    fe10:	01075893          	srli	a7,a4,0x10
    fe14:	01067833          	and	a6,a2,a6
    fe18:	01065613          	srli	a2,a2,0x10
    fe1c:	03030e33          	mul	t3,t1,a6
    fe20:	03088833          	mul	a6,a7,a6
    fe24:	010e5693          	srli	a3,t3,0x10
    fe28:	02c30333          	mul	t1,t1,a2
    fe2c:	01030333          	add	t1,t1,a6
    fe30:	006686b3          	add	a3,a3,t1
    fe34:	02c888b3          	mul	a7,a7,a2
    fe38:	0106f463          	bgeu	a3,a6,fe40 <__udivdi3+0x3ec>
    fe3c:	01d888b3          	add	a7,a7,t4
    fe40:	0106d613          	srli	a2,a3,0x10
    fe44:	011608b3          	add	a7,a2,a7
    fe48:	0317e663          	bltu	a5,a7,fe74 <__udivdi3+0x420>
    fe4c:	cf179ae3          	bne	a5,a7,fb40 <__udivdi3+0xec>
    fe50:	000107b7          	lui	a5,0x10
    fe54:	fff78793          	addi	a5,a5,-1 # ffff <__umoddi3+0x177>
    fe58:	00f6f6b3          	and	a3,a3,a5
    fe5c:	01069693          	slli	a3,a3,0x10
    fe60:	00fe7e33          	and	t3,t3,a5
    fe64:	00b51533          	sll	a0,a0,a1
    fe68:	01c686b3          	add	a3,a3,t3
    fe6c:	00000593          	li	a1,0
    fe70:	dad57ce3          	bgeu	a0,a3,fc28 <__udivdi3+0x1d4>
    fe74:	fff70713          	addi	a4,a4,-1
    fe78:	cc9ff06f          	j	fb40 <__udivdi3+0xec>
    fe7c:	00000593          	li	a1,0
    fe80:	00000713          	li	a4,0
    fe84:	da5ff06f          	j	fc28 <__udivdi3+0x1d4>

0000fe88 <__umoddi3>:
    fe88:	00060893          	mv	a7,a2
    fe8c:	00068713          	mv	a4,a3
    fe90:	00050793          	mv	a5,a0
    fe94:	00058813          	mv	a6,a1
    fe98:	22069c63          	bnez	a3,100d0 <__umoddi3+0x248>
    fe9c:	7fff1697          	auipc	a3,0x7fff1
    fea0:	9e468693          	addi	a3,a3,-1564 # 80000880 <__clz_tab>
    fea4:	0cc5fc63          	bgeu	a1,a2,ff7c <__umoddi3+0xf4>
    fea8:	00010337          	lui	t1,0x10
    feac:	0a667e63          	bgeu	a2,t1,ff68 <__umoddi3+0xe0>
    feb0:	0ff00313          	li	t1,255
    feb4:	00c37463          	bgeu	t1,a2,febc <__umoddi3+0x34>
    feb8:	00800713          	li	a4,8
    febc:	00e65333          	srl	t1,a2,a4
    fec0:	006686b3          	add	a3,a3,t1
    fec4:	0006ce03          	lbu	t3,0(a3)
    fec8:	02000313          	li	t1,32
    fecc:	00ee0e33          	add	t3,t3,a4
    fed0:	41c30333          	sub	t1,t1,t3
    fed4:	00030c63          	beqz	t1,feec <__umoddi3+0x64>
    fed8:	006595b3          	sll	a1,a1,t1
    fedc:	01c55e33          	srl	t3,a0,t3
    fee0:	006618b3          	sll	a7,a2,t1
    fee4:	00be6833          	or	a6,t3,a1
    fee8:	006517b3          	sll	a5,a0,t1
    feec:	0108d613          	srli	a2,a7,0x10
    fef0:	02c87733          	remu	a4,a6,a2
    fef4:	01089513          	slli	a0,a7,0x10
    fef8:	01055513          	srli	a0,a0,0x10
    fefc:	0107d693          	srli	a3,a5,0x10
    ff00:	02c85833          	divu	a6,a6,a2
    ff04:	01071713          	slli	a4,a4,0x10
    ff08:	00d766b3          	or	a3,a4,a3
    ff0c:	03050833          	mul	a6,a0,a6
    ff10:	0106fa63          	bgeu	a3,a6,ff24 <__umoddi3+0x9c>
    ff14:	011686b3          	add	a3,a3,a7
    ff18:	0116e663          	bltu	a3,a7,ff24 <__umoddi3+0x9c>
    ff1c:	0106f463          	bgeu	a3,a6,ff24 <__umoddi3+0x9c>
    ff20:	011686b3          	add	a3,a3,a7
    ff24:	410686b3          	sub	a3,a3,a6
    ff28:	02c6f733          	remu	a4,a3,a2
    ff2c:	01079793          	slli	a5,a5,0x10
    ff30:	0107d793          	srli	a5,a5,0x10
    ff34:	02c6d6b3          	divu	a3,a3,a2
    ff38:	02d506b3          	mul	a3,a0,a3
    ff3c:	01071513          	slli	a0,a4,0x10
    ff40:	00f567b3          	or	a5,a0,a5
    ff44:	00d7fa63          	bgeu	a5,a3,ff58 <__umoddi3+0xd0>
    ff48:	011787b3          	add	a5,a5,a7
    ff4c:	0117e663          	bltu	a5,a7,ff58 <__umoddi3+0xd0>
    ff50:	00d7f463          	bgeu	a5,a3,ff58 <__umoddi3+0xd0>
    ff54:	011787b3          	add	a5,a5,a7
    ff58:	40d787b3          	sub	a5,a5,a3
    ff5c:	0067d533          	srl	a0,a5,t1
    ff60:	00000593          	li	a1,0
    ff64:	00008067          	ret
    ff68:	01000337          	lui	t1,0x1000
    ff6c:	01000713          	li	a4,16
    ff70:	f46666e3          	bltu	a2,t1,febc <__umoddi3+0x34>
    ff74:	01800713          	li	a4,24
    ff78:	f45ff06f          	j	febc <__umoddi3+0x34>
    ff7c:	00061663          	bnez	a2,ff88 <__umoddi3+0x100>
    ff80:	00100613          	li	a2,1
    ff84:	031658b3          	divu	a7,a2,a7
    ff88:	00010637          	lui	a2,0x10
    ff8c:	0ac8f263          	bgeu	a7,a2,10030 <__umoddi3+0x1a8>
    ff90:	0ff00613          	li	a2,255
    ff94:	01167463          	bgeu	a2,a7,ff9c <__umoddi3+0x114>
    ff98:	00800713          	li	a4,8
    ff9c:	00e8d633          	srl	a2,a7,a4
    ffa0:	00c686b3          	add	a3,a3,a2
    ffa4:	0006ce03          	lbu	t3,0(a3)
    ffa8:	02000313          	li	t1,32
    ffac:	00ee0e33          	add	t3,t3,a4
    ffb0:	41c30333          	sub	t1,t1,t3
    ffb4:	08031863          	bnez	t1,10044 <__umoddi3+0x1bc>
    ffb8:	411585b3          	sub	a1,a1,a7
    ffbc:	0108d713          	srli	a4,a7,0x10
    ffc0:	01089513          	slli	a0,a7,0x10
    ffc4:	01055513          	srli	a0,a0,0x10
    ffc8:	0107d613          	srli	a2,a5,0x10
    ffcc:	02e5f6b3          	remu	a3,a1,a4
    ffd0:	02e5d5b3          	divu	a1,a1,a4
    ffd4:	01069693          	slli	a3,a3,0x10
    ffd8:	00c6e6b3          	or	a3,a3,a2
    ffdc:	02b505b3          	mul	a1,a0,a1
    ffe0:	00b6fa63          	bgeu	a3,a1,fff4 <__umoddi3+0x16c>
    ffe4:	011686b3          	add	a3,a3,a7
    ffe8:	0116e663          	bltu	a3,a7,fff4 <__umoddi3+0x16c>
    ffec:	00b6f463          	bgeu	a3,a1,fff4 <__umoddi3+0x16c>
    fff0:	011686b3          	add	a3,a3,a7
    fff4:	40b685b3          	sub	a1,a3,a1
    fff8:	02e5f6b3          	remu	a3,a1,a4
    fffc:	01079793          	slli	a5,a5,0x10
   10000:	0107d793          	srli	a5,a5,0x10
   10004:	02e5d5b3          	divu	a1,a1,a4
   10008:	02b505b3          	mul	a1,a0,a1
   1000c:	01069513          	slli	a0,a3,0x10
   10010:	00f567b3          	or	a5,a0,a5
   10014:	00b7fa63          	bgeu	a5,a1,10028 <__umoddi3+0x1a0>
   10018:	011787b3          	add	a5,a5,a7
   1001c:	0117e663          	bltu	a5,a7,10028 <__umoddi3+0x1a0>
   10020:	00b7f463          	bgeu	a5,a1,10028 <__umoddi3+0x1a0>
   10024:	011787b3          	add	a5,a5,a7
   10028:	40b787b3          	sub	a5,a5,a1
   1002c:	f31ff06f          	j	ff5c <__umoddi3+0xd4>
   10030:	01000637          	lui	a2,0x1000
   10034:	01000713          	li	a4,16
   10038:	f6c8e2e3          	bltu	a7,a2,ff9c <__umoddi3+0x114>
   1003c:	01800713          	li	a4,24
   10040:	f5dff06f          	j	ff9c <__umoddi3+0x114>
   10044:	006898b3          	sll	a7,a7,t1
   10048:	01c5d733          	srl	a4,a1,t3
   1004c:	006517b3          	sll	a5,a0,t1
   10050:	01c55e33          	srl	t3,a0,t3
   10054:	0108d513          	srli	a0,a7,0x10
   10058:	02a776b3          	remu	a3,a4,a0
   1005c:	006595b3          	sll	a1,a1,t1
   10060:	00be6e33          	or	t3,t3,a1
   10064:	01089593          	slli	a1,a7,0x10
   10068:	0105d593          	srli	a1,a1,0x10
   1006c:	010e5613          	srli	a2,t3,0x10
   10070:	02a75733          	divu	a4,a4,a0
   10074:	01069693          	slli	a3,a3,0x10
   10078:	00c6e6b3          	or	a3,a3,a2
   1007c:	02e58733          	mul	a4,a1,a4
   10080:	00e6fa63          	bgeu	a3,a4,10094 <__umoddi3+0x20c>
   10084:	011686b3          	add	a3,a3,a7
   10088:	0116e663          	bltu	a3,a7,10094 <__umoddi3+0x20c>
   1008c:	00e6f463          	bgeu	a3,a4,10094 <__umoddi3+0x20c>
   10090:	011686b3          	add	a3,a3,a7
   10094:	40e68633          	sub	a2,a3,a4
   10098:	02a676b3          	remu	a3,a2,a0
   1009c:	010e1e13          	slli	t3,t3,0x10
   100a0:	010e5e13          	srli	t3,t3,0x10
   100a4:	02a65633          	divu	a2,a2,a0
   100a8:	01069693          	slli	a3,a3,0x10
   100ac:	02c58633          	mul	a2,a1,a2
   100b0:	01c6e5b3          	or	a1,a3,t3
   100b4:	00c5fa63          	bgeu	a1,a2,100c8 <__umoddi3+0x240>
   100b8:	011585b3          	add	a1,a1,a7
   100bc:	0115e663          	bltu	a1,a7,100c8 <__umoddi3+0x240>
   100c0:	00c5f463          	bgeu	a1,a2,100c8 <__umoddi3+0x240>
   100c4:	011585b3          	add	a1,a1,a7
   100c8:	40c585b3          	sub	a1,a1,a2
   100cc:	ef1ff06f          	j	ffbc <__umoddi3+0x134>
   100d0:	e8d5eae3          	bltu	a1,a3,ff64 <__umoddi3+0xdc>
   100d4:	00010737          	lui	a4,0x10
   100d8:	04e6fc63          	bgeu	a3,a4,10130 <__umoddi3+0x2a8>
   100dc:	0ff00e93          	li	t4,255
   100e0:	00deb733          	sltu	a4,t4,a3
   100e4:	00371713          	slli	a4,a4,0x3
   100e8:	00e6d333          	srl	t1,a3,a4
   100ec:	7fff0897          	auipc	a7,0x7fff0
   100f0:	79488893          	addi	a7,a7,1940 # 80000880 <__clz_tab>
   100f4:	006888b3          	add	a7,a7,t1
   100f8:	0008ce83          	lbu	t4,0(a7)
   100fc:	02000e13          	li	t3,32
   10100:	00ee8eb3          	add	t4,t4,a4
   10104:	41de0e33          	sub	t3,t3,t4
   10108:	020e1e63          	bnez	t3,10144 <__umoddi3+0x2bc>
   1010c:	00b6e463          	bltu	a3,a1,10114 <__umoddi3+0x28c>
   10110:	00c56a63          	bltu	a0,a2,10124 <__umoddi3+0x29c>
   10114:	40c507b3          	sub	a5,a0,a2
   10118:	40d585b3          	sub	a1,a1,a3
   1011c:	00f53533          	sltu	a0,a0,a5
   10120:	40a58833          	sub	a6,a1,a0
   10124:	00078513          	mv	a0,a5
   10128:	00080593          	mv	a1,a6
   1012c:	e39ff06f          	j	ff64 <__umoddi3+0xdc>
   10130:	010008b7          	lui	a7,0x1000
   10134:	01000713          	li	a4,16
   10138:	fb16e8e3          	bltu	a3,a7,100e8 <__umoddi3+0x260>
   1013c:	01800713          	li	a4,24
   10140:	fa9ff06f          	j	100e8 <__umoddi3+0x260>
   10144:	01d65733          	srl	a4,a2,t4
   10148:	01c696b3          	sll	a3,a3,t3
   1014c:	00d766b3          	or	a3,a4,a3
   10150:	0106d813          	srli	a6,a3,0x10
   10154:	01d5d733          	srl	a4,a1,t4
   10158:	03077333          	remu	t1,a4,a6
   1015c:	01c595b3          	sll	a1,a1,t3
   10160:	01d557b3          	srl	a5,a0,t4
   10164:	00b7e7b3          	or	a5,a5,a1
   10168:	01069593          	slli	a1,a3,0x10
   1016c:	0105d593          	srli	a1,a1,0x10
   10170:	0107d893          	srli	a7,a5,0x10
   10174:	01c61633          	sll	a2,a2,t3
   10178:	01c51533          	sll	a0,a0,t3
   1017c:	03075733          	divu	a4,a4,a6
   10180:	01031313          	slli	t1,t1,0x10
   10184:	011368b3          	or	a7,t1,a7
   10188:	02e58f33          	mul	t5,a1,a4
   1018c:	00070313          	mv	t1,a4
   10190:	01e8fe63          	bgeu	a7,t5,101ac <__umoddi3+0x324>
   10194:	00d888b3          	add	a7,a7,a3
   10198:	fff70313          	addi	t1,a4,-1 # ffff <__umoddi3+0x177>
   1019c:	00d8e863          	bltu	a7,a3,101ac <__umoddi3+0x324>
   101a0:	01e8f663          	bgeu	a7,t5,101ac <__umoddi3+0x324>
   101a4:	ffe70313          	addi	t1,a4,-2
   101a8:	00d888b3          	add	a7,a7,a3
   101ac:	41e888b3          	sub	a7,a7,t5
   101b0:	0308ff33          	remu	t5,a7,a6
   101b4:	0308d8b3          	divu	a7,a7,a6
   101b8:	010f1f13          	slli	t5,t5,0x10
   101bc:	03158833          	mul	a6,a1,a7
   101c0:	01079593          	slli	a1,a5,0x10
   101c4:	0105d593          	srli	a1,a1,0x10
   101c8:	00bf65b3          	or	a1,t5,a1
   101cc:	00088793          	mv	a5,a7
   101d0:	0105fe63          	bgeu	a1,a6,101ec <__umoddi3+0x364>
   101d4:	00d585b3          	add	a1,a1,a3
   101d8:	fff88793          	addi	a5,a7,-1 # ffffff <__trunctfdf2+0xfecf9f>
   101dc:	00d5e863          	bltu	a1,a3,101ec <__umoddi3+0x364>
   101e0:	0105f663          	bgeu	a1,a6,101ec <__umoddi3+0x364>
   101e4:	ffe88793          	addi	a5,a7,-2
   101e8:	00d585b3          	add	a1,a1,a3
   101ec:	01031313          	slli	t1,t1,0x10
   101f0:	00010f37          	lui	t5,0x10
   101f4:	00f36333          	or	t1,t1,a5
   101f8:	ffff0793          	addi	a5,t5,-1 # ffff <__umoddi3+0x177>
   101fc:	00f378b3          	and	a7,t1,a5
   10200:	410585b3          	sub	a1,a1,a6
   10204:	01035313          	srli	t1,t1,0x10
   10208:	01065813          	srli	a6,a2,0x10
   1020c:	00f677b3          	and	a5,a2,a5
   10210:	02f88733          	mul	a4,a7,a5
   10214:	02f307b3          	mul	a5,t1,a5
   10218:	030888b3          	mul	a7,a7,a6
   1021c:	03030333          	mul	t1,t1,a6
   10220:	00f888b3          	add	a7,a7,a5
   10224:	01075813          	srli	a6,a4,0x10
   10228:	01180833          	add	a6,a6,a7
   1022c:	00f87463          	bgeu	a6,a5,10234 <__umoddi3+0x3ac>
   10230:	01e30333          	add	t1,t1,t5
   10234:	01085793          	srli	a5,a6,0x10
   10238:	00678333          	add	t1,a5,t1
   1023c:	000107b7          	lui	a5,0x10
   10240:	fff78793          	addi	a5,a5,-1 # ffff <__umoddi3+0x177>
   10244:	00f87833          	and	a6,a6,a5
   10248:	01081813          	slli	a6,a6,0x10
   1024c:	00f77733          	and	a4,a4,a5
   10250:	00e80733          	add	a4,a6,a4
   10254:	0065e663          	bltu	a1,t1,10260 <__umoddi3+0x3d8>
   10258:	00659e63          	bne	a1,t1,10274 <__umoddi3+0x3ec>
   1025c:	00e57c63          	bgeu	a0,a4,10274 <__umoddi3+0x3ec>
   10260:	40c70633          	sub	a2,a4,a2
   10264:	00c73733          	sltu	a4,a4,a2
   10268:	00d70733          	add	a4,a4,a3
   1026c:	40e30333          	sub	t1,t1,a4
   10270:	00060713          	mv	a4,a2
   10274:	40e50733          	sub	a4,a0,a4
   10278:	00e53533          	sltu	a0,a0,a4
   1027c:	406585b3          	sub	a1,a1,t1
   10280:	40a585b3          	sub	a1,a1,a0
   10284:	01d597b3          	sll	a5,a1,t4
   10288:	01c75733          	srl	a4,a4,t3
   1028c:	00e7e533          	or	a0,a5,a4
   10290:	01c5d5b3          	srl	a1,a1,t3
   10294:	cd1ff06f          	j	ff64 <__umoddi3+0xdc>

00010298 <__eqtf2>:
   10298:	00c52783          	lw	a5,12(a0)
   1029c:	0005af03          	lw	t5,0(a1) # 1000000 <__trunctfdf2+0xfecfa0>
   102a0:	0045af83          	lw	t6,4(a1)
   102a4:	0085a283          	lw	t0,8(a1)
   102a8:	00c5a583          	lw	a1,12(a1)
   102ac:	00008737          	lui	a4,0x8
   102b0:	0107d693          	srli	a3,a5,0x10
   102b4:	fff70713          	addi	a4,a4,-1 # 7fff <_svfprintf_r+0x11f7>
   102b8:	01079813          	slli	a6,a5,0x10
   102bc:	01059e93          	slli	t4,a1,0x10
   102c0:	01f7d613          	srli	a2,a5,0x1f
   102c4:	00e6f6b3          	and	a3,a3,a4
   102c8:	0105d793          	srli	a5,a1,0x10
   102cc:	ff010113          	addi	sp,sp,-16
   102d0:	00052883          	lw	a7,0(a0)
   102d4:	00452303          	lw	t1,4(a0)
   102d8:	00852e03          	lw	t3,8(a0)
   102dc:	01085813          	srli	a6,a6,0x10
   102e0:	010ede93          	srli	t4,t4,0x10
   102e4:	00e7f7b3          	and	a5,a5,a4
   102e8:	01f5d593          	srli	a1,a1,0x1f
   102ec:	02e69063          	bne	a3,a4,1030c <__eqtf2+0x74>
   102f0:	0068e733          	or	a4,a7,t1
   102f4:	01c76733          	or	a4,a4,t3
   102f8:	01076733          	or	a4,a4,a6
   102fc:	00100513          	li	a0,1
   10300:	04071a63          	bnez	a4,10354 <__eqtf2+0xbc>
   10304:	04d79863          	bne	a5,a3,10354 <__eqtf2+0xbc>
   10308:	0080006f          	j	10310 <__eqtf2+0x78>
   1030c:	00e79c63          	bne	a5,a4,10324 <__eqtf2+0x8c>
   10310:	01ff6733          	or	a4,t5,t6
   10314:	00576733          	or	a4,a4,t0
   10318:	01d76733          	or	a4,a4,t4
   1031c:	00100513          	li	a0,1
   10320:	02071a63          	bnez	a4,10354 <__eqtf2+0xbc>
   10324:	00100513          	li	a0,1
   10328:	02d79663          	bne	a5,a3,10354 <__eqtf2+0xbc>
   1032c:	03e89463          	bne	a7,t5,10354 <__eqtf2+0xbc>
   10330:	03f31263          	bne	t1,t6,10354 <__eqtf2+0xbc>
   10334:	025e1063          	bne	t3,t0,10354 <__eqtf2+0xbc>
   10338:	01d81e63          	bne	a6,t4,10354 <__eqtf2+0xbc>
   1033c:	02b60063          	beq	a2,a1,1035c <__eqtf2+0xc4>
   10340:	00079a63          	bnez	a5,10354 <__eqtf2+0xbc>
   10344:	0068e533          	or	a0,a7,t1
   10348:	01c56533          	or	a0,a0,t3
   1034c:	01056533          	or	a0,a0,a6
   10350:	00a03533          	snez	a0,a0
   10354:	01010113          	addi	sp,sp,16
   10358:	00008067          	ret
   1035c:	00000513          	li	a0,0
   10360:	ff5ff06f          	j	10354 <__eqtf2+0xbc>

00010364 <__getf2>:
   10364:	00c52783          	lw	a5,12(a0)
   10368:	00c5a603          	lw	a2,12(a1)
   1036c:	0005a283          	lw	t0,0(a1)
   10370:	0045a883          	lw	a7,4(a1)
   10374:	0085af03          	lw	t5,8(a1)
   10378:	000085b7          	lui	a1,0x8
   1037c:	0107d693          	srli	a3,a5,0x10
   10380:	fff58593          	addi	a1,a1,-1 # 7fff <_svfprintf_r+0x11f7>
   10384:	01079313          	slli	t1,a5,0x10
   10388:	01061e13          	slli	t3,a2,0x10
   1038c:	01065713          	srli	a4,a2,0x10
   10390:	00b6f6b3          	and	a3,a3,a1
   10394:	ff010113          	addi	sp,sp,-16
   10398:	00052f83          	lw	t6,0(a0)
   1039c:	00452803          	lw	a6,4(a0)
   103a0:	00852e83          	lw	t4,8(a0)
   103a4:	01035313          	srli	t1,t1,0x10
   103a8:	01f7d793          	srli	a5,a5,0x1f
   103ac:	010e5e13          	srli	t3,t3,0x10
   103b0:	00b77733          	and	a4,a4,a1
   103b4:	01f65613          	srli	a2,a2,0x1f
   103b8:	02b69063          	bne	a3,a1,103d8 <__getf2+0x74>
   103bc:	01f865b3          	or	a1,a6,t6
   103c0:	01d5e5b3          	or	a1,a1,t4
   103c4:	0065e5b3          	or	a1,a1,t1
   103c8:	ffe00513          	li	a0,-2
   103cc:	0c058863          	beqz	a1,1049c <__getf2+0x138>
   103d0:	01010113          	addi	sp,sp,16
   103d4:	00008067          	ret
   103d8:	00b71c63          	bne	a4,a1,103f0 <__getf2+0x8c>
   103dc:	0058e5b3          	or	a1,a7,t0
   103e0:	01e5e5b3          	or	a1,a1,t5
   103e4:	01c5e5b3          	or	a1,a1,t3
   103e8:	ffe00513          	li	a0,-2
   103ec:	fe0592e3          	bnez	a1,103d0 <__getf2+0x6c>
   103f0:	0a069863          	bnez	a3,104a0 <__getf2+0x13c>
   103f4:	01f86533          	or	a0,a6,t6
   103f8:	01d56533          	or	a0,a0,t4
   103fc:	00656533          	or	a0,a0,t1
   10400:	00153513          	seqz	a0,a0
   10404:	00071a63          	bnez	a4,10418 <__getf2+0xb4>
   10408:	0058e5b3          	or	a1,a7,t0
   1040c:	01e5e5b3          	or	a1,a1,t5
   10410:	01c5e5b3          	or	a1,a1,t3
   10414:	06058663          	beqz	a1,10480 <__getf2+0x11c>
   10418:	00051a63          	bnez	a0,1042c <__getf2+0xc8>
   1041c:	00c78e63          	beq	a5,a2,10438 <__getf2+0xd4>
   10420:	00100513          	li	a0,1
   10424:	fa0786e3          	beqz	a5,103d0 <__getf2+0x6c>
   10428:	0080006f          	j	10430 <__getf2+0xcc>
   1042c:	fa0612e3          	bnez	a2,103d0 <__getf2+0x6c>
   10430:	fff00513          	li	a0,-1
   10434:	f9dff06f          	j	103d0 <__getf2+0x6c>
   10438:	fed744e3          	blt	a4,a3,10420 <__getf2+0xbc>
   1043c:	00e6da63          	bge	a3,a4,10450 <__getf2+0xec>
   10440:	fff00513          	li	a0,-1
   10444:	f80786e3          	beqz	a5,103d0 <__getf2+0x6c>
   10448:	00100513          	li	a0,1
   1044c:	f85ff06f          	j	103d0 <__getf2+0x6c>
   10450:	fc6e68e3          	bltu	t3,t1,10420 <__getf2+0xbc>
   10454:	03c31c63          	bne	t1,t3,1048c <__getf2+0x128>
   10458:	fddf64e3          	bltu	t5,t4,10420 <__getf2+0xbc>
   1045c:	03df1c63          	bne	t5,t4,10494 <__getf2+0x130>
   10460:	fd08e0e3          	bltu	a7,a6,10420 <__getf2+0xbc>
   10464:	01089463          	bne	a7,a6,1046c <__getf2+0x108>
   10468:	fbf2ece3          	bltu	t0,t6,10420 <__getf2+0xbc>
   1046c:	fd186ae3          	bltu	a6,a7,10440 <__getf2+0xdc>
   10470:	00000513          	li	a0,0
   10474:	f5089ee3          	bne	a7,a6,103d0 <__getf2+0x6c>
   10478:	f45ffce3          	bgeu	t6,t0,103d0 <__getf2+0x6c>
   1047c:	fc5ff06f          	j	10440 <__getf2+0xdc>
   10480:	fa0500e3          	beqz	a0,10420 <__getf2+0xbc>
   10484:	00000513          	li	a0,0
   10488:	f49ff06f          	j	103d0 <__getf2+0x6c>
   1048c:	fbc36ae3          	bltu	t1,t3,10440 <__getf2+0xdc>
   10490:	ff5ff06f          	j	10484 <__getf2+0x120>
   10494:	fbeee6e3          	bltu	t4,t5,10440 <__getf2+0xdc>
   10498:	fedff06f          	j	10484 <__getf2+0x120>
   1049c:	f4d700e3          	beq	a4,a3,103dc <__getf2+0x78>
   104a0:	f6071ee3          	bnez	a4,1041c <__getf2+0xb8>
   104a4:	00000513          	li	a0,0
   104a8:	f61ff06f          	j	10408 <__getf2+0xa4>

000104ac <__letf2>:
   104ac:	00c52783          	lw	a5,12(a0)
   104b0:	00c5a603          	lw	a2,12(a1)
   104b4:	0005a283          	lw	t0,0(a1)
   104b8:	0045a883          	lw	a7,4(a1)
   104bc:	0085af03          	lw	t5,8(a1)
   104c0:	000085b7          	lui	a1,0x8
   104c4:	0107d693          	srli	a3,a5,0x10
   104c8:	fff58593          	addi	a1,a1,-1 # 7fff <_svfprintf_r+0x11f7>
   104cc:	01079313          	slli	t1,a5,0x10
   104d0:	01061e13          	slli	t3,a2,0x10
   104d4:	01065713          	srli	a4,a2,0x10
   104d8:	00b6f6b3          	and	a3,a3,a1
   104dc:	ff010113          	addi	sp,sp,-16
   104e0:	00052f83          	lw	t6,0(a0)
   104e4:	00452803          	lw	a6,4(a0)
   104e8:	00852e83          	lw	t4,8(a0)
   104ec:	01035313          	srli	t1,t1,0x10
   104f0:	01f7d793          	srli	a5,a5,0x1f
   104f4:	010e5e13          	srli	t3,t3,0x10
   104f8:	00b77733          	and	a4,a4,a1
   104fc:	01f65613          	srli	a2,a2,0x1f
   10500:	02b69063          	bne	a3,a1,10520 <__letf2+0x74>
   10504:	01f865b3          	or	a1,a6,t6
   10508:	01d5e5b3          	or	a1,a1,t4
   1050c:	0065e5b3          	or	a1,a1,t1
   10510:	00200513          	li	a0,2
   10514:	0c058863          	beqz	a1,105e4 <__letf2+0x138>
   10518:	01010113          	addi	sp,sp,16
   1051c:	00008067          	ret
   10520:	00b71c63          	bne	a4,a1,10538 <__letf2+0x8c>
   10524:	0058e5b3          	or	a1,a7,t0
   10528:	01e5e5b3          	or	a1,a1,t5
   1052c:	01c5e5b3          	or	a1,a1,t3
   10530:	00200513          	li	a0,2
   10534:	fe0592e3          	bnez	a1,10518 <__letf2+0x6c>
   10538:	0a069863          	bnez	a3,105e8 <__letf2+0x13c>
   1053c:	01f86533          	or	a0,a6,t6
   10540:	01d56533          	or	a0,a0,t4
   10544:	00656533          	or	a0,a0,t1
   10548:	00153513          	seqz	a0,a0
   1054c:	00071a63          	bnez	a4,10560 <__letf2+0xb4>
   10550:	0058e5b3          	or	a1,a7,t0
   10554:	01e5e5b3          	or	a1,a1,t5
   10558:	01c5e5b3          	or	a1,a1,t3
   1055c:	06058663          	beqz	a1,105c8 <__letf2+0x11c>
   10560:	00051a63          	bnez	a0,10574 <__letf2+0xc8>
   10564:	00c78e63          	beq	a5,a2,10580 <__letf2+0xd4>
   10568:	00100513          	li	a0,1
   1056c:	fa0786e3          	beqz	a5,10518 <__letf2+0x6c>
   10570:	0080006f          	j	10578 <__letf2+0xcc>
   10574:	fa0612e3          	bnez	a2,10518 <__letf2+0x6c>
   10578:	fff00513          	li	a0,-1
   1057c:	f9dff06f          	j	10518 <__letf2+0x6c>
   10580:	fed744e3          	blt	a4,a3,10568 <__letf2+0xbc>
   10584:	00e6da63          	bge	a3,a4,10598 <__letf2+0xec>
   10588:	fff00513          	li	a0,-1
   1058c:	f80786e3          	beqz	a5,10518 <__letf2+0x6c>
   10590:	00100513          	li	a0,1
   10594:	f85ff06f          	j	10518 <__letf2+0x6c>
   10598:	fc6e68e3          	bltu	t3,t1,10568 <__letf2+0xbc>
   1059c:	03c31c63          	bne	t1,t3,105d4 <__letf2+0x128>
   105a0:	fddf64e3          	bltu	t5,t4,10568 <__letf2+0xbc>
   105a4:	03df1c63          	bne	t5,t4,105dc <__letf2+0x130>
   105a8:	fd08e0e3          	bltu	a7,a6,10568 <__letf2+0xbc>
   105ac:	01089463          	bne	a7,a6,105b4 <__letf2+0x108>
   105b0:	fbf2ece3          	bltu	t0,t6,10568 <__letf2+0xbc>
   105b4:	fd186ae3          	bltu	a6,a7,10588 <__letf2+0xdc>
   105b8:	00000513          	li	a0,0
   105bc:	f5089ee3          	bne	a7,a6,10518 <__letf2+0x6c>
   105c0:	f45ffce3          	bgeu	t6,t0,10518 <__letf2+0x6c>
   105c4:	fc5ff06f          	j	10588 <__letf2+0xdc>
   105c8:	fa0500e3          	beqz	a0,10568 <__letf2+0xbc>
   105cc:	00000513          	li	a0,0
   105d0:	f49ff06f          	j	10518 <__letf2+0x6c>
   105d4:	fbc36ae3          	bltu	t1,t3,10588 <__letf2+0xdc>
   105d8:	ff5ff06f          	j	105cc <__letf2+0x120>
   105dc:	fbeee6e3          	bltu	t4,t5,10588 <__letf2+0xdc>
   105e0:	fedff06f          	j	105cc <__letf2+0x120>
   105e4:	f4d700e3          	beq	a4,a3,10524 <__letf2+0x78>
   105e8:	f6071ee3          	bnez	a4,10564 <__letf2+0xb8>
   105ec:	00000513          	li	a0,0
   105f0:	f61ff06f          	j	10550 <__letf2+0xa4>

000105f4 <__multf3>:
   105f4:	f4010113          	addi	sp,sp,-192
   105f8:	0b312623          	sw	s3,172(sp)
   105fc:	00c5a983          	lw	s3,12(a1)
   10600:	0005a683          	lw	a3,0(a1)
   10604:	0045a783          	lw	a5,4(a1)
   10608:	00a12623          	sw	a0,12(sp)
   1060c:	0085a503          	lw	a0,8(a1)
   10610:	01099713          	slli	a4,s3,0x10
   10614:	0b212823          	sw	s2,176(sp)
   10618:	0b412423          	sw	s4,168(sp)
   1061c:	0b512223          	sw	s5,164(sp)
   10620:	0b612023          	sw	s6,160(sp)
   10624:	00062a03          	lw	s4,0(a2) # 1000000 <__trunctfdf2+0xfecfa0>
   10628:	00462b03          	lw	s6,4(a2)
   1062c:	00862a83          	lw	s5,8(a2)
   10630:	00c62903          	lw	s2,12(a2)
   10634:	00008637          	lui	a2,0x8
   10638:	0a912a23          	sw	s1,180(sp)
   1063c:	01075713          	srli	a4,a4,0x10
   10640:	0109d493          	srli	s1,s3,0x10
   10644:	fff60613          	addi	a2,a2,-1 # 7fff <_svfprintf_r+0x11f7>
   10648:	07312623          	sw	s3,108(sp)
   1064c:	0a112e23          	sw	ra,188(sp)
   10650:	0a812c23          	sw	s0,184(sp)
   10654:	09712e23          	sw	s7,156(sp)
   10658:	09812c23          	sw	s8,152(sp)
   1065c:	09912a23          	sw	s9,148(sp)
   10660:	09a12823          	sw	s10,144(sp)
   10664:	09b12623          	sw	s11,140(sp)
   10668:	06d12023          	sw	a3,96(sp)
   1066c:	06f12223          	sw	a5,100(sp)
   10670:	06a12423          	sw	a0,104(sp)
   10674:	02d12823          	sw	a3,48(sp)
   10678:	02f12a23          	sw	a5,52(sp)
   1067c:	02a12c23          	sw	a0,56(sp)
   10680:	02e12e23          	sw	a4,60(sp)
   10684:	00c4f4b3          	and	s1,s1,a2
   10688:	01f9d993          	srli	s3,s3,0x1f
   1068c:	12048a63          	beqz	s1,107c0 <__multf3+0x1cc>
   10690:	26c48063          	beq	s1,a2,108f0 <__multf3+0x2fc>
   10694:	000107b7          	lui	a5,0x10
   10698:	00f767b3          	or	a5,a4,a5
   1069c:	02f12e23          	sw	a5,60(sp)
   106a0:	03010613          	addi	a2,sp,48
   106a4:	03c10793          	addi	a5,sp,60
   106a8:	0007a703          	lw	a4,0(a5) # 10000 <__umoddi3+0x178>
   106ac:	ffc7a683          	lw	a3,-4(a5)
   106b0:	ffc78793          	addi	a5,a5,-4
   106b4:	00371713          	slli	a4,a4,0x3
   106b8:	01d6d693          	srli	a3,a3,0x1d
   106bc:	00d76733          	or	a4,a4,a3
   106c0:	00e7a223          	sw	a4,4(a5)
   106c4:	fef612e3          	bne	a2,a5,106a8 <__multf3+0xb4>
   106c8:	03012783          	lw	a5,48(sp)
   106cc:	ffffc537          	lui	a0,0xffffc
   106d0:	00150513          	addi	a0,a0,1 # ffffc001 <__stack_top+0x7ffb2181>
   106d4:	00379793          	slli	a5,a5,0x3
   106d8:	02f12823          	sw	a5,48(sp)
   106dc:	00a484b3          	add	s1,s1,a0
   106e0:	00000b93          	li	s7,0
   106e4:	01091513          	slli	a0,s2,0x10
   106e8:	00008737          	lui	a4,0x8
   106ec:	01095793          	srli	a5,s2,0x10
   106f0:	01055513          	srli	a0,a0,0x10
   106f4:	fff70713          	addi	a4,a4,-1 # 7fff <_svfprintf_r+0x11f7>
   106f8:	07212623          	sw	s2,108(sp)
   106fc:	07412023          	sw	s4,96(sp)
   10700:	07612223          	sw	s6,100(sp)
   10704:	07512423          	sw	s5,104(sp)
   10708:	05412023          	sw	s4,64(sp)
   1070c:	05612223          	sw	s6,68(sp)
   10710:	05512423          	sw	s5,72(sp)
   10714:	04a12623          	sw	a0,76(sp)
   10718:	00e7f7b3          	and	a5,a5,a4
   1071c:	01f95913          	srli	s2,s2,0x1f
   10720:	1e078c63          	beqz	a5,10918 <__multf3+0x324>
   10724:	32e78263          	beq	a5,a4,10a48 <__multf3+0x454>
   10728:	00010ab7          	lui	s5,0x10
   1072c:	01556ab3          	or	s5,a0,s5
   10730:	05512623          	sw	s5,76(sp)
   10734:	04010593          	addi	a1,sp,64
   10738:	04c10713          	addi	a4,sp,76
   1073c:	00072683          	lw	a3,0(a4)
   10740:	ffc72603          	lw	a2,-4(a4)
   10744:	ffc70713          	addi	a4,a4,-4
   10748:	00369693          	slli	a3,a3,0x3
   1074c:	01d65613          	srli	a2,a2,0x1d
   10750:	00c6e6b3          	or	a3,a3,a2
   10754:	00d72223          	sw	a3,4(a4)
   10758:	fee592e3          	bne	a1,a4,1073c <__multf3+0x148>
   1075c:	04012703          	lw	a4,64(sp)
   10760:	ffffc537          	lui	a0,0xffffc
   10764:	00150513          	addi	a0,a0,1 # ffffc001 <__stack_top+0x7ffb2181>
   10768:	00371713          	slli	a4,a4,0x3
   1076c:	04e12023          	sw	a4,64(sp)
   10770:	00a787b3          	add	a5,a5,a0
   10774:	00000713          	li	a4,0
   10778:	00f487b3          	add	a5,s1,a5
   1077c:	02f12023          	sw	a5,32(sp)
   10780:	00178793          	addi	a5,a5,1
   10784:	00f12e23          	sw	a5,28(sp)
   10788:	002b9793          	slli	a5,s7,0x2
   1078c:	0129c6b3          	xor	a3,s3,s2
   10790:	00e7e7b3          	or	a5,a5,a4
   10794:	00d12823          	sw	a3,16(sp)
   10798:	fff78793          	addi	a5,a5,-1
   1079c:	00e00693          	li	a3,14
   107a0:	2cf6e863          	bltu	a3,a5,10a70 <__multf3+0x47c>
   107a4:	7fff1697          	auipc	a3,0x7fff1
   107a8:	bb468693          	addi	a3,a3,-1100 # 80001358 <_ctype_+0x104>
   107ac:	00279793          	slli	a5,a5,0x2
   107b0:	00d787b3          	add	a5,a5,a3
   107b4:	0007a783          	lw	a5,0(a5)
   107b8:	00d787b3          	add	a5,a5,a3
   107bc:	00078067          	jr	a5
   107c0:	00d7e633          	or	a2,a5,a3
   107c4:	00a66633          	or	a2,a2,a0
   107c8:	00e66633          	or	a2,a2,a4
   107cc:	14060063          	beqz	a2,1090c <__multf3+0x318>
   107d0:	06070263          	beqz	a4,10834 <__multf3+0x240>
   107d4:	00070513          	mv	a0,a4
   107d8:	ffff5097          	auipc	ra,0xffff5
   107dc:	bb8080e7          	jalr	-1096(ra) # 5390 <__clzsi2>
   107e0:	ff450693          	addi	a3,a0,-12
   107e4:	4056d793          	srai	a5,a3,0x5
   107e8:	01f6f693          	andi	a3,a3,31
   107ec:	08068463          	beqz	a3,10874 <__multf3+0x280>
   107f0:	ffc00713          	li	a4,-4
   107f4:	02e78733          	mul	a4,a5,a4
   107f8:	03010313          	addi	t1,sp,48
   107fc:	02000813          	li	a6,32
   10800:	00279593          	slli	a1,a5,0x2
   10804:	40d80833          	sub	a6,a6,a3
   10808:	00c70713          	addi	a4,a4,12
   1080c:	00e30733          	add	a4,t1,a4
   10810:	08e31a63          	bne	t1,a4,108a4 <__multf3+0x2b0>
   10814:	08010713          	addi	a4,sp,128
   10818:	00b705b3          	add	a1,a4,a1
   1081c:	03012703          	lw	a4,48(sp)
   10820:	fff78793          	addi	a5,a5,-1
   10824:	00d716b3          	sll	a3,a4,a3
   10828:	fad5a823          	sw	a3,-80(a1)
   1082c:	fff00693          	li	a3,-1
   10830:	0ac0006f          	j	108dc <__multf3+0x2e8>
   10834:	00050a63          	beqz	a0,10848 <__multf3+0x254>
   10838:	ffff5097          	auipc	ra,0xffff5
   1083c:	b58080e7          	jalr	-1192(ra) # 5390 <__clzsi2>
   10840:	02050513          	addi	a0,a0,32
   10844:	f9dff06f          	j	107e0 <__multf3+0x1ec>
   10848:	00078c63          	beqz	a5,10860 <__multf3+0x26c>
   1084c:	00078513          	mv	a0,a5
   10850:	ffff5097          	auipc	ra,0xffff5
   10854:	b40080e7          	jalr	-1216(ra) # 5390 <__clzsi2>
   10858:	04050513          	addi	a0,a0,64
   1085c:	f85ff06f          	j	107e0 <__multf3+0x1ec>
   10860:	00068513          	mv	a0,a3
   10864:	ffff5097          	auipc	ra,0xffff5
   10868:	b2c080e7          	jalr	-1236(ra) # 5390 <__clzsi2>
   1086c:	06050513          	addi	a0,a0,96
   10870:	f71ff06f          	j	107e0 <__multf3+0x1ec>
   10874:	ffc00613          	li	a2,-4
   10878:	02c78633          	mul	a2,a5,a2
   1087c:	03c10713          	addi	a4,sp,60
   10880:	00300693          	li	a3,3
   10884:	00c705b3          	add	a1,a4,a2
   10888:	0005a583          	lw	a1,0(a1)
   1088c:	fff68693          	addi	a3,a3,-1
   10890:	ffc70713          	addi	a4,a4,-4
   10894:	00b72223          	sw	a1,4(a4)
   10898:	fef6d6e3          	bge	a3,a5,10884 <__multf3+0x290>
   1089c:	fff78793          	addi	a5,a5,-1
   108a0:	f8dff06f          	j	1082c <__multf3+0x238>
   108a4:	ffc72603          	lw	a2,-4(a4)
   108a8:	00072883          	lw	a7,0(a4)
   108ac:	00b70e33          	add	t3,a4,a1
   108b0:	01065633          	srl	a2,a2,a6
   108b4:	00d898b3          	sll	a7,a7,a3
   108b8:	01166633          	or	a2,a2,a7
   108bc:	00ce2023          	sw	a2,0(t3)
   108c0:	ffc70713          	addi	a4,a4,-4
   108c4:	f4dff06f          	j	10810 <__multf3+0x21c>
   108c8:	00279713          	slli	a4,a5,0x2
   108cc:	03010613          	addi	a2,sp,48
   108d0:	00e60733          	add	a4,a2,a4
   108d4:	00072023          	sw	zero,0(a4)
   108d8:	fff78793          	addi	a5,a5,-1
   108dc:	fed796e3          	bne	a5,a3,108c8 <__multf3+0x2d4>
   108e0:	ffffc4b7          	lui	s1,0xffffc
   108e4:	01148493          	addi	s1,s1,17 # ffffc011 <__stack_top+0x7ffb2191>
   108e8:	40a484b3          	sub	s1,s1,a0
   108ec:	df5ff06f          	j	106e0 <__multf3+0xec>
   108f0:	00d7e7b3          	or	a5,a5,a3
   108f4:	00a7e7b3          	or	a5,a5,a0
   108f8:	00e7e7b3          	or	a5,a5,a4
   108fc:	00300b93          	li	s7,3
   10900:	de0792e3          	bnez	a5,106e4 <__multf3+0xf0>
   10904:	00200b93          	li	s7,2
   10908:	dddff06f          	j	106e4 <__multf3+0xf0>
   1090c:	00000493          	li	s1,0
   10910:	00100b93          	li	s7,1
   10914:	dd1ff06f          	j	106e4 <__multf3+0xf0>
   10918:	016a67b3          	or	a5,s4,s6
   1091c:	0157e7b3          	or	a5,a5,s5
   10920:	00a7e7b3          	or	a5,a5,a0
   10924:	14078063          	beqz	a5,10a64 <__multf3+0x470>
   10928:	06050063          	beqz	a0,10988 <__multf3+0x394>
   1092c:	ffff5097          	auipc	ra,0xffff5
   10930:	a64080e7          	jalr	-1436(ra) # 5390 <__clzsi2>
   10934:	ff450613          	addi	a2,a0,-12
   10938:	40565713          	srai	a4,a2,0x5
   1093c:	01f67613          	andi	a2,a2,31
   10940:	08060663          	beqz	a2,109cc <__multf3+0x3d8>
   10944:	ffc00693          	li	a3,-4
   10948:	02d706b3          	mul	a3,a4,a3
   1094c:	04010313          	addi	t1,sp,64
   10950:	02000813          	li	a6,32
   10954:	00271593          	slli	a1,a4,0x2
   10958:	40c80833          	sub	a6,a6,a2
   1095c:	00c68693          	addi	a3,a3,12
   10960:	00d306b3          	add	a3,t1,a3
   10964:	08d31c63          	bne	t1,a3,109fc <__multf3+0x408>
   10968:	08010793          	addi	a5,sp,128
   1096c:	00b785b3          	add	a1,a5,a1
   10970:	04012783          	lw	a5,64(sp)
   10974:	fff70713          	addi	a4,a4,-1
   10978:	00c79633          	sll	a2,a5,a2
   1097c:	fcc5a023          	sw	a2,-64(a1)
   10980:	fff00693          	li	a3,-1
   10984:	0b00006f          	j	10a34 <__multf3+0x440>
   10988:	000a8c63          	beqz	s5,109a0 <__multf3+0x3ac>
   1098c:	000a8513          	mv	a0,s5
   10990:	ffff5097          	auipc	ra,0xffff5
   10994:	a00080e7          	jalr	-1536(ra) # 5390 <__clzsi2>
   10998:	02050513          	addi	a0,a0,32
   1099c:	f99ff06f          	j	10934 <__multf3+0x340>
   109a0:	000b0c63          	beqz	s6,109b8 <__multf3+0x3c4>
   109a4:	000b0513          	mv	a0,s6
   109a8:	ffff5097          	auipc	ra,0xffff5
   109ac:	9e8080e7          	jalr	-1560(ra) # 5390 <__clzsi2>
   109b0:	04050513          	addi	a0,a0,64
   109b4:	f81ff06f          	j	10934 <__multf3+0x340>
   109b8:	000a0513          	mv	a0,s4
   109bc:	ffff5097          	auipc	ra,0xffff5
   109c0:	9d4080e7          	jalr	-1580(ra) # 5390 <__clzsi2>
   109c4:	06050513          	addi	a0,a0,96
   109c8:	f6dff06f          	j	10934 <__multf3+0x340>
   109cc:	ffc00613          	li	a2,-4
   109d0:	02c70633          	mul	a2,a4,a2
   109d4:	04c10793          	addi	a5,sp,76
   109d8:	00300693          	li	a3,3
   109dc:	00c785b3          	add	a1,a5,a2
   109e0:	0005a583          	lw	a1,0(a1)
   109e4:	fff68693          	addi	a3,a3,-1
   109e8:	ffc78793          	addi	a5,a5,-4
   109ec:	00b7a223          	sw	a1,4(a5)
   109f0:	fee6d6e3          	bge	a3,a4,109dc <__multf3+0x3e8>
   109f4:	fff70713          	addi	a4,a4,-1
   109f8:	f89ff06f          	j	10980 <__multf3+0x38c>
   109fc:	ffc6a783          	lw	a5,-4(a3)
   10a00:	0006a883          	lw	a7,0(a3)
   10a04:	00b68e33          	add	t3,a3,a1
   10a08:	0107d7b3          	srl	a5,a5,a6
   10a0c:	00c898b3          	sll	a7,a7,a2
   10a10:	0117e7b3          	or	a5,a5,a7
   10a14:	00fe2023          	sw	a5,0(t3)
   10a18:	ffc68693          	addi	a3,a3,-4
   10a1c:	f49ff06f          	j	10964 <__multf3+0x370>
   10a20:	00271793          	slli	a5,a4,0x2
   10a24:	04010613          	addi	a2,sp,64
   10a28:	00f607b3          	add	a5,a2,a5
   10a2c:	0007a023          	sw	zero,0(a5)
   10a30:	fff70713          	addi	a4,a4,-1
   10a34:	fed716e3          	bne	a4,a3,10a20 <__multf3+0x42c>
   10a38:	ffffc7b7          	lui	a5,0xffffc
   10a3c:	01178793          	addi	a5,a5,17 # ffffc011 <__stack_top+0x7ffb2191>
   10a40:	40a787b3          	sub	a5,a5,a0
   10a44:	d31ff06f          	j	10774 <__multf3+0x180>
   10a48:	016a6a33          	or	s4,s4,s6
   10a4c:	015a6ab3          	or	s5,s4,s5
   10a50:	00aaeab3          	or	s5,s5,a0
   10a54:	00300713          	li	a4,3
   10a58:	d20a90e3          	bnez	s5,10778 <__multf3+0x184>
   10a5c:	00200713          	li	a4,2
   10a60:	d19ff06f          	j	10778 <__multf3+0x184>
   10a64:	00000793          	li	a5,0
   10a68:	00100713          	li	a4,1
   10a6c:	d0dff06f          	j	10778 <__multf3+0x184>
   10a70:	03012703          	lw	a4,48(sp)
   10a74:	04012e03          	lw	t3,64(sp)
   10a78:	00010537          	lui	a0,0x10
   10a7c:	fff50693          	addi	a3,a0,-1 # ffff <__umoddi3+0x177>
   10a80:	01075f93          	srli	t6,a4,0x10
   10a84:	010e5a93          	srli	s5,t3,0x10
   10a88:	00d77733          	and	a4,a4,a3
   10a8c:	00de7e33          	and	t3,t3,a3
   10a90:	02ea87b3          	mul	a5,s5,a4
   10a94:	02ee0633          	mul	a2,t3,a4
   10a98:	03cf8833          	mul	a6,t6,t3
   10a9c:	010785b3          	add	a1,a5,a6
   10aa0:	01065793          	srli	a5,a2,0x10
   10aa4:	00b787b3          	add	a5,a5,a1
   10aa8:	035f8b33          	mul	s6,t6,s5
   10aac:	0107f463          	bgeu	a5,a6,10ab4 <__multf3+0x4c0>
   10ab0:	00ab0b33          	add	s6,s6,a0
   10ab4:	04412f03          	lw	t5,68(sp)
   10ab8:	0107d293          	srli	t0,a5,0x10
   10abc:	00d7f7b3          	and	a5,a5,a3
   10ac0:	00d67633          	and	a2,a2,a3
   10ac4:	01079793          	slli	a5,a5,0x10
   10ac8:	00c787b3          	add	a5,a5,a2
   10acc:	010f5493          	srli	s1,t5,0x10
   10ad0:	00df7f33          	and	t5,t5,a3
   10ad4:	02f12223          	sw	a5,36(sp)
   10ad8:	06f12023          	sw	a5,96(sp)
   10adc:	02ef06b3          	mul	a3,t5,a4
   10ae0:	02e487b3          	mul	a5,s1,a4
   10ae4:	03ef8633          	mul	a2,t6,t5
   10ae8:	00c78533          	add	a0,a5,a2
   10aec:	0106d793          	srli	a5,a3,0x10
   10af0:	00a787b3          	add	a5,a5,a0
   10af4:	029f8a33          	mul	s4,t6,s1
   10af8:	00c7f663          	bgeu	a5,a2,10b04 <__multf3+0x510>
   10afc:	00010637          	lui	a2,0x10
   10b00:	00ca0a33          	add	s4,s4,a2
   10b04:	00010637          	lui	a2,0x10
   10b08:	fff60593          	addi	a1,a2,-1 # ffff <__umoddi3+0x177>
   10b0c:	00b7f533          	and	a0,a5,a1
   10b10:	0107dd93          	srli	s11,a5,0x10
   10b14:	03412783          	lw	a5,52(sp)
   10b18:	00b6f6b3          	and	a3,a3,a1
   10b1c:	01051513          	slli	a0,a0,0x10
   10b20:	0107d913          	srli	s2,a5,0x10
   10b24:	00b7f5b3          	and	a1,a5,a1
   10b28:	00d50533          	add	a0,a0,a3
   10b2c:	02ba87b3          	mul	a5,s5,a1
   10b30:	00a282b3          	add	t0,t0,a0
   10b34:	02be06b3          	mul	a3,t3,a1
   10b38:	03c90333          	mul	t1,s2,t3
   10b3c:	00678833          	add	a6,a5,t1
   10b40:	0106d793          	srli	a5,a3,0x10
   10b44:	010787b3          	add	a5,a5,a6
   10b48:	032a88b3          	mul	a7,s5,s2
   10b4c:	0067f463          	bgeu	a5,t1,10b54 <__multf3+0x560>
   10b50:	00c888b3          	add	a7,a7,a2
   10b54:	00010337          	lui	t1,0x10
   10b58:	fff30613          	addi	a2,t1,-1 # ffff <__umoddi3+0x177>
   10b5c:	0107d993          	srli	s3,a5,0x10
   10b60:	00c7f833          	and	a6,a5,a2
   10b64:	00c6f6b3          	and	a3,a3,a2
   10b68:	011989b3          	add	s3,s3,a7
   10b6c:	01081813          	slli	a6,a6,0x10
   10b70:	03e588b3          	mul	a7,a1,t5
   10b74:	00d80833          	add	a6,a6,a3
   10b78:	03e90633          	mul	a2,s2,t5
   10b7c:	0108d693          	srli	a3,a7,0x10
   10b80:	02b487b3          	mul	a5,s1,a1
   10b84:	00c787b3          	add	a5,a5,a2
   10b88:	00f687b3          	add	a5,a3,a5
   10b8c:	03248eb3          	mul	t4,s1,s2
   10b90:	00c7f463          	bgeu	a5,a2,10b98 <__multf3+0x5a4>
   10b94:	006e8eb3          	add	t4,t4,t1
   10b98:	0107d693          	srli	a3,a5,0x10
   10b9c:	01d686b3          	add	a3,a3,t4
   10ba0:	000103b7          	lui	t2,0x10
   10ba4:	04812e83          	lw	t4,72(sp)
   10ba8:	fff38613          	addi	a2,t2,-1 # ffff <__umoddi3+0x177>
   10bac:	02d12423          	sw	a3,40(sp)
   10bb0:	00c7f6b3          	and	a3,a5,a2
   10bb4:	00c8f8b3          	and	a7,a7,a2
   10bb8:	010ed413          	srli	s0,t4,0x10
   10bbc:	01069693          	slli	a3,a3,0x10
   10bc0:	00cefeb3          	and	t4,t4,a2
   10bc4:	011686b3          	add	a3,a3,a7
   10bc8:	02ee8333          	mul	t1,t4,a4
   10bcc:	02e408b3          	mul	a7,s0,a4
   10bd0:	03df8bb3          	mul	s7,t6,t4
   10bd4:	017887b3          	add	a5,a7,s7
   10bd8:	01035893          	srli	a7,t1,0x10
   10bdc:	00f888b3          	add	a7,a7,a5
   10be0:	028f8633          	mul	a2,t6,s0
   10be4:	0178f463          	bgeu	a7,s7,10bec <__multf3+0x5f8>
   10be8:	00760633          	add	a2,a2,t2
   10bec:	0108d793          	srli	a5,a7,0x10
   10bf0:	00010c37          	lui	s8,0x10
   10bf4:	00c787b3          	add	a5,a5,a2
   10bf8:	fffc0613          	addi	a2,s8,-1 # ffff <__umoddi3+0x177>
   10bfc:	02f12623          	sw	a5,44(sp)
   10c00:	00c8f7b3          	and	a5,a7,a2
   10c04:	03812883          	lw	a7,56(sp)
   10c08:	00c37333          	and	t1,t1,a2
   10c0c:	01079793          	slli	a5,a5,0x10
   10c10:	0108d393          	srli	t2,a7,0x10
   10c14:	00c8f633          	and	a2,a7,a2
   10c18:	006787b3          	add	a5,a5,t1
   10c1c:	03c608b3          	mul	a7,a2,t3
   10c20:	03c38cb3          	mul	s9,t2,t3
   10c24:	0108dd13          	srli	s10,a7,0x10
   10c28:	02ca8333          	mul	t1,s5,a2
   10c2c:	01930333          	add	t1,t1,s9
   10c30:	006d0333          	add	t1,s10,t1
   10c34:	027a8bb3          	mul	s7,s5,t2
   10c38:	01937463          	bgeu	t1,s9,10c40 <__multf3+0x64c>
   10c3c:	018b8bb3          	add	s7,s7,s8
   10c40:	01035c13          	srli	s8,t1,0x10
   10c44:	017c0bb3          	add	s7,s8,s7
   10c48:	00010c37          	lui	s8,0x10
   10c4c:	005b02b3          	add	t0,s6,t0
   10c50:	fffc0c93          	addi	s9,s8,-1 # ffff <__umoddi3+0x177>
   10c54:	00a2b533          	sltu	a0,t0,a0
   10c58:	01937333          	and	t1,t1,s9
   10c5c:	00ad8db3          	add	s11,s11,a0
   10c60:	01031313          	slli	t1,t1,0x10
   10c64:	0198f8b3          	and	a7,a7,s9
   10c68:	014d8a33          	add	s4,s11,s4
   10c6c:	011308b3          	add	a7,t1,a7
   10c70:	01028333          	add	t1,t0,a6
   10c74:	01033833          	sltu	a6,t1,a6
   10c78:	00612a23          	sw	t1,20(sp)
   10c7c:	06612223          	sw	t1,100(sp)
   10c80:	013a0333          	add	t1,s4,s3
   10c84:	01030b33          	add	s6,t1,a6
   10c88:	013339b3          	sltu	s3,t1,s3
   10c8c:	010b3833          	sltu	a6,s6,a6
   10c90:	0109e833          	or	a6,s3,a6
   10c94:	00aa3533          	sltu	a0,s4,a0
   10c98:	00a80533          	add	a0,a6,a0
   10c9c:	02812803          	lw	a6,40(sp)
   10ca0:	00db02b3          	add	t0,s6,a3
   10ca4:	02812983          	lw	s3,40(sp)
   10ca8:	00d2b6b3          	sltu	a3,t0,a3
   10cac:	01050533          	add	a0,a0,a6
   10cb0:	02c12303          	lw	t1,44(sp)
   10cb4:	00d50833          	add	a6,a0,a3
   10cb8:	00f282b3          	add	t0,t0,a5
   10cbc:	01353533          	sltu	a0,a0,s3
   10cc0:	00d836b3          	sltu	a3,a6,a3
   10cc4:	00f2b7b3          	sltu	a5,t0,a5
   10cc8:	00680db3          	add	s11,a6,t1
   10ccc:	00d566b3          	or	a3,a0,a3
   10cd0:	02c12503          	lw	a0,44(sp)
   10cd4:	00fd8333          	add	t1,s11,a5
   10cd8:	011282b3          	add	t0,t0,a7
   10cdc:	0112b8b3          	sltu	a7,t0,a7
   10ce0:	00f337b3          	sltu	a5,t1,a5
   10ce4:	00512c23          	sw	t0,24(sp)
   10ce8:	06512423          	sw	t0,104(sp)
   10cec:	017302b3          	add	t0,t1,s7
   10cf0:	04c12303          	lw	t1,76(sp)
   10cf4:	01128d33          	add	s10,t0,a7
   10cf8:	00adbdb3          	sltu	s11,s11,a0
   10cfc:	00fde7b3          	or	a5,s11,a5
   10d00:	0172bbb3          	sltu	s7,t0,s7
   10d04:	011d38b3          	sltu	a7,s10,a7
   10d08:	00f686b3          	add	a3,a3,a5
   10d0c:	01035293          	srli	t0,t1,0x10
   10d10:	011bea33          	or	s4,s7,a7
   10d14:	01937333          	and	t1,t1,s9
   10d18:	02e307b3          	mul	a5,t1,a4
   10d1c:	01468a33          	add	s4,a3,s4
   10d20:	02e28733          	mul	a4,t0,a4
   10d24:	0107d893          	srli	a7,a5,0x10
   10d28:	026f86b3          	mul	a3,t6,t1
   10d2c:	00d70733          	add	a4,a4,a3
   10d30:	00e888b3          	add	a7,a7,a4
   10d34:	025f8fb3          	mul	t6,t6,t0
   10d38:	00d8f463          	bgeu	a7,a3,10d40 <__multf3+0x74c>
   10d3c:	018f8fb3          	add	t6,t6,s8
   10d40:	03c12983          	lw	s3,60(sp)
   10d44:	000106b7          	lui	a3,0x10
   10d48:	fff68513          	addi	a0,a3,-1 # ffff <__umoddi3+0x177>
   10d4c:	0108d713          	srli	a4,a7,0x10
   10d50:	00a8f8b3          	and	a7,a7,a0
   10d54:	01f70733          	add	a4,a4,t6
   10d58:	00a7f7b3          	and	a5,a5,a0
   10d5c:	0109df93          	srli	t6,s3,0x10
   10d60:	01089893          	slli	a7,a7,0x10
   10d64:	00a9f9b3          	and	s3,s3,a0
   10d68:	00f888b3          	add	a7,a7,a5
   10d6c:	03fa8b33          	mul	s6,s5,t6
   10d70:	00070d93          	mv	s11,a4
   10d74:	033e07b3          	mul	a5,t3,s3
   10d78:	033a8ab3          	mul	s5,s5,s3
   10d7c:	0107d813          	srli	a6,a5,0x10
   10d80:	03cf8e33          	mul	t3,t6,t3
   10d84:	01ca8ab3          	add	s5,s5,t3
   10d88:	01580ab3          	add	s5,a6,s5
   10d8c:	01caf463          	bgeu	s5,t3,10d94 <__multf3+0x7a0>
   10d90:	00db0b33          	add	s6,s6,a3
   10d94:	010ad813          	srli	a6,s5,0x10
   10d98:	01680733          	add	a4,a6,s6
   10d9c:	00010b37          	lui	s6,0x10
   10da0:	02e12423          	sw	a4,40(sp)
   10da4:	fffb0713          	addi	a4,s6,-1 # ffff <__umoddi3+0x177>
   10da8:	00eaf833          	and	a6,s5,a4
   10dac:	00e7f7b3          	and	a5,a5,a4
   10db0:	01081813          	slli	a6,a6,0x10
   10db4:	00f80833          	add	a6,a6,a5
   10db8:	02be86b3          	mul	a3,t4,a1
   10dbc:	03d90e33          	mul	t3,s2,t4
   10dc0:	0106d513          	srli	a0,a3,0x10
   10dc4:	02b407b3          	mul	a5,s0,a1
   10dc8:	01c787b3          	add	a5,a5,t3
   10dcc:	00f507b3          	add	a5,a0,a5
   10dd0:	02890733          	mul	a4,s2,s0
   10dd4:	01c7f463          	bgeu	a5,t3,10ddc <__multf3+0x7e8>
   10dd8:	01670733          	add	a4,a4,s6
   10ddc:	0107d513          	srli	a0,a5,0x10
   10de0:	00e50733          	add	a4,a0,a4
   10de4:	00010b37          	lui	s6,0x10
   10de8:	02e12623          	sw	a4,44(sp)
   10dec:	fffb0713          	addi	a4,s6,-1 # ffff <__umoddi3+0x177>
   10df0:	00e7f533          	and	a0,a5,a4
   10df4:	00e6f6b3          	and	a3,a3,a4
   10df8:	03e38e33          	mul	t3,t2,t5
   10dfc:	01051513          	slli	a0,a0,0x10
   10e00:	00d50533          	add	a0,a0,a3
   10e04:	03e60733          	mul	a4,a2,t5
   10e08:	02c487b3          	mul	a5,s1,a2
   10e0c:	01075693          	srli	a3,a4,0x10
   10e10:	01c787b3          	add	a5,a5,t3
   10e14:	00f687b3          	add	a5,a3,a5
   10e18:	02748ab3          	mul	s5,s1,t2
   10e1c:	01c7f463          	bgeu	a5,t3,10e24 <__multf3+0x830>
   10e20:	016a8ab3          	add	s5,s5,s6
   10e24:	000106b7          	lui	a3,0x10
   10e28:	fff68e13          	addi	t3,a3,-1 # ffff <__umoddi3+0x177>
   10e2c:	01c7f6b3          	and	a3,a5,t3
   10e30:	0107db93          	srli	s7,a5,0x10
   10e34:	011d07b3          	add	a5,s10,a7
   10e38:	01c77733          	and	a4,a4,t3
   10e3c:	0117b8b3          	sltu	a7,a5,a7
   10e40:	01ba0a33          	add	s4,s4,s11
   10e44:	01069693          	slli	a3,a3,0x10
   10e48:	00e686b3          	add	a3,a3,a4
   10e4c:	011a0d33          	add	s10,s4,a7
   10e50:	02812703          	lw	a4,40(sp)
   10e54:	011d38b3          	sltu	a7,s10,a7
   10e58:	01ba3a33          	sltu	s4,s4,s11
   10e5c:	010787b3          	add	a5,a5,a6
   10e60:	011a6a33          	or	s4,s4,a7
   10e64:	02812883          	lw	a7,40(sp)
   10e68:	0107b833          	sltu	a6,a5,a6
   10e6c:	00ed0b33          	add	s6,s10,a4
   10e70:	02c12703          	lw	a4,44(sp)
   10e74:	010b0cb3          	add	s9,s6,a6
   10e78:	00a787b3          	add	a5,a5,a0
   10e7c:	011b3b33          	sltu	s6,s6,a7
   10e80:	010cb833          	sltu	a6,s9,a6
   10e84:	00a7b533          	sltu	a0,a5,a0
   10e88:	00ec8733          	add	a4,s9,a4
   10e8c:	010b6b33          	or	s6,s6,a6
   10e90:	02c12803          	lw	a6,44(sp)
   10e94:	00a70c33          	add	s8,a4,a0
   10e98:	015b8bb3          	add	s7,s7,s5
   10e9c:	00d787b3          	add	a5,a5,a3
   10ea0:	00d7b6b3          	sltu	a3,a5,a3
   10ea4:	017c0ab3          	add	s5,s8,s7
   10ea8:	00da8e33          	add	t3,s5,a3
   10eac:	01073733          	sltu	a4,a4,a6
   10eb0:	00ac3533          	sltu	a0,s8,a0
   10eb4:	00a76733          	or	a4,a4,a0
   10eb8:	00de36b3          	sltu	a3,t3,a3
   10ebc:	016a0a33          	add	s4,s4,s6
   10ec0:	017abab3          	sltu	s5,s5,s7
   10ec4:	00ea0a33          	add	s4,s4,a4
   10ec8:	00daeab3          	or	s5,s5,a3
   10ecc:	015a06b3          	add	a3,s4,s5
   10ed0:	02ce8833          	mul	a6,t4,a2
   10ed4:	06f12623          	sw	a5,108(sp)
   10ed8:	03d38a33          	mul	s4,t2,t4
   10edc:	01085513          	srli	a0,a6,0x10
   10ee0:	02c40733          	mul	a4,s0,a2
   10ee4:	01470733          	add	a4,a4,s4
   10ee8:	00e50733          	add	a4,a0,a4
   10eec:	027408b3          	mul	a7,s0,t2
   10ef0:	01477663          	bgeu	a4,s4,10efc <__multf3+0x908>
   10ef4:	00010537          	lui	a0,0x10
   10ef8:	00a888b3          	add	a7,a7,a0
   10efc:	00010a37          	lui	s4,0x10
   10f00:	01075513          	srli	a0,a4,0x10
   10f04:	fffa0a93          	addi	s5,s4,-1 # ffff <__umoddi3+0x177>
   10f08:	011508b3          	add	a7,a0,a7
   10f0c:	01577533          	and	a0,a4,s5
   10f10:	01587833          	and	a6,a6,s5
   10f14:	01051513          	slli	a0,a0,0x10
   10f18:	02690ab3          	mul	s5,s2,t1
   10f1c:	01050533          	add	a0,a0,a6
   10f20:	02b30833          	mul	a6,t1,a1
   10f24:	02b285b3          	mul	a1,t0,a1
   10f28:	01085713          	srli	a4,a6,0x10
   10f2c:	015585b3          	add	a1,a1,s5
   10f30:	00b70733          	add	a4,a4,a1
   10f34:	02590933          	mul	s2,s2,t0
   10f38:	01577463          	bgeu	a4,s5,10f40 <__multf3+0x94c>
   10f3c:	01490933          	add	s2,s2,s4
   10f40:	00010ab7          	lui	s5,0x10
   10f44:	01075593          	srli	a1,a4,0x10
   10f48:	fffa8a13          	addi	s4,s5,-1 # ffff <__umoddi3+0x177>
   10f4c:	01487833          	and	a6,a6,s4
   10f50:	01258933          	add	s2,a1,s2
   10f54:	014775b3          	and	a1,a4,s4
   10f58:	01059593          	slli	a1,a1,0x10
   10f5c:	03e98733          	mul	a4,s3,t5
   10f60:	010585b3          	add	a1,a1,a6
   10f64:	03ef8f33          	mul	t5,t6,t5
   10f68:	01075813          	srli	a6,a4,0x10
   10f6c:	03f48a33          	mul	s4,s1,t6
   10f70:	033484b3          	mul	s1,s1,s3
   10f74:	01e484b3          	add	s1,s1,t5
   10f78:	009804b3          	add	s1,a6,s1
   10f7c:	01e4f463          	bgeu	s1,t5,10f84 <__multf3+0x990>
   10f80:	015a0a33          	add	s4,s4,s5
   10f84:	0104db13          	srli	s6,s1,0x10
   10f88:	014b0b33          	add	s6,s6,s4
   10f8c:	00010a37          	lui	s4,0x10
   10f90:	fffa0f13          	addi	t5,s4,-1 # ffff <__umoddi3+0x177>
   10f94:	01e4f833          	and	a6,s1,t5
   10f98:	01e77733          	and	a4,a4,t5
   10f9c:	026384b3          	mul	s1,t2,t1
   10fa0:	01081813          	slli	a6,a6,0x10
   10fa4:	00e80833          	add	a6,a6,a4
   10fa8:	02660f33          	mul	t5,a2,t1
   10fac:	02c28633          	mul	a2,t0,a2
   10fb0:	010f5713          	srli	a4,t5,0x10
   10fb4:	00960633          	add	a2,a2,s1
   10fb8:	00c70633          	add	a2,a4,a2
   10fbc:	025383b3          	mul	t2,t2,t0
   10fc0:	00967463          	bgeu	a2,s1,10fc8 <__multf3+0x9d4>
   10fc4:	014383b3          	add	t2,t2,s4
   10fc8:	00010a37          	lui	s4,0x10
   10fcc:	01065713          	srli	a4,a2,0x10
   10fd0:	fffa0493          	addi	s1,s4,-1 # ffff <__umoddi3+0x177>
   10fd4:	007703b3          	add	t2,a4,t2
   10fd8:	00967733          	and	a4,a2,s1
   10fdc:	009f7f33          	and	t5,t5,s1
   10fe0:	01071713          	slli	a4,a4,0x10
   10fe4:	01e70733          	add	a4,a4,t5
   10fe8:	03340633          	mul	a2,s0,s3
   10fec:	033e8f33          	mul	t5,t4,s3
   10ff0:	03df8eb3          	mul	t4,t6,t4
   10ff4:	010f5a93          	srli	s5,t5,0x10
   10ff8:	01d60633          	add	a2,a2,t4
   10ffc:	00ca8633          	add	a2,s5,a2
   11000:	03f404b3          	mul	s1,s0,t6
   11004:	01d67463          	bgeu	a2,t4,1100c <__multf3+0xa18>
   11008:	014484b3          	add	s1,s1,s4
   1100c:	01065c13          	srli	s8,a2,0x10
   11010:	00010cb7          	lui	s9,0x10
   11014:	009c0c33          	add	s8,s8,s1
   11018:	00ae0e33          	add	t3,t3,a0
   1101c:	fffc8493          	addi	s1,s9,-1 # ffff <__umoddi3+0x177>
   11020:	00ae3533          	sltu	a0,t3,a0
   11024:	011686b3          	add	a3,a3,a7
   11028:	00967633          	and	a2,a2,s1
   1102c:	00a68db3          	add	s11,a3,a0
   11030:	009f7f33          	and	t5,t5,s1
   11034:	00be0e33          	add	t3,t3,a1
   11038:	01061613          	slli	a2,a2,0x10
   1103c:	01e60633          	add	a2,a2,t5
   11040:	00be35b3          	sltu	a1,t3,a1
   11044:	012d8f33          	add	t5,s11,s2
   11048:	010e0e33          	add	t3,t3,a6
   1104c:	00bf0d33          	add	s10,t5,a1
   11050:	016d0eb3          	add	t4,s10,s6
   11054:	07c12823          	sw	t3,112(sp)
   11058:	010e3e33          	sltu	t3,t3,a6
   1105c:	01ce8a33          	add	s4,t4,t3
   11060:	0116b6b3          	sltu	a3,a3,a7
   11064:	00bd35b3          	sltu	a1,s10,a1
   11068:	00adb533          	sltu	a0,s11,a0
   1106c:	012f3933          	sltu	s2,t5,s2
   11070:	00a6e533          	or	a0,a3,a0
   11074:	00b96933          	or	s2,s2,a1
   11078:	016ebeb3          	sltu	t4,t4,s6
   1107c:	01ca3e33          	sltu	t3,s4,t3
   11080:	01250533          	add	a0,a0,s2
   11084:	01ceeeb3          	or	t4,t4,t3
   11088:	00ea0833          	add	a6,s4,a4
   1108c:	01d50533          	add	a0,a0,t4
   11090:	00e83733          	sltu	a4,a6,a4
   11094:	00750533          	add	a0,a0,t2
   11098:	00e506b3          	add	a3,a0,a4
   1109c:	007533b3          	sltu	t2,a0,t2
   110a0:	03330533          	mul	a0,t1,s3
   110a4:	00c80833          	add	a6,a6,a2
   110a8:	00e6b733          	sltu	a4,a3,a4
   110ac:	00c83633          	sltu	a2,a6,a2
   110b0:	018686b3          	add	a3,a3,s8
   110b4:	00c685b3          	add	a1,a3,a2
   110b8:	0186bc33          	sltu	s8,a3,s8
   110bc:	00c5b633          	sltu	a2,a1,a2
   110c0:	07012a23          	sw	a6,116(sp)
   110c4:	00e3e733          	or	a4,t2,a4
   110c8:	026f8333          	mul	t1,t6,t1
   110cc:	01055693          	srli	a3,a0,0x10
   110d0:	00cc6633          	or	a2,s8,a2
   110d4:	033289b3          	mul	s3,t0,s3
   110d8:	006989b3          	add	s3,s3,t1
   110dc:	03f28fb3          	mul	t6,t0,t6
   110e0:	013682b3          	add	t0,a3,s3
   110e4:	0062f463          	bgeu	t0,t1,110ec <__multf3+0xaf8>
   110e8:	019f8fb3          	add	t6,t6,s9
   110ec:	0092f6b3          	and	a3,t0,s1
   110f0:	01069693          	slli	a3,a3,0x10
   110f4:	009574b3          	and	s1,a0,s1
   110f8:	009684b3          	add	s1,a3,s1
   110fc:	0102d293          	srli	t0,t0,0x10
   11100:	009585b3          	add	a1,a1,s1
   11104:	00e282b3          	add	t0,t0,a4
   11108:	01412683          	lw	a3,20(sp)
   1110c:	02412703          	lw	a4,36(sp)
   11110:	0095b4b3          	sltu	s1,a1,s1
   11114:	00c282b3          	add	t0,t0,a2
   11118:	009282b3          	add	t0,t0,s1
   1111c:	01f28fb3          	add	t6,t0,t6
   11120:	00d762b3          	or	t0,a4,a3
   11124:	01812703          	lw	a4,24(sp)
   11128:	00d79793          	slli	a5,a5,0xd
   1112c:	06b12c23          	sw	a1,120(sp)
   11130:	005762b3          	or	t0,a4,t0
   11134:	07f12e23          	sw	t6,124(sp)
   11138:	0057e7b3          	or	a5,a5,t0
   1113c:	06010713          	addi	a4,sp,96
   11140:	07010593          	addi	a1,sp,112
   11144:	00c72683          	lw	a3,12(a4)
   11148:	01072603          	lw	a2,16(a4)
   1114c:	00470713          	addi	a4,a4,4
   11150:	0136d693          	srli	a3,a3,0x13
   11154:	00d61613          	slli	a2,a2,0xd
   11158:	00c6e6b3          	or	a3,a3,a2
   1115c:	fed72e23          	sw	a3,-4(a4)
   11160:	fee592e3          	bne	a1,a4,11144 <__multf3+0xb50>
   11164:	06012703          	lw	a4,96(sp)
   11168:	06812683          	lw	a3,104(sp)
   1116c:	00f037b3          	snez	a5,a5
   11170:	00e7e7b3          	or	a5,a5,a4
   11174:	04d12c23          	sw	a3,88(sp)
   11178:	06c12703          	lw	a4,108(sp)
   1117c:	06412683          	lw	a3,100(sp)
   11180:	04f12823          	sw	a5,80(sp)
   11184:	04e12e23          	sw	a4,92(sp)
   11188:	04d12a23          	sw	a3,84(sp)
   1118c:	00b71693          	slli	a3,a4,0xb
   11190:	2206dc63          	bgez	a3,113c8 <__multf3+0xdd4>
   11194:	01f79793          	slli	a5,a5,0x1f
   11198:	05010713          	addi	a4,sp,80
   1119c:	05c10593          	addi	a1,sp,92
   111a0:	00072683          	lw	a3,0(a4)
   111a4:	00472603          	lw	a2,4(a4)
   111a8:	00470713          	addi	a4,a4,4
   111ac:	0016d693          	srli	a3,a3,0x1
   111b0:	01f61613          	slli	a2,a2,0x1f
   111b4:	00c6e6b3          	or	a3,a3,a2
   111b8:	fed72e23          	sw	a3,-4(a4)
   111bc:	fee592e3          	bne	a1,a4,111a0 <__multf3+0xbac>
   111c0:	05c12703          	lw	a4,92(sp)
   111c4:	00f037b3          	snez	a5,a5
   111c8:	00175713          	srli	a4,a4,0x1
   111cc:	04e12e23          	sw	a4,92(sp)
   111d0:	05012703          	lw	a4,80(sp)
   111d4:	00f767b3          	or	a5,a4,a5
   111d8:	04f12823          	sw	a5,80(sp)
   111dc:	01c12703          	lw	a4,28(sp)
   111e0:	000047b7          	lui	a5,0x4
   111e4:	fff78793          	addi	a5,a5,-1 # 3fff <__muldf3+0x32b>
   111e8:	00f707b3          	add	a5,a4,a5
   111ec:	20f05063          	blez	a5,113ec <__multf3+0xdf8>
   111f0:	05012703          	lw	a4,80(sp)
   111f4:	00777693          	andi	a3,a4,7
   111f8:	04068463          	beqz	a3,11240 <__multf3+0xc4c>
   111fc:	00f77693          	andi	a3,a4,15
   11200:	00400613          	li	a2,4
   11204:	02c68e63          	beq	a3,a2,11240 <__multf3+0xc4c>
   11208:	05412683          	lw	a3,84(sp)
   1120c:	00470713          	addi	a4,a4,4
   11210:	04e12823          	sw	a4,80(sp)
   11214:	00473713          	sltiu	a4,a4,4
   11218:	00d706b3          	add	a3,a4,a3
   1121c:	00e6b733          	sltu	a4,a3,a4
   11220:	04d12a23          	sw	a3,84(sp)
   11224:	05812683          	lw	a3,88(sp)
   11228:	00d706b3          	add	a3,a4,a3
   1122c:	04d12c23          	sw	a3,88(sp)
   11230:	00e6b6b3          	sltu	a3,a3,a4
   11234:	05c12703          	lw	a4,92(sp)
   11238:	00e686b3          	add	a3,a3,a4
   1123c:	04d12e23          	sw	a3,92(sp)
   11240:	05c12703          	lw	a4,92(sp)
   11244:	00b71693          	slli	a3,a4,0xb
   11248:	0206d063          	bgez	a3,11268 <__multf3+0xc74>
   1124c:	fff007b7          	lui	a5,0xfff00
   11250:	fff78793          	addi	a5,a5,-1 # ffefffff <__stack_top+0x7feb617f>
   11254:	00f77733          	and	a4,a4,a5
   11258:	04e12e23          	sw	a4,92(sp)
   1125c:	01c12703          	lw	a4,28(sp)
   11260:	000047b7          	lui	a5,0x4
   11264:	00f707b3          	add	a5,a4,a5
   11268:	05010713          	addi	a4,sp,80
   1126c:	05c10593          	addi	a1,sp,92
   11270:	00072683          	lw	a3,0(a4)
   11274:	00472603          	lw	a2,4(a4)
   11278:	00470713          	addi	a4,a4,4
   1127c:	0036d693          	srli	a3,a3,0x3
   11280:	01d61613          	slli	a2,a2,0x1d
   11284:	00c6e6b3          	or	a3,a3,a2
   11288:	fed72e23          	sw	a3,-4(a4)
   1128c:	feb712e3          	bne	a4,a1,11270 <__multf3+0xc7c>
   11290:	00008737          	lui	a4,0x8
   11294:	ffe70693          	addi	a3,a4,-2 # 7ffe <_svfprintf_r+0x11f6>
   11298:	12f6ce63          	blt	a3,a5,113d4 <__multf3+0xde0>
   1129c:	05c12703          	lw	a4,92(sp)
   112a0:	00375713          	srli	a4,a4,0x3
   112a4:	04e12e23          	sw	a4,92(sp)
   112a8:	05c12703          	lw	a4,92(sp)
   112ac:	800106b7          	lui	a3,0x80010
   112b0:	fff68693          	addi	a3,a3,-1 # 8000ffff <__stack_top+0xfffc617f>
   112b4:	06e11623          	sh	a4,108(sp)
   112b8:	00008737          	lui	a4,0x8
   112bc:	fff70713          	addi	a4,a4,-1 # 7fff <_svfprintf_r+0x11f7>
   112c0:	00e7f7b3          	and	a5,a5,a4
   112c4:	06c12703          	lw	a4,108(sp)
   112c8:	01079793          	slli	a5,a5,0x10
   112cc:	0bc12083          	lw	ra,188(sp)
   112d0:	00d77733          	and	a4,a4,a3
   112d4:	00f767b3          	or	a5,a4,a5
   112d8:	01012703          	lw	a4,16(sp)
   112dc:	800006b7          	lui	a3,0x80000
   112e0:	fff6c693          	not	a3,a3
   112e4:	01f71713          	slli	a4,a4,0x1f
   112e8:	00d7f7b3          	and	a5,a5,a3
   112ec:	00e7e7b3          	or	a5,a5,a4
   112f0:	00c12683          	lw	a3,12(sp)
   112f4:	05012703          	lw	a4,80(sp)
   112f8:	0b812403          	lw	s0,184(sp)
   112fc:	00f6a623          	sw	a5,12(a3) # 8000000c <__stack_top+0xfffb618c>
   11300:	00e6a023          	sw	a4,0(a3)
   11304:	05412703          	lw	a4,84(sp)
   11308:	0b412483          	lw	s1,180(sp)
   1130c:	0b012903          	lw	s2,176(sp)
   11310:	00e6a223          	sw	a4,4(a3)
   11314:	05812703          	lw	a4,88(sp)
   11318:	0ac12983          	lw	s3,172(sp)
   1131c:	0a812a03          	lw	s4,168(sp)
   11320:	00e6a423          	sw	a4,8(a3)
   11324:	0a412a83          	lw	s5,164(sp)
   11328:	0a012b03          	lw	s6,160(sp)
   1132c:	09c12b83          	lw	s7,156(sp)
   11330:	09812c03          	lw	s8,152(sp)
   11334:	09412c83          	lw	s9,148(sp)
   11338:	09012d03          	lw	s10,144(sp)
   1133c:	08c12d83          	lw	s11,140(sp)
   11340:	00068513          	mv	a0,a3
   11344:	0c010113          	addi	sp,sp,192
   11348:	00008067          	ret
   1134c:	01312823          	sw	s3,16(sp)
   11350:	03012783          	lw	a5,48(sp)
   11354:	04f12823          	sw	a5,80(sp)
   11358:	03412783          	lw	a5,52(sp)
   1135c:	04f12a23          	sw	a5,84(sp)
   11360:	03812783          	lw	a5,56(sp)
   11364:	04f12c23          	sw	a5,88(sp)
   11368:	03c12783          	lw	a5,60(sp)
   1136c:	04f12e23          	sw	a5,92(sp)
   11370:	00200793          	li	a5,2
   11374:	26fb8c63          	beq	s7,a5,115ec <__multf3+0xff8>
   11378:	00300793          	li	a5,3
   1137c:	28fb8663          	beq	s7,a5,11608 <__multf3+0x1014>
   11380:	00100793          	li	a5,1
   11384:	e4fb9ce3          	bne	s7,a5,111dc <__multf3+0xbe8>
   11388:	04012e23          	sw	zero,92(sp)
   1138c:	04012c23          	sw	zero,88(sp)
   11390:	04012a23          	sw	zero,84(sp)
   11394:	04012823          	sw	zero,80(sp)
   11398:	2140006f          	j	115ac <__multf3+0xfb8>
   1139c:	01212823          	sw	s2,16(sp)
   113a0:	04012783          	lw	a5,64(sp)
   113a4:	00070b93          	mv	s7,a4
   113a8:	04f12823          	sw	a5,80(sp)
   113ac:	04412783          	lw	a5,68(sp)
   113b0:	04f12a23          	sw	a5,84(sp)
   113b4:	04812783          	lw	a5,72(sp)
   113b8:	04f12c23          	sw	a5,88(sp)
   113bc:	04c12783          	lw	a5,76(sp)
   113c0:	04f12e23          	sw	a5,92(sp)
   113c4:	fadff06f          	j	11370 <__multf3+0xd7c>
   113c8:	02012783          	lw	a5,32(sp)
   113cc:	00f12e23          	sw	a5,28(sp)
   113d0:	e0dff06f          	j	111dc <__multf3+0xbe8>
   113d4:	04012e23          	sw	zero,92(sp)
   113d8:	04012c23          	sw	zero,88(sp)
   113dc:	04012a23          	sw	zero,84(sp)
   113e0:	04012823          	sw	zero,80(sp)
   113e4:	fff70793          	addi	a5,a4,-1
   113e8:	ec1ff06f          	j	112a8 <__multf3+0xcb4>
   113ec:	00100713          	li	a4,1
   113f0:	40f707b3          	sub	a5,a4,a5
   113f4:	07400713          	li	a4,116
   113f8:	1af74e63          	blt	a4,a5,115b4 <__multf3+0xfc0>
   113fc:	4057d893          	srai	a7,a5,0x5
   11400:	00000713          	li	a4,0
   11404:	01f7f793          	andi	a5,a5,31
   11408:	00000693          	li	a3,0
   1140c:	00269613          	slli	a2,a3,0x2
   11410:	03169a63          	bne	a3,a7,11444 <__multf3+0xe50>
   11414:	04079463          	bnez	a5,1145c <__multf3+0xe68>
   11418:	00300513          	li	a0,3
   1141c:	05010593          	addi	a1,sp,80
   11420:	40d506b3          	sub	a3,a0,a3
   11424:	00c58533          	add	a0,a1,a2
   11428:	00052503          	lw	a0,0(a0) # 10000 <__umoddi3+0x178>
   1142c:	00178793          	addi	a5,a5,1 # 4001 <__muldf3+0x32d>
   11430:	00458593          	addi	a1,a1,4
   11434:	fea5ae23          	sw	a0,-4(a1)
   11438:	fef6d6e3          	bge	a3,a5,11424 <__multf3+0xe30>
   1143c:	00400613          	li	a2,4
   11440:	0b80006f          	j	114f8 <__multf3+0xf04>
   11444:	05010593          	addi	a1,sp,80
   11448:	00c58633          	add	a2,a1,a2
   1144c:	00062603          	lw	a2,0(a2)
   11450:	00168693          	addi	a3,a3,1
   11454:	00c76733          	or	a4,a4,a2
   11458:	fb5ff06f          	j	1140c <__multf3+0xe18>
   1145c:	08010693          	addi	a3,sp,128
   11460:	00c686b3          	add	a3,a3,a2
   11464:	fd06a683          	lw	a3,-48(a3)
   11468:	02000813          	li	a6,32
   1146c:	40f80833          	sub	a6,a6,a5
   11470:	010696b3          	sll	a3,a3,a6
   11474:	00d76733          	or	a4,a4,a3
   11478:	05010693          	addi	a3,sp,80
   1147c:	00c68633          	add	a2,a3,a2
   11480:	00300693          	li	a3,3
   11484:	00000513          	li	a0,0
   11488:	411686b3          	sub	a3,a3,a7
   1148c:	00460613          	addi	a2,a2,4
   11490:	02d54463          	blt	a0,a3,114b8 <__multf3+0xec4>
   11494:	08010613          	addi	a2,sp,128
   11498:	00269693          	slli	a3,a3,0x2
   1149c:	00d606b3          	add	a3,a2,a3
   114a0:	05c12603          	lw	a2,92(sp)
   114a4:	00f657b3          	srl	a5,a2,a5
   114a8:	fcf6a823          	sw	a5,-48(a3)
   114ac:	00400793          	li	a5,4
   114b0:	411787b3          	sub	a5,a5,a7
   114b4:	f89ff06f          	j	1143c <__multf3+0xe48>
   114b8:	00251313          	slli	t1,a0,0x2
   114bc:	05010593          	addi	a1,sp,80
   114c0:	00658333          	add	t1,a1,t1
   114c4:	00062e03          	lw	t3,0(a2)
   114c8:	ffc62583          	lw	a1,-4(a2)
   114cc:	00150513          	addi	a0,a0,1
   114d0:	010e1e33          	sll	t3,t3,a6
   114d4:	00f5d5b3          	srl	a1,a1,a5
   114d8:	01c5e5b3          	or	a1,a1,t3
   114dc:	00b32023          	sw	a1,0(t1)
   114e0:	fadff06f          	j	1148c <__multf3+0xe98>
   114e4:	00279693          	slli	a3,a5,0x2
   114e8:	05010593          	addi	a1,sp,80
   114ec:	00d586b3          	add	a3,a1,a3
   114f0:	0006a023          	sw	zero,0(a3)
   114f4:	00178793          	addi	a5,a5,1
   114f8:	fec796e3          	bne	a5,a2,114e4 <__multf3+0xef0>
   114fc:	05012683          	lw	a3,80(sp)
   11500:	00e03733          	snez	a4,a4
   11504:	00d76733          	or	a4,a4,a3
   11508:	04e12823          	sw	a4,80(sp)
   1150c:	00777693          	andi	a3,a4,7
   11510:	04068263          	beqz	a3,11554 <__multf3+0xf60>
   11514:	00f77693          	andi	a3,a4,15
   11518:	02f68e63          	beq	a3,a5,11554 <__multf3+0xf60>
   1151c:	05412783          	lw	a5,84(sp)
   11520:	00470713          	addi	a4,a4,4
   11524:	04e12823          	sw	a4,80(sp)
   11528:	00473713          	sltiu	a4,a4,4
   1152c:	00f707b3          	add	a5,a4,a5
   11530:	00e7b733          	sltu	a4,a5,a4
   11534:	04f12a23          	sw	a5,84(sp)
   11538:	05812783          	lw	a5,88(sp)
   1153c:	00f707b3          	add	a5,a4,a5
   11540:	04f12c23          	sw	a5,88(sp)
   11544:	00e7b7b3          	sltu	a5,a5,a4
   11548:	05c12703          	lw	a4,92(sp)
   1154c:	00e787b3          	add	a5,a5,a4
   11550:	04f12e23          	sw	a5,92(sp)
   11554:	05c12783          	lw	a5,92(sp)
   11558:	00c79713          	slli	a4,a5,0xc
   1155c:	00075e63          	bgez	a4,11578 <__multf3+0xf84>
   11560:	04012e23          	sw	zero,92(sp)
   11564:	04012c23          	sw	zero,88(sp)
   11568:	04012a23          	sw	zero,84(sp)
   1156c:	04012823          	sw	zero,80(sp)
   11570:	00100793          	li	a5,1
   11574:	d35ff06f          	j	112a8 <__multf3+0xcb4>
   11578:	05010793          	addi	a5,sp,80
   1157c:	05c10613          	addi	a2,sp,92
   11580:	0007a703          	lw	a4,0(a5)
   11584:	0047a683          	lw	a3,4(a5)
   11588:	00478793          	addi	a5,a5,4
   1158c:	00375713          	srli	a4,a4,0x3
   11590:	01d69693          	slli	a3,a3,0x1d
   11594:	00d76733          	or	a4,a4,a3
   11598:	fee7ae23          	sw	a4,-4(a5)
   1159c:	fef612e3          	bne	a2,a5,11580 <__multf3+0xf8c>
   115a0:	05c12783          	lw	a5,92(sp)
   115a4:	0037d793          	srli	a5,a5,0x3
   115a8:	04f12e23          	sw	a5,92(sp)
   115ac:	00000793          	li	a5,0
   115b0:	cf9ff06f          	j	112a8 <__multf3+0xcb4>
   115b4:	05412783          	lw	a5,84(sp)
   115b8:	05012703          	lw	a4,80(sp)
   115bc:	00f76733          	or	a4,a4,a5
   115c0:	05812783          	lw	a5,88(sp)
   115c4:	00f76733          	or	a4,a4,a5
   115c8:	05c12783          	lw	a5,92(sp)
   115cc:	00f76733          	or	a4,a4,a5
   115d0:	00000793          	li	a5,0
   115d4:	cc070ae3          	beqz	a4,112a8 <__multf3+0xcb4>
   115d8:	04012e23          	sw	zero,92(sp)
   115dc:	04012c23          	sw	zero,88(sp)
   115e0:	04012a23          	sw	zero,84(sp)
   115e4:	04012823          	sw	zero,80(sp)
   115e8:	cc1ff06f          	j	112a8 <__multf3+0xcb4>
   115ec:	000087b7          	lui	a5,0x8
   115f0:	04012e23          	sw	zero,92(sp)
   115f4:	04012c23          	sw	zero,88(sp)
   115f8:	04012a23          	sw	zero,84(sp)
   115fc:	04012823          	sw	zero,80(sp)
   11600:	fff78793          	addi	a5,a5,-1 # 7fff <_svfprintf_r+0x11f7>
   11604:	ca5ff06f          	j	112a8 <__multf3+0xcb4>
   11608:	000087b7          	lui	a5,0x8
   1160c:	04f12e23          	sw	a5,92(sp)
   11610:	04012c23          	sw	zero,88(sp)
   11614:	04012a23          	sw	zero,84(sp)
   11618:	04012823          	sw	zero,80(sp)
   1161c:	fff78793          	addi	a5,a5,-1 # 7fff <_svfprintf_r+0x11f7>
   11620:	00012823          	sw	zero,16(sp)
   11624:	c85ff06f          	j	112a8 <__multf3+0xcb4>

00011628 <__subtf3>:
   11628:	fa010113          	addi	sp,sp,-96
   1162c:	0085a783          	lw	a5,8(a1)
   11630:	05212823          	sw	s2,80(sp)
   11634:	00c5a903          	lw	s2,12(a1)
   11638:	0045a703          	lw	a4,4(a1)
   1163c:	04912a23          	sw	s1,84(sp)
   11640:	00050493          	mv	s1,a0
   11644:	0005a503          	lw	a0,0(a1)
   11648:	02f12c23          	sw	a5,56(sp)
   1164c:	00f12c23          	sw	a5,24(sp)
   11650:	00062303          	lw	t1,0(a2)
   11654:	01091793          	slli	a5,s2,0x10
   11658:	00462883          	lw	a7,4(a2)
   1165c:	00862683          	lw	a3,8(a2)
   11660:	00c62803          	lw	a6,12(a2)
   11664:	04812c23          	sw	s0,88(sp)
   11668:	0107d793          	srli	a5,a5,0x10
   1166c:	00191413          	slli	s0,s2,0x1
   11670:	03212e23          	sw	s2,60(sp)
   11674:	04112e23          	sw	ra,92(sp)
   11678:	05312623          	sw	s3,76(sp)
   1167c:	05412423          	sw	s4,72(sp)
   11680:	05512223          	sw	s5,68(sp)
   11684:	02a12823          	sw	a0,48(sp)
   11688:	02e12a23          	sw	a4,52(sp)
   1168c:	00a12823          	sw	a0,16(sp)
   11690:	00e12a23          	sw	a4,20(sp)
   11694:	00f12e23          	sw	a5,28(sp)
   11698:	01145413          	srli	s0,s0,0x11
   1169c:	01f95913          	srli	s2,s2,0x1f
   116a0:	01010e13          	addi	t3,sp,16
   116a4:	01c10593          	addi	a1,sp,28
   116a8:	0005a783          	lw	a5,0(a1)
   116ac:	ffc5a703          	lw	a4,-4(a1)
   116b0:	ffc58593          	addi	a1,a1,-4
   116b4:	00379793          	slli	a5,a5,0x3
   116b8:	01d75713          	srli	a4,a4,0x1d
   116bc:	00e7e7b3          	or	a5,a5,a4
   116c0:	00f5a223          	sw	a5,4(a1)
   116c4:	febe12e3          	bne	t3,a1,116a8 <__subtf3+0x80>
   116c8:	01012703          	lw	a4,16(sp)
   116cc:	01081793          	slli	a5,a6,0x10
   116d0:	00181613          	slli	a2,a6,0x1
   116d4:	00371713          	slli	a4,a4,0x3
   116d8:	0107d793          	srli	a5,a5,0x10
   116dc:	02612823          	sw	t1,48(sp)
   116e0:	03112a23          	sw	a7,52(sp)
   116e4:	03012e23          	sw	a6,60(sp)
   116e8:	02612023          	sw	t1,32(sp)
   116ec:	03112223          	sw	a7,36(sp)
   116f0:	00e12823          	sw	a4,16(sp)
   116f4:	02d12c23          	sw	a3,56(sp)
   116f8:	02d12423          	sw	a3,40(sp)
   116fc:	02f12623          	sw	a5,44(sp)
   11700:	01165613          	srli	a2,a2,0x11
   11704:	01f85813          	srli	a6,a6,0x1f
   11708:	02010313          	addi	t1,sp,32
   1170c:	02c10893          	addi	a7,sp,44
   11710:	0008a783          	lw	a5,0(a7)
   11714:	ffc8a683          	lw	a3,-4(a7)
   11718:	ffc88893          	addi	a7,a7,-4
   1171c:	00379793          	slli	a5,a5,0x3
   11720:	01d6d693          	srli	a3,a3,0x1d
   11724:	00d7e7b3          	or	a5,a5,a3
   11728:	00f8a223          	sw	a5,4(a7)
   1172c:	ff1312e3          	bne	t1,a7,11710 <__subtf3+0xe8>
   11730:	02012783          	lw	a5,32(sp)
   11734:	000086b7          	lui	a3,0x8
   11738:	fff68693          	addi	a3,a3,-1 # 7fff <_svfprintf_r+0x11f7>
   1173c:	00379793          	slli	a5,a5,0x3
   11740:	02f12023          	sw	a5,32(sp)
   11744:	02d61063          	bne	a2,a3,11764 <__subtf3+0x13c>
   11748:	02812503          	lw	a0,40(sp)
   1174c:	02412683          	lw	a3,36(sp)
   11750:	00a6e6b3          	or	a3,a3,a0
   11754:	02c12503          	lw	a0,44(sp)
   11758:	00a6e6b3          	or	a3,a3,a0
   1175c:	00f6e6b3          	or	a3,a3,a5
   11760:	00069463          	bnez	a3,11768 <__subtf3+0x140>
   11764:	00184813          	xori	a6,a6,1
   11768:	40c40533          	sub	a0,s0,a2
   1176c:	152810e3          	bne	a6,s2,120ac <__subtf3+0xa84>
   11770:	30a05463          	blez	a0,11a78 <__subtf3+0x450>
   11774:	0c061663          	bnez	a2,11840 <__subtf3+0x218>
   11778:	02412583          	lw	a1,36(sp)
   1177c:	02812603          	lw	a2,40(sp)
   11780:	02c12803          	lw	a6,44(sp)
   11784:	00c5e6b3          	or	a3,a1,a2
   11788:	0106e6b3          	or	a3,a3,a6
   1178c:	00f6e6b3          	or	a3,a3,a5
   11790:	02069063          	bnez	a3,117b0 <__subtf3+0x188>
   11794:	01412783          	lw	a5,20(sp)
   11798:	02e12823          	sw	a4,48(sp)
   1179c:	02f12a23          	sw	a5,52(sp)
   117a0:	01812783          	lw	a5,24(sp)
   117a4:	02f12c23          	sw	a5,56(sp)
   117a8:	01c12783          	lw	a5,28(sp)
   117ac:	30c0006f          	j	11ab8 <__subtf3+0x490>
   117b0:	fff50693          	addi	a3,a0,-1
   117b4:	06069063          	bnez	a3,11814 <__subtf3+0x1ec>
   117b8:	01412683          	lw	a3,20(sp)
   117bc:	00f707b3          	add	a5,a4,a5
   117c0:	00e7b733          	sltu	a4,a5,a4
   117c4:	00d585b3          	add	a1,a1,a3
   117c8:	02f12823          	sw	a5,48(sp)
   117cc:	00e587b3          	add	a5,a1,a4
   117d0:	00e7b733          	sltu	a4,a5,a4
   117d4:	02f12a23          	sw	a5,52(sp)
   117d8:	01812783          	lw	a5,24(sp)
   117dc:	00d5b6b3          	sltu	a3,a1,a3
   117e0:	00e6e733          	or	a4,a3,a4
   117e4:	00f606b3          	add	a3,a2,a5
   117e8:	00e68633          	add	a2,a3,a4
   117ec:	00e63733          	sltu	a4,a2,a4
   117f0:	00f6b7b3          	sltu	a5,a3,a5
   117f4:	00e7e7b3          	or	a5,a5,a4
   117f8:	01c12703          	lw	a4,28(sp)
   117fc:	02c12c23          	sw	a2,56(sp)
   11800:	00e80833          	add	a6,a6,a4
   11804:	010787b3          	add	a5,a5,a6
   11808:	02f12e23          	sw	a5,60(sp)
   1180c:	00100413          	li	s0,1
   11810:	1dc0006f          	j	119ec <__subtf3+0x3c4>
   11814:	000087b7          	lui	a5,0x8
   11818:	fff78793          	addi	a5,a5,-1 # 7fff <_svfprintf_r+0x11f7>
   1181c:	f6f50ce3          	beq	a0,a5,11794 <__subtf3+0x16c>
   11820:	07400793          	li	a5,116
   11824:	06d7d263          	bge	a5,a3,11888 <__subtf3+0x260>
   11828:	00100793          	li	a5,1
   1182c:	02012623          	sw	zero,44(sp)
   11830:	02012423          	sw	zero,40(sp)
   11834:	02012223          	sw	zero,36(sp)
   11838:	02f12023          	sw	a5,32(sp)
   1183c:	1480006f          	j	11984 <__subtf3+0x35c>
   11840:	000087b7          	lui	a5,0x8
   11844:	fff78793          	addi	a5,a5,-1 # 7fff <_svfprintf_r+0x11f7>
   11848:	02f41263          	bne	s0,a5,1186c <__subtf3+0x244>
   1184c:	01412783          	lw	a5,20(sp)
   11850:	02e12823          	sw	a4,48(sp)
   11854:	02f12a23          	sw	a5,52(sp)
   11858:	01812783          	lw	a5,24(sp)
   1185c:	02f12c23          	sw	a5,56(sp)
   11860:	01c12783          	lw	a5,28(sp)
   11864:	02f12e23          	sw	a5,60(sp)
   11868:	2580006f          	j	11ac0 <__subtf3+0x498>
   1186c:	02c12783          	lw	a5,44(sp)
   11870:	00080737          	lui	a4,0x80
   11874:	00e7e7b3          	or	a5,a5,a4
   11878:	02f12623          	sw	a5,44(sp)
   1187c:	07400793          	li	a5,116
   11880:	faa7c4e3          	blt	a5,a0,11828 <__subtf3+0x200>
   11884:	00050693          	mv	a3,a0
   11888:	4056de13          	srai	t3,a3,0x5
   1188c:	01f6f793          	andi	a5,a3,31
   11890:	00000613          	li	a2,0
   11894:	00000713          	li	a4,0
   11898:	00271693          	slli	a3,a4,0x2
   1189c:	03c71863          	bne	a4,t3,118cc <__subtf3+0x2a4>
   118a0:	04079063          	bnez	a5,118e0 <__subtf3+0x2b8>
   118a4:	00300593          	li	a1,3
   118a8:	40e58733          	sub	a4,a1,a4
   118ac:	00d885b3          	add	a1,a7,a3
   118b0:	0005a583          	lw	a1,0(a1)
   118b4:	00178793          	addi	a5,a5,1
   118b8:	00488893          	addi	a7,a7,4
   118bc:	feb8ae23          	sw	a1,-4(a7)
   118c0:	fef756e3          	bge	a4,a5,118ac <__subtf3+0x284>
   118c4:	00400693          	li	a3,4
   118c8:	0a80006f          	j	11970 <__subtf3+0x348>
   118cc:	00d306b3          	add	a3,t1,a3
   118d0:	0006a683          	lw	a3,0(a3)
   118d4:	00170713          	addi	a4,a4,1 # 80001 <__trunctfdf2+0x6cfa1>
   118d8:	00d66633          	or	a2,a2,a3
   118dc:	fbdff06f          	j	11898 <__subtf3+0x270>
   118e0:	04010713          	addi	a4,sp,64
   118e4:	00d70733          	add	a4,a4,a3
   118e8:	fe072703          	lw	a4,-32(a4)
   118ec:	02000813          	li	a6,32
   118f0:	40f80833          	sub	a6,a6,a5
   118f4:	01071733          	sll	a4,a4,a6
   118f8:	00e66633          	or	a2,a2,a4
   118fc:	00300713          	li	a4,3
   11900:	00d306b3          	add	a3,t1,a3
   11904:	00000513          	li	a0,0
   11908:	41c70733          	sub	a4,a4,t3
   1190c:	00468693          	addi	a3,a3,4
   11910:	02e54463          	blt	a0,a4,11938 <__subtf3+0x310>
   11914:	04010693          	addi	a3,sp,64
   11918:	00271713          	slli	a4,a4,0x2
   1191c:	00e68733          	add	a4,a3,a4
   11920:	02c12683          	lw	a3,44(sp)
   11924:	00f6d7b3          	srl	a5,a3,a5
   11928:	fef72023          	sw	a5,-32(a4)
   1192c:	00400793          	li	a5,4
   11930:	41c787b3          	sub	a5,a5,t3
   11934:	f91ff06f          	j	118c4 <__subtf3+0x29c>
   11938:	ffc6a583          	lw	a1,-4(a3)
   1193c:	0006ae83          	lw	t4,0(a3)
   11940:	00251893          	slli	a7,a0,0x2
   11944:	00f5d5b3          	srl	a1,a1,a5
   11948:	010e9eb3          	sll	t4,t4,a6
   1194c:	011308b3          	add	a7,t1,a7
   11950:	01d5e5b3          	or	a1,a1,t4
   11954:	00b8a023          	sw	a1,0(a7)
   11958:	00150513          	addi	a0,a0,1
   1195c:	fb1ff06f          	j	1190c <__subtf3+0x2e4>
   11960:	00279713          	slli	a4,a5,0x2
   11964:	00e30733          	add	a4,t1,a4
   11968:	00072023          	sw	zero,0(a4)
   1196c:	00178793          	addi	a5,a5,1
   11970:	fed798e3          	bne	a5,a3,11960 <__subtf3+0x338>
   11974:	02012783          	lw	a5,32(sp)
   11978:	00c03633          	snez	a2,a2
   1197c:	00c7e633          	or	a2,a5,a2
   11980:	02c12023          	sw	a2,32(sp)
   11984:	01012683          	lw	a3,16(sp)
   11988:	02012783          	lw	a5,32(sp)
   1198c:	01412703          	lw	a4,20(sp)
   11990:	02812583          	lw	a1,40(sp)
   11994:	00f687b3          	add	a5,a3,a5
   11998:	00d7b6b3          	sltu	a3,a5,a3
   1199c:	02f12823          	sw	a5,48(sp)
   119a0:	02412783          	lw	a5,36(sp)
   119a4:	02c12503          	lw	a0,44(sp)
   119a8:	00f707b3          	add	a5,a4,a5
   119ac:	00d78633          	add	a2,a5,a3
   119b0:	00e7b733          	sltu	a4,a5,a4
   119b4:	00d637b3          	sltu	a5,a2,a3
   119b8:	00f767b3          	or	a5,a4,a5
   119bc:	01812703          	lw	a4,24(sp)
   119c0:	01c12683          	lw	a3,28(sp)
   119c4:	02c12a23          	sw	a2,52(sp)
   119c8:	00b705b3          	add	a1,a4,a1
   119cc:	00f58633          	add	a2,a1,a5
   119d0:	00e5b733          	sltu	a4,a1,a4
   119d4:	00f637b3          	sltu	a5,a2,a5
   119d8:	00a686b3          	add	a3,a3,a0
   119dc:	00f76733          	or	a4,a4,a5
   119e0:	00e68733          	add	a4,a3,a4
   119e4:	02c12c23          	sw	a2,56(sp)
   119e8:	02e12e23          	sw	a4,60(sp)
   119ec:	03c12783          	lw	a5,60(sp)
   119f0:	00c79713          	slli	a4,a5,0xc
   119f4:	0c075663          	bgez	a4,11ac0 <__subtf3+0x498>
   119f8:	fff80737          	lui	a4,0xfff80
   119fc:	fff70713          	addi	a4,a4,-1 # fff7ffff <__stack_top+0x7ff3617f>
   11a00:	00e7f7b3          	and	a5,a5,a4
   11a04:	02f12e23          	sw	a5,60(sp)
   11a08:	03012783          	lw	a5,48(sp)
   11a0c:	00140413          	addi	s0,s0,1
   11a10:	03c10593          	addi	a1,sp,60
   11a14:	01f79713          	slli	a4,a5,0x1f
   11a18:	03010793          	addi	a5,sp,48
   11a1c:	0007a683          	lw	a3,0(a5)
   11a20:	0047a603          	lw	a2,4(a5)
   11a24:	00478793          	addi	a5,a5,4
   11a28:	0016d693          	srli	a3,a3,0x1
   11a2c:	01f61613          	slli	a2,a2,0x1f
   11a30:	00c6e6b3          	or	a3,a3,a2
   11a34:	fed7ae23          	sw	a3,-4(a5)
   11a38:	fef592e3          	bne	a1,a5,11a1c <__subtf3+0x3f4>
   11a3c:	03c12783          	lw	a5,60(sp)
   11a40:	0017d793          	srli	a5,a5,0x1
   11a44:	02f12e23          	sw	a5,60(sp)
   11a48:	00e037b3          	snez	a5,a4
   11a4c:	03012703          	lw	a4,48(sp)
   11a50:	00f767b3          	or	a5,a4,a5
   11a54:	02f12823          	sw	a5,48(sp)
   11a58:	000087b7          	lui	a5,0x8
   11a5c:	fff78793          	addi	a5,a5,-1 # 7fff <_svfprintf_r+0x11f7>
   11a60:	06f41063          	bne	s0,a5,11ac0 <__subtf3+0x498>
   11a64:	02012e23          	sw	zero,60(sp)
   11a68:	02012c23          	sw	zero,56(sp)
   11a6c:	02012a23          	sw	zero,52(sp)
   11a70:	02012823          	sw	zero,48(sp)
   11a74:	04c0006f          	j	11ac0 <__subtf3+0x498>
   11a78:	40050c63          	beqz	a0,11e90 <__subtf3+0x868>
   11a7c:	40860533          	sub	a0,a2,s0
   11a80:	24041063          	bnez	s0,11cc0 <__subtf3+0x698>
   11a84:	01412883          	lw	a7,20(sp)
   11a88:	01812803          	lw	a6,24(sp)
   11a8c:	01c12303          	lw	t1,28(sp)
   11a90:	0108e6b3          	or	a3,a7,a6
   11a94:	0066e6b3          	or	a3,a3,t1
   11a98:	00e6e6b3          	or	a3,a3,a4
   11a9c:	18069c63          	bnez	a3,11c34 <__subtf3+0x60c>
   11aa0:	02f12823          	sw	a5,48(sp)
   11aa4:	02412783          	lw	a5,36(sp)
   11aa8:	02f12a23          	sw	a5,52(sp)
   11aac:	02812783          	lw	a5,40(sp)
   11ab0:	02f12c23          	sw	a5,56(sp)
   11ab4:	02c12783          	lw	a5,44(sp)
   11ab8:	02f12e23          	sw	a5,60(sp)
   11abc:	00050413          	mv	s0,a0
   11ac0:	03012783          	lw	a5,48(sp)
   11ac4:	0077f713          	andi	a4,a5,7
   11ac8:	04070463          	beqz	a4,11b10 <__subtf3+0x4e8>
   11acc:	00f7f713          	andi	a4,a5,15
   11ad0:	00400693          	li	a3,4
   11ad4:	02d70e63          	beq	a4,a3,11b10 <__subtf3+0x4e8>
   11ad8:	03412703          	lw	a4,52(sp)
   11adc:	00478793          	addi	a5,a5,4
   11ae0:	02f12823          	sw	a5,48(sp)
   11ae4:	0047b793          	sltiu	a5,a5,4
   11ae8:	00e78733          	add	a4,a5,a4
   11aec:	00f737b3          	sltu	a5,a4,a5
   11af0:	02e12a23          	sw	a4,52(sp)
   11af4:	03812703          	lw	a4,56(sp)
   11af8:	00e78733          	add	a4,a5,a4
   11afc:	02e12c23          	sw	a4,56(sp)
   11b00:	00f73733          	sltu	a4,a4,a5
   11b04:	03c12783          	lw	a5,60(sp)
   11b08:	00f70733          	add	a4,a4,a5
   11b0c:	02e12e23          	sw	a4,60(sp)
   11b10:	03c12783          	lw	a5,60(sp)
   11b14:	00c79713          	slli	a4,a5,0xc
   11b18:	02075463          	bgez	a4,11b40 <__subtf3+0x518>
   11b1c:	00008737          	lui	a4,0x8
   11b20:	00140413          	addi	s0,s0,1
   11b24:	fff70713          	addi	a4,a4,-1 # 7fff <_svfprintf_r+0x11f7>
   11b28:	00e41463          	bne	s0,a4,11b30 <__subtf3+0x508>
   11b2c:	0180106f          	j	12b44 <__subtf3+0x151c>
   11b30:	fff80737          	lui	a4,0xfff80
   11b34:	fff70713          	addi	a4,a4,-1 # fff7ffff <__stack_top+0x7ff3617f>
   11b38:	00e7f7b3          	and	a5,a5,a4
   11b3c:	02f12e23          	sw	a5,60(sp)
   11b40:	03010793          	addi	a5,sp,48
   11b44:	03c10613          	addi	a2,sp,60
   11b48:	0007a703          	lw	a4,0(a5)
   11b4c:	0047a683          	lw	a3,4(a5)
   11b50:	00478793          	addi	a5,a5,4
   11b54:	00375713          	srli	a4,a4,0x3
   11b58:	01d69693          	slli	a3,a3,0x1d
   11b5c:	00d76733          	or	a4,a4,a3
   11b60:	fee7ae23          	sw	a4,-4(a5)
   11b64:	fef612e3          	bne	a2,a5,11b48 <__subtf3+0x520>
   11b68:	03c12783          	lw	a5,60(sp)
   11b6c:	000086b7          	lui	a3,0x8
   11b70:	0037d713          	srli	a4,a5,0x3
   11b74:	02e12e23          	sw	a4,60(sp)
   11b78:	fff68793          	addi	a5,a3,-1 # 7fff <_svfprintf_r+0x11f7>
   11b7c:	02f41a63          	bne	s0,a5,11bb0 <__subtf3+0x588>
   11b80:	03412603          	lw	a2,52(sp)
   11b84:	03012783          	lw	a5,48(sp)
   11b88:	00c7e7b3          	or	a5,a5,a2
   11b8c:	03812603          	lw	a2,56(sp)
   11b90:	00c7e7b3          	or	a5,a5,a2
   11b94:	00e7e7b3          	or	a5,a5,a4
   11b98:	00078c63          	beqz	a5,11bb0 <__subtf3+0x588>
   11b9c:	02d12e23          	sw	a3,60(sp)
   11ba0:	02012c23          	sw	zero,56(sp)
   11ba4:	02012a23          	sw	zero,52(sp)
   11ba8:	02012823          	sw	zero,48(sp)
   11bac:	00000913          	li	s2,0
   11bb0:	03c12783          	lw	a5,60(sp)
   11bb4:	80010737          	lui	a4,0x80010
   11bb8:	fff70713          	addi	a4,a4,-1 # 8000ffff <__stack_top+0xfffc617f>
   11bbc:	00f11623          	sh	a5,12(sp)
   11bc0:	000087b7          	lui	a5,0x8
   11bc4:	fff78793          	addi	a5,a5,-1 # 7fff <_svfprintf_r+0x11f7>
   11bc8:	00f47433          	and	s0,s0,a5
   11bcc:	01041793          	slli	a5,s0,0x10
   11bd0:	00c12403          	lw	s0,12(sp)
   11bd4:	05c12083          	lw	ra,92(sp)
   11bd8:	00048513          	mv	a0,s1
   11bdc:	00e47433          	and	s0,s0,a4
   11be0:	00f46433          	or	s0,s0,a5
   11be4:	01f91793          	slli	a5,s2,0x1f
   11be8:	80000937          	lui	s2,0x80000
   11bec:	fff94913          	not	s2,s2
   11bf0:	01247433          	and	s0,s0,s2
   11bf4:	00f46933          	or	s2,s0,a5
   11bf8:	03012783          	lw	a5,48(sp)
   11bfc:	05812403          	lw	s0,88(sp)
   11c00:	0124a623          	sw	s2,12(s1)
   11c04:	00f4a023          	sw	a5,0(s1)
   11c08:	03412783          	lw	a5,52(sp)
   11c0c:	05012903          	lw	s2,80(sp)
   11c10:	04c12983          	lw	s3,76(sp)
   11c14:	00f4a223          	sw	a5,4(s1)
   11c18:	03812783          	lw	a5,56(sp)
   11c1c:	04812a03          	lw	s4,72(sp)
   11c20:	04412a83          	lw	s5,68(sp)
   11c24:	00f4a423          	sw	a5,8(s1)
   11c28:	05412483          	lw	s1,84(sp)
   11c2c:	06010113          	addi	sp,sp,96
   11c30:	00008067          	ret
   11c34:	fff50693          	addi	a3,a0,-1
   11c38:	04069e63          	bnez	a3,11c94 <__subtf3+0x66c>
   11c3c:	02412683          	lw	a3,36(sp)
   11c40:	00f70733          	add	a4,a4,a5
   11c44:	00f737b3          	sltu	a5,a4,a5
   11c48:	00d88633          	add	a2,a7,a3
   11c4c:	02e12823          	sw	a4,48(sp)
   11c50:	00f60733          	add	a4,a2,a5
   11c54:	00f737b3          	sltu	a5,a4,a5
   11c58:	02e12a23          	sw	a4,52(sp)
   11c5c:	02812703          	lw	a4,40(sp)
   11c60:	00d636b3          	sltu	a3,a2,a3
   11c64:	00f6e7b3          	or	a5,a3,a5
   11c68:	00e806b3          	add	a3,a6,a4
   11c6c:	00f68633          	add	a2,a3,a5
   11c70:	00f637b3          	sltu	a5,a2,a5
   11c74:	00e6b733          	sltu	a4,a3,a4
   11c78:	00f76733          	or	a4,a4,a5
   11c7c:	02c12783          	lw	a5,44(sp)
   11c80:	02c12c23          	sw	a2,56(sp)
   11c84:	00f30333          	add	t1,t1,a5
   11c88:	00670733          	add	a4,a4,t1
   11c8c:	02e12e23          	sw	a4,60(sp)
   11c90:	b7dff06f          	j	1180c <__subtf3+0x1e4>
   11c94:	00008737          	lui	a4,0x8
   11c98:	fff70713          	addi	a4,a4,-1 # 7fff <_svfprintf_r+0x11f7>
   11c9c:	e0e502e3          	beq	a0,a4,11aa0 <__subtf3+0x478>
   11ca0:	07400793          	li	a5,116
   11ca4:	06d7d463          	bge	a5,a3,11d0c <__subtf3+0x6e4>
   11ca8:	00100793          	li	a5,1
   11cac:	00012e23          	sw	zero,28(sp)
   11cb0:	00012c23          	sw	zero,24(sp)
   11cb4:	00012a23          	sw	zero,20(sp)
   11cb8:	00f12823          	sw	a5,16(sp)
   11cbc:	1640006f          	j	11e20 <__subtf3+0x7f8>
   11cc0:	00008737          	lui	a4,0x8
   11cc4:	fff70713          	addi	a4,a4,-1 # 7fff <_svfprintf_r+0x11f7>
   11cc8:	02e61463          	bne	a2,a4,11cf0 <__subtf3+0x6c8>
   11ccc:	02f12823          	sw	a5,48(sp)
   11cd0:	02412783          	lw	a5,36(sp)
   11cd4:	00060413          	mv	s0,a2
   11cd8:	02f12a23          	sw	a5,52(sp)
   11cdc:	02812783          	lw	a5,40(sp)
   11ce0:	02f12c23          	sw	a5,56(sp)
   11ce4:	02c12783          	lw	a5,44(sp)
   11ce8:	02f12e23          	sw	a5,60(sp)
   11cec:	dd5ff06f          	j	11ac0 <__subtf3+0x498>
   11cf0:	01c12783          	lw	a5,28(sp)
   11cf4:	00080737          	lui	a4,0x80
   11cf8:	00e7e7b3          	or	a5,a5,a4
   11cfc:	00f12e23          	sw	a5,28(sp)
   11d00:	07400793          	li	a5,116
   11d04:	faa7c2e3          	blt	a5,a0,11ca8 <__subtf3+0x680>
   11d08:	00050693          	mv	a3,a0
   11d0c:	02000793          	li	a5,32
   11d10:	02f6c533          	div	a0,a3,a5
   11d14:	00000713          	li	a4,0
   11d18:	02f6e7b3          	rem	a5,a3,a5
   11d1c:	00000693          	li	a3,0
   11d20:	04a74063          	blt	a4,a0,11d60 <__subtf3+0x738>
   11d24:	00050813          	mv	a6,a0
   11d28:	00055463          	bgez	a0,11d30 <__subtf3+0x708>
   11d2c:	00000813          	li	a6,0
   11d30:	00251713          	slli	a4,a0,0x2
   11d34:	04079263          	bnez	a5,11d78 <__subtf3+0x750>
   11d38:	00300813          	li	a6,3
   11d3c:	40a80533          	sub	a0,a6,a0
   11d40:	00e58833          	add	a6,a1,a4
   11d44:	00082803          	lw	a6,0(a6)
   11d48:	00178793          	addi	a5,a5,1
   11d4c:	00458593          	addi	a1,a1,4
   11d50:	ff05ae23          	sw	a6,-4(a1)
   11d54:	fef556e3          	bge	a0,a5,11d40 <__subtf3+0x718>
   11d58:	00300593          	li	a1,3
   11d5c:	0b00006f          	j	11e0c <__subtf3+0x7e4>
   11d60:	00271813          	slli	a6,a4,0x2
   11d64:	010e0833          	add	a6,t3,a6
   11d68:	00082803          	lw	a6,0(a6)
   11d6c:	00170713          	addi	a4,a4,1 # 80001 <__trunctfdf2+0x6cfa1>
   11d70:	0106e6b3          	or	a3,a3,a6
   11d74:	fadff06f          	j	11d20 <__subtf3+0x6f8>
   11d78:	04010593          	addi	a1,sp,64
   11d7c:	00281813          	slli	a6,a6,0x2
   11d80:	01058833          	add	a6,a1,a6
   11d84:	fd082583          	lw	a1,-48(a6)
   11d88:	02000313          	li	t1,32
   11d8c:	40f30333          	sub	t1,t1,a5
   11d90:	006595b3          	sll	a1,a1,t1
   11d94:	00b6e6b3          	or	a3,a3,a1
   11d98:	00ee05b3          	add	a1,t3,a4
   11d9c:	00300713          	li	a4,3
   11da0:	00000893          	li	a7,0
   11da4:	40a70733          	sub	a4,a4,a0
   11da8:	00458593          	addi	a1,a1,4
   11dac:	02e8c463          	blt	a7,a4,11dd4 <__subtf3+0x7ac>
   11db0:	04010593          	addi	a1,sp,64
   11db4:	00271713          	slli	a4,a4,0x2
   11db8:	00e58733          	add	a4,a1,a4
   11dbc:	01c12583          	lw	a1,28(sp)
   11dc0:	00f5d7b3          	srl	a5,a1,a5
   11dc4:	fcf72823          	sw	a5,-48(a4)
   11dc8:	00400793          	li	a5,4
   11dcc:	40a787b3          	sub	a5,a5,a0
   11dd0:	f89ff06f          	j	11d58 <__subtf3+0x730>
   11dd4:	ffc5a803          	lw	a6,-4(a1)
   11dd8:	0005af03          	lw	t5,0(a1)
   11ddc:	00289e93          	slli	t4,a7,0x2
   11de0:	00f85833          	srl	a6,a6,a5
   11de4:	006f1f33          	sll	t5,t5,t1
   11de8:	01de0eb3          	add	t4,t3,t4
   11dec:	01e86833          	or	a6,a6,t5
   11df0:	010ea023          	sw	a6,0(t4)
   11df4:	00188893          	addi	a7,a7,1
   11df8:	fb1ff06f          	j	11da8 <__subtf3+0x780>
   11dfc:	00279713          	slli	a4,a5,0x2
   11e00:	00ee0733          	add	a4,t3,a4
   11e04:	00072023          	sw	zero,0(a4)
   11e08:	00178793          	addi	a5,a5,1
   11e0c:	fef5d8e3          	bge	a1,a5,11dfc <__subtf3+0x7d4>
   11e10:	01012783          	lw	a5,16(sp)
   11e14:	00d036b3          	snez	a3,a3
   11e18:	00d7e6b3          	or	a3,a5,a3
   11e1c:	00d12823          	sw	a3,16(sp)
   11e20:	02012683          	lw	a3,32(sp)
   11e24:	01012783          	lw	a5,16(sp)
   11e28:	02412703          	lw	a4,36(sp)
   11e2c:	01812503          	lw	a0,24(sp)
   11e30:	00f687b3          	add	a5,a3,a5
   11e34:	00d7b6b3          	sltu	a3,a5,a3
   11e38:	02f12823          	sw	a5,48(sp)
   11e3c:	01412783          	lw	a5,20(sp)
   11e40:	01c12803          	lw	a6,28(sp)
   11e44:	00060413          	mv	s0,a2
   11e48:	00f707b3          	add	a5,a4,a5
   11e4c:	00d785b3          	add	a1,a5,a3
   11e50:	00e7b733          	sltu	a4,a5,a4
   11e54:	00d5b7b3          	sltu	a5,a1,a3
   11e58:	00f767b3          	or	a5,a4,a5
   11e5c:	02812703          	lw	a4,40(sp)
   11e60:	02c12683          	lw	a3,44(sp)
   11e64:	02b12a23          	sw	a1,52(sp)
   11e68:	00a70533          	add	a0,a4,a0
   11e6c:	00f505b3          	add	a1,a0,a5
   11e70:	00e53733          	sltu	a4,a0,a4
   11e74:	00f5b7b3          	sltu	a5,a1,a5
   11e78:	010686b3          	add	a3,a3,a6
   11e7c:	00f76733          	or	a4,a4,a5
   11e80:	00e68733          	add	a4,a3,a4
   11e84:	02b12c23          	sw	a1,56(sp)
   11e88:	02e12e23          	sw	a4,60(sp)
   11e8c:	b61ff06f          	j	119ec <__subtf3+0x3c4>
   11e90:	00008fb7          	lui	t6,0x8
   11e94:	00140f13          	addi	t5,s0,1
   11e98:	ffef8613          	addi	a2,t6,-2 # 7ffe <_svfprintf_r+0x11f6>
   11e9c:	00cf7633          	and	a2,t5,a2
   11ea0:	02412683          	lw	a3,36(sp)
   11ea4:	02812583          	lw	a1,40(sp)
   11ea8:	02c12503          	lw	a0,44(sp)
   11eac:	01412303          	lw	t1,20(sp)
   11eb0:	01812883          	lw	a7,24(sp)
   11eb4:	01c12e03          	lw	t3,28(sp)
   11eb8:	03010813          	addi	a6,sp,48
   11ebc:	03c10e93          	addi	t4,sp,60
   11ec0:	14061663          	bnez	a2,1200c <__subtf3+0x9e4>
   11ec4:	01136633          	or	a2,t1,a7
   11ec8:	01c66633          	or	a2,a2,t3
   11ecc:	00e66633          	or	a2,a2,a4
   11ed0:	0a041663          	bnez	s0,11f7c <__subtf3+0x954>
   11ed4:	00061c63          	bnez	a2,11eec <__subtf3+0x8c4>
   11ed8:	02f12823          	sw	a5,48(sp)
   11edc:	02d12a23          	sw	a3,52(sp)
   11ee0:	02b12c23          	sw	a1,56(sp)
   11ee4:	02a12e23          	sw	a0,60(sp)
   11ee8:	bd9ff06f          	j	11ac0 <__subtf3+0x498>
   11eec:	00b6e633          	or	a2,a3,a1
   11ef0:	00a66633          	or	a2,a2,a0
   11ef4:	00f66633          	or	a2,a2,a5
   11ef8:	00061c63          	bnez	a2,11f10 <__subtf3+0x8e8>
   11efc:	02e12823          	sw	a4,48(sp)
   11f00:	02612a23          	sw	t1,52(sp)
   11f04:	03112c23          	sw	a7,56(sp)
   11f08:	03c12e23          	sw	t3,60(sp)
   11f0c:	bb5ff06f          	j	11ac0 <__subtf3+0x498>
   11f10:	00f707b3          	add	a5,a4,a5
   11f14:	00e7b733          	sltu	a4,a5,a4
   11f18:	006686b3          	add	a3,a3,t1
   11f1c:	02f12823          	sw	a5,48(sp)
   11f20:	00e687b3          	add	a5,a3,a4
   11f24:	00e7b733          	sltu	a4,a5,a4
   11f28:	0066b6b3          	sltu	a3,a3,t1
   11f2c:	00e6e733          	or	a4,a3,a4
   11f30:	011585b3          	add	a1,a1,a7
   11f34:	02f12a23          	sw	a5,52(sp)
   11f38:	00e587b3          	add	a5,a1,a4
   11f3c:	0115b633          	sltu	a2,a1,a7
   11f40:	00e7b733          	sltu	a4,a5,a4
   11f44:	00e66733          	or	a4,a2,a4
   11f48:	01c50633          	add	a2,a0,t3
   11f4c:	00c70633          	add	a2,a4,a2
   11f50:	02f12c23          	sw	a5,56(sp)
   11f54:	00c61793          	slli	a5,a2,0xc
   11f58:	0007c663          	bltz	a5,11f64 <__subtf3+0x93c>
   11f5c:	02c12e23          	sw	a2,60(sp)
   11f60:	b61ff06f          	j	11ac0 <__subtf3+0x498>
   11f64:	fff80737          	lui	a4,0xfff80
   11f68:	fff70713          	addi	a4,a4,-1 # fff7ffff <__stack_top+0x7ff3617f>
   11f6c:	00e67633          	and	a2,a2,a4
   11f70:	02c12e23          	sw	a2,60(sp)
   11f74:	00100413          	li	s0,1
   11f78:	b49ff06f          	j	11ac0 <__subtf3+0x498>
   11f7c:	00061e63          	bnez	a2,11f98 <__subtf3+0x970>
   11f80:	02f12823          	sw	a5,48(sp)
   11f84:	02d12a23          	sw	a3,52(sp)
   11f88:	02b12c23          	sw	a1,56(sp)
   11f8c:	02a12e23          	sw	a0,60(sp)
   11f90:	ffff8413          	addi	s0,t6,-1
   11f94:	b2dff06f          	j	11ac0 <__subtf3+0x498>
   11f98:	00b6e633          	or	a2,a3,a1
   11f9c:	00a66633          	or	a2,a2,a0
   11fa0:	00f667b3          	or	a5,a2,a5
   11fa4:	00079c63          	bnez	a5,11fbc <__subtf3+0x994>
   11fa8:	02e12823          	sw	a4,48(sp)
   11fac:	02612a23          	sw	t1,52(sp)
   11fb0:	03112c23          	sw	a7,56(sp)
   11fb4:	03c12e23          	sw	t3,60(sp)
   11fb8:	fd9ff06f          	j	11f90 <__subtf3+0x968>
   11fbc:	03f12e23          	sw	t6,60(sp)
   11fc0:	02012c23          	sw	zero,56(sp)
   11fc4:	02012a23          	sw	zero,52(sp)
   11fc8:	02012823          	sw	zero,48(sp)
   11fcc:	000e8793          	mv	a5,t4
   11fd0:	0007a703          	lw	a4,0(a5)
   11fd4:	ffc7a683          	lw	a3,-4(a5)
   11fd8:	ffc78793          	addi	a5,a5,-4
   11fdc:	00371713          	slli	a4,a4,0x3
   11fe0:	01d6d693          	srli	a3,a3,0x1d
   11fe4:	00d76733          	or	a4,a4,a3
   11fe8:	00e7a223          	sw	a4,4(a5)
   11fec:	fef812e3          	bne	a6,a5,11fd0 <__subtf3+0x9a8>
   11ff0:	03012783          	lw	a5,48(sp)
   11ff4:	00008437          	lui	s0,0x8
   11ff8:	00000913          	li	s2,0
   11ffc:	00379793          	slli	a5,a5,0x3
   12000:	02f12823          	sw	a5,48(sp)
   12004:	fff40413          	addi	s0,s0,-1 # 7fff <_svfprintf_r+0x11f7>
   12008:	ab9ff06f          	j	11ac0 <__subtf3+0x498>
   1200c:	00f707b3          	add	a5,a4,a5
   12010:	00e7b733          	sltu	a4,a5,a4
   12014:	006686b3          	add	a3,a3,t1
   12018:	02f12823          	sw	a5,48(sp)
   1201c:	00e687b3          	add	a5,a3,a4
   12020:	00e7b733          	sltu	a4,a5,a4
   12024:	0066b6b3          	sltu	a3,a3,t1
   12028:	00e6e733          	or	a4,a3,a4
   1202c:	01158633          	add	a2,a1,a7
   12030:	00e606b3          	add	a3,a2,a4
   12034:	00e6b733          	sltu	a4,a3,a4
   12038:	01163633          	sltu	a2,a2,a7
   1203c:	00e66633          	or	a2,a2,a4
   12040:	01c50733          	add	a4,a0,t3
   12044:	00e60633          	add	a2,a2,a4
   12048:	02f12a23          	sw	a5,52(sp)
   1204c:	02d12c23          	sw	a3,56(sp)
   12050:	02c12e23          	sw	a2,60(sp)
   12054:	00080793          	mv	a5,a6
   12058:	0007a703          	lw	a4,0(a5)
   1205c:	0047a683          	lw	a3,4(a5)
   12060:	00478793          	addi	a5,a5,4
   12064:	00175713          	srli	a4,a4,0x1
   12068:	01f69693          	slli	a3,a3,0x1f
   1206c:	00d76733          	or	a4,a4,a3
   12070:	fee7ae23          	sw	a4,-4(a5)
   12074:	fefe92e3          	bne	t4,a5,12058 <__subtf3+0xa30>
   12078:	000087b7          	lui	a5,0x8
   1207c:	fff78793          	addi	a5,a5,-1 # 7fff <_svfprintf_r+0x11f7>
   12080:	00ff0c63          	beq	t5,a5,12098 <__subtf3+0xa70>
   12084:	03c12783          	lw	a5,60(sp)
   12088:	0017d793          	srli	a5,a5,0x1
   1208c:	02f12e23          	sw	a5,60(sp)
   12090:	000f0413          	mv	s0,t5
   12094:	a2dff06f          	j	11ac0 <__subtf3+0x498>
   12098:	02012e23          	sw	zero,60(sp)
   1209c:	02012c23          	sw	zero,56(sp)
   120a0:	02012a23          	sw	zero,52(sp)
   120a4:	02012823          	sw	zero,48(sp)
   120a8:	fe9ff06f          	j	12090 <__subtf3+0xa68>
   120ac:	28a05263          	blez	a0,12330 <__subtf3+0xd08>
   120b0:	0c061263          	bnez	a2,12174 <__subtf3+0xb4c>
   120b4:	02412803          	lw	a6,36(sp)
   120b8:	02812603          	lw	a2,40(sp)
   120bc:	02c12e03          	lw	t3,44(sp)
   120c0:	00c865b3          	or	a1,a6,a2
   120c4:	01c5e5b3          	or	a1,a1,t3
   120c8:	00f5e5b3          	or	a1,a1,a5
   120cc:	ec058463          	beqz	a1,11794 <__subtf3+0x16c>
   120d0:	fff50693          	addi	a3,a0,-1
   120d4:	06069a63          	bnez	a3,12148 <__subtf3+0xb20>
   120d8:	01412883          	lw	a7,20(sp)
   120dc:	40f707b3          	sub	a5,a4,a5
   120e0:	00f735b3          	sltu	a1,a4,a5
   120e4:	41088533          	sub	a0,a7,a6
   120e8:	00a8b333          	sltu	t1,a7,a0
   120ec:	40b50533          	sub	a0,a0,a1
   120f0:	02f12823          	sw	a5,48(sp)
   120f4:	02a12a23          	sw	a0,52(sp)
   120f8:	00000593          	li	a1,0
   120fc:	00f77663          	bgeu	a4,a5,12108 <__subtf3+0xae0>
   12100:	411805b3          	sub	a1,a6,a7
   12104:	0015b593          	seqz	a1,a1
   12108:	01812803          	lw	a6,24(sp)
   1210c:	0065e5b3          	or	a1,a1,t1
   12110:	40c80533          	sub	a0,a6,a2
   12114:	00a837b3          	sltu	a5,a6,a0
   12118:	40b50533          	sub	a0,a0,a1
   1211c:	02a12c23          	sw	a0,56(sp)
   12120:	00058663          	beqz	a1,1212c <__subtf3+0xb04>
   12124:	41060633          	sub	a2,a2,a6
   12128:	00163693          	seqz	a3,a2
   1212c:	01c12703          	lw	a4,28(sp)
   12130:	00f6e7b3          	or	a5,a3,a5
   12134:	41c70733          	sub	a4,a4,t3
   12138:	40f707b3          	sub	a5,a4,a5
   1213c:	02f12e23          	sw	a5,60(sp)
   12140:	00100413          	li	s0,1
   12144:	1cc0006f          	j	12310 <__subtf3+0xce8>
   12148:	000087b7          	lui	a5,0x8
   1214c:	fff78793          	addi	a5,a5,-1 # 7fff <_svfprintf_r+0x11f7>
   12150:	e4f50263          	beq	a0,a5,11794 <__subtf3+0x16c>
   12154:	07400793          	li	a5,116
   12158:	04d7d263          	bge	a5,a3,1219c <__subtf3+0xb74>
   1215c:	00100793          	li	a5,1
   12160:	02012623          	sw	zero,44(sp)
   12164:	02012423          	sw	zero,40(sp)
   12168:	02012223          	sw	zero,36(sp)
   1216c:	02f12023          	sw	a5,32(sp)
   12170:	1280006f          	j	12298 <__subtf3+0xc70>
   12174:	000087b7          	lui	a5,0x8
   12178:	fff78793          	addi	a5,a5,-1 # 7fff <_svfprintf_r+0x11f7>
   1217c:	ecf40863          	beq	s0,a5,1184c <__subtf3+0x224>
   12180:	02c12783          	lw	a5,44(sp)
   12184:	00080737          	lui	a4,0x80
   12188:	00e7e7b3          	or	a5,a5,a4
   1218c:	02f12623          	sw	a5,44(sp)
   12190:	07400793          	li	a5,116
   12194:	fca7c4e3          	blt	a5,a0,1215c <__subtf3+0xb34>
   12198:	00050693          	mv	a3,a0
   1219c:	4056de13          	srai	t3,a3,0x5
   121a0:	01f6f793          	andi	a5,a3,31
   121a4:	00000613          	li	a2,0
   121a8:	00000713          	li	a4,0
   121ac:	00271693          	slli	a3,a4,0x2
   121b0:	03c71863          	bne	a4,t3,121e0 <__subtf3+0xbb8>
   121b4:	04079063          	bnez	a5,121f4 <__subtf3+0xbcc>
   121b8:	00300593          	li	a1,3
   121bc:	40e58733          	sub	a4,a1,a4
   121c0:	00d885b3          	add	a1,a7,a3
   121c4:	0005a583          	lw	a1,0(a1)
   121c8:	00178793          	addi	a5,a5,1
   121cc:	00488893          	addi	a7,a7,4
   121d0:	feb8ae23          	sw	a1,-4(a7)
   121d4:	fef756e3          	bge	a4,a5,121c0 <__subtf3+0xb98>
   121d8:	00400693          	li	a3,4
   121dc:	0a80006f          	j	12284 <__subtf3+0xc5c>
   121e0:	00d306b3          	add	a3,t1,a3
   121e4:	0006a683          	lw	a3,0(a3)
   121e8:	00170713          	addi	a4,a4,1 # 80001 <__trunctfdf2+0x6cfa1>
   121ec:	00d66633          	or	a2,a2,a3
   121f0:	fbdff06f          	j	121ac <__subtf3+0xb84>
   121f4:	04010713          	addi	a4,sp,64
   121f8:	00d70733          	add	a4,a4,a3
   121fc:	fe072703          	lw	a4,-32(a4)
   12200:	02000813          	li	a6,32
   12204:	40f80833          	sub	a6,a6,a5
   12208:	01071733          	sll	a4,a4,a6
   1220c:	00e66633          	or	a2,a2,a4
   12210:	00300713          	li	a4,3
   12214:	00d306b3          	add	a3,t1,a3
   12218:	00000513          	li	a0,0
   1221c:	41c70733          	sub	a4,a4,t3
   12220:	00468693          	addi	a3,a3,4
   12224:	02e54463          	blt	a0,a4,1224c <__subtf3+0xc24>
   12228:	04010693          	addi	a3,sp,64
   1222c:	00271713          	slli	a4,a4,0x2
   12230:	00e68733          	add	a4,a3,a4
   12234:	02c12683          	lw	a3,44(sp)
   12238:	00f6d7b3          	srl	a5,a3,a5
   1223c:	fef72023          	sw	a5,-32(a4)
   12240:	00400793          	li	a5,4
   12244:	41c787b3          	sub	a5,a5,t3
   12248:	f91ff06f          	j	121d8 <__subtf3+0xbb0>
   1224c:	ffc6a583          	lw	a1,-4(a3)
   12250:	0006ae83          	lw	t4,0(a3)
   12254:	00251893          	slli	a7,a0,0x2
   12258:	00f5d5b3          	srl	a1,a1,a5
   1225c:	010e9eb3          	sll	t4,t4,a6
   12260:	011308b3          	add	a7,t1,a7
   12264:	01d5e5b3          	or	a1,a1,t4
   12268:	00b8a023          	sw	a1,0(a7)
   1226c:	00150513          	addi	a0,a0,1
   12270:	fb1ff06f          	j	12220 <__subtf3+0xbf8>
   12274:	00279713          	slli	a4,a5,0x2
   12278:	00e30733          	add	a4,t1,a4
   1227c:	00072023          	sw	zero,0(a4)
   12280:	00178793          	addi	a5,a5,1
   12284:	fed798e3          	bne	a5,a3,12274 <__subtf3+0xc4c>
   12288:	02012783          	lw	a5,32(sp)
   1228c:	00c03633          	snez	a2,a2
   12290:	00c7e633          	or	a2,a5,a2
   12294:	02c12023          	sw	a2,32(sp)
   12298:	01412683          	lw	a3,20(sp)
   1229c:	01012583          	lw	a1,16(sp)
   122a0:	02012703          	lw	a4,32(sp)
   122a4:	02412783          	lw	a5,36(sp)
   122a8:	40e58733          	sub	a4,a1,a4
   122ac:	40f687b3          	sub	a5,a3,a5
   122b0:	00f6b633          	sltu	a2,a3,a5
   122b4:	00e5b6b3          	sltu	a3,a1,a4
   122b8:	40d786b3          	sub	a3,a5,a3
   122bc:	02d12a23          	sw	a3,52(sp)
   122c0:	02e12823          	sw	a4,48(sp)
   122c4:	00000693          	li	a3,0
   122c8:	00e5f463          	bgeu	a1,a4,122d0 <__subtf3+0xca8>
   122cc:	0017b693          	seqz	a3,a5
   122d0:	00c6e6b3          	or	a3,a3,a2
   122d4:	02812703          	lw	a4,40(sp)
   122d8:	01812603          	lw	a2,24(sp)
   122dc:	40e60733          	sub	a4,a2,a4
   122e0:	40d707b3          	sub	a5,a4,a3
   122e4:	02f12c23          	sw	a5,56(sp)
   122e8:	00e635b3          	sltu	a1,a2,a4
   122ec:	00000613          	li	a2,0
   122f0:	00068463          	beqz	a3,122f8 <__subtf3+0xcd0>
   122f4:	00173613          	seqz	a2,a4
   122f8:	01c12783          	lw	a5,28(sp)
   122fc:	02c12703          	lw	a4,44(sp)
   12300:	00b66633          	or	a2,a2,a1
   12304:	40e787b3          	sub	a5,a5,a4
   12308:	40c787b3          	sub	a5,a5,a2
   1230c:	02f12e23          	sw	a5,60(sp)
   12310:	03c12783          	lw	a5,60(sp)
   12314:	00c79713          	slli	a4,a5,0xc
   12318:	fa075463          	bgez	a4,11ac0 <__subtf3+0x498>
   1231c:	00080737          	lui	a4,0x80
   12320:	fff70713          	addi	a4,a4,-1 # 7ffff <__trunctfdf2+0x6cf9f>
   12324:	00e7f7b3          	and	a5,a5,a4
   12328:	02f12e23          	sw	a5,60(sp)
   1232c:	59c0006f          	j	128c8 <__subtf3+0x12a0>
   12330:	2c050e63          	beqz	a0,1260c <__subtf3+0xfe4>
   12334:	408606b3          	sub	a3,a2,s0
   12338:	0e041663          	bnez	s0,12424 <__subtf3+0xdfc>
   1233c:	01412303          	lw	t1,20(sp)
   12340:	01812883          	lw	a7,24(sp)
   12344:	01c12f03          	lw	t5,28(sp)
   12348:	01136eb3          	or	t4,t1,a7
   1234c:	01eeeeb3          	or	t4,t4,t5
   12350:	00eeeeb3          	or	t4,t4,a4
   12354:	020e9663          	bnez	t4,12380 <__subtf3+0xd58>
   12358:	02f12823          	sw	a5,48(sp)
   1235c:	02412783          	lw	a5,36(sp)
   12360:	00068413          	mv	s0,a3
   12364:	02f12a23          	sw	a5,52(sp)
   12368:	02812783          	lw	a5,40(sp)
   1236c:	02f12c23          	sw	a5,56(sp)
   12370:	02c12783          	lw	a5,44(sp)
   12374:	02f12e23          	sw	a5,60(sp)
   12378:	00080913          	mv	s2,a6
   1237c:	f44ff06f          	j	11ac0 <__subtf3+0x498>
   12380:	fff68513          	addi	a0,a3,-1
   12384:	06051a63          	bnez	a0,123f8 <__subtf3+0xdd0>
   12388:	02412583          	lw	a1,36(sp)
   1238c:	40e78733          	sub	a4,a5,a4
   12390:	00e7b6b3          	sltu	a3,a5,a4
   12394:	40658633          	sub	a2,a1,t1
   12398:	00c5be33          	sltu	t3,a1,a2
   1239c:	40d60633          	sub	a2,a2,a3
   123a0:	02e12823          	sw	a4,48(sp)
   123a4:	02c12a23          	sw	a2,52(sp)
   123a8:	00000693          	li	a3,0
   123ac:	00e7f663          	bgeu	a5,a4,123b8 <__subtf3+0xd90>
   123b0:	40b306b3          	sub	a3,t1,a1
   123b4:	0016b693          	seqz	a3,a3
   123b8:	02812583          	lw	a1,40(sp)
   123bc:	01c6e733          	or	a4,a3,t3
   123c0:	411586b3          	sub	a3,a1,a7
   123c4:	00d5b633          	sltu	a2,a1,a3
   123c8:	40e686b3          	sub	a3,a3,a4
   123cc:	02d12c23          	sw	a3,56(sp)
   123d0:	00070663          	beqz	a4,123dc <__subtf3+0xdb4>
   123d4:	40b888b3          	sub	a7,a7,a1
   123d8:	0018b513          	seqz	a0,a7
   123dc:	02c12783          	lw	a5,44(sp)
   123e0:	00c56533          	or	a0,a0,a2
   123e4:	00080913          	mv	s2,a6
   123e8:	41e787b3          	sub	a5,a5,t5
   123ec:	40a78533          	sub	a0,a5,a0
   123f0:	02a12e23          	sw	a0,60(sp)
   123f4:	d4dff06f          	j	12140 <__subtf3+0xb18>
   123f8:	00008737          	lui	a4,0x8
   123fc:	fff70713          	addi	a4,a4,-1 # 7fff <_svfprintf_r+0x11f7>
   12400:	f4e68ce3          	beq	a3,a4,12358 <__subtf3+0xd30>
   12404:	07400793          	li	a5,116
   12408:	0aa7dc63          	bge	a5,a0,124c0 <__subtf3+0xe98>
   1240c:	00100793          	li	a5,1
   12410:	00012e23          	sw	zero,28(sp)
   12414:	00012c23          	sw	zero,24(sp)
   12418:	00012a23          	sw	zero,20(sp)
   1241c:	00f12823          	sw	a5,16(sp)
   12420:	1680006f          	j	12588 <__subtf3+0xf60>
   12424:	00008737          	lui	a4,0x8
   12428:	fff70713          	addi	a4,a4,-1 # 7fff <_svfprintf_r+0x11f7>
   1242c:	02e61463          	bne	a2,a4,12454 <__subtf3+0xe2c>
   12430:	02f12823          	sw	a5,48(sp)
   12434:	02412783          	lw	a5,36(sp)
   12438:	00060413          	mv	s0,a2
   1243c:	02f12a23          	sw	a5,52(sp)
   12440:	02812783          	lw	a5,40(sp)
   12444:	02f12c23          	sw	a5,56(sp)
   12448:	02c12783          	lw	a5,44(sp)
   1244c:	02f12e23          	sw	a5,60(sp)
   12450:	f29ff06f          	j	12378 <__subtf3+0xd50>
   12454:	01c12783          	lw	a5,28(sp)
   12458:	00080737          	lui	a4,0x80
   1245c:	00e7e7b3          	or	a5,a5,a4
   12460:	00f12e23          	sw	a5,28(sp)
   12464:	07400793          	li	a5,116
   12468:	fad7c2e3          	blt	a5,a3,1240c <__subtf3+0xde4>
   1246c:	02000793          	li	a5,32
   12470:	02f6c533          	div	a0,a3,a5
   12474:	00000713          	li	a4,0
   12478:	02f6e7b3          	rem	a5,a3,a5
   1247c:	00000693          	li	a3,0
   12480:	04a74463          	blt	a4,a0,124c8 <__subtf3+0xea0>
   12484:	00050893          	mv	a7,a0
   12488:	00055463          	bgez	a0,12490 <__subtf3+0xe68>
   1248c:	00000893          	li	a7,0
   12490:	00251713          	slli	a4,a0,0x2
   12494:	04079663          	bnez	a5,124e0 <__subtf3+0xeb8>
   12498:	00300893          	li	a7,3
   1249c:	40a88533          	sub	a0,a7,a0
   124a0:	00e588b3          	add	a7,a1,a4
   124a4:	0008a883          	lw	a7,0(a7)
   124a8:	00178793          	addi	a5,a5,1
   124ac:	00458593          	addi	a1,a1,4
   124b0:	ff15ae23          	sw	a7,-4(a1)
   124b4:	fef556e3          	bge	a0,a5,124a0 <__subtf3+0xe78>
   124b8:	00300593          	li	a1,3
   124bc:	0b80006f          	j	12574 <__subtf3+0xf4c>
   124c0:	00050693          	mv	a3,a0
   124c4:	fa9ff06f          	j	1246c <__subtf3+0xe44>
   124c8:	00271893          	slli	a7,a4,0x2
   124cc:	011e08b3          	add	a7,t3,a7
   124d0:	0008a883          	lw	a7,0(a7)
   124d4:	00170713          	addi	a4,a4,1 # 80001 <__trunctfdf2+0x6cfa1>
   124d8:	0116e6b3          	or	a3,a3,a7
   124dc:	fa5ff06f          	j	12480 <__subtf3+0xe58>
   124e0:	04010593          	addi	a1,sp,64
   124e4:	00289893          	slli	a7,a7,0x2
   124e8:	011588b3          	add	a7,a1,a7
   124ec:	fd08a583          	lw	a1,-48(a7)
   124f0:	02000e93          	li	t4,32
   124f4:	40fe8eb3          	sub	t4,t4,a5
   124f8:	01d595b3          	sll	a1,a1,t4
   124fc:	00b6e6b3          	or	a3,a3,a1
   12500:	00ee05b3          	add	a1,t3,a4
   12504:	00300713          	li	a4,3
   12508:	00000313          	li	t1,0
   1250c:	40a70733          	sub	a4,a4,a0
   12510:	00458593          	addi	a1,a1,4
   12514:	02e34463          	blt	t1,a4,1253c <__subtf3+0xf14>
   12518:	04010593          	addi	a1,sp,64
   1251c:	00271713          	slli	a4,a4,0x2
   12520:	00e58733          	add	a4,a1,a4
   12524:	01c12583          	lw	a1,28(sp)
   12528:	00f5d7b3          	srl	a5,a1,a5
   1252c:	fcf72823          	sw	a5,-48(a4)
   12530:	00400793          	li	a5,4
   12534:	40a787b3          	sub	a5,a5,a0
   12538:	f81ff06f          	j	124b8 <__subtf3+0xe90>
   1253c:	ffc5a883          	lw	a7,-4(a1)
   12540:	0005af83          	lw	t6,0(a1)
   12544:	00231f13          	slli	t5,t1,0x2
   12548:	00f8d8b3          	srl	a7,a7,a5
   1254c:	01df9fb3          	sll	t6,t6,t4
   12550:	01ee0f33          	add	t5,t3,t5
   12554:	01f8e8b3          	or	a7,a7,t6
   12558:	011f2023          	sw	a7,0(t5)
   1255c:	00130313          	addi	t1,t1,1
   12560:	fb1ff06f          	j	12510 <__subtf3+0xee8>
   12564:	00279713          	slli	a4,a5,0x2
   12568:	00ee0733          	add	a4,t3,a4
   1256c:	00072023          	sw	zero,0(a4)
   12570:	00178793          	addi	a5,a5,1
   12574:	fef5d8e3          	bge	a1,a5,12564 <__subtf3+0xf3c>
   12578:	01012783          	lw	a5,16(sp)
   1257c:	00d036b3          	snez	a3,a3
   12580:	00d7e6b3          	or	a3,a5,a3
   12584:	00d12823          	sw	a3,16(sp)
   12588:	02412683          	lw	a3,36(sp)
   1258c:	02012503          	lw	a0,32(sp)
   12590:	01012703          	lw	a4,16(sp)
   12594:	01412783          	lw	a5,20(sp)
   12598:	40e50733          	sub	a4,a0,a4
   1259c:	40f687b3          	sub	a5,a3,a5
   125a0:	00f6b5b3          	sltu	a1,a3,a5
   125a4:	00e536b3          	sltu	a3,a0,a4
   125a8:	40d786b3          	sub	a3,a5,a3
   125ac:	02d12a23          	sw	a3,52(sp)
   125b0:	02e12823          	sw	a4,48(sp)
   125b4:	00000693          	li	a3,0
   125b8:	00e57463          	bgeu	a0,a4,125c0 <__subtf3+0xf98>
   125bc:	0017b693          	seqz	a3,a5
   125c0:	00b6e6b3          	or	a3,a3,a1
   125c4:	01812703          	lw	a4,24(sp)
   125c8:	02812583          	lw	a1,40(sp)
   125cc:	40e58733          	sub	a4,a1,a4
   125d0:	40d707b3          	sub	a5,a4,a3
   125d4:	02f12c23          	sw	a5,56(sp)
   125d8:	00e5b533          	sltu	a0,a1,a4
   125dc:	00000593          	li	a1,0
   125e0:	00068463          	beqz	a3,125e8 <__subtf3+0xfc0>
   125e4:	00173593          	seqz	a1,a4
   125e8:	02c12783          	lw	a5,44(sp)
   125ec:	01c12703          	lw	a4,28(sp)
   125f0:	00a5e5b3          	or	a1,a1,a0
   125f4:	00060413          	mv	s0,a2
   125f8:	40e787b3          	sub	a5,a5,a4
   125fc:	40b787b3          	sub	a5,a5,a1
   12600:	02f12e23          	sw	a5,60(sp)
   12604:	00080913          	mv	s2,a6
   12608:	d09ff06f          	j	12310 <__subtf3+0xce8>
   1260c:	00008fb7          	lui	t6,0x8
   12610:	ffef8693          	addi	a3,t6,-2 # 7ffe <_svfprintf_r+0x11f6>
   12614:	00140593          	addi	a1,s0,1
   12618:	00d5f5b3          	and	a1,a1,a3
   1261c:	02412603          	lw	a2,36(sp)
   12620:	01412683          	lw	a3,20(sp)
   12624:	01812883          	lw	a7,24(sp)
   12628:	01c12e83          	lw	t4,28(sp)
   1262c:	02812303          	lw	t1,40(sp)
   12630:	02c12e03          	lw	t3,44(sp)
   12634:	1c059c63          	bnez	a1,1280c <__subtf3+0x11e4>
   12638:	006665b3          	or	a1,a2,t1
   1263c:	0116ef33          	or	t5,a3,a7
   12640:	01c5e5b3          	or	a1,a1,t3
   12644:	01df6f33          	or	t5,t5,t4
   12648:	00f5e5b3          	or	a1,a1,a5
   1264c:	00ef6f33          	or	t5,t5,a4
   12650:	10041863          	bnez	s0,12760 <__subtf3+0x1138>
   12654:	020f1463          	bnez	t5,1267c <__subtf3+0x1054>
   12658:	02f12823          	sw	a5,48(sp)
   1265c:	02c12a23          	sw	a2,52(sp)
   12660:	02612c23          	sw	t1,56(sp)
   12664:	03c12e23          	sw	t3,60(sp)
   12668:	00080913          	mv	s2,a6
   1266c:	c4059a63          	bnez	a1,11ac0 <__subtf3+0x498>
   12670:	00000413          	li	s0,0
   12674:	00000913          	li	s2,0
   12678:	c48ff06f          	j	11ac0 <__subtf3+0x498>
   1267c:	00059c63          	bnez	a1,12694 <__subtf3+0x106c>
   12680:	02e12823          	sw	a4,48(sp)
   12684:	02d12a23          	sw	a3,52(sp)
   12688:	03112c23          	sw	a7,56(sp)
   1268c:	03d12e23          	sw	t4,60(sp)
   12690:	c30ff06f          	j	11ac0 <__subtf3+0x498>
   12694:	40f705b3          	sub	a1,a4,a5
   12698:	40c682b3          	sub	t0,a3,a2
   1269c:	00b73fb3          	sltu	t6,a4,a1
   126a0:	0056bf33          	sltu	t5,a3,t0
   126a4:	41f282b3          	sub	t0,t0,t6
   126a8:	02b12823          	sw	a1,48(sp)
   126ac:	02512a23          	sw	t0,52(sp)
   126b0:	00000f93          	li	t6,0
   126b4:	00b77663          	bgeu	a4,a1,126c0 <__subtf3+0x1098>
   126b8:	40d60fb3          	sub	t6,a2,a3
   126bc:	001fbf93          	seqz	t6,t6
   126c0:	406883b3          	sub	t2,a7,t1
   126c4:	01efefb3          	or	t6,t6,t5
   126c8:	41f38a33          	sub	s4,t2,t6
   126cc:	03412c23          	sw	s4,56(sp)
   126d0:	0078bab3          	sltu	s5,a7,t2
   126d4:	00000993          	li	s3,0
   126d8:	000f8463          	beqz	t6,126e0 <__subtf3+0x10b8>
   126dc:	0013b993          	seqz	s3,t2
   126e0:	41ce8f33          	sub	t5,t4,t3
   126e4:	0159e9b3          	or	s3,s3,s5
   126e8:	413f0f33          	sub	t5,t5,s3
   126ec:	03e12e23          	sw	t5,60(sp)
   126f0:	00cf1f93          	slli	t6,t5,0xc
   126f4:	040fde63          	bgez	t6,12750 <__subtf3+0x1128>
   126f8:	40e78733          	sub	a4,a5,a4
   126fc:	40d606b3          	sub	a3,a2,a3
   12700:	00e7b5b3          	sltu	a1,a5,a4
   12704:	40b685b3          	sub	a1,a3,a1
   12708:	02b12a23          	sw	a1,52(sp)
   1270c:	02e12823          	sw	a4,48(sp)
   12710:	00d63633          	sltu	a2,a2,a3
   12714:	00000593          	li	a1,0
   12718:	00e7f463          	bgeu	a5,a4,12720 <__subtf3+0x10f8>
   1271c:	0016b593          	seqz	a1,a3
   12720:	41130733          	sub	a4,t1,a7
   12724:	00c5e633          	or	a2,a1,a2
   12728:	00e337b3          	sltu	a5,t1,a4
   1272c:	40c70733          	sub	a4,a4,a2
   12730:	02e12c23          	sw	a4,56(sp)
   12734:	00060463          	beqz	a2,1273c <__subtf3+0x1114>
   12738:	0013b513          	seqz	a0,t2
   1273c:	41de0733          	sub	a4,t3,t4
   12740:	00f567b3          	or	a5,a0,a5
   12744:	40f70e33          	sub	t3,a4,a5
   12748:	03c12e23          	sw	t3,60(sp)
   1274c:	c2dff06f          	j	12378 <__subtf3+0xd50>
   12750:	0055e5b3          	or	a1,a1,t0
   12754:	0145e5b3          	or	a1,a1,s4
   12758:	01e5e5b3          	or	a1,a1,t5
   1275c:	f11ff06f          	j	1266c <__subtf3+0x1044>
   12760:	03010513          	addi	a0,sp,48
   12764:	040f1c63          	bnez	t5,127bc <__subtf3+0x1194>
   12768:	02059e63          	bnez	a1,127a4 <__subtf3+0x117c>
   1276c:	03f12e23          	sw	t6,60(sp)
   12770:	02012c23          	sw	zero,56(sp)
   12774:	02012a23          	sw	zero,52(sp)
   12778:	02012823          	sw	zero,48(sp)
   1277c:	03c10793          	addi	a5,sp,60
   12780:	0007a703          	lw	a4,0(a5)
   12784:	ffc7a683          	lw	a3,-4(a5)
   12788:	ffc78793          	addi	a5,a5,-4
   1278c:	00371713          	slli	a4,a4,0x3
   12790:	01d6d693          	srli	a3,a3,0x1d
   12794:	00d76733          	or	a4,a4,a3
   12798:	00e7a223          	sw	a4,4(a5)
   1279c:	fef512e3          	bne	a0,a5,12780 <__subtf3+0x1158>
   127a0:	851ff06f          	j	11ff0 <__subtf3+0x9c8>
   127a4:	02f12823          	sw	a5,48(sp)
   127a8:	02c12a23          	sw	a2,52(sp)
   127ac:	02612c23          	sw	t1,56(sp)
   127b0:	03c12e23          	sw	t3,60(sp)
   127b4:	00080913          	mv	s2,a6
   127b8:	fd8ff06f          	j	11f90 <__subtf3+0x968>
   127bc:	00059c63          	bnez	a1,127d4 <__subtf3+0x11ac>
   127c0:	02e12823          	sw	a4,48(sp)
   127c4:	02d12a23          	sw	a3,52(sp)
   127c8:	03112c23          	sw	a7,56(sp)
   127cc:	03d12e23          	sw	t4,60(sp)
   127d0:	fc0ff06f          	j	11f90 <__subtf3+0x968>
   127d4:	03f12e23          	sw	t6,60(sp)
   127d8:	02012c23          	sw	zero,56(sp)
   127dc:	02012a23          	sw	zero,52(sp)
   127e0:	02012823          	sw	zero,48(sp)
   127e4:	03c10793          	addi	a5,sp,60
   127e8:	0007a703          	lw	a4,0(a5)
   127ec:	ffc7a683          	lw	a3,-4(a5)
   127f0:	ffc78793          	addi	a5,a5,-4
   127f4:	00371713          	slli	a4,a4,0x3
   127f8:	01d6d693          	srli	a3,a3,0x1d
   127fc:	00d76733          	or	a4,a4,a3
   12800:	00e7a223          	sw	a4,4(a5)
   12804:	fef512e3          	bne	a0,a5,127e8 <__subtf3+0x11c0>
   12808:	fe8ff06f          	j	11ff0 <__subtf3+0x9c8>
   1280c:	40f705b3          	sub	a1,a4,a5
   12810:	40c682b3          	sub	t0,a3,a2
   12814:	00b73fb3          	sltu	t6,a4,a1
   12818:	0056bf33          	sltu	t5,a3,t0
   1281c:	41f282b3          	sub	t0,t0,t6
   12820:	02b12823          	sw	a1,48(sp)
   12824:	02512a23          	sw	t0,52(sp)
   12828:	00000f93          	li	t6,0
   1282c:	00b77663          	bgeu	a4,a1,12838 <__subtf3+0x1210>
   12830:	40d60fb3          	sub	t6,a2,a3
   12834:	001fbf93          	seqz	t6,t6
   12838:	406883b3          	sub	t2,a7,t1
   1283c:	01efefb3          	or	t6,t6,t5
   12840:	41f38a33          	sub	s4,t2,t6
   12844:	03412c23          	sw	s4,56(sp)
   12848:	0078bab3          	sltu	s5,a7,t2
   1284c:	00000993          	li	s3,0
   12850:	000f8463          	beqz	t6,12858 <__subtf3+0x1230>
   12854:	0013b993          	seqz	s3,t2
   12858:	41ce8f33          	sub	t5,t4,t3
   1285c:	0159e9b3          	or	s3,s3,s5
   12860:	413f0f33          	sub	t5,t5,s3
   12864:	03e12e23          	sw	t5,60(sp)
   12868:	00cf1f93          	slli	t6,t5,0xc
   1286c:	0c0fd063          	bgez	t6,1292c <__subtf3+0x1304>
   12870:	40e78733          	sub	a4,a5,a4
   12874:	40d606b3          	sub	a3,a2,a3
   12878:	00e7b5b3          	sltu	a1,a5,a4
   1287c:	40b685b3          	sub	a1,a3,a1
   12880:	02b12a23          	sw	a1,52(sp)
   12884:	02e12823          	sw	a4,48(sp)
   12888:	00d63633          	sltu	a2,a2,a3
   1288c:	00000593          	li	a1,0
   12890:	00e7f463          	bgeu	a5,a4,12898 <__subtf3+0x1270>
   12894:	0016b593          	seqz	a1,a3
   12898:	41130733          	sub	a4,t1,a7
   1289c:	00c5e633          	or	a2,a1,a2
   128a0:	00e336b3          	sltu	a3,t1,a4
   128a4:	40c70733          	sub	a4,a4,a2
   128a8:	02e12c23          	sw	a4,56(sp)
   128ac:	00060463          	beqz	a2,128b4 <__subtf3+0x128c>
   128b0:	0013b513          	seqz	a0,t2
   128b4:	41de0733          	sub	a4,t3,t4
   128b8:	00d567b3          	or	a5,a0,a3
   128bc:	40f707b3          	sub	a5,a4,a5
   128c0:	02f12e23          	sw	a5,60(sp)
   128c4:	00080913          	mv	s2,a6
   128c8:	03c12503          	lw	a0,60(sp)
   128cc:	06050a63          	beqz	a0,12940 <__subtf3+0x1318>
   128d0:	ffff3097          	auipc	ra,0xffff3
   128d4:	ac0080e7          	jalr	-1344(ra) # 5390 <__clzsi2>
   128d8:	ff450513          	addi	a0,a0,-12
   128dc:	02000693          	li	a3,32
   128e0:	02d56833          	rem	a6,a0,a3
   128e4:	02d547b3          	div	a5,a0,a3
   128e8:	08080e63          	beqz	a6,12984 <__subtf3+0x135c>
   128ec:	ffc00713          	li	a4,-4
   128f0:	03010313          	addi	t1,sp,48
   128f4:	00279593          	slli	a1,a5,0x2
   128f8:	410686b3          	sub	a3,a3,a6
   128fc:	02e78733          	mul	a4,a5,a4
   12900:	00c70713          	addi	a4,a4,12
   12904:	00e30733          	add	a4,t1,a4
   12908:	0ae31663          	bne	t1,a4,129b4 <__subtf3+0x138c>
   1290c:	04010713          	addi	a4,sp,64
   12910:	00b705b3          	add	a1,a4,a1
   12914:	03012703          	lw	a4,48(sp)
   12918:	fff78793          	addi	a5,a5,-1
   1291c:	01071833          	sll	a6,a4,a6
   12920:	ff05a823          	sw	a6,-16(a1)
   12924:	fff00693          	li	a3,-1
   12928:	0c40006f          	j	129ec <__subtf3+0x13c4>
   1292c:	0055e5b3          	or	a1,a1,t0
   12930:	0145e5b3          	or	a1,a1,s4
   12934:	01e5e5b3          	or	a1,a1,t5
   12938:	d2058ce3          	beqz	a1,12670 <__subtf3+0x1048>
   1293c:	f8dff06f          	j	128c8 <__subtf3+0x12a0>
   12940:	03812503          	lw	a0,56(sp)
   12944:	00050a63          	beqz	a0,12958 <__subtf3+0x1330>
   12948:	ffff3097          	auipc	ra,0xffff3
   1294c:	a48080e7          	jalr	-1464(ra) # 5390 <__clzsi2>
   12950:	02050513          	addi	a0,a0,32
   12954:	f85ff06f          	j	128d8 <__subtf3+0x12b0>
   12958:	03412503          	lw	a0,52(sp)
   1295c:	00050a63          	beqz	a0,12970 <__subtf3+0x1348>
   12960:	ffff3097          	auipc	ra,0xffff3
   12964:	a30080e7          	jalr	-1488(ra) # 5390 <__clzsi2>
   12968:	04050513          	addi	a0,a0,64
   1296c:	f6dff06f          	j	128d8 <__subtf3+0x12b0>
   12970:	03012503          	lw	a0,48(sp)
   12974:	ffff3097          	auipc	ra,0xffff3
   12978:	a1c080e7          	jalr	-1508(ra) # 5390 <__clzsi2>
   1297c:	06050513          	addi	a0,a0,96
   12980:	f59ff06f          	j	128d8 <__subtf3+0x12b0>
   12984:	ffc00613          	li	a2,-4
   12988:	02c78633          	mul	a2,a5,a2
   1298c:	03c10713          	addi	a4,sp,60
   12990:	00300693          	li	a3,3
   12994:	00c705b3          	add	a1,a4,a2
   12998:	0005a583          	lw	a1,0(a1)
   1299c:	fff68693          	addi	a3,a3,-1
   129a0:	ffc70713          	addi	a4,a4,-4
   129a4:	00b72223          	sw	a1,4(a4)
   129a8:	fef6d6e3          	bge	a3,a5,12994 <__subtf3+0x136c>
   129ac:	fff78793          	addi	a5,a5,-1
   129b0:	f75ff06f          	j	12924 <__subtf3+0x12fc>
   129b4:	ffc72603          	lw	a2,-4(a4)
   129b8:	00072883          	lw	a7,0(a4)
   129bc:	00b70e33          	add	t3,a4,a1
   129c0:	00d65633          	srl	a2,a2,a3
   129c4:	010898b3          	sll	a7,a7,a6
   129c8:	01166633          	or	a2,a2,a7
   129cc:	00ce2023          	sw	a2,0(t3)
   129d0:	ffc70713          	addi	a4,a4,-4
   129d4:	f35ff06f          	j	12908 <__subtf3+0x12e0>
   129d8:	00279713          	slli	a4,a5,0x2
   129dc:	03010613          	addi	a2,sp,48
   129e0:	00e60733          	add	a4,a2,a4
   129e4:	00072023          	sw	zero,0(a4)
   129e8:	fff78793          	addi	a5,a5,-1
   129ec:	fed796e3          	bne	a5,a3,129d8 <__subtf3+0x13b0>
   129f0:	12854e63          	blt	a0,s0,12b2c <__subtf3+0x1504>
   129f4:	40850433          	sub	s0,a0,s0
   129f8:	00140413          	addi	s0,s0,1
   129fc:	02000793          	li	a5,32
   12a00:	02f44833          	div	a6,s0,a5
   12a04:	00000513          	li	a0,0
   12a08:	00000713          	li	a4,0
   12a0c:	02f46433          	rem	s0,s0,a5
   12a10:	05074263          	blt	a4,a6,12a54 <__subtf3+0x142c>
   12a14:	00080693          	mv	a3,a6
   12a18:	00085463          	bgez	a6,12a20 <__subtf3+0x13f8>
   12a1c:	00000693          	li	a3,0
   12a20:	00281713          	slli	a4,a6,0x2
   12a24:	04041663          	bnez	s0,12a70 <__subtf3+0x1448>
   12a28:	00300793          	li	a5,3
   12a2c:	03010693          	addi	a3,sp,48
   12a30:	41078833          	sub	a6,a5,a6
   12a34:	00e687b3          	add	a5,a3,a4
   12a38:	0007a783          	lw	a5,0(a5)
   12a3c:	00140413          	addi	s0,s0,1
   12a40:	00468693          	addi	a3,a3,4
   12a44:	fef6ae23          	sw	a5,-4(a3)
   12a48:	fe8856e3          	bge	a6,s0,12a34 <__subtf3+0x140c>
   12a4c:	00300713          	li	a4,3
   12a50:	0c00006f          	j	12b10 <__subtf3+0x14e8>
   12a54:	00271793          	slli	a5,a4,0x2
   12a58:	03010693          	addi	a3,sp,48
   12a5c:	00f687b3          	add	a5,a3,a5
   12a60:	0007a783          	lw	a5,0(a5)
   12a64:	00170713          	addi	a4,a4,1
   12a68:	00f56533          	or	a0,a0,a5
   12a6c:	fa5ff06f          	j	12a10 <__subtf3+0x13e8>
   12a70:	04010793          	addi	a5,sp,64
   12a74:	00269693          	slli	a3,a3,0x2
   12a78:	00d786b3          	add	a3,a5,a3
   12a7c:	ff06a783          	lw	a5,-16(a3)
   12a80:	02000593          	li	a1,32
   12a84:	408585b3          	sub	a1,a1,s0
   12a88:	00b797b3          	sll	a5,a5,a1
   12a8c:	00f56533          	or	a0,a0,a5
   12a90:	03010793          	addi	a5,sp,48
   12a94:	00e78733          	add	a4,a5,a4
   12a98:	00300793          	li	a5,3
   12a9c:	00000613          	li	a2,0
   12aa0:	410787b3          	sub	a5,a5,a6
   12aa4:	00470713          	addi	a4,a4,4
   12aa8:	02f64463          	blt	a2,a5,12ad0 <__subtf3+0x14a8>
   12aac:	04010713          	addi	a4,sp,64
   12ab0:	00279793          	slli	a5,a5,0x2
   12ab4:	00f707b3          	add	a5,a4,a5
   12ab8:	03c12703          	lw	a4,60(sp)
   12abc:	00875433          	srl	s0,a4,s0
   12ac0:	fe87a823          	sw	s0,-16(a5)
   12ac4:	00400413          	li	s0,4
   12ac8:	41040433          	sub	s0,s0,a6
   12acc:	f81ff06f          	j	12a4c <__subtf3+0x1424>
   12ad0:	00261893          	slli	a7,a2,0x2
   12ad4:	03010693          	addi	a3,sp,48
   12ad8:	011688b3          	add	a7,a3,a7
   12adc:	00072303          	lw	t1,0(a4)
   12ae0:	ffc72683          	lw	a3,-4(a4)
   12ae4:	00160613          	addi	a2,a2,1
   12ae8:	00b31333          	sll	t1,t1,a1
   12aec:	0086d6b3          	srl	a3,a3,s0
   12af0:	0066e6b3          	or	a3,a3,t1
   12af4:	00d8a023          	sw	a3,0(a7)
   12af8:	fadff06f          	j	12aa4 <__subtf3+0x147c>
   12afc:	00241793          	slli	a5,s0,0x2
   12b00:	03010693          	addi	a3,sp,48
   12b04:	00f687b3          	add	a5,a3,a5
   12b08:	0007a023          	sw	zero,0(a5)
   12b0c:	00140413          	addi	s0,s0,1
   12b10:	fe8756e3          	bge	a4,s0,12afc <__subtf3+0x14d4>
   12b14:	03012703          	lw	a4,48(sp)
   12b18:	00a037b3          	snez	a5,a0
   12b1c:	00000413          	li	s0,0
   12b20:	00f767b3          	or	a5,a4,a5
   12b24:	02f12823          	sw	a5,48(sp)
   12b28:	f99fe06f          	j	11ac0 <__subtf3+0x498>
   12b2c:	03c12783          	lw	a5,60(sp)
   12b30:	fff80737          	lui	a4,0xfff80
   12b34:	fff70713          	addi	a4,a4,-1 # fff7ffff <__stack_top+0x7ff3617f>
   12b38:	40a40433          	sub	s0,s0,a0
   12b3c:	00e7f7b3          	and	a5,a5,a4
   12b40:	d25fe06f          	j	11864 <__subtf3+0x23c>
   12b44:	02012e23          	sw	zero,60(sp)
   12b48:	02012c23          	sw	zero,56(sp)
   12b4c:	02012a23          	sw	zero,52(sp)
   12b50:	02012823          	sw	zero,48(sp)
   12b54:	fedfe06f          	j	11b40 <__subtf3+0x518>

00012b58 <__fixtfsi>:
   12b58:	00c52703          	lw	a4,12(a0)
   12b5c:	00852783          	lw	a5,8(a0)
   12b60:	00452683          	lw	a3,4(a0)
   12b64:	00052603          	lw	a2,0(a0)
   12b68:	fe010113          	addi	sp,sp,-32
   12b6c:	00f12423          	sw	a5,8(sp)
   12b70:	00e12623          	sw	a4,12(sp)
   12b74:	00f12c23          	sw	a5,24(sp)
   12b78:	01071593          	slli	a1,a4,0x10
   12b7c:	00171793          	slli	a5,a4,0x1
   12b80:	01f75813          	srli	a6,a4,0x1f
   12b84:	00004737          	lui	a4,0x4
   12b88:	00d12223          	sw	a3,4(sp)
   12b8c:	00d12a23          	sw	a3,20(sp)
   12b90:	00c12023          	sw	a2,0(sp)
   12b94:	0117d693          	srli	a3,a5,0x11
   12b98:	00c12823          	sw	a2,16(sp)
   12b9c:	ffe70793          	addi	a5,a4,-2 # 3ffe <__muldf3+0x32a>
   12ba0:	00000513          	li	a0,0
   12ba4:	00d7dc63          	bge	a5,a3,12bbc <__fixtfsi+0x64>
   12ba8:	01d70793          	addi	a5,a4,29
   12bac:	00d7dc63          	bge	a5,a3,12bc4 <__fixtfsi+0x6c>
   12bb0:	80000537          	lui	a0,0x80000
   12bb4:	fff54513          	not	a0,a0
   12bb8:	00a80533          	add	a0,a6,a0
   12bbc:	02010113          	addi	sp,sp,32
   12bc0:	00008067          	ret
   12bc4:	000107b7          	lui	a5,0x10
   12bc8:	0105d593          	srli	a1,a1,0x10
   12bcc:	00f5e5b3          	or	a1,a1,a5
   12bd0:	06f70793          	addi	a5,a4,111
   12bd4:	40d787b3          	sub	a5,a5,a3
   12bd8:	4057d713          	srai	a4,a5,0x5
   12bdc:	00b12e23          	sw	a1,28(sp)
   12be0:	01f7f793          	andi	a5,a5,31
   12be4:	08079863          	bnez	a5,12c74 <__fixtfsi+0x11c>
   12be8:	00271793          	slli	a5,a4,0x2
   12bec:	02010693          	addi	a3,sp,32
   12bf0:	00f687b3          	add	a5,a3,a5
   12bf4:	ff07a783          	lw	a5,-16(a5) # fff0 <__umoddi3+0x168>
   12bf8:	00200613          	li	a2,2
   12bfc:	00f12823          	sw	a5,16(sp)
   12c00:	00200793          	li	a5,2
   12c04:	00e78463          	beq	a5,a4,12c0c <__fixtfsi+0xb4>
   12c08:	00100613          	li	a2,1
   12c0c:	00400713          	li	a4,4
   12c10:	00261793          	slli	a5,a2,0x2
   12c14:	01010693          	addi	a3,sp,16
   12c18:	00f687b3          	add	a5,a3,a5
   12c1c:	0007a023          	sw	zero,0(a5)
   12c20:	00160613          	addi	a2,a2,1
   12c24:	fee616e3          	bne	a2,a4,12c10 <__fixtfsi+0xb8>
   12c28:	01012503          	lw	a0,16(sp)
   12c2c:	f80808e3          	beqz	a6,12bbc <__fixtfsi+0x64>
   12c30:	40a00533          	neg	a0,a0
   12c34:	f89ff06f          	j	12bbc <__fixtfsi+0x64>
   12c38:	ff062683          	lw	a3,-16(a2)
   12c3c:	ff072303          	lw	t1,-16(a4)
   12c40:	011696b3          	sll	a3,a3,a7
   12c44:	00f35333          	srl	t1,t1,a5
   12c48:	0066e6b3          	or	a3,a3,t1
   12c4c:	00d12823          	sw	a3,16(sp)
   12c50:	00100693          	li	a3,1
   12c54:	fea6c2e3          	blt	a3,a0,12c38 <__fixtfsi+0xe0>
   12c58:	00168613          	addi	a2,a3,1
   12c5c:	02010713          	addi	a4,sp,32
   12c60:	00269693          	slli	a3,a3,0x2
   12c64:	00d706b3          	add	a3,a4,a3
   12c68:	00f5d7b3          	srl	a5,a1,a5
   12c6c:	fef6a823          	sw	a5,-16(a3)
   12c70:	f9dff06f          	j	12c0c <__fixtfsi+0xb4>
   12c74:	00170613          	addi	a2,a4,1
   12c78:	02010893          	addi	a7,sp,32
   12c7c:	00300513          	li	a0,3
   12c80:	00261613          	slli	a2,a2,0x2
   12c84:	40e50533          	sub	a0,a0,a4
   12c88:	00c88633          	add	a2,a7,a2
   12c8c:	00271713          	slli	a4,a4,0x2
   12c90:	02000893          	li	a7,32
   12c94:	02010313          	addi	t1,sp,32
   12c98:	00000693          	li	a3,0
   12c9c:	40f888b3          	sub	a7,a7,a5
   12ca0:	00e30733          	add	a4,t1,a4
   12ca4:	fb1ff06f          	j	12c54 <__fixtfsi+0xfc>

00012ca8 <__floatsitf>:
   12ca8:	fd010113          	addi	sp,sp,-48
   12cac:	02912223          	sw	s1,36(sp)
   12cb0:	02112623          	sw	ra,44(sp)
   12cb4:	02812423          	sw	s0,40(sp)
   12cb8:	03212023          	sw	s2,32(sp)
   12cbc:	00050493          	mv	s1,a0
   12cc0:	16058263          	beqz	a1,12e24 <__floatsitf+0x17c>
   12cc4:	00058413          	mv	s0,a1
   12cc8:	01f5d913          	srli	s2,a1,0x1f
   12ccc:	0005d463          	bgez	a1,12cd4 <__floatsitf+0x2c>
   12cd0:	40b00433          	neg	s0,a1
   12cd4:	00040513          	mv	a0,s0
   12cd8:	ffff2097          	auipc	ra,0xffff2
   12cdc:	6b8080e7          	jalr	1720(ra) # 5390 <__clzsi2>
   12ce0:	000047b7          	lui	a5,0x4
   12ce4:	01e78793          	addi	a5,a5,30 # 401e <__muldf3+0x34a>
   12ce8:	40a787b3          	sub	a5,a5,a0
   12cec:	05150513          	addi	a0,a0,81 # 80000051 <__stack_top+0xfffb61d1>
   12cf0:	00812823          	sw	s0,16(sp)
   12cf4:	00012a23          	sw	zero,20(sp)
   12cf8:	00012c23          	sw	zero,24(sp)
   12cfc:	00012e23          	sw	zero,28(sp)
   12d00:	01f57593          	andi	a1,a0,31
   12d04:	04058063          	beqz	a1,12d44 <__floatsitf+0x9c>
   12d08:	05f00693          	li	a3,95
   12d0c:	00300713          	li	a4,3
   12d10:	00a6cc63          	blt	a3,a0,12d28 <__floatsitf+0x80>
   12d14:	02000713          	li	a4,32
   12d18:	40b70733          	sub	a4,a4,a1
   12d1c:	00e45733          	srl	a4,s0,a4
   12d20:	00e12e23          	sw	a4,28(sp)
   12d24:	00200713          	li	a4,2
   12d28:	fff70693          	addi	a3,a4,-1
   12d2c:	02010613          	addi	a2,sp,32
   12d30:	00271713          	slli	a4,a4,0x2
   12d34:	00e60733          	add	a4,a2,a4
   12d38:	00b41433          	sll	s0,s0,a1
   12d3c:	fe872823          	sw	s0,-16(a4)
   12d40:	0500006f          	j	12d90 <__floatsitf+0xe8>
   12d44:	40555613          	srai	a2,a0,0x5
   12d48:	00300693          	li	a3,3
   12d4c:	40c686b3          	sub	a3,a3,a2
   12d50:	02010713          	addi	a4,sp,32
   12d54:	00269693          	slli	a3,a3,0x2
   12d58:	00d706b3          	add	a3,a4,a3
   12d5c:	ff06a703          	lw	a4,-16(a3)
   12d60:	00200693          	li	a3,2
   12d64:	00e12e23          	sw	a4,28(sp)
   12d68:	05f00713          	li	a4,95
   12d6c:	02a74263          	blt	a4,a0,12d90 <__floatsitf+0xe8>
   12d70:	00200713          	li	a4,2
   12d74:	40c70733          	sub	a4,a4,a2
   12d78:	02010693          	addi	a3,sp,32
   12d7c:	00271713          	slli	a4,a4,0x2
   12d80:	00e68733          	add	a4,a3,a4
   12d84:	ff072703          	lw	a4,-16(a4)
   12d88:	00100693          	li	a3,1
   12d8c:	00e12c23          	sw	a4,24(sp)
   12d90:	fff00613          	li	a2,-1
   12d94:	00269713          	slli	a4,a3,0x2
   12d98:	01010593          	addi	a1,sp,16
   12d9c:	00e58733          	add	a4,a1,a4
   12da0:	00072023          	sw	zero,0(a4)
   12da4:	fff68693          	addi	a3,a3,-1
   12da8:	fec696e3          	bne	a3,a2,12d94 <__floatsitf+0xec>
   12dac:	01c12703          	lw	a4,28(sp)
   12db0:	800106b7          	lui	a3,0x80010
   12db4:	fff68693          	addi	a3,a3,-1 # 8000ffff <__stack_top+0xfffc617f>
   12db8:	00e11623          	sh	a4,12(sp)
   12dbc:	00008737          	lui	a4,0x8
   12dc0:	fff70713          	addi	a4,a4,-1 # 7fff <_svfprintf_r+0x11f7>
   12dc4:	00e7f7b3          	and	a5,a5,a4
   12dc8:	01079713          	slli	a4,a5,0x10
   12dcc:	00c12783          	lw	a5,12(sp)
   12dd0:	01f91913          	slli	s2,s2,0x1f
   12dd4:	02c12083          	lw	ra,44(sp)
   12dd8:	00d7f7b3          	and	a5,a5,a3
   12ddc:	00e7e7b3          	or	a5,a5,a4
   12de0:	80000737          	lui	a4,0x80000
   12de4:	fff74713          	not	a4,a4
   12de8:	00e7f7b3          	and	a5,a5,a4
   12dec:	01012703          	lw	a4,16(sp)
   12df0:	02812403          	lw	s0,40(sp)
   12df4:	0127e7b3          	or	a5,a5,s2
   12df8:	00e4a023          	sw	a4,0(s1)
   12dfc:	01412703          	lw	a4,20(sp)
   12e00:	00f4a623          	sw	a5,12(s1)
   12e04:	00048513          	mv	a0,s1
   12e08:	00e4a223          	sw	a4,4(s1)
   12e0c:	01812703          	lw	a4,24(sp)
   12e10:	02012903          	lw	s2,32(sp)
   12e14:	00e4a423          	sw	a4,8(s1)
   12e18:	02412483          	lw	s1,36(sp)
   12e1c:	03010113          	addi	sp,sp,48
   12e20:	00008067          	ret
   12e24:	00012e23          	sw	zero,28(sp)
   12e28:	00012c23          	sw	zero,24(sp)
   12e2c:	00012a23          	sw	zero,20(sp)
   12e30:	00012823          	sw	zero,16(sp)
   12e34:	00000793          	li	a5,0
   12e38:	00000913          	li	s2,0
   12e3c:	f71ff06f          	j	12dac <__floatsitf+0x104>

00012e40 <__extenddftf2>:
   12e40:	00100737          	lui	a4,0x100
   12e44:	01465793          	srli	a5,a2,0x14
   12e48:	fff70713          	addi	a4,a4,-1 # fffff <__trunctfdf2+0xecf9f>
   12e4c:	7ff7f793          	andi	a5,a5,2047
   12e50:	fd010113          	addi	sp,sp,-48
   12e54:	00c77733          	and	a4,a4,a2
   12e58:	00178693          	addi	a3,a5,1
   12e5c:	02812423          	sw	s0,40(sp)
   12e60:	02912223          	sw	s1,36(sp)
   12e64:	02112623          	sw	ra,44(sp)
   12e68:	00b12823          	sw	a1,16(sp)
   12e6c:	00e12a23          	sw	a4,20(sp)
   12e70:	00012e23          	sw	zero,28(sp)
   12e74:	00012c23          	sw	zero,24(sp)
   12e78:	7fe6f693          	andi	a3,a3,2046
   12e7c:	00050493          	mv	s1,a0
   12e80:	01f65413          	srli	s0,a2,0x1f
   12e84:	0a068463          	beqz	a3,12f2c <__extenddftf2+0xec>
   12e88:	000046b7          	lui	a3,0x4
   12e8c:	c0068693          	addi	a3,a3,-1024 # 3c00 <__ledf2+0x14>
   12e90:	0045d513          	srli	a0,a1,0x4
   12e94:	00d787b3          	add	a5,a5,a3
   12e98:	00475693          	srli	a3,a4,0x4
   12e9c:	01c71713          	slli	a4,a4,0x1c
   12ea0:	00a76733          	or	a4,a4,a0
   12ea4:	01c59593          	slli	a1,a1,0x1c
   12ea8:	00d12e23          	sw	a3,28(sp)
   12eac:	00e12c23          	sw	a4,24(sp)
   12eb0:	00b12a23          	sw	a1,20(sp)
   12eb4:	00012823          	sw	zero,16(sp)
   12eb8:	01c12703          	lw	a4,28(sp)
   12ebc:	00008537          	lui	a0,0x8
   12ec0:	fff50513          	addi	a0,a0,-1 # 7fff <_svfprintf_r+0x11f7>
   12ec4:	00e11623          	sh	a4,12(sp)
   12ec8:	00c12703          	lw	a4,12(sp)
   12ecc:	800106b7          	lui	a3,0x80010
   12ed0:	00a7f7b3          	and	a5,a5,a0
   12ed4:	fff68693          	addi	a3,a3,-1 # 8000ffff <__stack_top+0xfffc617f>
   12ed8:	00d77733          	and	a4,a4,a3
   12edc:	01079793          	slli	a5,a5,0x10
   12ee0:	00f767b3          	or	a5,a4,a5
   12ee4:	80000737          	lui	a4,0x80000
   12ee8:	fff74713          	not	a4,a4
   12eec:	00e7f7b3          	and	a5,a5,a4
   12ef0:	01f41413          	slli	s0,s0,0x1f
   12ef4:	0087e433          	or	s0,a5,s0
   12ef8:	01012783          	lw	a5,16(sp)
   12efc:	0084a623          	sw	s0,12(s1)
   12f00:	02c12083          	lw	ra,44(sp)
   12f04:	00f4a023          	sw	a5,0(s1)
   12f08:	01412783          	lw	a5,20(sp)
   12f0c:	02812403          	lw	s0,40(sp)
   12f10:	00048513          	mv	a0,s1
   12f14:	00f4a223          	sw	a5,4(s1)
   12f18:	01812783          	lw	a5,24(sp)
   12f1c:	00f4a423          	sw	a5,8(s1)
   12f20:	02412483          	lw	s1,36(sp)
   12f24:	03010113          	addi	sp,sp,48
   12f28:	00008067          	ret
   12f2c:	00b76533          	or	a0,a4,a1
   12f30:	0e079a63          	bnez	a5,13024 <__extenddftf2+0x1e4>
   12f34:	f80502e3          	beqz	a0,12eb8 <__extenddftf2+0x78>
   12f38:	06070063          	beqz	a4,12f98 <__extenddftf2+0x158>
   12f3c:	00070513          	mv	a0,a4
   12f40:	ffff2097          	auipc	ra,0xffff2
   12f44:	450080e7          	jalr	1104(ra) # 5390 <__clzsi2>
   12f48:	03150613          	addi	a2,a0,49
   12f4c:	40565713          	srai	a4,a2,0x5
   12f50:	01f67613          	andi	a2,a2,31
   12f54:	04060a63          	beqz	a2,12fa8 <__extenddftf2+0x168>
   12f58:	ffc00693          	li	a3,-4
   12f5c:	02d706b3          	mul	a3,a4,a3
   12f60:	01010313          	addi	t1,sp,16
   12f64:	02000793          	li	a5,32
   12f68:	00271813          	slli	a6,a4,0x2
   12f6c:	40c787b3          	sub	a5,a5,a2
   12f70:	00c68693          	addi	a3,a3,12
   12f74:	00d306b3          	add	a3,t1,a3
   12f78:	08d31463          	bne	t1,a3,13000 <__extenddftf2+0x1c0>
   12f7c:	02010793          	addi	a5,sp,32
   12f80:	01078833          	add	a6,a5,a6
   12f84:	01012783          	lw	a5,16(sp)
   12f88:	fff70713          	addi	a4,a4,-1 # 7fffffff <__stack_top+0xfffb617f>
   12f8c:	00c79633          	sll	a2,a5,a2
   12f90:	fec82823          	sw	a2,-16(a6)
   12f94:	0400006f          	j	12fd4 <__extenddftf2+0x194>
   12f98:	ffff2097          	auipc	ra,0xffff2
   12f9c:	3f8080e7          	jalr	1016(ra) # 5390 <__clzsi2>
   12fa0:	02050513          	addi	a0,a0,32
   12fa4:	fa5ff06f          	j	12f48 <__extenddftf2+0x108>
   12fa8:	ffc00613          	li	a2,-4
   12fac:	02c70633          	mul	a2,a4,a2
   12fb0:	01c10693          	addi	a3,sp,28
   12fb4:	00300793          	li	a5,3
   12fb8:	00c685b3          	add	a1,a3,a2
   12fbc:	0005a583          	lw	a1,0(a1)
   12fc0:	fff78793          	addi	a5,a5,-1
   12fc4:	ffc68693          	addi	a3,a3,-4
   12fc8:	00b6a223          	sw	a1,4(a3)
   12fcc:	fee7d6e3          	bge	a5,a4,12fb8 <__extenddftf2+0x178>
   12fd0:	fff70713          	addi	a4,a4,-1
   12fd4:	fff00693          	li	a3,-1
   12fd8:	00271793          	slli	a5,a4,0x2
   12fdc:	01010613          	addi	a2,sp,16
   12fe0:	00f607b3          	add	a5,a2,a5
   12fe4:	0007a023          	sw	zero,0(a5)
   12fe8:	fff70713          	addi	a4,a4,-1
   12fec:	fed716e3          	bne	a4,a3,12fd8 <__extenddftf2+0x198>
   12ff0:	000047b7          	lui	a5,0x4
   12ff4:	c0c78793          	addi	a5,a5,-1012 # 3c0c <__ledf2+0x20>
   12ff8:	40a787b3          	sub	a5,a5,a0
   12ffc:	ebdff06f          	j	12eb8 <__extenddftf2+0x78>
   13000:	ffc6a583          	lw	a1,-4(a3)
   13004:	0006a883          	lw	a7,0(a3)
   13008:	01068e33          	add	t3,a3,a6
   1300c:	00f5d5b3          	srl	a1,a1,a5
   13010:	00c898b3          	sll	a7,a7,a2
   13014:	0115e5b3          	or	a1,a1,a7
   13018:	00be2023          	sw	a1,0(t3)
   1301c:	ffc68693          	addi	a3,a3,-4
   13020:	f59ff06f          	j	12f78 <__extenddftf2+0x138>
   13024:	000087b7          	lui	a5,0x8
   13028:	02050863          	beqz	a0,13058 <__extenddftf2+0x218>
   1302c:	01c71793          	slli	a5,a4,0x1c
   13030:	0045d693          	srli	a3,a1,0x4
   13034:	00d7e7b3          	or	a5,a5,a3
   13038:	00f12c23          	sw	a5,24(sp)
   1303c:	00475713          	srli	a4,a4,0x4
   13040:	000087b7          	lui	a5,0x8
   13044:	01c59593          	slli	a1,a1,0x1c
   13048:	00f76733          	or	a4,a4,a5
   1304c:	00b12a23          	sw	a1,20(sp)
   13050:	00012823          	sw	zero,16(sp)
   13054:	00e12e23          	sw	a4,28(sp)
   13058:	fff78793          	addi	a5,a5,-1 # 7fff <_svfprintf_r+0x11f7>
   1305c:	e5dff06f          	j	12eb8 <__extenddftf2+0x78>

00013060 <__trunctfdf2>:
   13060:	00c52583          	lw	a1,12(a0)
   13064:	00852783          	lw	a5,8(a0)
   13068:	00452703          	lw	a4,4(a0)
   1306c:	fe010113          	addi	sp,sp,-32
   13070:	00052683          	lw	a3,0(a0)
   13074:	00f12423          	sw	a5,8(sp)
   13078:	00f12c23          	sw	a5,24(sp)
   1307c:	01059793          	slli	a5,a1,0x10
   13080:	00e12223          	sw	a4,4(sp)
   13084:	00e12a23          	sw	a4,20(sp)
   13088:	0107d793          	srli	a5,a5,0x10
   1308c:	00159713          	slli	a4,a1,0x1
   13090:	00b12623          	sw	a1,12(sp)
   13094:	00d12023          	sw	a3,0(sp)
   13098:	00d12823          	sw	a3,16(sp)
   1309c:	00f12e23          	sw	a5,28(sp)
   130a0:	01175713          	srli	a4,a4,0x11
   130a4:	01f5d593          	srli	a1,a1,0x1f
   130a8:	01010313          	addi	t1,sp,16
   130ac:	01c10613          	addi	a2,sp,28
   130b0:	00062783          	lw	a5,0(a2)
   130b4:	ffc62683          	lw	a3,-4(a2)
   130b8:	ffc60613          	addi	a2,a2,-4
   130bc:	00379793          	slli	a5,a5,0x3
   130c0:	01d6d693          	srli	a3,a3,0x1d
   130c4:	00d7e7b3          	or	a5,a5,a3
   130c8:	00f62223          	sw	a5,4(a2)
   130cc:	fec312e3          	bne	t1,a2,130b0 <__trunctfdf2+0x50>
   130d0:	01012683          	lw	a3,16(sp)
   130d4:	00170793          	addi	a5,a4,1
   130d8:	00369513          	slli	a0,a3,0x3
   130dc:	000086b7          	lui	a3,0x8
   130e0:	ffe68693          	addi	a3,a3,-2 # 7ffe <_svfprintf_r+0x11f6>
   130e4:	00a12823          	sw	a0,16(sp)
   130e8:	00d7f7b3          	and	a5,a5,a3
   130ec:	1a078a63          	beqz	a5,132a0 <__trunctfdf2+0x240>
   130f0:	ffffc7b7          	lui	a5,0xffffc
   130f4:	40078793          	addi	a5,a5,1024 # ffffc400 <__stack_top+0x7ffb2580>
   130f8:	00f70733          	add	a4,a4,a5
   130fc:	7fe00793          	li	a5,2046
   13100:	1ee7cc63          	blt	a5,a4,132f8 <__trunctfdf2+0x298>
   13104:	06e05863          	blez	a4,13174 <__trunctfdf2+0x114>
   13108:	01812803          	lw	a6,24(sp)
   1310c:	01c12603          	lw	a2,28(sp)
   13110:	01412783          	lw	a5,20(sp)
   13114:	01c85693          	srli	a3,a6,0x1c
   13118:	00461613          	slli	a2,a2,0x4
   1311c:	00d66633          	or	a2,a2,a3
   13120:	00479693          	slli	a3,a5,0x4
   13124:	00a6e6b3          	or	a3,a3,a0
   13128:	01c7d793          	srli	a5,a5,0x1c
   1312c:	00481813          	slli	a6,a6,0x4
   13130:	00d036b3          	snez	a3,a3
   13134:	0107e7b3          	or	a5,a5,a6
   13138:	00f6e6b3          	or	a3,a3,a5
   1313c:	00c12a23          	sw	a2,20(sp)
   13140:	00d12823          	sw	a3,16(sp)
   13144:	01012683          	lw	a3,16(sp)
   13148:	01412783          	lw	a5,20(sp)
   1314c:	0076f613          	andi	a2,a3,7
   13150:	1a060a63          	beqz	a2,13304 <__trunctfdf2+0x2a4>
   13154:	00f6f613          	andi	a2,a3,15
   13158:	00400513          	li	a0,4
   1315c:	1aa60463          	beq	a2,a0,13304 <__trunctfdf2+0x2a4>
   13160:	00468613          	addi	a2,a3,4
   13164:	00d636b3          	sltu	a3,a2,a3
   13168:	00d787b3          	add	a5,a5,a3
   1316c:	00060693          	mv	a3,a2
   13170:	1940006f          	j	13304 <__trunctfdf2+0x2a4>
   13174:	fcc00793          	li	a5,-52
   13178:	00f75c63          	bge	a4,a5,13190 <__trunctfdf2+0x130>
   1317c:	00012a23          	sw	zero,20(sp)
   13180:	00100793          	li	a5,1
   13184:	00f12823          	sw	a5,16(sp)
   13188:	00000713          	li	a4,0
   1318c:	fb9ff06f          	j	13144 <__trunctfdf2+0xe4>
   13190:	01c12783          	lw	a5,28(sp)
   13194:	000806b7          	lui	a3,0x80
   13198:	00000e13          	li	t3,0
   1319c:	00d7e7b3          	or	a5,a5,a3
   131a0:	00f12e23          	sw	a5,28(sp)
   131a4:	03d00793          	li	a5,61
   131a8:	40e78733          	sub	a4,a5,a4
   131ac:	40575513          	srai	a0,a4,0x5
   131b0:	00030693          	mv	a3,t1
   131b4:	01f77713          	andi	a4,a4,31
   131b8:	00000793          	li	a5,0
   131bc:	0006a803          	lw	a6,0(a3) # 80000 <__trunctfdf2+0x6cfa0>
   131c0:	00178793          	addi	a5,a5,1
   131c4:	00468693          	addi	a3,a3,4
   131c8:	010e6e33          	or	t3,t3,a6
   131cc:	fef518e3          	bne	a0,a5,131bc <__trunctfdf2+0x15c>
   131d0:	00251693          	slli	a3,a0,0x2
   131d4:	04071663          	bnez	a4,13220 <__trunctfdf2+0x1c0>
   131d8:	00300793          	li	a5,3
   131dc:	40a78533          	sub	a0,a5,a0
   131e0:	00d607b3          	add	a5,a2,a3
   131e4:	0007a783          	lw	a5,0(a5)
   131e8:	00170713          	addi	a4,a4,1
   131ec:	00460613          	addi	a2,a2,4
   131f0:	fef62e23          	sw	a5,-4(a2)
   131f4:	fee556e3          	bge	a0,a4,131e0 <__trunctfdf2+0x180>
   131f8:	00400693          	li	a3,4
   131fc:	00271793          	slli	a5,a4,0x2
   13200:	00f307b3          	add	a5,t1,a5
   13204:	0007a023          	sw	zero,0(a5)
   13208:	00170713          	addi	a4,a4,1
   1320c:	fed718e3          	bne	a4,a3,131fc <__trunctfdf2+0x19c>
   13210:	01012703          	lw	a4,16(sp)
   13214:	01c037b3          	snez	a5,t3
   13218:	00f767b3          	or	a5,a4,a5
   1321c:	f69ff06f          	j	13184 <__trunctfdf2+0x124>
   13220:	02010793          	addi	a5,sp,32
   13224:	00d787b3          	add	a5,a5,a3
   13228:	ff07a783          	lw	a5,-16(a5)
   1322c:	02000893          	li	a7,32
   13230:	40e888b3          	sub	a7,a7,a4
   13234:	011797b3          	sll	a5,a5,a7
   13238:	00fe6e33          	or	t3,t3,a5
   1323c:	00300793          	li	a5,3
   13240:	00d306b3          	add	a3,t1,a3
   13244:	00000813          	li	a6,0
   13248:	40a787b3          	sub	a5,a5,a0
   1324c:	00468693          	addi	a3,a3,4
   13250:	02f84463          	blt	a6,a5,13278 <__trunctfdf2+0x218>
   13254:	02010693          	addi	a3,sp,32
   13258:	00279793          	slli	a5,a5,0x2
   1325c:	00f687b3          	add	a5,a3,a5
   13260:	01c12683          	lw	a3,28(sp)
   13264:	00e6d733          	srl	a4,a3,a4
   13268:	fee7a823          	sw	a4,-16(a5)
   1326c:	00400713          	li	a4,4
   13270:	40a70733          	sub	a4,a4,a0
   13274:	f85ff06f          	j	131f8 <__trunctfdf2+0x198>
   13278:	ffc6a603          	lw	a2,-4(a3)
   1327c:	0006af03          	lw	t5,0(a3)
   13280:	00281e93          	slli	t4,a6,0x2
   13284:	00e65633          	srl	a2,a2,a4
   13288:	011f1f33          	sll	t5,t5,a7
   1328c:	01d30eb3          	add	t4,t1,t4
   13290:	01e66633          	or	a2,a2,t5
   13294:	00cea023          	sw	a2,0(t4)
   13298:	00180813          	addi	a6,a6,1
   1329c:	fb1ff06f          	j	1324c <__trunctfdf2+0x1ec>
   132a0:	01412603          	lw	a2,20(sp)
   132a4:	01812783          	lw	a5,24(sp)
   132a8:	01c12803          	lw	a6,28(sp)
   132ac:	00f666b3          	or	a3,a2,a5
   132b0:	0106e6b3          	or	a3,a3,a6
   132b4:	00a6e6b3          	or	a3,a3,a0
   132b8:	00071863          	bnez	a4,132c8 <__trunctfdf2+0x268>
   132bc:	00d036b3          	snez	a3,a3
   132c0:	00000793          	li	a5,0
   132c4:	e89ff06f          	j	1314c <__trunctfdf2+0xec>
   132c8:	0c068a63          	beqz	a3,1339c <__trunctfdf2+0x33c>
   132cc:	01c65693          	srli	a3,a2,0x1c
   132d0:	00481813          	slli	a6,a6,0x4
   132d4:	00479613          	slli	a2,a5,0x4
   132d8:	01c7d793          	srli	a5,a5,0x1c
   132dc:	00400737          	lui	a4,0x400
   132e0:	00c6e6b3          	or	a3,a3,a2
   132e4:	0107e7b3          	or	a5,a5,a6
   132e8:	00e7e7b3          	or	a5,a5,a4
   132ec:	ff86f693          	andi	a3,a3,-8
   132f0:	7ff00713          	li	a4,2047
   132f4:	e59ff06f          	j	1314c <__trunctfdf2+0xec>
   132f8:	00000793          	li	a5,0
   132fc:	00000693          	li	a3,0
   13300:	7ff00713          	li	a4,2047
   13304:	00879613          	slli	a2,a5,0x8
   13308:	00065e63          	bgez	a2,13324 <__trunctfdf2+0x2c4>
   1330c:	00170713          	addi	a4,a4,1 # 400001 <__trunctfdf2+0x3ecfa1>
   13310:	7ff00613          	li	a2,2047
   13314:	08c70863          	beq	a4,a2,133a4 <__trunctfdf2+0x344>
   13318:	ff800637          	lui	a2,0xff800
   1331c:	fff60613          	addi	a2,a2,-1 # ff7fffff <__stack_top+0x7f7b617f>
   13320:	00c7f7b3          	and	a5,a5,a2
   13324:	01d79613          	slli	a2,a5,0x1d
   13328:	0036d693          	srli	a3,a3,0x3
   1332c:	00d666b3          	or	a3,a2,a3
   13330:	7ff00613          	li	a2,2047
   13334:	0037d793          	srli	a5,a5,0x3
   13338:	00c71e63          	bne	a4,a2,13354 <__trunctfdf2+0x2f4>
   1333c:	00f6e6b3          	or	a3,a3,a5
   13340:	00000793          	li	a5,0
   13344:	00068863          	beqz	a3,13354 <__trunctfdf2+0x2f4>
   13348:	000807b7          	lui	a5,0x80
   1334c:	00000693          	li	a3,0
   13350:	00000593          	li	a1,0
   13354:	00100637          	lui	a2,0x100
   13358:	fff60613          	addi	a2,a2,-1 # fffff <__trunctfdf2+0xecf9f>
   1335c:	00c7f7b3          	and	a5,a5,a2
   13360:	80100637          	lui	a2,0x80100
   13364:	7ff77713          	andi	a4,a4,2047
   13368:	fff60613          	addi	a2,a2,-1 # 800fffff <__stack_top+0xb617f>
   1336c:	01471713          	slli	a4,a4,0x14
   13370:	00c7f7b3          	and	a5,a5,a2
   13374:	00e7e7b3          	or	a5,a5,a4
   13378:	80000737          	lui	a4,0x80000
   1337c:	fff74713          	not	a4,a4
   13380:	01f59593          	slli	a1,a1,0x1f
   13384:	00e7f7b3          	and	a5,a5,a4
   13388:	00b7e733          	or	a4,a5,a1
   1338c:	00068513          	mv	a0,a3
   13390:	00070593          	mv	a1,a4
   13394:	02010113          	addi	sp,sp,32
   13398:	00008067          	ret
   1339c:	00000793          	li	a5,0
   133a0:	f61ff06f          	j	13300 <__trunctfdf2+0x2a0>
   133a4:	00000793          	li	a5,0
   133a8:	00000693          	li	a3,0
   133ac:	f79ff06f          	j	13324 <__trunctfdf2+0x2c4>
