
gen/riscv32_generic_x86_64_default_gcc/bin/person_detection:     file format elf32-littleriscv


Disassembly of section .text:

00000000 <_start>:
       0:	800bd117          	auipc	sp,0x800bd
       4:	e2010113          	addi	sp,sp,-480 # 800bce20 <__stack_top+0x0>
       8:	80053517          	auipc	a0,0x80053
       c:	c1850513          	addi	a0,a0,-1000 # 80052c20 <__stack_top+0xfff95e00>
      10:	80075597          	auipc	a1,0x80075
      14:	e1058593          	addi	a1,a1,-496 # 80074e20 <__stack_top+0xfffb8000>
      18:	00b57863          	bgeu	a0,a1,28 <_start+0x28>
      1c:	00052023          	sw	zero,0(a0)
      20:	00450513          	addi	a0,a0,4
      24:	ff5ff06f          	j	18 <_start+0x18>
      28:	00000097          	auipc	ra,0x0
      2c:	144080e7          	jalr	324(ra) # 16c <main>
      30:	0000006f          	j	30 <_start+0x30>

00000034 <_Z18RespondToDetectionaa>:
      34:	ff010113          	addi	sp,sp,-16
      38:	00812423          	sw	s0,8(sp)
      3c:	00912223          	sw	s1,4(sp)
      40:	00058613          	mv	a2,a1
      44:	00050493          	mv	s1,a0
      48:	00058413          	mv	s0,a1
      4c:	00050593          	mv	a1,a0
      50:	80000517          	auipc	a0,0x80000
      54:	fb050513          	addi	a0,a0,-80 # 80000000 <__stack_top+0xfff431e0>
      58:	00112623          	sw	ra,12(sp)
      5c:	00002097          	auipc	ra,0x2
      60:	480080e7          	jalr	1152(ra) # 24dc <_Z11MicroPrintfPKcz>
      64:	80000517          	auipc	a0,0x80000
      68:	fc450513          	addi	a0,a0,-60 # 80000028 <__stack_top+0xfff43208>
      6c:	00944663          	blt	s0,s1,78 <_Z18RespondToDetectionaa+0x44>
      70:	80000517          	auipc	a0,0x80000
      74:	fc850513          	addi	a0,a0,-56 # 80000038 <__stack_top+0xfff43218>
      78:	00812403          	lw	s0,8(sp)
      7c:	00c12083          	lw	ra,12(sp)
      80:	00412483          	lw	s1,4(sp)
      84:	01010113          	addi	sp,sp,16
      88:	00002317          	auipc	t1,0x2
      8c:	45430067          	jr	1108(t1) # 24dc <_Z11MicroPrintfPKcz>

00000090 <_Z8GetImageiiiPa>:
      90:	ff010113          	addi	sp,sp,-16
      94:	00112623          	sw	ra,12(sp)
      98:	00812423          	sw	s0,8(sp)
      9c:	02069463          	bnez	a3,c4 <_Z8GetImageiiiPa+0x34>
      a0:	80000517          	auipc	a0,0x80000
      a4:	fac50513          	addi	a0,a0,-84 # 8000004c <__stack_top+0xfff4322c>
      a8:	00002097          	auipc	ra,0x2
      ac:	434080e7          	jalr	1076(ra) # 24dc <_Z11MicroPrintfPKcz>
      b0:	00100513          	li	a0,1
      b4:	00c12083          	lw	ra,12(sp)
      b8:	00812403          	lw	s0,8(sp)
      bc:	01010113          	addi	sp,sp,16
      c0:	00008067          	ret
      c4:	06000793          	li	a5,96
      c8:	00f51863          	bne	a0,a5,d8 <_Z8GetImageiiiPa+0x48>
      cc:	00a59663          	bne	a1,a0,d8 <_Z8GetImageiiiPa+0x48>
      d0:	00100793          	li	a5,1
      d4:	02f60263          	beq	a2,a5,f8 <_Z8GetImageiiiPa+0x68>
      d8:	00060693          	mv	a3,a2
      dc:	00058613          	mv	a2,a1
      e0:	00050593          	mv	a1,a0
      e4:	80000517          	auipc	a0,0x80000
      e8:	f8050513          	addi	a0,a0,-128 # 80000064 <__stack_top+0xfff43244>
      ec:	00002097          	auipc	ra,0x2
      f0:	3f0080e7          	jalr	1008(ra) # 24dc <_Z11MicroPrintfPKcz>
      f4:	fbdff06f          	j	b0 <_Z8GetImageiiiPa+0x20>
      f8:	80053797          	auipc	a5,0x80053
      fc:	b287a783          	lw	a5,-1240(a5) # 80052c20 <__stack_top+0xfff95e00>
     100:	80053417          	auipc	s0,0x80053
     104:	00002637          	lui	a2,0x2
     108:	b2040413          	addi	s0,s0,-1248 # 80052c20 <__stack_top+0xfff95e00>
     10c:	40060613          	addi	a2,a2,1024 # 2400 <_ZN6tflite21MicroInterpreterGraph16GetSubgraphInputEii+0x18>
     110:	02079e63          	bnez	a5,14c <_Z8GetImageiiiPa+0xbc>
     114:	80049597          	auipc	a1,0x80049
     118:	7bc58593          	addi	a1,a1,1980 # 800498d0 <__stack_top+0xfff8cab0>
     11c:	00068513          	mv	a0,a3
     120:	00016097          	auipc	ra,0x16
     124:	dcc080e7          	jalr	-564(ra) # 15eec <memcpy>
     128:	80000517          	auipc	a0,0x80000
     12c:	f6050513          	addi	a0,a0,-160 # 80000088 <__stack_top+0xfff43268>
     130:	00002097          	auipc	ra,0x2
     134:	3ac080e7          	jalr	940(ra) # 24dc <_Z11MicroPrintfPKcz>
     138:	00042783          	lw	a5,0(s0)
     13c:	00000513          	li	a0,0
     140:	0017c793          	xori	a5,a5,1
     144:	00f42023          	sw	a5,0(s0)
     148:	f6dff06f          	j	b4 <_Z8GetImageiiiPa+0x24>
     14c:	8004c597          	auipc	a1,0x8004c
     150:	b8458593          	addi	a1,a1,-1148 # 8004bcd0 <__stack_top+0xfff8eeb0>
     154:	00068513          	mv	a0,a3
     158:	00016097          	auipc	ra,0x16
     15c:	d94080e7          	jalr	-620(ra) # 15eec <memcpy>
     160:	80000517          	auipc	a0,0x80000
     164:	f4850513          	addi	a0,a0,-184 # 800000a8 <__stack_top+0xfff43288>
     168:	fc9ff06f          	j	130 <_Z8GetImageiiiPa+0xa0>

0000016c <main>:
     16c:	ff010113          	addi	sp,sp,-16
     170:	00112623          	sw	ra,12(sp)
     174:	00000097          	auipc	ra,0x0
     178:	378080e7          	jalr	888(ra) # 4ec <setup>
     17c:	00000097          	auipc	ra,0x0
     180:	170080e7          	jalr	368(ra) # 2ec <loop>
     184:	ff9ff06f          	j	17c <main+0x10>

00000188 <__tcf_0>:
     188:	00008067          	ret

0000018c <_ZNK6tflite22MicroMutableOpResolverILj5EE6FindOpENS_15BuiltinOperatorE>:
     18c:	02000793          	li	a5,32
     190:	02f58e63          	beq	a1,a5,1cc <_ZNK6tflite22MicroMutableOpResolverILj5EE6FindOpENS_15BuiltinOperatorE+0x40>
     194:	09052683          	lw	a3,144(a0)
     198:	01850713          	addi	a4,a0,24
     19c:	00000793          	li	a5,0
     1a0:	02f68663          	beq	a3,a5,1cc <_ZNK6tflite22MicroMutableOpResolverILj5EE6FindOpENS_15BuiltinOperatorE+0x40>
     1a4:	01c70713          	addi	a4,a4,28
     1a8:	fe472603          	lw	a2,-28(a4)
     1ac:	00b61c63          	bne	a2,a1,1c4 <_ZNK6tflite22MicroMutableOpResolverILj5EE6FindOpENS_15BuiltinOperatorE+0x38>
     1b0:	01c00713          	li	a4,28
     1b4:	02e787b3          	mul	a5,a5,a4
     1b8:	00478793          	addi	a5,a5,4
     1bc:	00f50533          	add	a0,a0,a5
     1c0:	00008067          	ret
     1c4:	00178793          	addi	a5,a5,1
     1c8:	fd9ff06f          	j	1a0 <_ZNK6tflite22MicroMutableOpResolverILj5EE6FindOpENS_15BuiltinOperatorE+0x14>
     1cc:	00000513          	li	a0,0
     1d0:	00008067          	ret

000001d4 <_ZN6tflite22MicroMutableOpResolverILj5EED0Ev>:
     1d4:	00008067          	ret

000001d8 <_ZNK6tflite22MicroMutableOpResolverILj5EE15GetOpDataParserENS_15BuiltinOperatorE>:
     1d8:	0bc52683          	lw	a3,188(a0)
     1dc:	00500793          	li	a5,5
     1e0:	02d7e863          	bltu	a5,a3,210 <_ZNK6tflite22MicroMutableOpResolverILj5EE15GetOpDataParserENS_15BuiltinOperatorE+0x38>
     1e4:	09450713          	addi	a4,a0,148
     1e8:	00000793          	li	a5,0
     1ec:	04f68463          	beq	a3,a5,234 <_ZNK6tflite22MicroMutableOpResolverILj5EE15GetOpDataParserENS_15BuiltinOperatorE+0x5c>
     1f0:	00470713          	addi	a4,a4,4
     1f4:	ffc72603          	lw	a2,-4(a4)
     1f8:	02b61a63          	bne	a2,a1,22c <_ZNK6tflite22MicroMutableOpResolverILj5EE15GetOpDataParserENS_15BuiltinOperatorE+0x54>
     1fc:	02878793          	addi	a5,a5,40
     200:	00279793          	slli	a5,a5,0x2
     204:	00f507b3          	add	a5,a0,a5
     208:	0087a503          	lw	a0,8(a5)
     20c:	00008067          	ret
     210:	80000517          	auipc	a0,0x80000
     214:	ff010113          	addi	sp,sp,-16
     218:	fbc50513          	addi	a0,a0,-68 # 800001cc <__stack_top+0xfff433ac>
     21c:	00112623          	sw	ra,12(sp)
     220:	00002097          	auipc	ra,0x2
     224:	2bc080e7          	jalr	700(ra) # 24dc <_Z11MicroPrintfPKcz>
     228:	0000006f          	j	228 <_ZNK6tflite22MicroMutableOpResolverILj5EE15GetOpDataParserENS_15BuiltinOperatorE+0x50>
     22c:	00178793          	addi	a5,a5,1
     230:	fbdff06f          	j	1ec <_ZNK6tflite22MicroMutableOpResolverILj5EE15GetOpDataParserENS_15BuiltinOperatorE+0x14>
     234:	00000513          	li	a0,0
     238:	00008067          	ret

0000023c <__tcf_1>:
     23c:	80075517          	auipc	a0,0x80075
     240:	a2450513          	addi	a0,a0,-1500 # 80074c60 <__stack_top+0xfffb7e40>
     244:	00001317          	auipc	t1,0x1
     248:	a4430067          	jr	-1468(t1) # c88 <_ZN6tflite16MicroInterpreterD1Ev>

0000024c <_ZNK6tflite22MicroMutableOpResolverILj5EE6FindOpEPKc>:
     24c:	fe010113          	addi	sp,sp,-32
     250:	01312623          	sw	s3,12(sp)
     254:	09052983          	lw	s3,144(a0)
     258:	00812c23          	sw	s0,24(sp)
     25c:	00912a23          	sw	s1,20(sp)
     260:	01212823          	sw	s2,16(sp)
     264:	01412423          	sw	s4,8(sp)
     268:	01512223          	sw	s5,4(sp)
     26c:	00112e23          	sw	ra,28(sp)
     270:	00050493          	mv	s1,a0
     274:	00058a13          	mv	s4,a1
     278:	01850913          	addi	s2,a0,24
     27c:	00000413          	li	s0,0
     280:	02000a93          	li	s5,32
     284:	06898063          	beq	s3,s0,2e4 <_ZNK6tflite22MicroMutableOpResolverILj5EE6FindOpEPKc+0x98>
     288:	00092783          	lw	a5,0(s2)
     28c:	05579663          	bne	a5,s5,2d8 <_ZNK6tflite22MicroMutableOpResolverILj5EE6FindOpEPKc+0x8c>
     290:	00492503          	lw	a0,4(s2)
     294:	000a0593          	mv	a1,s4
     298:	00017097          	auipc	ra,0x17
     29c:	80c080e7          	jalr	-2036(ra) # 16aa4 <strcmp>
     2a0:	02051c63          	bnez	a0,2d8 <_ZNK6tflite22MicroMutableOpResolverILj5EE6FindOpEPKc+0x8c>
     2a4:	01c00513          	li	a0,28
     2a8:	02a40433          	mul	s0,s0,a0
     2ac:	00440513          	addi	a0,s0,4
     2b0:	00a48533          	add	a0,s1,a0
     2b4:	01c12083          	lw	ra,28(sp)
     2b8:	01812403          	lw	s0,24(sp)
     2bc:	01412483          	lw	s1,20(sp)
     2c0:	01012903          	lw	s2,16(sp)
     2c4:	00c12983          	lw	s3,12(sp)
     2c8:	00812a03          	lw	s4,8(sp)
     2cc:	00412a83          	lw	s5,4(sp)
     2d0:	02010113          	addi	sp,sp,32
     2d4:	00008067          	ret
     2d8:	00140413          	addi	s0,s0,1
     2dc:	01c90913          	addi	s2,s2,28
     2e0:	fa5ff06f          	j	284 <_ZNK6tflite22MicroMutableOpResolverILj5EE6FindOpEPKc+0x38>
     2e4:	00000513          	li	a0,0
     2e8:	fcdff06f          	j	2b4 <_ZNK6tflite22MicroMutableOpResolverILj5EE6FindOpEPKc+0x68>

000002ec <loop>:
     2ec:	80053797          	auipc	a5,0x80053
     2f0:	9507a783          	lw	a5,-1712(a5) # 80052c3c <__stack_top+0xfff95e1c>
     2f4:	ff010113          	addi	sp,sp,-16
     2f8:	00112623          	sw	ra,12(sp)
     2fc:	00812423          	sw	s0,8(sp)
     300:	00078a63          	beqz	a5,314 <loop+0x28>
     304:	80053417          	auipc	s0,0x80053
     308:	93440413          	addi	s0,s0,-1740 # 80052c38 <__stack_top+0xfff95e18>
     30c:	00042703          	lw	a4,0(s0)
     310:	02071063          	bnez	a4,330 <loop+0x44>
     314:	80000517          	auipc	a0,0x80000
     318:	ec050513          	addi	a0,a0,-320 # 800001d4 <__stack_top+0xfff433b4>
     31c:	00812403          	lw	s0,8(sp)
     320:	00c12083          	lw	ra,12(sp)
     324:	01010113          	addi	sp,sp,16
     328:	00002317          	auipc	t1,0x2
     32c:	1b430067          	jr	436(t1) # 24dc <_Z11MicroPrintfPKcz>
     330:	0107a683          	lw	a3,16(a5)
     334:	00100613          	li	a2,1
     338:	06000593          	li	a1,96
     33c:	06000513          	li	a0,96
     340:	00000097          	auipc	ra,0x0
     344:	d50080e7          	jalr	-688(ra) # 90 <_Z8GetImageiiiPa>
     348:	00050863          	beqz	a0,358 <loop+0x6c>
     34c:	80000517          	auipc	a0,0x80000
     350:	e9c50513          	addi	a0,a0,-356 # 800001e8 <__stack_top+0xfff433c8>
     354:	fc9ff06f          	j	31c <loop+0x30>
     358:	00042503          	lw	a0,0(s0)
     35c:	00001097          	auipc	ra,0x1
     360:	0f8080e7          	jalr	248(ra) # 1454 <_ZN6tflite16MicroInterpreter6InvokeEv>
     364:	00050863          	beqz	a0,374 <loop+0x88>
     368:	80000517          	auipc	a0,0x80000
     36c:	e9450513          	addi	a0,a0,-364 # 800001fc <__stack_top+0xfff433dc>
     370:	fadff06f          	j	31c <loop+0x30>
     374:	00042503          	lw	a0,0(s0)
     378:	00000593          	li	a1,0
     37c:	00001097          	auipc	ra,0x1
     380:	8a8080e7          	jalr	-1880(ra) # c24 <_ZN6tflite16MicroInterpreter6outputEj>
     384:	00051863          	bnez	a0,394 <loop+0xa8>
     388:	80000517          	auipc	a0,0x80000
     38c:	e8450513          	addi	a0,a0,-380 # 8000020c <__stack_top+0xfff433ec>
     390:	f8dff06f          	j	31c <loop+0x30>
     394:	01052783          	lw	a5,16(a0)
     398:	00812403          	lw	s0,8(sp)
     39c:	00c12083          	lw	ra,12(sp)
     3a0:	00078583          	lb	a1,0(a5)
     3a4:	00178503          	lb	a0,1(a5)
     3a8:	01010113          	addi	sp,sp,16
     3ac:	00000317          	auipc	t1,0x0
     3b0:	c8830067          	jr	-888(t1) # 34 <_Z18RespondToDetectionaa>

000003b4 <_ZN6tflite22MicroMutableOpResolverILj5EE10AddBuiltinENS_15BuiltinOperatorERK16TFLMRegistrationPF12TfLiteStatusPKNS_8OperatorEPNS_13ErrorReporterEPNS_20BuiltinDataAllocatorEPPvE>:
     3b4:	fe010113          	addi	sp,sp,-32
     3b8:	00112e23          	sw	ra,28(sp)
     3bc:	00812c23          	sw	s0,24(sp)
     3c0:	00912a23          	sw	s1,20(sp)
     3c4:	01212823          	sw	s2,16(sp)
     3c8:	01312623          	sw	s3,12(sp)
     3cc:	01412423          	sw	s4,8(sp)
     3d0:	01512223          	sw	s5,4(sp)
     3d4:	02000793          	li	a5,32
     3d8:	04f59663          	bne	a1,a5,424 <_ZN6tflite22MicroMutableOpResolverILj5EE10AddBuiltinENS_15BuiltinOperatorERK16TFLMRegistrationPF12TfLiteStatusPKNS_8OperatorEPNS_13ErrorReporterEPNS_20BuiltinDataAllocatorEPPvE+0x70>
     3dc:	80000517          	auipc	a0,0x80000
     3e0:	d0850513          	addi	a0,a0,-760 # 800000e4 <__stack_top+0xfff432c4>
     3e4:	00002097          	auipc	ra,0x2
     3e8:	0f8080e7          	jalr	248(ra) # 24dc <_Z11MicroPrintfPKcz>
     3ec:	80000517          	auipc	a0,0x80000
     3f0:	d2c50513          	addi	a0,a0,-724 # 80000118 <__stack_top+0xfff432f8>
     3f4:	00002097          	auipc	ra,0x2
     3f8:	0e8080e7          	jalr	232(ra) # 24dc <_Z11MicroPrintfPKcz>
     3fc:	00100513          	li	a0,1
     400:	01c12083          	lw	ra,28(sp)
     404:	01812403          	lw	s0,24(sp)
     408:	01412483          	lw	s1,20(sp)
     40c:	01012903          	lw	s2,16(sp)
     410:	00c12983          	lw	s3,12(sp)
     414:	00812a03          	lw	s4,8(sp)
     418:	00412a83          	lw	s5,4(sp)
     41c:	02010113          	addi	sp,sp,32
     420:	00008067          	ret
     424:	00052783          	lw	a5,0(a0)
     428:	00050413          	mv	s0,a0
     42c:	00058913          	mv	s2,a1
     430:	0007a783          	lw	a5,0(a5)
     434:	00060a93          	mv	s5,a2
     438:	00068a13          	mv	s4,a3
     43c:	000780e7          	jalr	a5
     440:	02050663          	beqz	a0,46c <_ZN6tflite22MicroMutableOpResolverILj5EE10AddBuiltinENS_15BuiltinOperatorERK16TFLMRegistrationPF12TfLiteStatusPKNS_8OperatorEPNS_13ErrorReporterEPNS_20BuiltinDataAllocatorEPPvE+0xb8>
     444:	80000517          	auipc	a0,0x80000
     448:	cec50513          	addi	a0,a0,-788 # 80000130 <__stack_top+0xfff43310>
     44c:	00002097          	auipc	ra,0x2
     450:	090080e7          	jalr	144(ra) # 24dc <_Z11MicroPrintfPKcz>
     454:	80000517          	auipc	a0,0x80000
     458:	00090593          	mv	a1,s2
     45c:	d0c50513          	addi	a0,a0,-756 # 80000160 <__stack_top+0xfff43340>
     460:	00002097          	auipc	ra,0x2
     464:	07c080e7          	jalr	124(ra) # 24dc <_Z11MicroPrintfPKcz>
     468:	f95ff06f          	j	3fc <_ZN6tflite22MicroMutableOpResolverILj5EE10AddBuiltinENS_15BuiltinOperatorERK16TFLMRegistrationPF12TfLiteStatusPKNS_8OperatorEPNS_13ErrorReporterEPNS_20BuiltinDataAllocatorEPPvE+0x48>
     46c:	09042983          	lw	s3,144(s0)
     470:	00400793          	li	a5,4
     474:	0337f463          	bgeu	a5,s3,49c <_ZN6tflite22MicroMutableOpResolverILj5EE10AddBuiltinENS_15BuiltinOperatorERK16TFLMRegistrationPF12TfLiteStatusPKNS_8OperatorEPNS_13ErrorReporterEPNS_20BuiltinDataAllocatorEPPvE+0xe8>
     478:	80000517          	auipc	a0,0x80000
     47c:	00090593          	mv	a1,s2
     480:	d0c50513          	addi	a0,a0,-756 # 80000184 <__stack_top+0xfff43364>
     484:	00002097          	auipc	ra,0x2
     488:	058080e7          	jalr	88(ra) # 24dc <_Z11MicroPrintfPKcz>
     48c:	80000517          	auipc	a0,0x80000
     490:	00500593          	li	a1,5
     494:	d2c50513          	addi	a0,a0,-724 # 800001b8 <__stack_top+0xfff43398>
     498:	fc9ff06f          	j	460 <_ZN6tflite22MicroMutableOpResolverILj5EE10AddBuiltinENS_15BuiltinOperatorERK16TFLMRegistrationPF12TfLiteStatusPKNS_8OperatorEPNS_13ErrorReporterEPNS_20BuiltinDataAllocatorEPPvE+0xac>
     49c:	01c00493          	li	s1,28
     4a0:	029984b3          	mul	s1,s3,s1
     4a4:	01c00613          	li	a2,28
     4a8:	000a8593          	mv	a1,s5
     4ac:	00198993          	addi	s3,s3,1
     4b0:	009404b3          	add	s1,s0,s1
     4b4:	00448513          	addi	a0,s1,4
     4b8:	00016097          	auipc	ra,0x16
     4bc:	a34080e7          	jalr	-1484(ra) # 15eec <memcpy>
     4c0:	0bc42783          	lw	a5,188(s0)
     4c4:	0124ac23          	sw	s2,24(s1)
     4c8:	09342823          	sw	s3,144(s0)
     4cc:	00279713          	slli	a4,a5,0x2
     4d0:	00e40733          	add	a4,s0,a4
     4d4:	09272a23          	sw	s2,148(a4)
     4d8:	0b472423          	sw	s4,168(a4)
     4dc:	00178793          	addi	a5,a5,1
     4e0:	0af42e23          	sw	a5,188(s0)
     4e4:	00000513          	li	a0,0
     4e8:	f19ff06f          	j	400 <_ZN6tflite22MicroMutableOpResolverILj5EE10AddBuiltinENS_15BuiltinOperatorERK16TFLMRegistrationPF12TfLiteStatusPKNS_8OperatorEPNS_13ErrorReporterEPNS_20BuiltinDataAllocatorEPPvE+0x4c>

000004ec <setup>:
     4ec:	fc010113          	addi	sp,sp,-64
     4f0:	02112e23          	sw	ra,60(sp)
     4f4:	03212823          	sw	s2,48(sp)
     4f8:	02812c23          	sw	s0,56(sp)
     4fc:	02912a23          	sw	s1,52(sp)
     500:	03312623          	sw	s3,44(sp)
     504:	00002097          	auipc	ra,0x2
     508:	1d8080e7          	jalr	472(ra) # 26dc <_ZN6tflite16InitializeTargetEv>
     50c:	80000517          	auipc	a0,0x80000
     510:	d1050513          	addi	a0,a0,-752 # 8000021c <__stack_top+0xfff433fc>
     514:	00002097          	auipc	ra,0x2
     518:	fc8080e7          	jalr	-56(ra) # 24dc <_Z11MicroPrintfPKcz>
     51c:	80000617          	auipc	a2,0x80000
     520:	80052917          	auipc	s2,0x80052
     524:	d9460613          	addi	a2,a2,-620 # 800002b0 <__stack_top+0xfff43490>
     528:	72090913          	addi	s2,s2,1824 # 80052c40 <__stack_top+0xfff95e20>
     52c:	00061e63          	bnez	a2,548 <setup+0x5c>
     530:	00092023          	sw	zero,0(s2)
     534:	80000517          	auipc	a0,0x80000
     538:	d0850513          	addi	a0,a0,-760 # 8000023c <__stack_top+0xfff4341c>
     53c:	00002097          	auipc	ra,0x2
     540:	fa0080e7          	jalr	-96(ra) # 24dc <_Z11MicroPrintfPKcz>
     544:	07c0006f          	j	5c0 <setup+0xd4>
     548:	80000597          	auipc	a1,0x80000
     54c:	d695c703          	lbu	a4,-663(a1) # 800002b1 <__stack_top+0xfff43491>
     550:	d685c683          	lbu	a3,-664(a1)
     554:	00871713          	slli	a4,a4,0x8
     558:	00d766b3          	or	a3,a4,a3
     55c:	d6a5c703          	lbu	a4,-662(a1)
     560:	01071793          	slli	a5,a4,0x10
     564:	00d7e733          	or	a4,a5,a3
     568:	d6b5c783          	lbu	a5,-661(a1)
     56c:	01879793          	slli	a5,a5,0x18
     570:	00e7e7b3          	or	a5,a5,a4
     574:	00c787b3          	add	a5,a5,a2
     578:	00f92023          	sw	a5,0(s2)
     57c:	fa078ce3          	beqz	a5,534 <setup+0x48>
     580:	0007a703          	lw	a4,0(a5)
     584:	00400693          	li	a3,4
     588:	40e78733          	sub	a4,a5,a4
     58c:	00075603          	lhu	a2,0(a4)
     590:	04c6f663          	bgeu	a3,a2,5dc <setup+0xf0>
     594:	00475703          	lhu	a4,4(a4)
     598:	04070263          	beqz	a4,5dc <setup+0xf0>
     59c:	00e787b3          	add	a5,a5,a4
     5a0:	0007a583          	lw	a1,0(a5)
     5a4:	00300793          	li	a5,3
     5a8:	02f58e63          	beq	a1,a5,5e4 <setup+0xf8>
     5ac:	80000517          	auipc	a0,0x80000
     5b0:	00300613          	li	a2,3
     5b4:	ca450513          	addi	a0,a0,-860 # 80000250 <__stack_top+0xfff43430>
     5b8:	00002097          	auipc	ra,0x2
     5bc:	f24080e7          	jalr	-220(ra) # 24dc <_Z11MicroPrintfPKcz>
     5c0:	03c12083          	lw	ra,60(sp)
     5c4:	03812403          	lw	s0,56(sp)
     5c8:	03412483          	lw	s1,52(sp)
     5cc:	03012903          	lw	s2,48(sp)
     5d0:	02c12983          	lw	s3,44(sp)
     5d4:	04010113          	addi	sp,sp,64
     5d8:	00008067          	ret
     5dc:	00000593          	li	a1,0
     5e0:	fcdff06f          	j	5ac <setup+0xc0>
     5e4:	80052797          	auipc	a5,0x80052
     5e8:	64c78793          	addi	a5,a5,1612 # 80052c30 <__stack_top+0xfff95e10>
     5ec:	0007c703          	lbu	a4,0(a5)
     5f0:	80074417          	auipc	s0,0x80074
     5f4:	74440413          	addi	s0,s0,1860 # 80074d34 <__stack_top+0xfffb7f14>
     5f8:	02071863          	bnez	a4,628 <setup+0x13c>
     5fc:	80000717          	auipc	a4,0x80000
     600:	ad470713          	addi	a4,a4,-1324 # 800000d0 <__stack_top+0xfff432b0>
     604:	00e42023          	sw	a4,0(s0)
     608:	00000517          	auipc	a0,0x0
     60c:	00100713          	li	a4,1
     610:	00e78023          	sb	a4,0(a5)
     614:	b8050513          	addi	a0,a0,-1152 # 188 <__tcf_0>
     618:	08042823          	sw	zero,144(s0)
     61c:	0a042e23          	sw	zero,188(s0)
     620:	00015097          	auipc	ra,0x15
     624:	c88080e7          	jalr	-888(ra) # 152a8 <atexit>
     628:	00410513          	addi	a0,sp,4
     62c:	00008097          	auipc	ra,0x8
     630:	5cc080e7          	jalr	1484(ra) # 8bf8 <_ZN6tflite24Register_AVERAGE_POOL_2DEv>
     634:	00003697          	auipc	a3,0x3
     638:	84468693          	addi	a3,a3,-1980 # 2e78 <_ZN6tflite9ParsePoolEPKNS_8OperatorEPNS_13ErrorReporterEPNS_20BuiltinDataAllocatorEPPv>
     63c:	00410613          	addi	a2,sp,4
     640:	00100593          	li	a1,1
     644:	00040513          	mv	a0,s0
     648:	00000097          	auipc	ra,0x0
     64c:	d6c080e7          	jalr	-660(ra) # 3b4 <_ZN6tflite22MicroMutableOpResolverILj5EE10AddBuiltinENS_15BuiltinOperatorERK16TFLMRegistrationPF12TfLiteStatusPKNS_8OperatorEPNS_13ErrorReporterEPNS_20BuiltinDataAllocatorEPPvE>
     650:	00410513          	addi	a0,sp,4
     654:	00005097          	auipc	ra,0x5
     658:	d50080e7          	jalr	-688(ra) # 53a4 <_ZN6tflite16Register_CONV_2DEv>
     65c:	00002697          	auipc	a3,0x2
     660:	4c068693          	addi	a3,a3,1216 # 2b1c <_ZN6tflite11ParseConv2DEPKNS_8OperatorEPNS_13ErrorReporterEPNS_20BuiltinDataAllocatorEPPv>
     664:	00410613          	addi	a2,sp,4
     668:	00300593          	li	a1,3
     66c:	00040513          	mv	a0,s0
     670:	00000097          	auipc	ra,0x0
     674:	d44080e7          	jalr	-700(ra) # 3b4 <_ZN6tflite22MicroMutableOpResolverILj5EE10AddBuiltinENS_15BuiltinOperatorERK16TFLMRegistrationPF12TfLiteStatusPKNS_8OperatorEPNS_13ErrorReporterEPNS_20BuiltinDataAllocatorEPPvE>
     678:	00410513          	addi	a0,sp,4
     67c:	00007097          	auipc	ra,0x7
     680:	054080e7          	jalr	84(ra) # 76d0 <_ZN6tflite26Register_DEPTHWISE_CONV_2DEv>
     684:	00002697          	auipc	a3,0x2
     688:	66068693          	addi	a3,a3,1632 # 2ce4 <_ZN6tflite20ParseDepthwiseConv2DEPKNS_8OperatorEPNS_13ErrorReporterEPNS_20BuiltinDataAllocatorEPPv>
     68c:	00410613          	addi	a2,sp,4
     690:	00400593          	li	a1,4
     694:	00040513          	mv	a0,s0
     698:	00000097          	auipc	ra,0x0
     69c:	d1c080e7          	jalr	-740(ra) # 3b4 <_ZN6tflite22MicroMutableOpResolverILj5EE10AddBuiltinENS_15BuiltinOperatorERK16TFLMRegistrationPF12TfLiteStatusPKNS_8OperatorEPNS_13ErrorReporterEPNS_20BuiltinDataAllocatorEPPvE>
     6a0:	00410513          	addi	a0,sp,4
     6a4:	00009097          	auipc	ra,0x9
     6a8:	ea8080e7          	jalr	-344(ra) # 954c <_ZN6tflite16Register_RESHAPEEv>
     6ac:	00003697          	auipc	a3,0x3
     6b0:	a7468693          	addi	a3,a3,-1420 # 3120 <_ZN6tflite12ParseReshapeEPKNS_8OperatorEPNS_13ErrorReporterEPNS_20BuiltinDataAllocatorEPPv>
     6b4:	00410613          	addi	a2,sp,4
     6b8:	01600593          	li	a1,22
     6bc:	00040513          	mv	a0,s0
     6c0:	00000097          	auipc	ra,0x0
     6c4:	cf4080e7          	jalr	-780(ra) # 3b4 <_ZN6tflite22MicroMutableOpResolverILj5EE10AddBuiltinENS_15BuiltinOperatorERK16TFLMRegistrationPF12TfLiteStatusPKNS_8OperatorEPNS_13ErrorReporterEPNS_20BuiltinDataAllocatorEPPvE>
     6c8:	00410513          	addi	a0,sp,4
     6cc:	00009097          	auipc	ra,0x9
     6d0:	3ec080e7          	jalr	1004(ra) # 9ab8 <_ZN6tflite16Register_SOFTMAXEv>
     6d4:	00003697          	auipc	a3,0x3
     6d8:	96068693          	addi	a3,a3,-1696 # 3034 <_ZN6tflite12ParseSoftmaxEPKNS_8OperatorEPNS_13ErrorReporterEPNS_20BuiltinDataAllocatorEPPv>
     6dc:	00410613          	addi	a2,sp,4
     6e0:	01900593          	li	a1,25
     6e4:	00040513          	mv	a0,s0
     6e8:	80052997          	auipc	s3,0x80052
     6ec:	00000097          	auipc	ra,0x0
     6f0:	cc8080e7          	jalr	-824(ra) # 3b4 <_ZN6tflite22MicroMutableOpResolverILj5EE10AddBuiltinENS_15BuiltinOperatorERK16TFLMRegistrationPF12TfLiteStatusPKNS_8OperatorEPNS_13ErrorReporterEPNS_20BuiltinDataAllocatorEPPvE>
     6f4:	54098993          	addi	s3,s3,1344 # 80052c28 <__stack_top+0xfff95e08>
     6f8:	0009c783          	lbu	a5,0(s3)
     6fc:	80074497          	auipc	s1,0x80074
     700:	56448493          	addi	s1,s1,1380 # 80074c60 <__stack_top+0xfffb7e40>
     704:	04079263          	bnez	a5,748 <setup+0x25c>
     708:	00092583          	lw	a1,0(s2)
     70c:	80052697          	auipc	a3,0x80052
     710:	00048513          	mv	a0,s1
     714:	00000893          	li	a7,0
     718:	00000813          	li	a6,0
     71c:	00022737          	lui	a4,0x22
     720:	55468693          	addi	a3,a3,1364 # 80052c60 <__stack_top+0xfff95e40>
     724:	00040613          	mv	a2,s0
     728:	00000097          	auipc	ra,0x0
     72c:	218080e7          	jalr	536(ra) # 940 <_ZN6tflite16MicroInterpreterC1EPKNS_5ModelERKNS_15MicroOpResolverEPhjPNS_22MicroResourceVariablesEPNS_22MicroProfilerInterfaceEb>
     730:	00100793          	li	a5,1
     734:	00000517          	auipc	a0,0x0
     738:	00f98023          	sb	a5,0(s3)
     73c:	b0850513          	addi	a0,a0,-1272 # 23c <__tcf_1>
     740:	00015097          	auipc	ra,0x15
     744:	b68080e7          	jalr	-1176(ra) # 152a8 <atexit>
     748:	80052417          	auipc	s0,0x80052
     74c:	4f040413          	addi	s0,s0,1264 # 80052c38 <__stack_top+0xfff95e18>
     750:	00048513          	mv	a0,s1
     754:	00942023          	sw	s1,0(s0)
     758:	00001097          	auipc	ra,0x1
     75c:	9b4080e7          	jalr	-1612(ra) # 110c <_ZN6tflite16MicroInterpreter15AllocateTensorsEv>
     760:	00050863          	beqz	a0,770 <setup+0x284>
     764:	80000517          	auipc	a0,0x80000
     768:	b1050513          	addi	a0,a0,-1264 # 80000274 <__stack_top+0xfff43454>
     76c:	dd1ff06f          	j	53c <setup+0x50>
     770:	00042503          	lw	a0,0(s0)
     774:	00000593          	li	a1,0
     778:	00000097          	auipc	ra,0x0
     77c:	40c080e7          	jalr	1036(ra) # b84 <_ZN6tflite16MicroInterpreter5inputEj>
     780:	80052797          	auipc	a5,0x80052
     784:	4aa7ae23          	sw	a0,1212(a5) # 80052c3c <__stack_top+0xfff95e1c>
     788:	00051863          	bnez	a0,798 <setup+0x2ac>
     78c:	80000517          	auipc	a0,0x80000
     790:	b0050513          	addi	a0,a0,-1280 # 8000028c <__stack_top+0xfff4346c>
     794:	da9ff06f          	j	53c <setup+0x50>
     798:	80000517          	auipc	a0,0x80000
     79c:	b0450513          	addi	a0,a0,-1276 # 8000029c <__stack_top+0xfff4347c>
     7a0:	d9dff06f          	j	53c <setup+0x50>

000007a4 <_ZN6tflite36MicroContextAllocatePersistentBufferEP13TfLiteContextj>:
     7a4:	00c52503          	lw	a0,12(a0)
     7a8:	00052783          	lw	a5,0(a0)
     7ac:	0087a303          	lw	t1,8(a5)
     7b0:	00030067          	jr	t1

000007b4 <_ZN6tflite39MicroContextRequestScratchBufferInArenaEP13TfLiteContextjPi>:
     7b4:	00c52503          	lw	a0,12(a0)
     7b8:	00052783          	lw	a5,0(a0)
     7bc:	00c7a303          	lw	t1,12(a5)
     7c0:	00030067          	jr	t1

000007c4 <_ZN6tflite28MicroContextGetScratchBufferEP13TfLiteContexti>:
     7c4:	00c52503          	lw	a0,12(a0)
     7c8:	00052783          	lw	a5,0(a0)
     7cc:	0107a303          	lw	t1,16(a5)
     7d0:	00030067          	jr	t1

000007d4 <_ZN6tflite21MicroContextGetTensorEPK13TfLiteContexti>:
     7d4:	00c52503          	lw	a0,12(a0)
     7d8:	00052783          	lw	a5,0(a0)
     7dc:	0147a303          	lw	t1,20(a5)
     7e0:	00030067          	jr	t1

000007e4 <_ZN6tflite25MicroContextGetEvalTensorEPK13TfLiteContexti>:
     7e4:	00c52503          	lw	a0,12(a0)
     7e8:	00052783          	lw	a5,0(a0)
     7ec:	0247a303          	lw	t1,36(a5)
     7f0:	00030067          	jr	t1

000007f4 <_ZN6tflite30MicroContextGetExternalContextEP13TfLiteContext25TfLiteExternalContextType>:
     7f4:	00c52503          	lw	a0,12(a0)
     7f8:	00052783          	lw	a5,0(a0)
     7fc:	02c7a303          	lw	t1,44(a5)
     800:	00030067          	jr	t1

00000804 <_ZNK11flatbuffers5Table22GetOptionalFieldOffsetEt>:
     804:	00052783          	lw	a5,0(a0)
     808:	40f50533          	sub	a0,a0,a5
     80c:	00055783          	lhu	a5,0(a0)
     810:	00f5f863          	bgeu	a1,a5,820 <_ZNK11flatbuffers5Table22GetOptionalFieldOffsetEt+0x1c>
     814:	00b50533          	add	a0,a0,a1
     818:	00055503          	lhu	a0,0(a0)
     81c:	00008067          	ret
     820:	00000513          	li	a0,0
     824:	00008067          	ret

00000828 <_ZN6tflite23EnumNameBuiltinOperatorENS_15BuiltinOperatorE>:
     828:	0d100793          	li	a5,209
     82c:	00a7ee63          	bltu	a5,a0,848 <_ZN6tflite23EnumNameBuiltinOperatorENS_15BuiltinOperatorE+0x20>
     830:	8004e797          	auipc	a5,0x8004e
     834:	8a078793          	addi	a5,a5,-1888 # 8004e0d0 <__stack_top+0xfff912b0>
     838:	00251513          	slli	a0,a0,0x2
     83c:	00f50533          	add	a0,a0,a5
     840:	00052503          	lw	a0,0(a0)
     844:	00008067          	ret
     848:	8004f517          	auipc	a0,0x8004f
     84c:	12050513          	addi	a0,a0,288 # 8004f968 <__stack_top+0xfff92b48>
     850:	00008067          	ret

00000854 <_ZNK6tflite8Operator14custom_optionsEv>:
     854:	ff010113          	addi	sp,sp,-16
     858:	00e00593          	li	a1,14
     85c:	00812423          	sw	s0,8(sp)
     860:	00112623          	sw	ra,12(sp)
     864:	00050413          	mv	s0,a0
     868:	00000097          	auipc	ra,0x0
     86c:	f9c080e7          	jalr	-100(ra) # 804 <_ZNK11flatbuffers5Table22GetOptionalFieldOffsetEt>
     870:	02050063          	beqz	a0,890 <_ZNK6tflite8Operator14custom_optionsEv+0x3c>
     874:	00a40533          	add	a0,s0,a0
     878:	00052783          	lw	a5,0(a0)
     87c:	00f50533          	add	a0,a0,a5
     880:	00c12083          	lw	ra,12(sp)
     884:	00812403          	lw	s0,8(sp)
     888:	01010113          	addi	sp,sp,16
     88c:	00008067          	ret
     890:	00000513          	li	a0,0
     894:	fedff06f          	j	880 <_ZNK6tflite8Operator14custom_optionsEv+0x2c>

00000898 <_ZN6tflite16MicroInterpreter4InitEPNS_22MicroProfilerInterfaceE>:
     898:	ff010113          	addi	sp,sp,-16
     89c:	00912223          	sw	s1,4(sp)
     8a0:	0a850493          	addi	s1,a0,168
     8a4:	00812423          	sw	s0,8(sp)
     8a8:	01212023          	sw	s2,0(sp)
     8ac:	00050413          	mv	s0,a0
     8b0:	00058913          	mv	s2,a1
     8b4:	00048513          	mv	a0,s1
     8b8:	00000593          	li	a1,0
     8bc:	00112623          	sw	ra,12(sp)
     8c0:	00001097          	auipc	ra,0x1
     8c4:	e68080e7          	jalr	-408(ra) # 1728 <_ZN6tflite23MicroInterpreterContext19SetInterpreterStateENS0_16InterpreterStateE>
     8c8:	0000d797          	auipc	a5,0xd
     8cc:	66478793          	addi	a5,a5,1636 # df2c <_ZN6tflite25MicroContextReportOpErrorEP13TfLiteContextPKcz>
     8d0:	00f42e23          	sw	a5,28(s0)
     8d4:	00000797          	auipc	a5,0x0
     8d8:	f0078793          	addi	a5,a5,-256 # 7d4 <_ZN6tflite21MicroContextGetTensorEPK13TfLiteContexti>
     8dc:	04f42c23          	sw	a5,88(s0)
     8e0:	00000797          	auipc	a5,0x0
     8e4:	f0478793          	addi	a5,a5,-252 # 7e4 <_ZN6tflite25MicroContextGetEvalTensorEPK13TfLiteContexti>
     8e8:	04f42e23          	sw	a5,92(s0)
     8ec:	00000797          	auipc	a5,0x0
     8f0:	ec878793          	addi	a5,a5,-312 # 7b4 <_ZN6tflite39MicroContextRequestScratchBufferInArenaEP13TfLiteContextjPi>
     8f4:	04f42423          	sw	a5,72(s0)
     8f8:	00000797          	auipc	a5,0x0
     8fc:	efc78793          	addi	a5,a5,-260 # 7f4 <_ZN6tflite30MicroContextGetExternalContextEP13TfLiteContext25TfLiteExternalContextType>
     900:	02f42823          	sw	a5,48(s0)
     904:	00000797          	auipc	a5,0x0
     908:	ea078793          	addi	a5,a5,-352 # 7a4 <_ZN6tflite36MicroContextAllocatePersistentBufferEP13TfLiteContextj>
     90c:	04f42023          	sw	a5,64(s0)
     910:	00000797          	auipc	a5,0x0
     914:	eb478793          	addi	a5,a5,-332 # 7c4 <_ZN6tflite28MicroContextGetScratchBufferEP13TfLiteContexti>
     918:	00942a23          	sw	s1,20(s0)
     91c:	03242e23          	sw	s2,60(s0)
     920:	04f42623          	sw	a5,76(s0)
     924:	08042c23          	sw	zero,152(s0)
     928:	00c12083          	lw	ra,12(sp)
     92c:	00812403          	lw	s0,8(sp)
     930:	00412483          	lw	s1,4(sp)
     934:	00012903          	lw	s2,0(sp)
     938:	01010113          	addi	sp,sp,16
     93c:	00008067          	ret

00000940 <_ZN6tflite16MicroInterpreterC1EPKNS_5ModelERKNS_15MicroOpResolverEPhjPNS_22MicroResourceVariablesEPNS_22MicroProfilerInterfaceEb>:
     940:	fc010113          	addi	sp,sp,-64
     944:	02812c23          	sw	s0,56(sp)
     948:	00050413          	mv	s0,a0
     94c:	02112e23          	sw	ra,60(sp)
     950:	02912a23          	sw	s1,52(sp)
     954:	03212823          	sw	s2,48(sp)
     958:	03312623          	sw	s3,44(sp)
     95c:	00b42023          	sw	a1,0(s0)
     960:	00850913          	addi	s2,a0,8
     964:	00058993          	mv	s3,a1
     968:	00c52223          	sw	a2,4(a0)
     96c:	00000593          	li	a1,0
     970:	06400613          	li	a2,100
     974:	00090513          	mv	a0,s2
     978:	01012823          	sw	a6,16(sp)
     97c:	00f12a23          	sw	a5,20(sp)
     980:	00d12e23          	sw	a3,28(sp)
     984:	00e12c23          	sw	a4,24(sp)
     988:	01112623          	sw	a7,12(sp)
     98c:	00015097          	auipc	ra,0x15
     990:	694080e7          	jalr	1684(ra) # 16020 <memset>
     994:	00c12883          	lw	a7,12(sp)
     998:	01812703          	lw	a4,24(sp)
     99c:	01c12683          	lw	a3,28(sp)
     9a0:	00088613          	mv	a2,a7
     9a4:	00070593          	mv	a1,a4
     9a8:	00068513          	mv	a0,a3
     9ac:	0000c097          	auipc	ra,0xc
     9b0:	1d0080e7          	jalr	464(ra) # cb7c <_ZN6tflite14MicroAllocator6CreateEPhjNS_17MemoryPlannerTypeE>
     9b4:	01412783          	lw	a5,20(sp)
     9b8:	07040493          	addi	s1,s0,112
     9bc:	00050693          	mv	a3,a0
     9c0:	06a42623          	sw	a0,108(s0)
     9c4:	00078713          	mv	a4,a5
     9c8:	00098613          	mv	a2,s3
     9cc:	00090593          	mv	a1,s2
     9d0:	00048513          	mv	a0,s1
     9d4:	00002097          	auipc	ra,0x2
     9d8:	90c080e7          	jalr	-1780(ra) # 22e0 <_ZN6tflite21MicroInterpreterGraphC1EP13TfLiteContextPKNS_5ModelEPNS_14MicroAllocatorEPNS_22MicroResourceVariablesE>
     9dc:	06c42583          	lw	a1,108(s0)
     9e0:	00042603          	lw	a2,0(s0)
     9e4:	00100793          	li	a5,1
     9e8:	0a840513          	addi	a0,s0,168
     9ec:	08040a23          	sb	zero,148(s0)
     9f0:	08f42c23          	sw	a5,152(s0)
     9f4:	08042e23          	sw	zero,156(s0)
     9f8:	0a042023          	sw	zero,160(s0)
     9fc:	0a042223          	sw	zero,164(s0)
     a00:	00048693          	mv	a3,s1
     a04:	00001097          	auipc	ra,0x1
     a08:	ce4080e7          	jalr	-796(ra) # 16e8 <_ZN6tflite23MicroInterpreterContextC1EPNS_14MicroAllocatorEPKNS_5ModelEPNS_21MicroInterpreterGraphE>
     a0c:	01012803          	lw	a6,16(sp)
     a10:	00040513          	mv	a0,s0
     a14:	03812403          	lw	s0,56(sp)
     a18:	03c12083          	lw	ra,60(sp)
     a1c:	03412483          	lw	s1,52(sp)
     a20:	03012903          	lw	s2,48(sp)
     a24:	02c12983          	lw	s3,44(sp)
     a28:	00080593          	mv	a1,a6
     a2c:	04010113          	addi	sp,sp,64
     a30:	00000317          	auipc	t1,0x0
     a34:	e6830067          	jr	-408(t1) # 898 <_ZN6tflite16MicroInterpreter4InitEPNS_22MicroProfilerInterfaceE>

00000a38 <_ZNK11flatbuffers6VectorIlmE3GetEm>:
     a38:	00052783          	lw	a5,0(a0)
     a3c:	02f5e863          	bltu	a1,a5,a6c <_ZNK11flatbuffers6VectorIlmE3GetEm+0x34>
     a40:	8004e697          	auipc	a3,0x8004e
     a44:	8004e617          	auipc	a2,0x8004e
     a48:	8004e517          	auipc	a0,0x8004e
     a4c:	ff010113          	addi	sp,sp,-16
     a50:	c5868693          	addi	a3,a3,-936 # 8004e698 <__stack_top+0xfff91878>
     a54:	e9460613          	addi	a2,a2,-364 # 8004e8d8 <__stack_top+0xfff91ab8>
     a58:	0c200593          	li	a1,194
     a5c:	c5c50513          	addi	a0,a0,-932 # 8004e6a4 <__stack_top+0xfff91884>
     a60:	00112623          	sw	ra,12(sp)
     a64:	00014097          	auipc	ra,0x14
     a68:	7d0080e7          	jalr	2000(ra) # 15234 <__assert_func>
     a6c:	00259593          	slli	a1,a1,0x2
     a70:	00b50533          	add	a0,a0,a1
     a74:	00452503          	lw	a0,4(a0)
     a78:	00008067          	ret

00000a7c <_ZNK11flatbuffers6VectorINS_6OffsetIN6tflite8SubGraphEEEmE3GetEm>:
     a7c:	00052783          	lw	a5,0(a0)
     a80:	02f5e863          	bltu	a1,a5,ab0 <_ZNK11flatbuffers6VectorINS_6OffsetIN6tflite8SubGraphEEEmE3GetEm+0x34>
     a84:	8004e697          	auipc	a3,0x8004e
     a88:	8004e617          	auipc	a2,0x8004e
     a8c:	8004e517          	auipc	a0,0x8004e
     a90:	ff010113          	addi	sp,sp,-16
     a94:	c1468693          	addi	a3,a3,-1004 # 8004e698 <__stack_top+0xfff91878>
     a98:	d6060613          	addi	a2,a2,-672 # 8004e7e8 <__stack_top+0xfff919c8>
     a9c:	0c200593          	li	a1,194
     aa0:	c1850513          	addi	a0,a0,-1000 # 8004e6a4 <__stack_top+0xfff91884>
     aa4:	00112623          	sw	ra,12(sp)
     aa8:	00014097          	auipc	ra,0x14
     aac:	78c080e7          	jalr	1932(ra) # 15234 <__assert_func>
     ab0:	00259593          	slli	a1,a1,0x2
     ab4:	00450513          	addi	a0,a0,4
     ab8:	00b50533          	add	a0,a0,a1
     abc:	00052783          	lw	a5,0(a0)
     ac0:	00f50533          	add	a0,a0,a5
     ac4:	00008067          	ret

00000ac8 <_ZN11flatbuffers5Table10GetPointerIPKNS_6VectorIlmEEmEET_t>:
     ac8:	ff010113          	addi	sp,sp,-16
     acc:	00812423          	sw	s0,8(sp)
     ad0:	00112623          	sw	ra,12(sp)
     ad4:	00050413          	mv	s0,a0
     ad8:	00000097          	auipc	ra,0x0
     adc:	d2c080e7          	jalr	-724(ra) # 804 <_ZNK11flatbuffers5Table22GetOptionalFieldOffsetEt>
     ae0:	02050063          	beqz	a0,b00 <_ZN11flatbuffers5Table10GetPointerIPKNS_6VectorIlmEEmEET_t+0x38>
     ae4:	00a40533          	add	a0,s0,a0
     ae8:	00052783          	lw	a5,0(a0)
     aec:	00f50533          	add	a0,a0,a5
     af0:	00c12083          	lw	ra,12(sp)
     af4:	00812403          	lw	s0,8(sp)
     af8:	01010113          	addi	sp,sp,16
     afc:	00008067          	ret
     b00:	00000513          	li	a0,0
     b04:	fedff06f          	j	af0 <_ZN11flatbuffers5Table10GetPointerIPKNS_6VectorIlmEEmEET_t+0x28>

00000b08 <_ZN11flatbuffers5Table10GetPointerIPKNS_6VectorINS_6OffsetIN6tflite8SubGraphEEEmEEmEET_t>:
     b08:	ff010113          	addi	sp,sp,-16
     b0c:	00812423          	sw	s0,8(sp)
     b10:	00112623          	sw	ra,12(sp)
     b14:	00050413          	mv	s0,a0
     b18:	00000097          	auipc	ra,0x0
     b1c:	cec080e7          	jalr	-788(ra) # 804 <_ZNK11flatbuffers5Table22GetOptionalFieldOffsetEt>
     b20:	02050063          	beqz	a0,b40 <_ZN11flatbuffers5Table10GetPointerIPKNS_6VectorINS_6OffsetIN6tflite8SubGraphEEEmEEmEET_t+0x38>
     b24:	00a40533          	add	a0,s0,a0
     b28:	00052783          	lw	a5,0(a0)
     b2c:	00f50533          	add	a0,a0,a5
     b30:	00c12083          	lw	ra,12(sp)
     b34:	00812403          	lw	s0,8(sp)
     b38:	01010113          	addi	sp,sp,16
     b3c:	00008067          	ret
     b40:	00000513          	li	a0,0
     b44:	fedff06f          	j	b30 <_ZN11flatbuffers5Table10GetPointerIPKNS_6VectorINS_6OffsetIN6tflite8SubGraphEEEmEEmEET_t+0x28>

00000b48 <_ZNK6tflite16MicroInterpreter11inputs_sizeEv.isra.9>:
     b48:	ff010113          	addi	sp,sp,-16
     b4c:	00800593          	li	a1,8
     b50:	00112623          	sw	ra,12(sp)
     b54:	00000097          	auipc	ra,0x0
     b58:	fb4080e7          	jalr	-76(ra) # b08 <_ZN11flatbuffers5Table10GetPointerIPKNS_6VectorINS_6OffsetIN6tflite8SubGraphEEEmEEmEET_t>
     b5c:	00000593          	li	a1,0
     b60:	00000097          	auipc	ra,0x0
     b64:	f1c080e7          	jalr	-228(ra) # a7c <_ZNK11flatbuffers6VectorINS_6OffsetIN6tflite8SubGraphEEEmE3GetEm>
     b68:	00600593          	li	a1,6
     b6c:	00000097          	auipc	ra,0x0
     b70:	f5c080e7          	jalr	-164(ra) # ac8 <_ZN11flatbuffers5Table10GetPointerIPKNS_6VectorIlmEEmEET_t>
     b74:	00c12083          	lw	ra,12(sp)
     b78:	00052503          	lw	a0,0(a0)
     b7c:	01010113          	addi	sp,sp,16
     b80:	00008067          	ret

00000b84 <_ZN6tflite16MicroInterpreter5inputEj>:
     b84:	fe010113          	addi	sp,sp,-32
     b88:	00812c23          	sw	s0,24(sp)
     b8c:	00050413          	mv	s0,a0
     b90:	00052503          	lw	a0,0(a0)
     b94:	00b12623          	sw	a1,12(sp)
     b98:	00112e23          	sw	ra,28(sp)
     b9c:	00000097          	auipc	ra,0x0
     ba0:	fac080e7          	jalr	-84(ra) # b48 <_ZNK6tflite16MicroInterpreter11inputs_sizeEv.isra.9>
     ba4:	00c12583          	lw	a1,12(sp)
     ba8:	02a5e663          	bltu	a1,a0,bd4 <_ZN6tflite16MicroInterpreter5inputEj+0x50>
     bac:	00050613          	mv	a2,a0
     bb0:	8004e517          	auipc	a0,0x8004e
     bb4:	a6050513          	addi	a0,a0,-1440 # 8004e610 <__stack_top+0xfff917f0>
     bb8:	00002097          	auipc	ra,0x2
     bbc:	924080e7          	jalr	-1756(ra) # 24dc <_Z11MicroPrintfPKcz>
     bc0:	00000513          	li	a0,0
     bc4:	01c12083          	lw	ra,28(sp)
     bc8:	01812403          	lw	s0,24(sp)
     bcc:	02010113          	addi	sp,sp,32
     bd0:	00008067          	ret
     bd4:	0a042783          	lw	a5,160(s0)
     bd8:	00259593          	slli	a1,a1,0x2
     bdc:	00b785b3          	add	a1,a5,a1
     be0:	0005a503          	lw	a0,0(a1)
     be4:	fe1ff06f          	j	bc4 <_ZN6tflite16MicroInterpreter5inputEj+0x40>

00000be8 <_ZNK6tflite16MicroInterpreter12outputs_sizeEv.isra.11>:
     be8:	ff010113          	addi	sp,sp,-16
     bec:	00800593          	li	a1,8
     bf0:	00112623          	sw	ra,12(sp)
     bf4:	00000097          	auipc	ra,0x0
     bf8:	f14080e7          	jalr	-236(ra) # b08 <_ZN11flatbuffers5Table10GetPointerIPKNS_6VectorINS_6OffsetIN6tflite8SubGraphEEEmEEmEET_t>
     bfc:	00000593          	li	a1,0
     c00:	00000097          	auipc	ra,0x0
     c04:	e7c080e7          	jalr	-388(ra) # a7c <_ZNK11flatbuffers6VectorINS_6OffsetIN6tflite8SubGraphEEEmE3GetEm>
     c08:	00800593          	li	a1,8
     c0c:	00000097          	auipc	ra,0x0
     c10:	ebc080e7          	jalr	-324(ra) # ac8 <_ZN11flatbuffers5Table10GetPointerIPKNS_6VectorIlmEEmEET_t>
     c14:	00c12083          	lw	ra,12(sp)
     c18:	00052503          	lw	a0,0(a0)
     c1c:	01010113          	addi	sp,sp,16
     c20:	00008067          	ret

00000c24 <_ZN6tflite16MicroInterpreter6outputEj>:
     c24:	fe010113          	addi	sp,sp,-32
     c28:	00812c23          	sw	s0,24(sp)
     c2c:	00050413          	mv	s0,a0
     c30:	00052503          	lw	a0,0(a0)
     c34:	00b12623          	sw	a1,12(sp)
     c38:	00112e23          	sw	ra,28(sp)
     c3c:	00000097          	auipc	ra,0x0
     c40:	fac080e7          	jalr	-84(ra) # be8 <_ZNK6tflite16MicroInterpreter12outputs_sizeEv.isra.11>
     c44:	00c12583          	lw	a1,12(sp)
     c48:	02a5e663          	bltu	a1,a0,c74 <_ZN6tflite16MicroInterpreter6outputEj+0x50>
     c4c:	00050613          	mv	a2,a0
     c50:	8004e517          	auipc	a0,0x8004e
     c54:	a1c50513          	addi	a0,a0,-1508 # 8004e66c <__stack_top+0xfff9184c>
     c58:	00002097          	auipc	ra,0x2
     c5c:	884080e7          	jalr	-1916(ra) # 24dc <_Z11MicroPrintfPKcz>
     c60:	00000513          	li	a0,0
     c64:	01c12083          	lw	ra,28(sp)
     c68:	01812403          	lw	s0,24(sp)
     c6c:	02010113          	addi	sp,sp,32
     c70:	00008067          	ret
     c74:	0a442783          	lw	a5,164(s0)
     c78:	00259593          	slli	a1,a1,0x2
     c7c:	00b785b3          	add	a1,a5,a1
     c80:	0005a503          	lw	a0,0(a1)
     c84:	fe1ff06f          	j	c64 <_ZN6tflite16MicroInterpreter6outputEj+0x40>

00000c88 <_ZN6tflite16MicroInterpreterD1Ev>:
     c88:	08052783          	lw	a5,128(a0)
     c8c:	ff010113          	addi	sp,sp,-16
     c90:	00812423          	sw	s0,8(sp)
     c94:	00912223          	sw	s1,4(sp)
     c98:	00112623          	sw	ra,12(sp)
     c9c:	00050413          	mv	s0,a0
     ca0:	07050493          	addi	s1,a0,112
     ca4:	00078863          	beqz	a5,cb4 <_ZN6tflite16MicroInterpreterD1Ev+0x2c>
     ca8:	00048513          	mv	a0,s1
     cac:	00001097          	auipc	ra,0x1
     cb0:	cb0080e7          	jalr	-848(ra) # 195c <_ZN6tflite21MicroInterpreterGraph13FreeSubgraphsEv>
     cb4:	0a840513          	addi	a0,s0,168
     cb8:	00001097          	auipc	ra,0x1
     cbc:	81c080e7          	jalr	-2020(ra) # 14d4 <_ZN6tflite23MicroInterpreterContextD0Ev>
     cc0:	00812403          	lw	s0,8(sp)
     cc4:	00c12083          	lw	ra,12(sp)
     cc8:	00048513          	mv	a0,s1
     ccc:	00412483          	lw	s1,4(sp)
     cd0:	01010113          	addi	sp,sp,16
     cd4:	00001317          	auipc	t1,0x1
     cd8:	aa030067          	jr	-1376(t1) # 1774 <_ZN6tflite21MicroInterpreterGraphD0Ev>

00000cdc <_ZN6tflite16MicroInterpreter44PrepareNodeAndRegistrationDataFromFlatbufferEv>:
     cdc:	f9010113          	addi	sp,sp,-112
     ce0:	07050793          	addi	a5,a0,112
     ce4:	06912223          	sw	s1,100(sp)
     ce8:	05312e23          	sw	s3,92(sp)
     cec:	06112623          	sw	ra,108(sp)
     cf0:	06812423          	sw	s0,104(sp)
     cf4:	07212023          	sw	s2,96(sp)
     cf8:	05412c23          	sw	s4,88(sp)
     cfc:	05512a23          	sw	s5,84(sp)
     d00:	05612823          	sw	s6,80(sp)
     d04:	05712623          	sw	s7,76(sp)
     d08:	05812423          	sw	s8,72(sp)
     d0c:	05912223          	sw	s9,68(sp)
     d10:	05a12023          	sw	s10,64(sp)
     d14:	03b12e23          	sw	s11,60(sp)
     d18:	00050493          	mv	s1,a0
     d1c:	00000993          	li	s3,0
     d20:	00f12623          	sw	a5,12(sp)
     d24:	00c12503          	lw	a0,12(sp)
     d28:	00001097          	auipc	ra,0x1
     d2c:	590080e7          	jalr	1424(ra) # 22b8 <_ZN6tflite21MicroInterpreterGraph12NumSubgraphsEv>
     d30:	38a9d663          	bge	s3,a0,10bc <_ZN6tflite16MicroInterpreter44PrepareNodeAndRegistrationDataFromFlatbufferEv+0x3e0>
     d34:	0004a403          	lw	s0,0(s1)
     d38:	00800593          	li	a1,8
     d3c:	00040513          	mv	a0,s0
     d40:	00000097          	auipc	ra,0x0
     d44:	dc8080e7          	jalr	-568(ra) # b08 <_ZN11flatbuffers5Table10GetPointerIPKNS_6VectorINS_6OffsetIN6tflite8SubGraphEEEmEEmEET_t>
     d48:	00098593          	mv	a1,s3
     d4c:	00000097          	auipc	ra,0x0
     d50:	d30080e7          	jalr	-720(ra) # a7c <_ZNK11flatbuffers6VectorINS_6OffsetIN6tflite8SubGraphEEEmE3GetEm>
     d54:	00050a93          	mv	s5,a0
     d58:	00051c63          	bnez	a0,d70 <_ZN6tflite16MicroInterpreter44PrepareNodeAndRegistrationDataFromFlatbufferEv+0x94>
     d5c:	7ffff517          	auipc	a0,0x7ffff
     d60:	47050513          	addi	a0,a0,1136 # 800001cc <_ZTVN6tflite22MicroMutableOpResolverILj5EEE+0x104>
     d64:	00001097          	auipc	ra,0x1
     d68:	778080e7          	jalr	1912(ra) # 24dc <_Z11MicroPrintfPKcz>
     d6c:	0000006f          	j	d6c <_ZN6tflite16MicroInterpreter44PrepareNodeAndRegistrationDataFromFlatbufferEv+0x90>
     d70:	00600593          	li	a1,6
     d74:	00040513          	mv	a0,s0
     d78:	00000097          	auipc	ra,0x0
     d7c:	a8c080e7          	jalr	-1396(ra) # 804 <_ZNK11flatbuffers5Table22GetOptionalFieldOffsetEt>
     d80:	00000a13          	li	s4,0
     d84:	00050863          	beqz	a0,d94 <_ZN6tflite16MicroInterpreter44PrepareNodeAndRegistrationDataFromFlatbufferEv+0xb8>
     d88:	00a40433          	add	s0,s0,a0
     d8c:	00042a03          	lw	s4,0(s0)
     d90:	01440a33          	add	s4,s0,s4
     d94:	06c4a503          	lw	a0,108(s1)
     d98:	00399b13          	slli	s6,s3,0x3
     d9c:	00000913          	li	s2,0
     da0:	0000c097          	auipc	ra,0xc
     da4:	218080e7          	jalr	536(ra) # cfb8 <_ZN6tflite14MicroAllocator23GetBuiltinDataAllocatorEv>
     da8:	00050c93          	mv	s9,a0
     dac:	000a8513          	mv	a0,s5
     db0:	0000b097          	auipc	ra,0xb
     db4:	668080e7          	jalr	1640(ra) # c418 <_ZN6tflite20NumSubgraphOperatorsEPKNS_8SubGraphE>
     db8:	00050d13          	mv	s10,a0
     dbc:	004a0d93          	addi	s11,s4,4
     dc0:	2fa90a63          	beq	s2,s10,10b4 <_ZN6tflite16MicroInterpreter44PrepareNodeAndRegistrationDataFromFlatbufferEv+0x3d8>
     dc4:	00a00593          	li	a1,10
     dc8:	000a8513          	mv	a0,s5
     dcc:	00000097          	auipc	ra,0x0
     dd0:	a38080e7          	jalr	-1480(ra) # 804 <_ZNK11flatbuffers5Table22GetOptionalFieldOffsetEt>
     dd4:	00000413          	li	s0,0
     dd8:	00050863          	beqz	a0,de8 <_ZN6tflite16MicroInterpreter44PrepareNodeAndRegistrationDataFromFlatbufferEv+0x10c>
     ddc:	00aa8533          	add	a0,s5,a0
     de0:	00052403          	lw	s0,0(a0)
     de4:	00850433          	add	s0,a0,s0
     de8:	00042783          	lw	a5,0(s0)
     dec:	02f96463          	bltu	s2,a5,e14 <_ZN6tflite16MicroInterpreter44PrepareNodeAndRegistrationDataFromFlatbufferEv+0x138>
     df0:	8004e697          	auipc	a3,0x8004e
     df4:	8004e617          	auipc	a2,0x8004e
     df8:	8004e517          	auipc	a0,0x8004e
     dfc:	8a868693          	addi	a3,a3,-1880 # 8004e698 <__stack_top+0xfff91878>
     e00:	90460613          	addi	a2,a2,-1788 # 8004e6f8 <__stack_top+0xfff918d8>
     e04:	0c200593          	li	a1,194
     e08:	8ac50513          	addi	a0,a0,-1876 # 8004e6a4 <__stack_top+0xfff91884>
     e0c:	00014097          	auipc	ra,0x14
     e10:	428080e7          	jalr	1064(ra) # 15234 <__assert_func>
     e14:	00291793          	slli	a5,s2,0x2
     e18:	00440413          	addi	s0,s0,4
     e1c:	00f40433          	add	s0,s0,a5
     e20:	00042783          	lw	a5,0(s0)
     e24:	00400593          	li	a1,4
     e28:	00000c13          	li	s8,0
     e2c:	00f40433          	add	s0,s0,a5
     e30:	00040513          	mv	a0,s0
     e34:	00000097          	auipc	ra,0x0
     e38:	9d0080e7          	jalr	-1584(ra) # 804 <_ZNK11flatbuffers5Table22GetOptionalFieldOffsetEt>
     e3c:	00050663          	beqz	a0,e48 <_ZN6tflite16MicroInterpreter44PrepareNodeAndRegistrationDataFromFlatbufferEv+0x16c>
     e40:	00a40533          	add	a0,s0,a0
     e44:	00052c03          	lw	s8,0(a0)
     e48:	000a2783          	lw	a5,0(s4)
     e4c:	02fc6063          	bltu	s8,a5,e6c <_ZN6tflite16MicroInterpreter44PrepareNodeAndRegistrationDataFromFlatbufferEv+0x190>
     e50:	8004d517          	auipc	a0,0x8004d
     e54:	000c0593          	mv	a1,s8
     e58:	6d850513          	addi	a0,a0,1752 # 8004e528 <__stack_top+0xfff91708>
     e5c:	00001097          	auipc	ra,0x1
     e60:	680080e7          	jalr	1664(ra) # 24dc <_Z11MicroPrintfPKcz>
     e64:	00100793          	li	a5,1
     e68:	0780006f          	j	ee0 <_ZN6tflite16MicroInterpreter44PrepareNodeAndRegistrationDataFromFlatbufferEv+0x204>
     e6c:	002c1713          	slli	a4,s8,0x2
     e70:	00ed8733          	add	a4,s11,a4
     e74:	00072783          	lw	a5,0(a4) # 22000 <__subtf3+0xac8>
     e78:	00591b93          	slli	s7,s2,0x5
     e7c:	0044a583          	lw	a1,4(s1)
     e80:	00f70733          	add	a4,a4,a5
     e84:	0804a783          	lw	a5,128(s1)
     e88:	00070513          	mv	a0,a4
     e8c:	00e12823          	sw	a4,16(sp)
     e90:	016787b3          	add	a5,a5,s6
     e94:	0007a603          	lw	a2,0(a5)
     e98:	01760633          	add	a2,a2,s7
     e9c:	01c60613          	addi	a2,a2,28
     ea0:	00001097          	auipc	ra,0x1
     ea4:	67c080e7          	jalr	1660(ra) # 251c <_ZN6tflite25GetRegistrationFromOpCodeEPKNS_12OperatorCodeERKNS_15MicroOpResolverEPPK16TFLMRegistration>
     ea8:	01012703          	lw	a4,16(sp)
     eac:	06050a63          	beqz	a0,f20 <_ZN6tflite16MicroInterpreter44PrepareNodeAndRegistrationDataFromFlatbufferEv+0x244>
     eb0:	00a12623          	sw	a0,12(sp)
     eb4:	00070513          	mv	a0,a4
     eb8:	00002097          	auipc	ra,0x2
     ebc:	3ac080e7          	jalr	940(ra) # 3264 <_ZN6tflite14GetBuiltinCodeEPKNS_12OperatorCodeE>
     ec0:	00000097          	auipc	ra,0x0
     ec4:	968080e7          	jalr	-1688(ra) # 828 <_ZN6tflite23EnumNameBuiltinOperatorENS_15BuiltinOperatorE>
     ec8:	00050593          	mv	a1,a0
     ecc:	8004d517          	auipc	a0,0x8004d
     ed0:	68850513          	addi	a0,a0,1672 # 8004e554 <__stack_top+0xfff91734>
     ed4:	00001097          	auipc	ra,0x1
     ed8:	608080e7          	jalr	1544(ra) # 24dc <_Z11MicroPrintfPKcz>
     edc:	00c12783          	lw	a5,12(sp)
     ee0:	06c12083          	lw	ra,108(sp)
     ee4:	06812403          	lw	s0,104(sp)
     ee8:	06412483          	lw	s1,100(sp)
     eec:	06012903          	lw	s2,96(sp)
     ef0:	05c12983          	lw	s3,92(sp)
     ef4:	05812a03          	lw	s4,88(sp)
     ef8:	05412a83          	lw	s5,84(sp)
     efc:	05012b03          	lw	s6,80(sp)
     f00:	04c12b83          	lw	s7,76(sp)
     f04:	04812c03          	lw	s8,72(sp)
     f08:	04412c83          	lw	s9,68(sp)
     f0c:	04012d03          	lw	s10,64(sp)
     f10:	03c12d83          	lw	s11,60(sp)
     f14:	00078513          	mv	a0,a5
     f18:	07010113          	addi	sp,sp,112
     f1c:	00008067          	ret
     f20:	0804a783          	lw	a5,128(s1)
     f24:	016787b3          	add	a5,a5,s6
     f28:	0007a783          	lw	a5,0(a5)
     f2c:	017787b3          	add	a5,a5,s7
     f30:	01c7a783          	lw	a5,28(a5)
     f34:	00079a63          	bnez	a5,f48 <_ZN6tflite16MicroInterpreter44PrepareNodeAndRegistrationDataFromFlatbufferEv+0x26c>
     f38:	8004d517          	auipc	a0,0x8004d
     f3c:	000c0593          	mv	a1,s8
     f40:	64c50513          	addi	a0,a0,1612 # 8004e584 <__stack_top+0xfff91764>
     f44:	f19ff06f          	j	e5c <_ZN6tflite16MicroInterpreter44PrepareNodeAndRegistrationDataFromFlatbufferEv+0x180>
     f48:	0147ac03          	lw	s8,20(a5)
     f4c:	02012623          	sw	zero,44(sp)
     f50:	02000793          	li	a5,32
     f54:	00040513          	mv	a0,s0
     f58:	0efc1063          	bne	s8,a5,1038 <_ZN6tflite16MicroInterpreter44PrepareNodeAndRegistrationDataFromFlatbufferEv+0x35c>
     f5c:	00000097          	auipc	ra,0x0
     f60:	8f8080e7          	jalr	-1800(ra) # 854 <_ZNK6tflite8Operator14custom_optionsEv>
     f64:	0c051463          	bnez	a0,102c <_ZN6tflite16MicroInterpreter44PrepareNodeAndRegistrationDataFromFlatbufferEv+0x350>
     f68:	00000713          	li	a4,0
     f6c:	00000693          	li	a3,0
     f70:	00600593          	li	a1,6
     f74:	00040513          	mv	a0,s0
     f78:	00e12e23          	sw	a4,28(sp)
     f7c:	00d12c23          	sw	a3,24(sp)
     f80:	00000097          	auipc	ra,0x0
     f84:	b48080e7          	jalr	-1208(ra) # ac8 <_ZN11flatbuffers5Table10GetPointerIPKNS_6VectorIlmEEmEET_t>
     f88:	0000b097          	auipc	ra,0xb
     f8c:	550080e7          	jalr	1360(ra) # c4d8 <_ZN6tflite33FlatBufferVectorToTfLiteTypeArrayEPKN11flatbuffers6VectorIlmEE>
     f90:	00800593          	li	a1,8
     f94:	00a12a23          	sw	a0,20(sp)
     f98:	00040513          	mv	a0,s0
     f9c:	00000097          	auipc	ra,0x0
     fa0:	b2c080e7          	jalr	-1236(ra) # ac8 <_ZN11flatbuffers5Table10GetPointerIPKNS_6VectorIlmEEmEET_t>
     fa4:	0000b097          	auipc	ra,0xb
     fa8:	534080e7          	jalr	1332(ra) # c4d8 <_ZN6tflite33FlatBufferVectorToTfLiteTypeArrayEPKN11flatbuffers6VectorIlmEE>
     fac:	0804a783          	lw	a5,128(s1)
     fb0:	00a12823          	sw	a0,16(sp)
     fb4:	00000593          	li	a1,0
     fb8:	016787b3          	add	a5,a5,s6
     fbc:	0007a783          	lw	a5,0(a5)
     fc0:	01c00613          	li	a2,28
     fc4:	01778bb3          	add	s7,a5,s7
     fc8:	000b8513          	mv	a0,s7
     fcc:	00015097          	auipc	ra,0x15
     fd0:	054080e7          	jalr	84(ra) # 16020 <memset>
     fd4:	01412883          	lw	a7,20(sp)
     fd8:	01012803          	lw	a6,16(sp)
     fdc:	02c12783          	lw	a5,44(sp)
     fe0:	01812683          	lw	a3,24(sp)
     fe4:	01c12703          	lw	a4,28(sp)
     fe8:	011ba023          	sw	a7,0(s7)
     fec:	010ba223          	sw	a6,4(s7)
     ff0:	00fba823          	sw	a5,16(s7)
     ff4:	00dbaa23          	sw	a3,20(s7)
     ff8:	00ebac23          	sw	a4,24(s7)
     ffc:	01400593          	li	a1,20
    1000:	00040513          	mv	a0,s0
    1004:	00000097          	auipc	ra,0x0
    1008:	ac4080e7          	jalr	-1340(ra) # ac8 <_ZN11flatbuffers5Table10GetPointerIPKNS_6VectorIlmEEmEET_t>
    100c:	00050c63          	beqz	a0,1024 <_ZN6tflite16MicroInterpreter44PrepareNodeAndRegistrationDataFromFlatbufferEv+0x348>
    1010:	00052783          	lw	a5,0(a0)
    1014:	00078863          	beqz	a5,1024 <_ZN6tflite16MicroInterpreter44PrepareNodeAndRegistrationDataFromFlatbufferEv+0x348>
    1018:	0000b097          	auipc	ra,0xb
    101c:	4c0080e7          	jalr	1216(ra) # c4d8 <_ZN6tflite33FlatBufferVectorToTfLiteTypeArrayEPKN11flatbuffers6VectorIlmEE>
    1020:	00aba423          	sw	a0,8(s7)
    1024:	00190913          	addi	s2,s2,1
    1028:	d99ff06f          	j	dc0 <_ZN6tflite16MicroInterpreter44PrepareNodeAndRegistrationDataFromFlatbufferEv+0xe4>
    102c:	00450693          	addi	a3,a0,4
    1030:	00052703          	lw	a4,0(a0)
    1034:	f3dff06f          	j	f70 <_ZN6tflite16MicroInterpreter44PrepareNodeAndRegistrationDataFromFlatbufferEv+0x294>
    1038:	00000097          	auipc	ra,0x0
    103c:	81c080e7          	jalr	-2020(ra) # 854 <_ZNK6tflite8Operator14custom_optionsEv>
    1040:	02050063          	beqz	a0,1060 <_ZN6tflite16MicroInterpreter44PrepareNodeAndRegistrationDataFromFlatbufferEv+0x384>
    1044:	000c0513          	mv	a0,s8
    1048:	fffff097          	auipc	ra,0xfffff
    104c:	7e0080e7          	jalr	2016(ra) # 828 <_ZN6tflite23EnumNameBuiltinOperatorENS_15BuiltinOperatorE>
    1050:	00050593          	mv	a1,a0
    1054:	8004d517          	auipc	a0,0x8004d
    1058:	55450513          	addi	a0,a0,1364 # 8004e5a8 <__stack_top+0xfff91788>
    105c:	e01ff06f          	j	e5c <_ZN6tflite16MicroInterpreter44PrepareNodeAndRegistrationDataFromFlatbufferEv+0x180>
    1060:	0044a503          	lw	a0,4(s1)
    1064:	000c0593          	mv	a1,s8
    1068:	00052703          	lw	a4,0(a0)
    106c:	00872703          	lw	a4,8(a4)
    1070:	000700e7          	jalr	a4
    1074:	02051063          	bnez	a0,1094 <_ZN6tflite16MicroInterpreter44PrepareNodeAndRegistrationDataFromFlatbufferEv+0x3b8>
    1078:	000c0513          	mv	a0,s8
    107c:	fffff097          	auipc	ra,0xfffff
    1080:	7ac080e7          	jalr	1964(ra) # 828 <_ZN6tflite23EnumNameBuiltinOperatorENS_15BuiltinOperatorE>
    1084:	00050593          	mv	a1,a0
    1088:	8004d517          	auipc	a0,0x8004d
    108c:	56850513          	addi	a0,a0,1384 # 8004e5f0 <__stack_top+0xfff917d0>
    1090:	dcdff06f          	j	e5c <_ZN6tflite16MicroInterpreter44PrepareNodeAndRegistrationDataFromFlatbufferEv+0x180>
    1094:	02c10693          	addi	a3,sp,44
    1098:	000c8613          	mv	a2,s9
    109c:	00040593          	mv	a1,s0
    10a0:	00001097          	auipc	ra,0x1
    10a4:	67c080e7          	jalr	1660(ra) # 271c <_ZN6tflite24CallBuiltinParseFunctionEPF12TfLiteStatusPKNS_8OperatorEPNS_13ErrorReporterEPNS_20BuiltinDataAllocatorEPPvES3_S7_S9_>
    10a8:	00050793          	mv	a5,a0
    10ac:	ea050ee3          	beqz	a0,f68 <_ZN6tflite16MicroInterpreter44PrepareNodeAndRegistrationDataFromFlatbufferEv+0x28c>
    10b0:	e31ff06f          	j	ee0 <_ZN6tflite16MicroInterpreter44PrepareNodeAndRegistrationDataFromFlatbufferEv+0x204>
    10b4:	00198993          	addi	s3,s3,1
    10b8:	c6dff06f          	j	d24 <_ZN6tflite16MicroInterpreter44PrepareNodeAndRegistrationDataFromFlatbufferEv+0x48>
    10bc:	00000793          	li	a5,0
    10c0:	e21ff06f          	j	ee0 <_ZN6tflite16MicroInterpreter44PrepareNodeAndRegistrationDataFromFlatbufferEv+0x204>

000010c4 <_ZN6tflite16MicroInterpreter5ResetEv>:
    10c4:	ff010113          	addi	sp,sp,-16
    10c8:	00812423          	sw	s0,8(sp)
    10cc:	07050413          	addi	s0,a0,112
    10d0:	00040513          	mv	a0,s0
    10d4:	00112623          	sw	ra,12(sp)
    10d8:	00000097          	auipc	ra,0x0
    10dc:	7a8080e7          	jalr	1960(ra) # 1880 <_ZN6tflite21MicroInterpreterGraph14ResetSubgraphsEv>
    10e0:	00051e63          	bnez	a0,10fc <_ZN6tflite16MicroInterpreter5ResetEv+0x38>
    10e4:	00040513          	mv	a0,s0
    10e8:	00812403          	lw	s0,8(sp)
    10ec:	00c12083          	lw	ra,12(sp)
    10f0:	01010113          	addi	sp,sp,16
    10f4:	00001317          	auipc	t1,0x1
    10f8:	ef030067          	jr	-272(t1) # 1fe4 <_ZN6tflite21MicroInterpreterGraph20ResetVariableTensorsEv>
    10fc:	00c12083          	lw	ra,12(sp)
    1100:	00812403          	lw	s0,8(sp)
    1104:	01010113          	addi	sp,sp,16
    1108:	00008067          	ret

0000110c <_ZN6tflite16MicroInterpreter15AllocateTensorsEv>:
    110c:	fd010113          	addi	sp,sp,-48
    1110:	02812423          	sw	s0,40(sp)
    1114:	00052583          	lw	a1,0(a0)
    1118:	00050413          	mv	s0,a0
    111c:	06c52503          	lw	a0,108(a0)
    1120:	02112623          	sw	ra,44(sp)
    1124:	02912223          	sw	s1,36(sp)
    1128:	03212023          	sw	s2,32(sp)
    112c:	01312e23          	sw	s3,28(sp)
    1130:	01412c23          	sw	s4,24(sp)
    1134:	01512a23          	sw	s5,20(sp)
    1138:	01612823          	sw	s6,16(sp)
    113c:	01712623          	sw	s7,12(sp)
    1140:	0000c097          	auipc	ra,0xc
    1144:	be0080e7          	jalr	-1056(ra) # cd20 <_ZN6tflite14MicroAllocator20StartModelAllocationEPKNS_5ModelE>
    1148:	04051863          	bnez	a0,1198 <_ZN6tflite16MicroInterpreter15AllocateTensorsEv+0x8c>
    114c:	8004d517          	auipc	a0,0x8004d
    1150:	2d050513          	addi	a0,a0,720 # 8004e41c <__stack_top+0xfff915fc>
    1154:	00001097          	auipc	ra,0x1
    1158:	388080e7          	jalr	904(ra) # 24dc <_Z11MicroPrintfPKcz>
    115c:	00100793          	li	a5,1
    1160:	08f42c23          	sw	a5,152(s0)
    1164:	00100493          	li	s1,1
    1168:	02c12083          	lw	ra,44(sp)
    116c:	02812403          	lw	s0,40(sp)
    1170:	00048513          	mv	a0,s1
    1174:	02012903          	lw	s2,32(sp)
    1178:	02412483          	lw	s1,36(sp)
    117c:	01c12983          	lw	s3,28(sp)
    1180:	01812a03          	lw	s4,24(sp)
    1184:	01412a83          	lw	s5,20(sp)
    1188:	01012b03          	lw	s6,16(sp)
    118c:	00c12b83          	lw	s7,12(sp)
    1190:	03010113          	addi	sp,sp,48
    1194:	00008067          	ret
    1198:	07040993          	addi	s3,s0,112
    119c:	00050593          	mv	a1,a0
    11a0:	00098513          	mv	a0,s3
    11a4:	00001097          	auipc	ra,0x1
    11a8:	dec080e7          	jalr	-532(ra) # 1f90 <_ZN6tflite21MicroInterpreterGraph22SetSubgraphAllocationsEPNS_19SubgraphAllocationsE>
    11ac:	00040513          	mv	a0,s0
    11b0:	00000097          	auipc	ra,0x0
    11b4:	b2c080e7          	jalr	-1236(ra) # cdc <_ZN6tflite16MicroInterpreter44PrepareNodeAndRegistrationDataFromFlatbufferEv>
    11b8:	00050493          	mv	s1,a0
    11bc:	fa0516e3          	bnez	a0,1168 <_ZN6tflite16MicroInterpreter15AllocateTensorsEv+0x5c>
    11c0:	0a840913          	addi	s2,s0,168
    11c4:	00000593          	li	a1,0
    11c8:	00090513          	mv	a0,s2
    11cc:	00000097          	auipc	ra,0x0
    11d0:	55c080e7          	jalr	1372(ra) # 1728 <_ZN6tflite23MicroInterpreterContext19SetInterpreterStateENS0_16InterpreterStateE>
    11d4:	00098513          	mv	a0,s3
    11d8:	00000097          	auipc	ra,0x0
    11dc:	5a0080e7          	jalr	1440(ra) # 1778 <_ZN6tflite21MicroInterpreterGraph13InitSubgraphsEv>
    11e0:	00050493          	mv	s1,a0
    11e4:	f80512e3          	bnez	a0,1168 <_ZN6tflite16MicroInterpreter15AllocateTensorsEv+0x5c>
    11e8:	00100593          	li	a1,1
    11ec:	00090513          	mv	a0,s2
    11f0:	00000097          	auipc	ra,0x0
    11f4:	538080e7          	jalr	1336(ra) # 1728 <_ZN6tflite23MicroInterpreterContext19SetInterpreterStateENS0_16InterpreterStateE>
    11f8:	00098513          	mv	a0,s3
    11fc:	00001097          	auipc	ra,0x1
    1200:	83c080e7          	jalr	-1988(ra) # 1a38 <_ZN6tflite21MicroInterpreterGraph16PrepareSubgraphsEv>
    1204:	00050493          	mv	s1,a0
    1208:	f60510e3          	bnez	a0,1168 <_ZN6tflite16MicroInterpreter15AllocateTensorsEv+0x5c>
    120c:	00200593          	li	a1,2
    1210:	00090513          	mv	a0,s2
    1214:	00000097          	auipc	ra,0x0
    1218:	514080e7          	jalr	1300(ra) # 1728 <_ZN6tflite23MicroInterpreterContext19SetInterpreterStateENS0_16InterpreterStateE>
    121c:	08042603          	lw	a2,128(s0)
    1220:	00042583          	lw	a1,0(s0)
    1224:	06c42503          	lw	a0,108(s0)
    1228:	09c40693          	addi	a3,s0,156
    122c:	0000c097          	auipc	ra,0xc
    1230:	a14080e7          	jalr	-1516(ra) # cc40 <_ZN6tflite14MicroAllocator21FinishModelAllocationEPKNS_5ModelEPNS_19SubgraphAllocationsEPPNS_19ScratchBufferHandleE>
    1234:	00050493          	mv	s1,a0
    1238:	f20518e3          	bnez	a0,1168 <_ZN6tflite16MicroInterpreter15AllocateTensorsEv+0x5c>
    123c:	09c42583          	lw	a1,156(s0)
    1240:	00090513          	mv	a0,s2
    1244:	00000097          	auipc	ra,0x0
    1248:	4dc080e7          	jalr	1244(ra) # 1720 <_ZN6tflite23MicroInterpreterContext23SetScratchBufferHandlesEPNS_19ScratchBufferHandleE>
    124c:	00042503          	lw	a0,0(s0)
    1250:	06c42483          	lw	s1,108(s0)
    1254:	00000097          	auipc	ra,0x0
    1258:	8f4080e7          	jalr	-1804(ra) # b48 <_ZNK6tflite16MicroInterpreter11inputs_sizeEv.isra.9>
    125c:	0004a783          	lw	a5,0(s1)
    1260:	00251593          	slli	a1,a0,0x2
    1264:	00048513          	mv	a0,s1
    1268:	01c7a783          	lw	a5,28(a5)
    126c:	00000493          	li	s1,0
    1270:	000780e7          	jalr	a5
    1274:	0aa42023          	sw	a0,160(s0)
    1278:	02051663          	bnez	a0,12a4 <_ZN6tflite16MicroInterpreter15AllocateTensorsEv+0x198>
    127c:	00042503          	lw	a0,0(s0)
    1280:	00000097          	auipc	ra,0x0
    1284:	8c8080e7          	jalr	-1848(ra) # b48 <_ZNK6tflite16MicroInterpreter11inputs_sizeEv.isra.9>
    1288:	00251593          	slli	a1,a0,0x2
    128c:	8004d517          	auipc	a0,0x8004d
    1290:	1b450513          	addi	a0,a0,436 # 8004e440 <__stack_top+0xfff91620>
    1294:	00001097          	auipc	ra,0x1
    1298:	248080e7          	jalr	584(ra) # 24dc <_Z11MicroPrintfPKcz>
    129c:	ec9ff06f          	j	1164 <_ZN6tflite16MicroInterpreter15AllocateTensorsEv+0x58>
    12a0:	00148493          	addi	s1,s1,1
    12a4:	00042983          	lw	s3,0(s0)
    12a8:	00098513          	mv	a0,s3
    12ac:	00000097          	auipc	ra,0x0
    12b0:	89c080e7          	jalr	-1892(ra) # b48 <_ZNK6tflite16MicroInterpreter11inputs_sizeEv.isra.9>
    12b4:	06c42a83          	lw	s5,108(s0)
    12b8:	000aab83          	lw	s7,0(s5)
    12bc:	08a4f263          	bgeu	s1,a0,1340 <_ZN6tflite16MicroInterpreter15AllocateTensorsEv+0x234>
    12c0:	00800593          	li	a1,8
    12c4:	00098513          	mv	a0,s3
    12c8:	00000097          	auipc	ra,0x0
    12cc:	840080e7          	jalr	-1984(ra) # b08 <_ZN11flatbuffers5Table10GetPointerIPKNS_6VectorINS_6OffsetIN6tflite8SubGraphEEEmEEmEET_t>
    12d0:	00000593          	li	a1,0
    12d4:	fffff097          	auipc	ra,0xfffff
    12d8:	7a8080e7          	jalr	1960(ra) # a7c <_ZNK11flatbuffers6VectorINS_6OffsetIN6tflite8SubGraphEEEmE3GetEm>
    12dc:	00600593          	li	a1,6
    12e0:	fffff097          	auipc	ra,0xfffff
    12e4:	7e8080e7          	jalr	2024(ra) # ac8 <_ZN11flatbuffers5Table10GetPointerIPKNS_6VectorIlmEEmEET_t>
    12e8:	00048593          	mv	a1,s1
    12ec:	fffff097          	auipc	ra,0xfffff
    12f0:	74c080e7          	jalr	1868(ra) # a38 <_ZNK11flatbuffers6VectorIlmE3GetEm>
    12f4:	000ba783          	lw	a5,0(s7)
    12f8:	08042603          	lw	a2,128(s0)
    12fc:	00050693          	mv	a3,a0
    1300:	00000713          	li	a4,0
    1304:	00098593          	mv	a1,s3
    1308:	000a8513          	mv	a0,s5
    130c:	0a042b03          	lw	s6,160(s0)
    1310:	000780e7          	jalr	a5
    1314:	0a042783          	lw	a5,160(s0)
    1318:	00249a13          	slli	s4,s1,0x2
    131c:	014b0b33          	add	s6,s6,s4
    1320:	00ab2023          	sw	a0,0(s6)
    1324:	01478a33          	add	s4,a5,s4
    1328:	000a2783          	lw	a5,0(s4)
    132c:	f6079ae3          	bnez	a5,12a0 <_ZN6tflite16MicroInterpreter15AllocateTensorsEv+0x194>
    1330:	8004d517          	auipc	a0,0x8004d
    1334:	00048593          	mv	a1,s1
    1338:	15c50513          	addi	a0,a0,348 # 8004e48c <__stack_top+0xfff9166c>
    133c:	f59ff06f          	j	1294 <_ZN6tflite16MicroInterpreter15AllocateTensorsEv+0x188>
    1340:	00098513          	mv	a0,s3
    1344:	00000097          	auipc	ra,0x0
    1348:	8a4080e7          	jalr	-1884(ra) # be8 <_ZNK6tflite16MicroInterpreter12outputs_sizeEv.isra.11>
    134c:	01cba783          	lw	a5,28(s7)
    1350:	00251593          	slli	a1,a0,0x2
    1354:	000a8513          	mv	a0,s5
    1358:	000780e7          	jalr	a5
    135c:	0aa42223          	sw	a0,164(s0)
    1360:	00000493          	li	s1,0
    1364:	02051263          	bnez	a0,1388 <_ZN6tflite16MicroInterpreter15AllocateTensorsEv+0x27c>
    1368:	00042503          	lw	a0,0(s0)
    136c:	00000097          	auipc	ra,0x0
    1370:	87c080e7          	jalr	-1924(ra) # be8 <_ZNK6tflite16MicroInterpreter12outputs_sizeEv.isra.11>
    1374:	00251593          	slli	a1,a0,0x2
    1378:	8004d517          	auipc	a0,0x8004d
    137c:	13c50513          	addi	a0,a0,316 # 8004e4b4 <__stack_top+0xfff91694>
    1380:	f15ff06f          	j	1294 <_ZN6tflite16MicroInterpreter15AllocateTensorsEv+0x188>
    1384:	00148493          	addi	s1,s1,1
    1388:	00042a83          	lw	s5,0(s0)
    138c:	000a8513          	mv	a0,s5
    1390:	00000097          	auipc	ra,0x0
    1394:	858080e7          	jalr	-1960(ra) # be8 <_ZNK6tflite16MicroInterpreter12outputs_sizeEv.isra.11>
    1398:	08a4f663          	bgeu	s1,a0,1424 <_ZN6tflite16MicroInterpreter15AllocateTensorsEv+0x318>
    139c:	00800593          	li	a1,8
    13a0:	000a8513          	mv	a0,s5
    13a4:	fffff097          	auipc	ra,0xfffff
    13a8:	764080e7          	jalr	1892(ra) # b08 <_ZN11flatbuffers5Table10GetPointerIPKNS_6VectorINS_6OffsetIN6tflite8SubGraphEEEmEEmEET_t>
    13ac:	00000593          	li	a1,0
    13b0:	fffff097          	auipc	ra,0xfffff
    13b4:	6cc080e7          	jalr	1740(ra) # a7c <_ZNK11flatbuffers6VectorINS_6OffsetIN6tflite8SubGraphEEEmE3GetEm>
    13b8:	00800593          	li	a1,8
    13bc:	fffff097          	auipc	ra,0xfffff
    13c0:	70c080e7          	jalr	1804(ra) # ac8 <_ZN11flatbuffers5Table10GetPointerIPKNS_6VectorIlmEEmEET_t>
    13c4:	06c42b03          	lw	s6,108(s0)
    13c8:	00048593          	mv	a1,s1
    13cc:	fffff097          	auipc	ra,0xfffff
    13d0:	66c080e7          	jalr	1644(ra) # a38 <_ZNK11flatbuffers6VectorIlmE3GetEm>
    13d4:	000b2783          	lw	a5,0(s6)
    13d8:	08042603          	lw	a2,128(s0)
    13dc:	00050693          	mv	a3,a0
    13e0:	0007a783          	lw	a5,0(a5)
    13e4:	00000713          	li	a4,0
    13e8:	000a8593          	mv	a1,s5
    13ec:	000b0513          	mv	a0,s6
    13f0:	0a442a03          	lw	s4,164(s0)
    13f4:	000780e7          	jalr	a5
    13f8:	0a442783          	lw	a5,164(s0)
    13fc:	00249993          	slli	s3,s1,0x2
    1400:	013a0a33          	add	s4,s4,s3
    1404:	00aa2023          	sw	a0,0(s4)
    1408:	013789b3          	add	s3,a5,s3
    140c:	0009a783          	lw	a5,0(s3)
    1410:	f6079ae3          	bnez	a5,1384 <_ZN6tflite16MicroInterpreter15AllocateTensorsEv+0x278>
    1414:	8004d517          	auipc	a0,0x8004d
    1418:	00048593          	mv	a1,s1
    141c:	0ec50513          	addi	a0,a0,236 # 8004e500 <__stack_top+0xfff916e0>
    1420:	e75ff06f          	j	1294 <_ZN6tflite16MicroInterpreter15AllocateTensorsEv+0x188>
    1424:	00040513          	mv	a0,s0
    1428:	00000097          	auipc	ra,0x0
    142c:	c9c080e7          	jalr	-868(ra) # 10c4 <_ZN6tflite16MicroInterpreter5ResetEv>
    1430:	00050493          	mv	s1,a0
    1434:	d2051ae3          	bnez	a0,1168 <_ZN6tflite16MicroInterpreter15AllocateTensorsEv+0x5c>
    1438:	00100793          	li	a5,1
    143c:	08f40a23          	sb	a5,148(s0)
    1440:	00300593          	li	a1,3
    1444:	00090513          	mv	a0,s2
    1448:	00000097          	auipc	ra,0x0
    144c:	2e0080e7          	jalr	736(ra) # 1728 <_ZN6tflite23MicroInterpreterContext19SetInterpreterStateENS0_16InterpreterStateE>
    1450:	d19ff06f          	j	1168 <_ZN6tflite16MicroInterpreter15AllocateTensorsEv+0x5c>

00001454 <_ZN6tflite16MicroInterpreter6InvokeEv>:
    1454:	09852783          	lw	a5,152(a0)
    1458:	ff010113          	addi	sp,sp,-16
    145c:	00112623          	sw	ra,12(sp)
    1460:	00812423          	sw	s0,8(sp)
    1464:	02078463          	beqz	a5,148c <_ZN6tflite16MicroInterpreter6InvokeEv+0x38>
    1468:	8004d517          	auipc	a0,0x8004d
    146c:	1d450513          	addi	a0,a0,468 # 8004e63c <__stack_top+0xfff9181c>
    1470:	00001097          	auipc	ra,0x1
    1474:	06c080e7          	jalr	108(ra) # 24dc <_Z11MicroPrintfPKcz>
    1478:	00100513          	li	a0,1
    147c:	00c12083          	lw	ra,12(sp)
    1480:	00812403          	lw	s0,8(sp)
    1484:	01010113          	addi	sp,sp,16
    1488:	00008067          	ret
    148c:	09454783          	lbu	a5,148(a0)
    1490:	00050413          	mv	s0,a0
    1494:	02078063          	beqz	a5,14b4 <_ZN6tflite16MicroInterpreter6InvokeEv+0x60>
    1498:	07040513          	addi	a0,s0,112
    149c:	00812403          	lw	s0,8(sp)
    14a0:	00c12083          	lw	ra,12(sp)
    14a4:	00000593          	li	a1,0
    14a8:	01010113          	addi	sp,sp,16
    14ac:	00001317          	auipc	t1,0x1
    14b0:	86c30067          	jr	-1940(t1) # 1d18 <_ZN6tflite21MicroInterpreterGraph14InvokeSubgraphEi>
    14b4:	00000097          	auipc	ra,0x0
    14b8:	c58080e7          	jalr	-936(ra) # 110c <_ZN6tflite16MicroInterpreter15AllocateTensorsEv>
    14bc:	fc050ee3          	beqz	a0,1498 <_ZN6tflite16MicroInterpreter6InvokeEv+0x44>
    14c0:	fbdff06f          	j	147c <_ZN6tflite16MicroInterpreter6InvokeEv+0x28>

000014c4 <_ZN6tflite23MicroInterpreterContext16external_contextEv>:
    14c4:	02452503          	lw	a0,36(a0)
    14c8:	00008067          	ret

000014cc <_ZN6tflite23MicroInterpreterContext5graphEv>:
    14cc:	01452503          	lw	a0,20(a0)
    14d0:	00008067          	ret

000014d4 <_ZN6tflite23MicroInterpreterContextD0Ev>:
    14d4:	00008067          	ret

000014d8 <_ZN6tflite23MicroInterpreterContext24AllocateTempTfLiteTensorEi>:
    14d8:	00050793          	mv	a5,a0
    14dc:	01052503          	lw	a0,16(a0)
    14e0:	0147a603          	lw	a2,20(a5)
    14e4:	00058693          	mv	a3,a1
    14e8:	00052703          	lw	a4,0(a0)
    14ec:	0187a583          	lw	a1,24(a5)
    14f0:	00472303          	lw	t1,4(a4)
    14f4:	01462703          	lw	a4,20(a2)
    14f8:	01062603          	lw	a2,16(a2)
    14fc:	00030067          	jr	t1

00001500 <_ZN6tflite23MicroInterpreterContext26DeallocateTempTfLiteTensorEP12TfLiteTensor>:
    1500:	01052503          	lw	a0,16(a0)
    1504:	00052783          	lw	a5,0(a0)
    1508:	0087a303          	lw	t1,8(a5)
    150c:	00030067          	jr	t1

00001510 <_ZN6tflite23MicroInterpreterContext13GetEvalTensorEi>:
    1510:	01452783          	lw	a5,20(a0)
    1514:	00c00513          	li	a0,12
    1518:	02a585b3          	mul	a1,a1,a0
    151c:	0147a703          	lw	a4,20(a5)
    1520:	0107a783          	lw	a5,16(a5)
    1524:	00371713          	slli	a4,a4,0x3
    1528:	00e787b3          	add	a5,a5,a4
    152c:	0047a503          	lw	a0,4(a5)
    1530:	00b50533          	add	a0,a0,a1
    1534:	00008067          	ret

00001538 <_ZN6tflite23MicroInterpreterContext20SetAlternateProfilerEPNS_22MicroProfilerInterfaceE>:
    1538:	02b52423          	sw	a1,40(a0)
    153c:	00000513          	li	a0,0
    1540:	00008067          	ret

00001544 <_ZNK6tflite23MicroInterpreterContext20GetAlternateProfilerEv>:
    1544:	02852503          	lw	a0,40(a0)
    1548:	00008067          	ret

0000154c <_ZN6tflite23MicroInterpreterContext22SetDecompressionMemoryEPKNS_12MicroContext21AlternateMemoryRegionEj>:
    154c:	01c52783          	lw	a5,28(a0)
    1550:	00079663          	bnez	a5,155c <_ZN6tflite23MicroInterpreterContext22SetDecompressionMemoryEPKNS_12MicroContext21AlternateMemoryRegionEj+0x10>
    1554:	0000c317          	auipc	t1,0xc
    1558:	7d430067          	jr	2004(t1) # dd28 <_ZN6tflite12MicroContext22SetDecompressionMemoryEPKNS0_21AlternateMemoryRegionEj>
    155c:	00100513          	li	a0,1
    1560:	00008067          	ret

00001564 <_Z9AbortImplv>:
    1564:	7ffff517          	auipc	a0,0x7ffff
    1568:	ff010113          	addi	sp,sp,-16
    156c:	c6850513          	addi	a0,a0,-920 # 800001cc <_ZTVN6tflite22MicroMutableOpResolverILj5EEE+0x104>
    1570:	00112623          	sw	ra,12(sp)
    1574:	00001097          	auipc	ra,0x1
    1578:	f68080e7          	jalr	-152(ra) # 24dc <_Z11MicroPrintfPKcz>
    157c:	0000006f          	j	157c <_Z9AbortImplv+0x18>

00001580 <_ZN6tflite23MicroInterpreterContext24AllocatePersistentBufferEj>:
    1580:	01c52703          	lw	a4,28(a0)
    1584:	00100793          	li	a5,1
    1588:	00e7fa63          	bgeu	a5,a4,159c <_ZN6tflite23MicroInterpreterContext24AllocatePersistentBufferEj+0x1c>
    158c:	ff010113          	addi	sp,sp,-16
    1590:	00112623          	sw	ra,12(sp)
    1594:	00000097          	auipc	ra,0x0
    1598:	fd0080e7          	jalr	-48(ra) # 1564 <_Z9AbortImplv>
    159c:	01052503          	lw	a0,16(a0)
    15a0:	00052783          	lw	a5,0(a0)
    15a4:	01c7a303          	lw	t1,28(a5)
    15a8:	00030067          	jr	t1

000015ac <_ZN6tflite23MicroInterpreterContext27RequestScratchBufferInArenaEjPi>:
    15ac:	01c52703          	lw	a4,28(a0)
    15b0:	00100793          	li	a5,1
    15b4:	00f70a63          	beq	a4,a5,15c8 <_ZN6tflite23MicroInterpreterContext27RequestScratchBufferInArenaEjPi+0x1c>
    15b8:	ff010113          	addi	sp,sp,-16
    15bc:	00112623          	sw	ra,12(sp)
    15c0:	00000097          	auipc	ra,0x0
    15c4:	fa4080e7          	jalr	-92(ra) # 1564 <_Z9AbortImplv>
    15c8:	01452783          	lw	a5,20(a0)
    15cc:	00060693          	mv	a3,a2
    15d0:	01052503          	lw	a0,16(a0)
    15d4:	0147a603          	lw	a2,20(a5)
    15d8:	0000c317          	auipc	t1,0xc
    15dc:	88830067          	jr	-1912(t1) # ce60 <_ZN6tflite14MicroAllocator27RequestScratchBufferInArenaEjiPi>

000015e0 <_ZN6tflite23MicroInterpreterContext16GetScratchBufferEi>:
    15e0:	01c52703          	lw	a4,28(a0)
    15e4:	00300793          	li	a5,3
    15e8:	00f70a63          	beq	a4,a5,15fc <_ZN6tflite23MicroInterpreterContext16GetScratchBufferEi+0x1c>
    15ec:	ff010113          	addi	sp,sp,-16
    15f0:	00112623          	sw	ra,12(sp)
    15f4:	00000097          	auipc	ra,0x0
    15f8:	f70080e7          	jalr	-144(ra) # 1564 <_Z9AbortImplv>
    15fc:	02052783          	lw	a5,32(a0)
    1600:	00259593          	slli	a1,a1,0x2
    1604:	00b787b3          	add	a5,a5,a1
    1608:	0007a503          	lw	a0,0(a5)
    160c:	00008067          	ret

00001610 <_ZN6tflite23MicroInterpreterContext18AllocateTempBufferEjj>:
    1610:	01c52703          	lw	a4,28(a0)
    1614:	00100793          	li	a5,1
    1618:	00f70a63          	beq	a4,a5,162c <_ZN6tflite23MicroInterpreterContext18AllocateTempBufferEjj+0x1c>
    161c:	ff010113          	addi	sp,sp,-16
    1620:	00112623          	sw	ra,12(sp)
    1624:	00000097          	auipc	ra,0x0
    1628:	f40080e7          	jalr	-192(ra) # 1564 <_Z9AbortImplv>
    162c:	01052503          	lw	a0,16(a0)
    1630:	00052783          	lw	a5,0(a0)
    1634:	00c7a303          	lw	t1,12(a5)
    1638:	00030067          	jr	t1

0000163c <_ZN6tflite23MicroInterpreterContext20DeallocateTempBufferEPh>:
    163c:	01c52703          	lw	a4,28(a0)
    1640:	00100793          	li	a5,1
    1644:	00f70a63          	beq	a4,a5,1658 <_ZN6tflite23MicroInterpreterContext20DeallocateTempBufferEPh+0x1c>
    1648:	ff010113          	addi	sp,sp,-16
    164c:	00112623          	sw	ra,12(sp)
    1650:	00000097          	auipc	ra,0x0
    1654:	f14080e7          	jalr	-236(ra) # 1564 <_Z9AbortImplv>
    1658:	01052503          	lw	a0,16(a0)
    165c:	00052783          	lw	a5,0(a0)
    1660:	0107a303          	lw	t1,16(a5)
    1664:	00030067          	jr	t1

00001668 <_ZN6tflite23MicroInterpreterContext20set_external_contextEPv>:
    1668:	01c52783          	lw	a5,28(a0)
    166c:	ff010113          	addi	sp,sp,-16
    1670:	00112623          	sw	ra,12(sp)
    1674:	00100713          	li	a4,1
    1678:	00f77a63          	bgeu	a4,a5,168c <_ZN6tflite23MicroInterpreterContext20set_external_contextEPv+0x24>
    167c:	00300713          	li	a4,3
    1680:	00e78663          	beq	a5,a4,168c <_ZN6tflite23MicroInterpreterContext20set_external_contextEPv+0x24>
    1684:	00000097          	auipc	ra,0x0
    1688:	ee0080e7          	jalr	-288(ra) # 1564 <_Z9AbortImplv>
    168c:	02452603          	lw	a2,36(a0)
    1690:	00058463          	beqz	a1,1698 <_ZN6tflite23MicroInterpreterContext20set_external_contextEPv+0x30>
    1694:	02060263          	beqz	a2,16b8 <_ZN6tflite23MicroInterpreterContext20set_external_contextEPv+0x50>
    1698:	8004e517          	auipc	a0,0x8004e
    169c:	e8850513          	addi	a0,a0,-376 # 8004f520 <__stack_top+0xfff92700>
    16a0:	00001097          	auipc	ra,0x1
    16a4:	e3c080e7          	jalr	-452(ra) # 24dc <_Z11MicroPrintfPKcz>
    16a8:	00100513          	li	a0,1
    16ac:	00c12083          	lw	ra,12(sp)
    16b0:	01010113          	addi	sp,sp,16
    16b4:	00008067          	ret
    16b8:	02b52223          	sw	a1,36(a0)
    16bc:	00000513          	li	a0,0
    16c0:	fedff06f          	j	16ac <_ZN6tflite23MicroInterpreterContext20set_external_contextEPv+0x44>

000016c4 <_ZN6tflite23MicroInterpreterContext27AllocateDecompressionMemoryEjj>:
    16c4:	01c52703          	lw	a4,28(a0)
    16c8:	00100793          	li	a5,1
    16cc:	00f70a63          	beq	a4,a5,16e0 <_ZN6tflite23MicroInterpreterContext27AllocateDecompressionMemoryEjj+0x1c>
    16d0:	ff010113          	addi	sp,sp,-16
    16d4:	00112623          	sw	ra,12(sp)
    16d8:	00000097          	auipc	ra,0x0
    16dc:	e8c080e7          	jalr	-372(ra) # 1564 <_Z9AbortImplv>
    16e0:	0000c317          	auipc	t1,0xc
    16e4:	6b430067          	jr	1716(t1) # dd94 <_ZN6tflite12MicroContext27AllocateDecompressionMemoryEjj>

000016e8 <_ZN6tflite23MicroInterpreterContextC1EPNS_14MicroAllocatorEPKNS_5ModelEPNS_21MicroInterpreterGraphE>:
    16e8:	8004e797          	auipc	a5,0x8004e
    16ec:	df078793          	addi	a5,a5,-528 # 8004f4d8 <__stack_top+0xfff926b8>
    16f0:	00052223          	sw	zero,4(a0)
    16f4:	00052423          	sw	zero,8(a0)
    16f8:	00052623          	sw	zero,12(a0)
    16fc:	00f52023          	sw	a5,0(a0)
    1700:	00b52823          	sw	a1,16(a0)
    1704:	00d52a23          	sw	a3,20(a0)
    1708:	00c52c23          	sw	a2,24(a0)
    170c:	00052e23          	sw	zero,28(a0)
    1710:	02052023          	sw	zero,32(a0)
    1714:	02052223          	sw	zero,36(a0)
    1718:	02052423          	sw	zero,40(a0)
    171c:	00008067          	ret

00001720 <_ZN6tflite23MicroInterpreterContext23SetScratchBufferHandlesEPNS_19ScratchBufferHandleE>:
    1720:	02b52023          	sw	a1,32(a0)
    1724:	00008067          	ret

00001728 <_ZN6tflite23MicroInterpreterContext19SetInterpreterStateENS0_16InterpreterStateE>:
    1728:	00b52e23          	sw	a1,28(a0)
    172c:	00008067          	ret

00001730 <_ZN6tflite21MicroInterpreterGraph20GetResourceVariablesEv>:
    1730:	01c52503          	lw	a0,28(a0)
    1734:	00008067          	ret

00001738 <_ZN6tflite12_GLOBAL__N_122OpNameFromRegistrationEPK16TFLMRegistration>:
    1738:	01452783          	lw	a5,20(a0)
    173c:	02000713          	li	a4,32
    1740:	00e79663          	bne	a5,a4,174c <_ZN6tflite12_GLOBAL__N_122OpNameFromRegistrationEPK16TFLMRegistration+0x14>
    1744:	01852503          	lw	a0,24(a0)
    1748:	00008067          	ret
    174c:	8004e517          	auipc	a0,0x8004e
    1750:	0d100713          	li	a4,209
    1754:	21c50513          	addi	a0,a0,540 # 8004f968 <__stack_top+0xfff92b48>
    1758:	00f76c63          	bltu	a4,a5,1770 <_ZN6tflite12_GLOBAL__N_122OpNameFromRegistrationEPK16TFLMRegistration+0x38>
    175c:	8004d717          	auipc	a4,0x8004d
    1760:	00279793          	slli	a5,a5,0x2
    1764:	97470713          	addi	a4,a4,-1676 # 8004e0d0 <__stack_top+0xfff912b0>
    1768:	00e787b3          	add	a5,a5,a4
    176c:	0007a503          	lw	a0,0(a5)
    1770:	00008067          	ret

00001774 <_ZN6tflite21MicroInterpreterGraphD0Ev>:
    1774:	00008067          	ret

00001778 <_ZN6tflite21MicroInterpreterGraph13InitSubgraphsEv>:
    1778:	fd010113          	addi	sp,sp,-48
    177c:	01312e23          	sw	s3,28(sp)
    1780:	01412c23          	sw	s4,24(sp)
    1784:	01852983          	lw	s3,24(a0)
    1788:	01452a03          	lw	s4,20(a0)
    178c:	02812423          	sw	s0,40(sp)
    1790:	03212023          	sw	s2,32(sp)
    1794:	01512a23          	sw	s5,20(sp)
    1798:	02112623          	sw	ra,44(sp)
    179c:	02912223          	sw	s1,36(sp)
    17a0:	01612823          	sw	s6,16(sp)
    17a4:	01712623          	sw	s7,12(sp)
    17a8:	00050413          	mv	s0,a0
    17ac:	00000913          	li	s2,0
    17b0:	02000a93          	li	s5,32
    17b4:	02042783          	lw	a5,32(s0)
    17b8:	0007a783          	lw	a5,0(a5)
    17bc:	08f97663          	bgeu	s2,a5,1848 <_ZN6tflite21MicroInterpreterGraph13InitSubgraphsEv+0xd0>
    17c0:	00842503          	lw	a0,8(s0)
    17c4:	01242a23          	sw	s2,20(s0)
    17c8:	00090593          	mv	a1,s2
    17cc:	0000b097          	auipc	ra,0xb
    17d0:	c90080e7          	jalr	-880(ra) # c45c <_ZN6tflite20NumSubgraphOperatorsEPKNS_5ModelEi>
    17d4:	00050b13          	mv	s6,a0
    17d8:	00042c23          	sw	zero,24(s0)
    17dc:	00391b93          	slli	s7,s2,0x3
    17e0:	01842483          	lw	s1,24(s0)
    17e4:	0564fe63          	bgeu	s1,s6,1840 <_ZN6tflite21MicroInterpreterGraph13InitSubgraphsEv+0xc8>
    17e8:	01042703          	lw	a4,16(s0)
    17ec:	00549793          	slli	a5,s1,0x5
    17f0:	01770733          	add	a4,a4,s7
    17f4:	00072483          	lw	s1,0(a4)
    17f8:	00f484b3          	add	s1,s1,a5
    17fc:	01c4a783          	lw	a5,28(s1)
    1800:	0147a703          	lw	a4,20(a5)
    1804:	03571863          	bne	a4,s5,1834 <_ZN6tflite21MicroInterpreterGraph13InitSubgraphsEv+0xbc>
    1808:	0144a583          	lw	a1,20(s1)
    180c:	0184a603          	lw	a2,24(s1)
    1810:	0007a783          	lw	a5,0(a5)
    1814:	00078863          	beqz	a5,1824 <_ZN6tflite21MicroInterpreterGraph13InitSubgraphsEv+0xac>
    1818:	00442503          	lw	a0,4(s0)
    181c:	000780e7          	jalr	a5
    1820:	00a4a623          	sw	a0,12(s1)
    1824:	01842783          	lw	a5,24(s0)
    1828:	00178793          	addi	a5,a5,1
    182c:	00f42c23          	sw	a5,24(s0)
    1830:	fb1ff06f          	j	17e0 <_ZN6tflite21MicroInterpreterGraph13InitSubgraphsEv+0x68>
    1834:	0104a583          	lw	a1,16(s1)
    1838:	00000613          	li	a2,0
    183c:	fd5ff06f          	j	1810 <_ZN6tflite21MicroInterpreterGraph13InitSubgraphsEv+0x98>
    1840:	00190913          	addi	s2,s2,1
    1844:	f71ff06f          	j	17b4 <_ZN6tflite21MicroInterpreterGraph13InitSubgraphsEv+0x3c>
    1848:	01442a23          	sw	s4,20(s0)
    184c:	01342c23          	sw	s3,24(s0)
    1850:	02c12083          	lw	ra,44(sp)
    1854:	02812403          	lw	s0,40(sp)
    1858:	02412483          	lw	s1,36(sp)
    185c:	02012903          	lw	s2,32(sp)
    1860:	01c12983          	lw	s3,28(sp)
    1864:	01812a03          	lw	s4,24(sp)
    1868:	01412a83          	lw	s5,20(sp)
    186c:	01012b03          	lw	s6,16(sp)
    1870:	00c12b83          	lw	s7,12(sp)
    1874:	00000513          	li	a0,0
    1878:	03010113          	addi	sp,sp,48
    187c:	00008067          	ret

00001880 <_ZN6tflite21MicroInterpreterGraph14ResetSubgraphsEv>:
    1880:	fe010113          	addi	sp,sp,-32
    1884:	01212823          	sw	s2,16(sp)
    1888:	01312623          	sw	s3,12(sp)
    188c:	01852903          	lw	s2,24(a0)
    1890:	01452983          	lw	s3,20(a0)
    1894:	00812c23          	sw	s0,24(sp)
    1898:	00912a23          	sw	s1,20(sp)
    189c:	00112e23          	sw	ra,28(sp)
    18a0:	01412423          	sw	s4,8(sp)
    18a4:	01512223          	sw	s5,4(sp)
    18a8:	00050413          	mv	s0,a0
    18ac:	00000493          	li	s1,0
    18b0:	02042783          	lw	a5,32(s0)
    18b4:	0007a783          	lw	a5,0(a5)
    18b8:	06f4fa63          	bgeu	s1,a5,192c <_ZN6tflite21MicroInterpreterGraph14ResetSubgraphsEv+0xac>
    18bc:	00842503          	lw	a0,8(s0)
    18c0:	00942a23          	sw	s1,20(s0)
    18c4:	00048593          	mv	a1,s1
    18c8:	0000b097          	auipc	ra,0xb
    18cc:	b94080e7          	jalr	-1132(ra) # c45c <_ZN6tflite20NumSubgraphOperatorsEPKNS_5ModelEi>
    18d0:	00050a13          	mv	s4,a0
    18d4:	00042c23          	sw	zero,24(s0)
    18d8:	00349a93          	slli	s5,s1,0x3
    18dc:	01842783          	lw	a5,24(s0)
    18e0:	0547f263          	bgeu	a5,s4,1924 <_ZN6tflite21MicroInterpreterGraph14ResetSubgraphsEv+0xa4>
    18e4:	01042683          	lw	a3,16(s0)
    18e8:	00579713          	slli	a4,a5,0x5
    18ec:	015686b3          	add	a3,a3,s5
    18f0:	0006a783          	lw	a5,0(a3)
    18f4:	00e787b3          	add	a5,a5,a4
    18f8:	01c7a703          	lw	a4,28(a5)
    18fc:	00070c63          	beqz	a4,1914 <_ZN6tflite21MicroInterpreterGraph14ResetSubgraphsEv+0x94>
    1900:	01072703          	lw	a4,16(a4)
    1904:	00070863          	beqz	a4,1914 <_ZN6tflite21MicroInterpreterGraph14ResetSubgraphsEv+0x94>
    1908:	00c7a583          	lw	a1,12(a5)
    190c:	00442503          	lw	a0,4(s0)
    1910:	000700e7          	jalr	a4
    1914:	01842783          	lw	a5,24(s0)
    1918:	00178793          	addi	a5,a5,1
    191c:	00f42c23          	sw	a5,24(s0)
    1920:	fbdff06f          	j	18dc <_ZN6tflite21MicroInterpreterGraph14ResetSubgraphsEv+0x5c>
    1924:	00148493          	addi	s1,s1,1
    1928:	f89ff06f          	j	18b0 <_ZN6tflite21MicroInterpreterGraph14ResetSubgraphsEv+0x30>
    192c:	01342a23          	sw	s3,20(s0)
    1930:	01242c23          	sw	s2,24(s0)
    1934:	01c12083          	lw	ra,28(sp)
    1938:	01812403          	lw	s0,24(sp)
    193c:	01412483          	lw	s1,20(sp)
    1940:	01012903          	lw	s2,16(sp)
    1944:	00c12983          	lw	s3,12(sp)
    1948:	00812a03          	lw	s4,8(sp)
    194c:	00412a83          	lw	s5,4(sp)
    1950:	00000513          	li	a0,0
    1954:	02010113          	addi	sp,sp,32
    1958:	00008067          	ret

0000195c <_ZN6tflite21MicroInterpreterGraph13FreeSubgraphsEv>:
    195c:	fe010113          	addi	sp,sp,-32
    1960:	01212823          	sw	s2,16(sp)
    1964:	01312623          	sw	s3,12(sp)
    1968:	01852903          	lw	s2,24(a0)
    196c:	01452983          	lw	s3,20(a0)
    1970:	00812c23          	sw	s0,24(sp)
    1974:	00912a23          	sw	s1,20(sp)
    1978:	00112e23          	sw	ra,28(sp)
    197c:	01412423          	sw	s4,8(sp)
    1980:	01512223          	sw	s5,4(sp)
    1984:	00050413          	mv	s0,a0
    1988:	00000493          	li	s1,0
    198c:	02042783          	lw	a5,32(s0)
    1990:	0007a783          	lw	a5,0(a5)
    1994:	06f4fa63          	bgeu	s1,a5,1a08 <_ZN6tflite21MicroInterpreterGraph13FreeSubgraphsEv+0xac>
    1998:	00842503          	lw	a0,8(s0)
    199c:	00942a23          	sw	s1,20(s0)
    19a0:	00048593          	mv	a1,s1
    19a4:	0000b097          	auipc	ra,0xb
    19a8:	ab8080e7          	jalr	-1352(ra) # c45c <_ZN6tflite20NumSubgraphOperatorsEPKNS_5ModelEi>
    19ac:	00050a13          	mv	s4,a0
    19b0:	00042c23          	sw	zero,24(s0)
    19b4:	00349a93          	slli	s5,s1,0x3
    19b8:	01842783          	lw	a5,24(s0)
    19bc:	0547f263          	bgeu	a5,s4,1a00 <_ZN6tflite21MicroInterpreterGraph13FreeSubgraphsEv+0xa4>
    19c0:	01042683          	lw	a3,16(s0)
    19c4:	00579713          	slli	a4,a5,0x5
    19c8:	015686b3          	add	a3,a3,s5
    19cc:	0006a783          	lw	a5,0(a3)
    19d0:	00e787b3          	add	a5,a5,a4
    19d4:	01c7a703          	lw	a4,28(a5)
    19d8:	00070c63          	beqz	a4,19f0 <_ZN6tflite21MicroInterpreterGraph13FreeSubgraphsEv+0x94>
    19dc:	00472703          	lw	a4,4(a4)
    19e0:	00070863          	beqz	a4,19f0 <_ZN6tflite21MicroInterpreterGraph13FreeSubgraphsEv+0x94>
    19e4:	00c7a583          	lw	a1,12(a5)
    19e8:	00442503          	lw	a0,4(s0)
    19ec:	000700e7          	jalr	a4
    19f0:	01842783          	lw	a5,24(s0)
    19f4:	00178793          	addi	a5,a5,1
    19f8:	00f42c23          	sw	a5,24(s0)
    19fc:	fbdff06f          	j	19b8 <_ZN6tflite21MicroInterpreterGraph13FreeSubgraphsEv+0x5c>
    1a00:	00148493          	addi	s1,s1,1
    1a04:	f89ff06f          	j	198c <_ZN6tflite21MicroInterpreterGraph13FreeSubgraphsEv+0x30>
    1a08:	01342a23          	sw	s3,20(s0)
    1a0c:	01242c23          	sw	s2,24(s0)
    1a10:	01c12083          	lw	ra,28(sp)
    1a14:	01812403          	lw	s0,24(sp)
    1a18:	01412483          	lw	s1,20(sp)
    1a1c:	01012903          	lw	s2,16(sp)
    1a20:	00c12983          	lw	s3,12(sp)
    1a24:	00812a03          	lw	s4,8(sp)
    1a28:	00412a83          	lw	s5,4(sp)
    1a2c:	00000513          	li	a0,0
    1a30:	02010113          	addi	sp,sp,32
    1a34:	00008067          	ret

00001a38 <_ZN6tflite21MicroInterpreterGraph16PrepareSubgraphsEv>:
    1a38:	fb010113          	addi	sp,sp,-80
    1a3c:	03312e23          	sw	s3,60(sp)
    1a40:	03412c23          	sw	s4,56(sp)
    1a44:	01852983          	lw	s3,24(a0)
    1a48:	01452a03          	lw	s4,20(a0)
    1a4c:	04812423          	sw	s0,72(sp)
    1a50:	04912223          	sw	s1,68(sp)
    1a54:	03512a23          	sw	s5,52(sp)
    1a58:	03612823          	sw	s6,48(sp)
    1a5c:	03a12023          	sw	s10,32(sp)
    1a60:	04112623          	sw	ra,76(sp)
    1a64:	05212023          	sw	s2,64(sp)
    1a68:	03712623          	sw	s7,44(sp)
    1a6c:	03812423          	sw	s8,40(sp)
    1a70:	03912223          	sw	s9,36(sp)
    1a74:	01b12e23          	sw	s11,28(sp)
    1a78:	00050413          	mv	s0,a0
    1a7c:	00000d13          	li	s10,0
    1a80:	00c00a93          	li	s5,12
    1a84:	00100493          	li	s1,1
    1a88:	00200b13          	li	s6,2
    1a8c:	02042783          	lw	a5,32(s0)
    1a90:	0007a783          	lw	a5,0(a5)
    1a94:	1cfd7c63          	bgeu	s10,a5,1c6c <_ZN6tflite21MicroInterpreterGraph16PrepareSubgraphsEv+0x234>
    1a98:	00842503          	lw	a0,8(s0)
    1a9c:	01a42a23          	sw	s10,20(s0)
    1aa0:	000d0593          	mv	a1,s10
    1aa4:	0000b097          	auipc	ra,0xb
    1aa8:	9b8080e7          	jalr	-1608(ra) # c45c <_ZN6tflite20NumSubgraphOperatorsEPKNS_5ModelEi>
    1aac:	00050b93          	mv	s7,a0
    1ab0:	00042c23          	sw	zero,24(s0)
    1ab4:	003d1913          	slli	s2,s10,0x3
    1ab8:	00300c13          	li	s8,3
    1abc:	01842c83          	lw	s9,24(s0)
    1ac0:	1b7cf263          	bgeu	s9,s7,1c64 <_ZN6tflite21MicroInterpreterGraph16PrepareSubgraphsEv+0x22c>
    1ac4:	01042703          	lw	a4,16(s0)
    1ac8:	005c9793          	slli	a5,s9,0x5
    1acc:	01270733          	add	a4,a4,s2
    1ad0:	00072c83          	lw	s9,0(a4)
    1ad4:	00fc8cb3          	add	s9,s9,a5
    1ad8:	01ccad83          	lw	s11,28(s9)
    1adc:	008da783          	lw	a5,8(s11)
    1ae0:	04078463          	beqz	a5,1b28 <_ZN6tflite21MicroInterpreterGraph16PrepareSubgraphsEv+0xf0>
    1ae4:	00442503          	lw	a0,4(s0)
    1ae8:	000c8593          	mv	a1,s9
    1aec:	000780e7          	jalr	a5
    1af0:	02050c63          	beqz	a0,1b28 <_ZN6tflite21MicroInterpreterGraph16PrepareSubgraphsEv+0xf0>
    1af4:	00a12623          	sw	a0,12(sp)
    1af8:	000d8513          	mv	a0,s11
    1afc:	00000097          	auipc	ra,0x0
    1b00:	c3c080e7          	jalr	-964(ra) # 1738 <_ZN6tflite12_GLOBAL__N_122OpNameFromRegistrationEPK16TFLMRegistration>
    1b04:	00c12683          	lw	a3,12(sp)
    1b08:	01842603          	lw	a2,24(s0)
    1b0c:	00050593          	mv	a1,a0
    1b10:	8004e517          	auipc	a0,0x8004e
    1b14:	afc50513          	addi	a0,a0,-1284 # 8004f60c <__stack_top+0xfff927ec>
    1b18:	00001097          	auipc	ra,0x1
    1b1c:	9c4080e7          	jalr	-1596(ra) # 24dc <_Z11MicroPrintfPKcz>
    1b20:	00100513          	li	a0,1
    1b24:	1540006f          	j	1c78 <_ZN6tflite21MicroInterpreterGraph16PrepareSubgraphsEv+0x240>
    1b28:	01042783          	lw	a5,16(s0)
    1b2c:	004ca583          	lw	a1,4(s9)
    1b30:	012787b3          	add	a5,a5,s2
    1b34:	0047a803          	lw	a6,4(a5)
    1b38:	10058663          	beqz	a1,1c44 <_ZN6tflite21MicroInterpreterGraph16PrepareSubgraphsEv+0x20c>
    1b3c:	0005a883          	lw	a7,0(a1)
    1b40:	00000513          	li	a0,0
    1b44:	00458593          	addi	a1,a1,4
    1b48:	0f155e63          	bge	a0,a7,1c44 <_ZN6tflite21MicroInterpreterGraph16PrepareSubgraphsEv+0x20c>
    1b4c:	0005a703          	lw	a4,0(a1)
    1b50:	0e074463          	bltz	a4,1c38 <_ZN6tflite21MicroInterpreterGraph16PrepareSubgraphsEv+0x200>
    1b54:	035707b3          	mul	a5,a4,s5
    1b58:	00f807b3          	add	a5,a6,a5
    1b5c:	0047a783          	lw	a5,4(a5)
    1b60:	0007a683          	lw	a3,0(a5)
    1b64:	00969663          	bne	a3,s1,1b70 <_ZN6tflite21MicroInterpreterGraph16PrepareSubgraphsEv+0x138>
    1b68:	0047a603          	lw	a2,4(a5)
    1b6c:	0c060663          	beqz	a2,1c38 <_ZN6tflite21MicroInterpreterGraph16PrepareSubgraphsEv+0x200>
    1b70:	00269693          	slli	a3,a3,0x2
    1b74:	00478793          	addi	a5,a5,4
    1b78:	00d78633          	add	a2,a5,a3
    1b7c:	4046d693          	srai	a3,a3,0x4
    1b80:	06d05e63          	blez	a3,1bfc <_ZN6tflite21MicroInterpreterGraph16PrepareSubgraphsEv+0x1c4>
    1b84:	0007a303          	lw	t1,0(a5)
    1b88:	00605863          	blez	t1,1b98 <_ZN6tflite21MicroInterpreterGraph16PrepareSubgraphsEv+0x160>
    1b8c:	0047a303          	lw	t1,4(a5)
    1b90:	04604063          	bgtz	t1,1bd0 <_ZN6tflite21MicroInterpreterGraph16PrepareSubgraphsEv+0x198>
    1b94:	00478793          	addi	a5,a5,4
    1b98:	0af60063          	beq	a2,a5,1c38 <_ZN6tflite21MicroInterpreterGraph16PrepareSubgraphsEv+0x200>
    1b9c:	000d8513          	mv	a0,s11
    1ba0:	00e12623          	sw	a4,12(sp)
    1ba4:	00000097          	auipc	ra,0x0
    1ba8:	b94080e7          	jalr	-1132(ra) # 1738 <_ZN6tflite12_GLOBAL__N_122OpNameFromRegistrationEPK16TFLMRegistration>
    1bac:	00c12703          	lw	a4,12(sp)
    1bb0:	01442683          	lw	a3,20(s0)
    1bb4:	01842583          	lw	a1,24(s0)
    1bb8:	00050613          	mv	a2,a0
    1bbc:	8004e517          	auipc	a0,0x8004e
    1bc0:	a8850513          	addi	a0,a0,-1400 # 8004f644 <__stack_top+0xfff92824>
    1bc4:	00001097          	auipc	ra,0x1
    1bc8:	918080e7          	jalr	-1768(ra) # 24dc <_Z11MicroPrintfPKcz>
    1bcc:	f55ff06f          	j	1b20 <_ZN6tflite21MicroInterpreterGraph16PrepareSubgraphsEv+0xe8>
    1bd0:	0087a303          	lw	t1,8(a5)
    1bd4:	00604663          	bgtz	t1,1be0 <_ZN6tflite21MicroInterpreterGraph16PrepareSubgraphsEv+0x1a8>
    1bd8:	00878793          	addi	a5,a5,8
    1bdc:	fbdff06f          	j	1b98 <_ZN6tflite21MicroInterpreterGraph16PrepareSubgraphsEv+0x160>
    1be0:	00c7a303          	lw	t1,12(a5)
    1be4:	00604663          	bgtz	t1,1bf0 <_ZN6tflite21MicroInterpreterGraph16PrepareSubgraphsEv+0x1b8>
    1be8:	00c78793          	addi	a5,a5,12
    1bec:	fadff06f          	j	1b98 <_ZN6tflite21MicroInterpreterGraph16PrepareSubgraphsEv+0x160>
    1bf0:	01078793          	addi	a5,a5,16
    1bf4:	fff68693          	addi	a3,a3,-1
    1bf8:	f89ff06f          	j	1b80 <_ZN6tflite21MicroInterpreterGraph16PrepareSubgraphsEv+0x148>
    1bfc:	40f606b3          	sub	a3,a2,a5
    1c00:	4026d693          	srai	a3,a3,0x2
    1c04:	03668063          	beq	a3,s6,1c24 <_ZN6tflite21MicroInterpreterGraph16PrepareSubgraphsEv+0x1ec>
    1c08:	01868863          	beq	a3,s8,1c18 <_ZN6tflite21MicroInterpreterGraph16PrepareSubgraphsEv+0x1e0>
    1c0c:	02968263          	beq	a3,s1,1c30 <_ZN6tflite21MicroInterpreterGraph16PrepareSubgraphsEv+0x1f8>
    1c10:	00060793          	mv	a5,a2
    1c14:	f85ff06f          	j	1b98 <_ZN6tflite21MicroInterpreterGraph16PrepareSubgraphsEv+0x160>
    1c18:	0007a683          	lw	a3,0(a5)
    1c1c:	f6d05ee3          	blez	a3,1b98 <_ZN6tflite21MicroInterpreterGraph16PrepareSubgraphsEv+0x160>
    1c20:	00478793          	addi	a5,a5,4
    1c24:	0007a683          	lw	a3,0(a5)
    1c28:	f6d058e3          	blez	a3,1b98 <_ZN6tflite21MicroInterpreterGraph16PrepareSubgraphsEv+0x160>
    1c2c:	00478793          	addi	a5,a5,4
    1c30:	0007a683          	lw	a3,0(a5)
    1c34:	f6d052e3          	blez	a3,1b98 <_ZN6tflite21MicroInterpreterGraph16PrepareSubgraphsEv+0x160>
    1c38:	00150513          	addi	a0,a0,1
    1c3c:	00458593          	addi	a1,a1,4
    1c40:	f09ff06f          	j	1b48 <_ZN6tflite21MicroInterpreterGraph16PrepareSubgraphsEv+0x110>
    1c44:	01842583          	lw	a1,24(s0)
    1c48:	00c42503          	lw	a0,12(s0)
    1c4c:	0000b097          	auipc	ra,0xb
    1c50:	2cc080e7          	jalr	716(ra) # cf18 <_ZN6tflite14MicroAllocator28FinishPrepareNodeAllocationsEi>
    1c54:	01842783          	lw	a5,24(s0)
    1c58:	00178793          	addi	a5,a5,1
    1c5c:	00f42c23          	sw	a5,24(s0)
    1c60:	e5dff06f          	j	1abc <_ZN6tflite21MicroInterpreterGraph16PrepareSubgraphsEv+0x84>
    1c64:	001d0d13          	addi	s10,s10,1
    1c68:	e25ff06f          	j	1a8c <_ZN6tflite21MicroInterpreterGraph16PrepareSubgraphsEv+0x54>
    1c6c:	01442a23          	sw	s4,20(s0)
    1c70:	01342c23          	sw	s3,24(s0)
    1c74:	00000513          	li	a0,0
    1c78:	04c12083          	lw	ra,76(sp)
    1c7c:	04812403          	lw	s0,72(sp)
    1c80:	04412483          	lw	s1,68(sp)
    1c84:	04012903          	lw	s2,64(sp)
    1c88:	03c12983          	lw	s3,60(sp)
    1c8c:	03812a03          	lw	s4,56(sp)
    1c90:	03412a83          	lw	s5,52(sp)
    1c94:	03012b03          	lw	s6,48(sp)
    1c98:	02c12b83          	lw	s7,44(sp)
    1c9c:	02812c03          	lw	s8,40(sp)
    1ca0:	02412c83          	lw	s9,36(sp)
    1ca4:	02012d03          	lw	s10,32(sp)
    1ca8:	01c12d83          	lw	s11,28(sp)
    1cac:	05010113          	addi	sp,sp,80
    1cb0:	00008067          	ret

00001cb4 <_ZNK6tflite6Tensor11is_variableEv>:
    1cb4:	ff010113          	addi	sp,sp,-16
    1cb8:	00e00593          	li	a1,14
    1cbc:	00812423          	sw	s0,8(sp)
    1cc0:	00112623          	sw	ra,12(sp)
    1cc4:	00050413          	mv	s0,a0
    1cc8:	fffff097          	auipc	ra,0xfffff
    1ccc:	b3c080e7          	jalr	-1220(ra) # 804 <_ZNK11flatbuffers5Table22GetOptionalFieldOffsetEt>
    1cd0:	02050063          	beqz	a0,1cf0 <_ZNK6tflite6Tensor11is_variableEv+0x3c>
    1cd4:	00a40433          	add	s0,s0,a0
    1cd8:	00044503          	lbu	a0,0(s0)
    1cdc:	00c12083          	lw	ra,12(sp)
    1ce0:	00812403          	lw	s0,8(sp)
    1ce4:	00a03533          	snez	a0,a0
    1ce8:	01010113          	addi	sp,sp,16
    1cec:	00008067          	ret
    1cf0:	00000513          	li	a0,0
    1cf4:	fe9ff06f          	j	1cdc <_ZNK6tflite6Tensor11is_variableEv+0x28>

00001cf8 <_ZN6tflite19ScopedMicroProfilerD1Ev>:
    1cf8:	00452783          	lw	a5,4(a0)
    1cfc:	00078c63          	beqz	a5,1d14 <_ZN6tflite19ScopedMicroProfilerD1Ev+0x1c>
    1d00:	0007a703          	lw	a4,0(a5)
    1d04:	00052583          	lw	a1,0(a0)
    1d08:	00078513          	mv	a0,a5
    1d0c:	00c72303          	lw	t1,12(a4)
    1d10:	00030067          	jr	t1
    1d14:	00008067          	ret

00001d18 <_ZN6tflite21MicroInterpreterGraph14InvokeSubgraphEi>:
    1d18:	02052783          	lw	a5,32(a0)
    1d1c:	fd010113          	addi	sp,sp,-48
    1d20:	02812423          	sw	s0,40(sp)
    1d24:	0007a603          	lw	a2,0(a5)
    1d28:	01312e23          	sw	s3,28(sp)
    1d2c:	01412c23          	sw	s4,24(sp)
    1d30:	02112623          	sw	ra,44(sp)
    1d34:	02912223          	sw	s1,36(sp)
    1d38:	03212023          	sw	s2,32(sp)
    1d3c:	01512a23          	sw	s5,20(sp)
    1d40:	01612823          	sw	s6,16(sp)
    1d44:	01452a03          	lw	s4,20(a0)
    1d48:	00b52a23          	sw	a1,20(a0)
    1d4c:	00050413          	mv	s0,a0
    1d50:	01852983          	lw	s3,24(a0)
    1d54:	04c5e263          	bltu	a1,a2,1d98 <_ZN6tflite21MicroInterpreterGraph14InvokeSubgraphEi+0x80>
    1d58:	8004e517          	auipc	a0,0x8004e
    1d5c:	84c50513          	addi	a0,a0,-1972 # 8004f5a4 <__stack_top+0xfff92784>
    1d60:	00000097          	auipc	ra,0x0
    1d64:	77c080e7          	jalr	1916(ra) # 24dc <_Z11MicroPrintfPKcz>
    1d68:	00100493          	li	s1,1
    1d6c:	02c12083          	lw	ra,44(sp)
    1d70:	02812403          	lw	s0,40(sp)
    1d74:	00048513          	mv	a0,s1
    1d78:	02012903          	lw	s2,32(sp)
    1d7c:	02412483          	lw	s1,36(sp)
    1d80:	01c12983          	lw	s3,28(sp)
    1d84:	01812a03          	lw	s4,24(sp)
    1d88:	01412a83          	lw	s5,20(sp)
    1d8c:	01012b03          	lw	s6,16(sp)
    1d90:	03010113          	addi	sp,sp,48
    1d94:	00008067          	ret
    1d98:	00852503          	lw	a0,8(a0)
    1d9c:	00058913          	mv	s2,a1
    1da0:	00391913          	slli	s2,s2,0x3
    1da4:	0000a097          	auipc	ra,0xa
    1da8:	6b8080e7          	jalr	1720(ra) # c45c <_ZN6tflite20NumSubgraphOperatorsEPKNS_5ModelEi>
    1dac:	00050a93          	mv	s5,a0
    1db0:	00042c23          	sw	zero,24(s0)
    1db4:	01842483          	lw	s1,24(s0)
    1db8:	0f54fa63          	bgeu	s1,s5,1eac <_ZN6tflite21MicroInterpreterGraph14InvokeSubgraphEi+0x194>
    1dbc:	01042783          	lw	a5,16(s0)
    1dc0:	00549493          	slli	s1,s1,0x5
    1dc4:	012787b3          	add	a5,a5,s2
    1dc8:	0007a783          	lw	a5,0(a5)
    1dcc:	009784b3          	add	s1,a5,s1
    1dd0:	01c4ab03          	lw	s6,28(s1)
    1dd4:	000b0513          	mv	a0,s6
    1dd8:	00000097          	auipc	ra,0x0
    1ddc:	960080e7          	jalr	-1696(ra) # 1738 <_ZN6tflite12_GLOBAL__N_122OpNameFromRegistrationEPK16TFLMRegistration>
    1de0:	00442783          	lw	a5,4(s0)
    1de4:	00050593          	mv	a1,a0
    1de8:	00012423          	sw	zero,8(sp)
    1dec:	0347a503          	lw	a0,52(a5)
    1df0:	00a12623          	sw	a0,12(sp)
    1df4:	00050a63          	beqz	a0,1e08 <_ZN6tflite21MicroInterpreterGraph14InvokeSubgraphEi+0xf0>
    1df8:	00052703          	lw	a4,0(a0)
    1dfc:	00872703          	lw	a4,8(a4)
    1e00:	000700e7          	jalr	a4
    1e04:	00a12423          	sw	a0,8(sp)
    1e08:	00cb2783          	lw	a5,12(s6)
    1e0c:	00079c63          	bnez	a5,1e24 <_ZN6tflite21MicroInterpreterGraph14InvokeSubgraphEi+0x10c>
    1e10:	7fffe517          	auipc	a0,0x7fffe
    1e14:	3bc50513          	addi	a0,a0,956 # 800001cc <_ZTVN6tflite22MicroMutableOpResolverILj5EEE+0x104>
    1e18:	00000097          	auipc	ra,0x0
    1e1c:	6c4080e7          	jalr	1732(ra) # 24dc <_Z11MicroPrintfPKcz>
    1e20:	0000006f          	j	1e20 <_ZN6tflite21MicroInterpreterGraph14InvokeSubgraphEi+0x108>
    1e24:	00442503          	lw	a0,4(s0)
    1e28:	00048593          	mv	a1,s1
    1e2c:	000780e7          	jalr	a5
    1e30:	00050493          	mv	s1,a0
    1e34:	00c42503          	lw	a0,12(s0)
    1e38:	00052783          	lw	a5,0(a0)
    1e3c:	0147a783          	lw	a5,20(a5)
    1e40:	000780e7          	jalr	a5
    1e44:	04048663          	beqz	s1,1e90 <_ZN6tflite21MicroInterpreterGraph14InvokeSubgraphEi+0x178>
    1e48:	00f00793          	li	a5,15
    1e4c:	02f48663          	beq	s1,a5,1e78 <_ZN6tflite21MicroInterpreterGraph14InvokeSubgraphEi+0x160>
    1e50:	000b0513          	mv	a0,s6
    1e54:	00000097          	auipc	ra,0x0
    1e58:	8e4080e7          	jalr	-1820(ra) # 1738 <_ZN6tflite12_GLOBAL__N_122OpNameFromRegistrationEPK16TFLMRegistration>
    1e5c:	01842603          	lw	a2,24(s0)
    1e60:	00050593          	mv	a1,a0
    1e64:	8004d517          	auipc	a0,0x8004d
    1e68:	00048693          	mv	a3,s1
    1e6c:	77450513          	addi	a0,a0,1908 # 8004f5d8 <__stack_top+0xfff927b8>
    1e70:	00000097          	auipc	ra,0x0
    1e74:	66c080e7          	jalr	1644(ra) # 24dc <_Z11MicroPrintfPKcz>
    1e78:	00810513          	addi	a0,sp,8
    1e7c:	00000097          	auipc	ra,0x0
    1e80:	e7c080e7          	jalr	-388(ra) # 1cf8 <_ZN6tflite19ScopedMicroProfilerD1Ev>
    1e84:	01442a23          	sw	s4,20(s0)
    1e88:	01342c23          	sw	s3,24(s0)
    1e8c:	ee1ff06f          	j	1d6c <_ZN6tflite21MicroInterpreterGraph14InvokeSubgraphEi+0x54>
    1e90:	00810513          	addi	a0,sp,8
    1e94:	00000097          	auipc	ra,0x0
    1e98:	e64080e7          	jalr	-412(ra) # 1cf8 <_ZN6tflite19ScopedMicroProfilerD1Ev>
    1e9c:	01842783          	lw	a5,24(s0)
    1ea0:	00178793          	addi	a5,a5,1
    1ea4:	00f42c23          	sw	a5,24(s0)
    1ea8:	f0dff06f          	j	1db4 <_ZN6tflite21MicroInterpreterGraph14InvokeSubgraphEi+0x9c>
    1eac:	00000493          	li	s1,0
    1eb0:	fd5ff06f          	j	1e84 <_ZN6tflite21MicroInterpreterGraph14InvokeSubgraphEi+0x16c>

00001eb4 <_ZN6tflite21MicroInterpreterGraph15ResetTensorDataEPKNS_6TensorEP16TfLiteEvalTensor>:
    1eb4:	fe010113          	addi	sp,sp,-32
    1eb8:	00812c23          	sw	s0,24(sp)
    1ebc:	00060513          	mv	a0,a2
    1ec0:	00058413          	mv	s0,a1
    1ec4:	00c10593          	addi	a1,sp,12
    1ec8:	00912a23          	sw	s1,20(sp)
    1ecc:	00112e23          	sw	ra,28(sp)
    1ed0:	01212823          	sw	s2,16(sp)
    1ed4:	00060493          	mv	s1,a2
    1ed8:	0000a097          	auipc	ra,0xa
    1edc:	780080e7          	jalr	1920(ra) # c658 <_ZN6tflite26TfLiteEvalTensorByteLengthEPK16TfLiteEvalTensorPj>
    1ee0:	08051c63          	bnez	a0,1f78 <_ZN6tflite21MicroInterpreterGraph15ResetTensorDataEPKNS_6TensorEP16TfLiteEvalTensor+0xc4>
    1ee4:	00600593          	li	a1,6
    1ee8:	00040513          	mv	a0,s0
    1eec:	fffff097          	auipc	ra,0xfffff
    1ef0:	918080e7          	jalr	-1768(ra) # 804 <_ZNK11flatbuffers5Table22GetOptionalFieldOffsetEt>
    1ef4:	00000913          	li	s2,0
    1ef8:	06050463          	beqz	a0,1f60 <_ZN6tflite21MicroInterpreterGraph15ResetTensorDataEPKNS_6TensorEP16TfLiteEvalTensor+0xac>
    1efc:	00a40533          	add	a0,s0,a0
    1f00:	00050703          	lb	a4,0(a0)
    1f04:	00900793          	li	a5,9
    1f08:	04f71c63          	bne	a4,a5,1f60 <_ZN6tflite21MicroInterpreterGraph15ResetTensorDataEPKNS_6TensorEP16TfLiteEvalTensor+0xac>
    1f0c:	00c00593          	li	a1,12
    1f10:	00040513          	mv	a0,s0
    1f14:	fffff097          	auipc	ra,0xfffff
    1f18:	8f0080e7          	jalr	-1808(ra) # 804 <_ZNK11flatbuffers5Table22GetOptionalFieldOffsetEt>
    1f1c:	04050263          	beqz	a0,1f60 <_ZN6tflite21MicroInterpreterGraph15ResetTensorDataEPKNS_6TensorEP16TfLiteEvalTensor+0xac>
    1f20:	00a40433          	add	s0,s0,a0
    1f24:	00042503          	lw	a0,0(s0)
    1f28:	00a40433          	add	s0,s0,a0
    1f2c:	02040a63          	beqz	s0,1f60 <_ZN6tflite21MicroInterpreterGraph15ResetTensorDataEPKNS_6TensorEP16TfLiteEvalTensor+0xac>
    1f30:	00a00593          	li	a1,10
    1f34:	00040513          	mv	a0,s0
    1f38:	fffff097          	auipc	ra,0xfffff
    1f3c:	8cc080e7          	jalr	-1844(ra) # 804 <_ZNK11flatbuffers5Table22GetOptionalFieldOffsetEt>
    1f40:	02050063          	beqz	a0,1f60 <_ZN6tflite21MicroInterpreterGraph15ResetTensorDataEPKNS_6TensorEP16TfLiteEvalTensor+0xac>
    1f44:	00a40433          	add	s0,s0,a0
    1f48:	00042503          	lw	a0,0(s0)
    1f4c:	00a40433          	add	s0,s0,a0
    1f50:	00040863          	beqz	s0,1f60 <_ZN6tflite21MicroInterpreterGraph15ResetTensorDataEPKNS_6TensorEP16TfLiteEvalTensor+0xac>
    1f54:	00042783          	lw	a5,0(s0)
    1f58:	00078463          	beqz	a5,1f60 <_ZN6tflite21MicroInterpreterGraph15ResetTensorDataEPKNS_6TensorEP16TfLiteEvalTensor+0xac>
    1f5c:	00442903          	lw	s2,4(s0)
    1f60:	00c12603          	lw	a2,12(sp)
    1f64:	0004a503          	lw	a0,0(s1)
    1f68:	00090593          	mv	a1,s2
    1f6c:	00014097          	auipc	ra,0x14
    1f70:	0b4080e7          	jalr	180(ra) # 16020 <memset>
    1f74:	00000513          	li	a0,0
    1f78:	01c12083          	lw	ra,28(sp)
    1f7c:	01812403          	lw	s0,24(sp)
    1f80:	01412483          	lw	s1,20(sp)
    1f84:	01012903          	lw	s2,16(sp)
    1f88:	02010113          	addi	sp,sp,32
    1f8c:	00008067          	ret

00001f90 <_ZN6tflite21MicroInterpreterGraph22SetSubgraphAllocationsEPNS_19SubgraphAllocationsE>:
    1f90:	00b52823          	sw	a1,16(a0)
    1f94:	00008067          	ret

00001f98 <_ZNK11flatbuffers6VectorINS_6OffsetIN6tflite6TensorEEEmE3GetEm>:
    1f98:	00052783          	lw	a5,0(a0)
    1f9c:	02f5e863          	bltu	a1,a5,1fcc <_ZNK11flatbuffers6VectorINS_6OffsetIN6tflite6TensorEEEmE3GetEm+0x34>
    1fa0:	8004c697          	auipc	a3,0x8004c
    1fa4:	8004d617          	auipc	a2,0x8004d
    1fa8:	8004c517          	auipc	a0,0x8004c
    1fac:	ff010113          	addi	sp,sp,-16
    1fb0:	6f868693          	addi	a3,a3,1784 # 8004e698 <__stack_top+0xfff91878>
    1fb4:	77060613          	addi	a2,a2,1904 # 8004f714 <__stack_top+0xfff928f4>
    1fb8:	0c200593          	li	a1,194
    1fbc:	6fc50513          	addi	a0,a0,1788 # 8004e6a4 <__stack_top+0xfff91884>
    1fc0:	00112623          	sw	ra,12(sp)
    1fc4:	00013097          	auipc	ra,0x13
    1fc8:	270080e7          	jalr	624(ra) # 15234 <__assert_func>
    1fcc:	00259593          	slli	a1,a1,0x2
    1fd0:	00450513          	addi	a0,a0,4
    1fd4:	00b50533          	add	a0,a0,a1
    1fd8:	00052783          	lw	a5,0(a0)
    1fdc:	00f50533          	add	a0,a0,a5
    1fe0:	00008067          	ret

00001fe4 <_ZN6tflite21MicroInterpreterGraph20ResetVariableTensorsEv>:
    1fe4:	fd010113          	addi	sp,sp,-48
    1fe8:	02812423          	sw	s0,40(sp)
    1fec:	03212023          	sw	s2,32(sp)
    1ff0:	01512a23          	sw	s5,20(sp)
    1ff4:	02112623          	sw	ra,44(sp)
    1ff8:	02912223          	sw	s1,36(sp)
    1ffc:	01312e23          	sw	s3,28(sp)
    2000:	01412c23          	sw	s4,24(sp)
    2004:	01612823          	sw	s6,16(sp)
    2008:	00050913          	mv	s2,a0
    200c:	00000413          	li	s0,0
    2010:	00c00a93          	li	s5,12
    2014:	02092503          	lw	a0,32(s2)
    2018:	00052783          	lw	a5,0(a0)
    201c:	0cf47863          	bgeu	s0,a5,20ec <_ZN6tflite21MicroInterpreterGraph20ResetVariableTensorsEv+0x108>
    2020:	00040593          	mv	a1,s0
    2024:	fffff097          	auipc	ra,0xfffff
    2028:	a58080e7          	jalr	-1448(ra) # a7c <_ZNK11flatbuffers6VectorINS_6OffsetIN6tflite8SubGraphEEEmE3GetEm>
    202c:	00050a13          	mv	s4,a0
    2030:	00341b13          	slli	s6,s0,0x3
    2034:	00000493          	li	s1,0
    2038:	00400593          	li	a1,4
    203c:	000a0513          	mv	a0,s4
    2040:	ffffe097          	auipc	ra,0xffffe
    2044:	7c4080e7          	jalr	1988(ra) # 804 <_ZNK11flatbuffers5Table22GetOptionalFieldOffsetEt>
    2048:	00050793          	mv	a5,a0
    204c:	00000513          	li	a0,0
    2050:	00078863          	beqz	a5,2060 <_ZN6tflite21MicroInterpreterGraph20ResetVariableTensorsEv+0x7c>
    2054:	00fa07b3          	add	a5,s4,a5
    2058:	0007a503          	lw	a0,0(a5)
    205c:	00a78533          	add	a0,a5,a0
    2060:	00052783          	lw	a5,0(a0)
    2064:	08f4f063          	bgeu	s1,a5,20e4 <_ZN6tflite21MicroInterpreterGraph20ResetVariableTensorsEv+0x100>
    2068:	00048593          	mv	a1,s1
    206c:	00000097          	auipc	ra,0x0
    2070:	f2c080e7          	jalr	-212(ra) # 1f98 <_ZNK11flatbuffers6VectorINS_6OffsetIN6tflite6TensorEEEmE3GetEm>
    2074:	00a12623          	sw	a0,12(sp)
    2078:	00000097          	auipc	ra,0x0
    207c:	c3c080e7          	jalr	-964(ra) # 1cb4 <_ZNK6tflite6Tensor11is_variableEv>
    2080:	00c12583          	lw	a1,12(sp)
    2084:	00051663          	bnez	a0,2090 <_ZN6tflite21MicroInterpreterGraph20ResetVariableTensorsEv+0xac>
    2088:	00148493          	addi	s1,s1,1
    208c:	fadff06f          	j	2038 <_ZN6tflite21MicroInterpreterGraph20ResetVariableTensorsEv+0x54>
    2090:	03548633          	mul	a2,s1,s5
    2094:	01092783          	lw	a5,16(s2)
    2098:	00090513          	mv	a0,s2
    209c:	016787b3          	add	a5,a5,s6
    20a0:	0047a783          	lw	a5,4(a5)
    20a4:	00c78633          	add	a2,a5,a2
    20a8:	00000097          	auipc	ra,0x0
    20ac:	e0c080e7          	jalr	-500(ra) # 1eb4 <_ZN6tflite21MicroInterpreterGraph15ResetTensorDataEPKNS_6TensorEP16TfLiteEvalTensor>
    20b0:	00050993          	mv	s3,a0
    20b4:	fc050ae3          	beqz	a0,2088 <_ZN6tflite21MicroInterpreterGraph20ResetVariableTensorsEv+0xa4>
    20b8:	02c12083          	lw	ra,44(sp)
    20bc:	02812403          	lw	s0,40(sp)
    20c0:	00098513          	mv	a0,s3
    20c4:	02412483          	lw	s1,36(sp)
    20c8:	02012903          	lw	s2,32(sp)
    20cc:	01c12983          	lw	s3,28(sp)
    20d0:	01812a03          	lw	s4,24(sp)
    20d4:	01412a83          	lw	s5,20(sp)
    20d8:	01012b03          	lw	s6,16(sp)
    20dc:	03010113          	addi	sp,sp,48
    20e0:	00008067          	ret
    20e4:	00140413          	addi	s0,s0,1
    20e8:	f2dff06f          	j	2014 <_ZN6tflite21MicroInterpreterGraph20ResetVariableTensorsEv+0x30>
    20ec:	01c92503          	lw	a0,28(s2)
    20f0:	00000993          	li	s3,0
    20f4:	fc0502e3          	beqz	a0,20b8 <_ZN6tflite21MicroInterpreterGraph20ResetVariableTensorsEv+0xd4>
    20f8:	00000097          	auipc	ra,0x0
    20fc:	54c080e7          	jalr	1356(ra) # 2644 <_ZN6tflite22MicroResourceVariables8ResetAllEv>
    2100:	fb9ff06f          	j	20b8 <_ZN6tflite21MicroInterpreterGraph20ResetVariableTensorsEv+0xd4>

00002104 <_ZN6tflite21MicroInterpreterGraph19ResetVariableTensorEii>:
    2104:	fd010113          	addi	sp,sp,-48
    2108:	01312e23          	sw	s3,28(sp)
    210c:	00050993          	mv	s3,a0
    2110:	02052503          	lw	a0,32(a0)
    2114:	02812423          	sw	s0,40(sp)
    2118:	00060413          	mv	s0,a2
    211c:	00052603          	lw	a2,0(a0)
    2120:	02112623          	sw	ra,44(sp)
    2124:	02912223          	sw	s1,36(sp)
    2128:	03212023          	sw	s2,32(sp)
    212c:	00c46e63          	bltu	s0,a2,2148 <_ZN6tflite21MicroInterpreterGraph19ResetVariableTensorEii+0x44>
    2130:	8004d517          	auipc	a0,0x8004d
    2134:	00040593          	mv	a1,s0
    2138:	47450513          	addi	a0,a0,1140 # 8004f5a4 <__stack_top+0xfff92784>
    213c:	00000097          	auipc	ra,0x0
    2140:	3a0080e7          	jalr	928(ra) # 24dc <_Z11MicroPrintfPKcz>
    2144:	0900006f          	j	21d4 <_ZN6tflite21MicroInterpreterGraph19ResetVariableTensorEii+0xd0>
    2148:	00058913          	mv	s2,a1
    214c:	00040593          	mv	a1,s0
    2150:	fffff097          	auipc	ra,0xfffff
    2154:	92c080e7          	jalr	-1748(ra) # a7c <_ZNK11flatbuffers6VectorINS_6OffsetIN6tflite8SubGraphEEEmE3GetEm>
    2158:	00400593          	li	a1,4
    215c:	00050493          	mv	s1,a0
    2160:	ffffe097          	auipc	ra,0xffffe
    2164:	6a4080e7          	jalr	1700(ra) # 804 <_ZNK11flatbuffers5Table22GetOptionalFieldOffsetEt>
    2168:	04050863          	beqz	a0,21b8 <_ZN6tflite21MicroInterpreterGraph19ResetVariableTensorEii+0xb4>
    216c:	00a48533          	add	a0,s1,a0
    2170:	00052783          	lw	a5,0(a0)
    2174:	00f50533          	add	a0,a0,a5
    2178:	04050063          	beqz	a0,21b8 <_ZN6tflite21MicroInterpreterGraph19ResetVariableTensorEii+0xb4>
    217c:	00052603          	lw	a2,0(a0)
    2180:	02c97e63          	bgeu	s2,a2,21bc <_ZN6tflite21MicroInterpreterGraph19ResetVariableTensorEii+0xb8>
    2184:	00090593          	mv	a1,s2
    2188:	00000097          	auipc	ra,0x0
    218c:	e10080e7          	jalr	-496(ra) # 1f98 <_ZNK11flatbuffers6VectorINS_6OffsetIN6tflite6TensorEEEmE3GetEm>
    2190:	00a12623          	sw	a0,12(sp)
    2194:	00000097          	auipc	ra,0x0
    2198:	b20080e7          	jalr	-1248(ra) # 1cb4 <_ZNK6tflite6Tensor11is_variableEv>
    219c:	00c12583          	lw	a1,12(sp)
    21a0:	04051a63          	bnez	a0,21f4 <_ZN6tflite21MicroInterpreterGraph19ResetVariableTensorEii+0xf0>
    21a4:	8004d517          	auipc	a0,0x8004d
    21a8:	00040613          	mv	a2,s0
    21ac:	00090593          	mv	a1,s2
    21b0:	53450513          	addi	a0,a0,1332 # 8004f6d8 <__stack_top+0xfff928b8>
    21b4:	f89ff06f          	j	213c <_ZN6tflite21MicroInterpreterGraph19ResetVariableTensorEii+0x38>
    21b8:	00000613          	li	a2,0
    21bc:	8004d517          	auipc	a0,0x8004d
    21c0:	00040693          	mv	a3,s0
    21c4:	00090593          	mv	a1,s2
    21c8:	4dc50513          	addi	a0,a0,1244 # 8004f698 <__stack_top+0xfff92878>
    21cc:	00000097          	auipc	ra,0x0
    21d0:	310080e7          	jalr	784(ra) # 24dc <_Z11MicroPrintfPKcz>
    21d4:	02c12083          	lw	ra,44(sp)
    21d8:	02812403          	lw	s0,40(sp)
    21dc:	02412483          	lw	s1,36(sp)
    21e0:	02012903          	lw	s2,32(sp)
    21e4:	01c12983          	lw	s3,28(sp)
    21e8:	00100513          	li	a0,1
    21ec:	03010113          	addi	sp,sp,48
    21f0:	00008067          	ret
    21f4:	00c00613          	li	a2,12
    21f8:	02c90933          	mul	s2,s2,a2
    21fc:	0109a683          	lw	a3,16(s3)
    2200:	00341413          	slli	s0,s0,0x3
    2204:	02c12083          	lw	ra,44(sp)
    2208:	00868433          	add	s0,a3,s0
    220c:	00442603          	lw	a2,4(s0)
    2210:	02812403          	lw	s0,40(sp)
    2214:	02412483          	lw	s1,36(sp)
    2218:	00098513          	mv	a0,s3
    221c:	01c12983          	lw	s3,28(sp)
    2220:	01260633          	add	a2,a2,s2
    2224:	02012903          	lw	s2,32(sp)
    2228:	03010113          	addi	sp,sp,48
    222c:	00000317          	auipc	t1,0x0
    2230:	c8830067          	jr	-888(t1) # 1eb4 <_ZN6tflite21MicroInterpreterGraph15ResetTensorDataEPKNS_6TensorEP16TfLiteEvalTensor>

00002234 <_ZN6tflite21MicroInterpreterGraph17GetSubgraphOutputEii>:
    2234:	fe010113          	addi	sp,sp,-32
    2238:	00912a23          	sw	s1,20(sp)
    223c:	00050493          	mv	s1,a0
    2240:	00852503          	lw	a0,8(a0)
    2244:	00812c23          	sw	s0,24(sp)
    2248:	00058413          	mv	s0,a1
    224c:	00800593          	li	a1,8
    2250:	00112e23          	sw	ra,28(sp)
    2254:	00c12623          	sw	a2,12(sp)
    2258:	fffff097          	auipc	ra,0xfffff
    225c:	8b0080e7          	jalr	-1872(ra) # b08 <_ZN11flatbuffers5Table10GetPointerIPKNS_6VectorINS_6OffsetIN6tflite8SubGraphEEEmEEmEET_t>
    2260:	00040593          	mv	a1,s0
    2264:	fffff097          	auipc	ra,0xfffff
    2268:	818080e7          	jalr	-2024(ra) # a7c <_ZNK11flatbuffers6VectorINS_6OffsetIN6tflite8SubGraphEEEmE3GetEm>
    226c:	00800593          	li	a1,8
    2270:	fffff097          	auipc	ra,0xfffff
    2274:	858080e7          	jalr	-1960(ra) # ac8 <_ZN11flatbuffers5Table10GetPointerIPKNS_6VectorIlmEEmEET_t>
    2278:	00c12603          	lw	a2,12(sp)
    227c:	00341413          	slli	s0,s0,0x3
    2280:	00060593          	mv	a1,a2
    2284:	ffffe097          	auipc	ra,0xffffe
    2288:	7b4080e7          	jalr	1972(ra) # a38 <_ZNK11flatbuffers6VectorIlmE3GetEm>
    228c:	0104a783          	lw	a5,16(s1)
    2290:	01c12083          	lw	ra,28(sp)
    2294:	01412483          	lw	s1,20(sp)
    2298:	00878433          	add	s0,a5,s0
    229c:	00c00793          	li	a5,12
    22a0:	02f50533          	mul	a0,a0,a5
    22a4:	00442783          	lw	a5,4(s0)
    22a8:	01812403          	lw	s0,24(sp)
    22ac:	02010113          	addi	sp,sp,32
    22b0:	00a78533          	add	a0,a5,a0
    22b4:	00008067          	ret

000022b8 <_ZN6tflite21MicroInterpreterGraph12NumSubgraphsEv>:
    22b8:	00852503          	lw	a0,8(a0)
    22bc:	ff010113          	addi	sp,sp,-16
    22c0:	00800593          	li	a1,8
    22c4:	00112623          	sw	ra,12(sp)
    22c8:	fffff097          	auipc	ra,0xfffff
    22cc:	840080e7          	jalr	-1984(ra) # b08 <_ZN11flatbuffers5Table10GetPointerIPKNS_6VectorINS_6OffsetIN6tflite8SubGraphEEEmEEmEET_t>
    22d0:	00c12083          	lw	ra,12(sp)
    22d4:	00052503          	lw	a0,0(a0)
    22d8:	01010113          	addi	sp,sp,16
    22dc:	00008067          	ret

000022e0 <_ZN6tflite21MicroInterpreterGraphC1EP13TfLiteContextPKNS_5ModelEPNS_14MicroAllocatorEPNS_22MicroResourceVariablesE>:
    22e0:	ff010113          	addi	sp,sp,-16
    22e4:	00812423          	sw	s0,8(sp)
    22e8:	00050413          	mv	s0,a0
    22ec:	8004d517          	auipc	a0,0x8004d
    22f0:	27c50513          	addi	a0,a0,636 # 8004f568 <__stack_top+0xfff92748>
    22f4:	00112623          	sw	ra,12(sp)
    22f8:	00a42023          	sw	a0,0(s0)
    22fc:	00b42223          	sw	a1,4(s0)
    2300:	00c42423          	sw	a2,8(s0)
    2304:	00d42623          	sw	a3,12(s0)
    2308:	00042823          	sw	zero,16(s0)
    230c:	00042a23          	sw	zero,20(s0)
    2310:	00042c23          	sw	zero,24(s0)
    2314:	00e42e23          	sw	a4,28(s0)
    2318:	02042023          	sw	zero,32(s0)
    231c:	00060c63          	beqz	a2,2334 <_ZN6tflite21MicroInterpreterGraphC1EP13TfLiteContextPKNS_5ModelEPNS_14MicroAllocatorEPNS_22MicroResourceVariablesE+0x54>
    2320:	00060513          	mv	a0,a2
    2324:	00800593          	li	a1,8
    2328:	ffffe097          	auipc	ra,0xffffe
    232c:	7e0080e7          	jalr	2016(ra) # b08 <_ZN11flatbuffers5Table10GetPointerIPKNS_6VectorINS_6OffsetIN6tflite8SubGraphEEEmEEmEET_t>
    2330:	02a42023          	sw	a0,32(s0)
    2334:	00c12083          	lw	ra,12(sp)
    2338:	00812403          	lw	s0,8(sp)
    233c:	01010113          	addi	sp,sp,16
    2340:	00008067          	ret

00002344 <_ZN6tflite21MicroInterpreterGraph17NumSubgraphInputsEi>:
    2344:	00852503          	lw	a0,8(a0)
    2348:	ff010113          	addi	sp,sp,-16
    234c:	00812423          	sw	s0,8(sp)
    2350:	00058413          	mv	s0,a1
    2354:	00800593          	li	a1,8
    2358:	00112623          	sw	ra,12(sp)
    235c:	ffffe097          	auipc	ra,0xffffe
    2360:	7ac080e7          	jalr	1964(ra) # b08 <_ZN11flatbuffers5Table10GetPointerIPKNS_6VectorINS_6OffsetIN6tflite8SubGraphEEEmEEmEET_t>
    2364:	00040593          	mv	a1,s0
    2368:	ffffe097          	auipc	ra,0xffffe
    236c:	714080e7          	jalr	1812(ra) # a7c <_ZNK11flatbuffers6VectorINS_6OffsetIN6tflite8SubGraphEEEmE3GetEm>
    2370:	00600593          	li	a1,6
    2374:	ffffe097          	auipc	ra,0xffffe
    2378:	754080e7          	jalr	1876(ra) # ac8 <_ZN11flatbuffers5Table10GetPointerIPKNS_6VectorIlmEEmEET_t>
    237c:	00c12083          	lw	ra,12(sp)
    2380:	00812403          	lw	s0,8(sp)
    2384:	00052503          	lw	a0,0(a0)
    2388:	01010113          	addi	sp,sp,16
    238c:	00008067          	ret

00002390 <_ZN6tflite21MicroInterpreterGraph18NumSubgraphOutputsEi>:
    2390:	00852503          	lw	a0,8(a0)
    2394:	ff010113          	addi	sp,sp,-16
    2398:	00812423          	sw	s0,8(sp)
    239c:	00058413          	mv	s0,a1
    23a0:	00800593          	li	a1,8
    23a4:	00112623          	sw	ra,12(sp)
    23a8:	ffffe097          	auipc	ra,0xffffe
    23ac:	760080e7          	jalr	1888(ra) # b08 <_ZN11flatbuffers5Table10GetPointerIPKNS_6VectorINS_6OffsetIN6tflite8SubGraphEEEmEEmEET_t>
    23b0:	00040593          	mv	a1,s0
    23b4:	ffffe097          	auipc	ra,0xffffe
    23b8:	6c8080e7          	jalr	1736(ra) # a7c <_ZNK11flatbuffers6VectorINS_6OffsetIN6tflite8SubGraphEEEmE3GetEm>
    23bc:	00800593          	li	a1,8
    23c0:	ffffe097          	auipc	ra,0xffffe
    23c4:	708080e7          	jalr	1800(ra) # ac8 <_ZN11flatbuffers5Table10GetPointerIPKNS_6VectorIlmEEmEET_t>
    23c8:	00050c63          	beqz	a0,23e0 <_ZN6tflite21MicroInterpreterGraph18NumSubgraphOutputsEi+0x50>
    23cc:	00052503          	lw	a0,0(a0)
    23d0:	00c12083          	lw	ra,12(sp)
    23d4:	00812403          	lw	s0,8(sp)
    23d8:	01010113          	addi	sp,sp,16
    23dc:	00008067          	ret
    23e0:	00000513          	li	a0,0
    23e4:	fedff06f          	j	23d0 <_ZN6tflite21MicroInterpreterGraph18NumSubgraphOutputsEi+0x40>

000023e8 <_ZN6tflite21MicroInterpreterGraph16GetSubgraphInputEii>:
    23e8:	fe010113          	addi	sp,sp,-32
    23ec:	00912a23          	sw	s1,20(sp)
    23f0:	00050493          	mv	s1,a0
    23f4:	00852503          	lw	a0,8(a0)
    23f8:	00812c23          	sw	s0,24(sp)
    23fc:	00058413          	mv	s0,a1
    2400:	00800593          	li	a1,8
    2404:	00112e23          	sw	ra,28(sp)
    2408:	00c12623          	sw	a2,12(sp)
    240c:	ffffe097          	auipc	ra,0xffffe
    2410:	6fc080e7          	jalr	1788(ra) # b08 <_ZN11flatbuffers5Table10GetPointerIPKNS_6VectorINS_6OffsetIN6tflite8SubGraphEEEmEEmEET_t>
    2414:	00040593          	mv	a1,s0
    2418:	ffffe097          	auipc	ra,0xffffe
    241c:	664080e7          	jalr	1636(ra) # a7c <_ZNK11flatbuffers6VectorINS_6OffsetIN6tflite8SubGraphEEEmE3GetEm>
    2420:	00600593          	li	a1,6
    2424:	ffffe097          	auipc	ra,0xffffe
    2428:	6a4080e7          	jalr	1700(ra) # ac8 <_ZN11flatbuffers5Table10GetPointerIPKNS_6VectorIlmEEmEET_t>
    242c:	00c12603          	lw	a2,12(sp)
    2430:	00341413          	slli	s0,s0,0x3
    2434:	00060593          	mv	a1,a2
    2438:	ffffe097          	auipc	ra,0xffffe
    243c:	600080e7          	jalr	1536(ra) # a38 <_ZNK11flatbuffers6VectorIlmE3GetEm>
    2440:	0104a783          	lw	a5,16(s1)
    2444:	01c12083          	lw	ra,28(sp)
    2448:	01412483          	lw	s1,20(sp)
    244c:	00878433          	add	s0,a5,s0
    2450:	00c00793          	li	a5,12
    2454:	02f50533          	mul	a0,a0,a5
    2458:	00442783          	lw	a5,4(s0)
    245c:	01812403          	lw	s0,24(sp)
    2460:	02010113          	addi	sp,sp,32
    2464:	00a78533          	add	a0,a5,a0
    2468:	00008067          	ret

0000246c <_ZN12_GLOBAL__N_19VDebugLogEPKcz.constprop.0>:
    246c:	fc010113          	addi	sp,sp,-64
    2470:	8004d517          	auipc	a0,0x8004d
    2474:	02b12223          	sw	a1,36(sp)
    2478:	39050513          	addi	a0,a0,912 # 8004f800 <__stack_top+0xfff929e0>
    247c:	02410593          	addi	a1,sp,36
    2480:	00112e23          	sw	ra,28(sp)
    2484:	02c12423          	sw	a2,40(sp)
    2488:	02d12623          	sw	a3,44(sp)
    248c:	02e12823          	sw	a4,48(sp)
    2490:	02f12a23          	sw	a5,52(sp)
    2494:	03012c23          	sw	a6,56(sp)
    2498:	03112e23          	sw	a7,60(sp)
    249c:	00b12623          	sw	a1,12(sp)
    24a0:	0000a097          	auipc	ra,0xa
    24a4:	f04080e7          	jalr	-252(ra) # c3a4 <DebugLog>
    24a8:	01c12083          	lw	ra,28(sp)
    24ac:	04010113          	addi	sp,sp,64
    24b0:	00008067          	ret

000024b4 <_Z12VMicroPrintfPKcPv>:
    24b4:	ff010113          	addi	sp,sp,-16
    24b8:	00112623          	sw	ra,12(sp)
    24bc:	0000a097          	auipc	ra,0xa
    24c0:	ee8080e7          	jalr	-280(ra) # c3a4 <DebugLog>
    24c4:	00c12083          	lw	ra,12(sp)
    24c8:	8004d517          	auipc	a0,0x8004d
    24cc:	33850513          	addi	a0,a0,824 # 8004f800 <__stack_top+0xfff929e0>
    24d0:	01010113          	addi	sp,sp,16
    24d4:	00000317          	auipc	t1,0x0
    24d8:	f9830067          	jr	-104(t1) # 246c <_ZN12_GLOBAL__N_19VDebugLogEPKcz.constprop.0>

000024dc <_Z11MicroPrintfPKcz>:
    24dc:	fc010113          	addi	sp,sp,-64
    24e0:	02b12223          	sw	a1,36(sp)
    24e4:	02410593          	addi	a1,sp,36
    24e8:	00112e23          	sw	ra,28(sp)
    24ec:	02c12423          	sw	a2,40(sp)
    24f0:	02d12623          	sw	a3,44(sp)
    24f4:	02e12823          	sw	a4,48(sp)
    24f8:	02f12a23          	sw	a5,52(sp)
    24fc:	03012c23          	sw	a6,56(sp)
    2500:	03112e23          	sw	a7,60(sp)
    2504:	00b12623          	sw	a1,12(sp)
    2508:	00000097          	auipc	ra,0x0
    250c:	fac080e7          	jalr	-84(ra) # 24b4 <_Z12VMicroPrintfPKcPv>
    2510:	01c12083          	lw	ra,28(sp)
    2514:	04010113          	addi	sp,sp,64
    2518:	00008067          	ret

0000251c <_ZN6tflite25GetRegistrationFromOpCodeEPKNS_12OperatorCodeERKNS_15MicroOpResolverEPPK16TFLMRegistration>:
    251c:	fe010113          	addi	sp,sp,-32
    2520:	00062023          	sw	zero,0(a2)
    2524:	00812c23          	sw	s0,24(sp)
    2528:	00912a23          	sw	s1,20(sp)
    252c:	01212823          	sw	s2,16(sp)
    2530:	01312623          	sw	s3,12(sp)
    2534:	00112e23          	sw	ra,28(sp)
    2538:	00050493          	mv	s1,a0
    253c:	00058913          	mv	s2,a1
    2540:	00060993          	mv	s3,a2
    2544:	00001097          	auipc	ra,0x1
    2548:	d20080e7          	jalr	-736(ra) # 3264 <_ZN6tflite14GetBuiltinCodeEPKNS_12OperatorCodeE>
    254c:	0d100793          	li	a5,209
    2550:	00050413          	mv	s0,a0
    2554:	02a7dc63          	bge	a5,a0,258c <_ZN6tflite25GetRegistrationFromOpCodeEPKNS_12OperatorCodeERKNS_15MicroOpResolverEPPK16TFLMRegistration+0x70>
    2558:	00050593          	mv	a1,a0
    255c:	8004d517          	auipc	a0,0x8004d
    2560:	2a850513          	addi	a0,a0,680 # 8004f804 <__stack_top+0xfff929e4>
    2564:	00000097          	auipc	ra,0x0
    2568:	f78080e7          	jalr	-136(ra) # 24dc <_Z11MicroPrintfPKcz>
    256c:	00100513          	li	a0,1
    2570:	01c12083          	lw	ra,28(sp)
    2574:	01812403          	lw	s0,24(sp)
    2578:	01412483          	lw	s1,20(sp)
    257c:	01012903          	lw	s2,16(sp)
    2580:	00c12983          	lw	s3,12(sp)
    2584:	02010113          	addi	sp,sp,32
    2588:	00008067          	ret
    258c:	02000793          	li	a5,32
    2590:	04f50a63          	beq	a0,a5,25e4 <_ZN6tflite25GetRegistrationFromOpCodeEPKNS_12OperatorCodeERKNS_15MicroOpResolverEPPK16TFLMRegistration+0xc8>
    2594:	00092783          	lw	a5,0(s2)
    2598:	00050593          	mv	a1,a0
    259c:	00090513          	mv	a0,s2
    25a0:	0007a783          	lw	a5,0(a5)
    25a4:	000780e7          	jalr	a5
    25a8:	00050793          	mv	a5,a0
    25ac:	00a9a023          	sw	a0,0(s3)
    25b0:	00000513          	li	a0,0
    25b4:	fa079ee3          	bnez	a5,2570 <_ZN6tflite25GetRegistrationFromOpCodeEPKNS_12OperatorCodeERKNS_15MicroOpResolverEPPK16TFLMRegistration+0x54>
    25b8:	8004d597          	auipc	a1,0x8004d
    25bc:	3b058593          	addi	a1,a1,944 # 8004f968 <__stack_top+0xfff92b48>
    25c0:	00044c63          	bltz	s0,25d8 <_ZN6tflite25GetRegistrationFromOpCodeEPKNS_12OperatorCodeERKNS_15MicroOpResolverEPPK16TFLMRegistration+0xbc>
    25c4:	8004c797          	auipc	a5,0x8004c
    25c8:	00241413          	slli	s0,s0,0x2
    25cc:	b0c78793          	addi	a5,a5,-1268 # 8004e0d0 <__stack_top+0xfff912b0>
    25d0:	00f40433          	add	s0,s0,a5
    25d4:	00042583          	lw	a1,0(s0)
    25d8:	8004d517          	auipc	a0,0x8004d
    25dc:	25050513          	addi	a0,a0,592 # 8004f828 <__stack_top+0xfff92a08>
    25e0:	f85ff06f          	j	2564 <_ZN6tflite25GetRegistrationFromOpCodeEPKNS_12OperatorCodeERKNS_15MicroOpResolverEPPK16TFLMRegistration+0x48>
    25e4:	0004a783          	lw	a5,0(s1)
    25e8:	00600713          	li	a4,6
    25ec:	40f487b3          	sub	a5,s1,a5
    25f0:	0007d683          	lhu	a3,0(a5)
    25f4:	00d77e63          	bgeu	a4,a3,2610 <_ZN6tflite25GetRegistrationFromOpCodeEPKNS_12OperatorCodeERKNS_15MicroOpResolverEPPK16TFLMRegistration+0xf4>
    25f8:	0067d783          	lhu	a5,6(a5)
    25fc:	00f484b3          	add	s1,s1,a5
    2600:	00078863          	beqz	a5,2610 <_ZN6tflite25GetRegistrationFromOpCodeEPKNS_12OperatorCodeERKNS_15MicroOpResolverEPPK16TFLMRegistration+0xf4>
    2604:	0004a583          	lw	a1,0(s1)
    2608:	00b485b3          	add	a1,s1,a1
    260c:	00059c63          	bnez	a1,2624 <_ZN6tflite25GetRegistrationFromOpCodeEPKNS_12OperatorCodeERKNS_15MicroOpResolverEPPK16TFLMRegistration+0x108>
    2610:	8004d517          	auipc	a0,0x8004d
    2614:	24050513          	addi	a0,a0,576 # 8004f850 <__stack_top+0xfff92a30>
    2618:	00000097          	auipc	ra,0x0
    261c:	ec4080e7          	jalr	-316(ra) # 24dc <_Z11MicroPrintfPKcz>
    2620:	f4dff06f          	j	256c <_ZN6tflite25GetRegistrationFromOpCodeEPKNS_12OperatorCodeERKNS_15MicroOpResolverEPPK16TFLMRegistration+0x50>
    2624:	00092783          	lw	a5,0(s2)
    2628:	00458593          	addi	a1,a1,4
    262c:	00090513          	mv	a0,s2
    2630:	0047a783          	lw	a5,4(a5)
    2634:	000780e7          	jalr	a5
    2638:	00a9a023          	sw	a0,0(s3)
    263c:	00153513          	seqz	a0,a0
    2640:	f31ff06f          	j	2570 <_ZN6tflite25GetRegistrationFromOpCodeEPKNS_12OperatorCodeERKNS_15MicroOpResolverEPPK16TFLMRegistration+0x54>

00002644 <_ZN6tflite22MicroResourceVariables8ResetAllEv>:
    2644:	ff010113          	addi	sp,sp,-16
    2648:	00812423          	sw	s0,8(sp)
    264c:	00912223          	sw	s1,4(sp)
    2650:	01212023          	sw	s2,0(sp)
    2654:	00112623          	sw	ra,12(sp)
    2658:	00050493          	mv	s1,a0
    265c:	00000413          	li	s0,0
    2660:	01400913          	li	s2,20
    2664:	0084a783          	lw	a5,8(s1)
    2668:	02f45663          	bge	s0,a5,2694 <_ZN6tflite22MicroResourceVariables8ResetAllEv+0x50>
    266c:	03240733          	mul	a4,s0,s2
    2670:	0004a783          	lw	a5,0(s1)
    2674:	00140413          	addi	s0,s0,1
    2678:	00e787b3          	add	a5,a5,a4
    267c:	00c7a603          	lw	a2,12(a5)
    2680:	01078583          	lb	a1,16(a5)
    2684:	0087a503          	lw	a0,8(a5)
    2688:	00014097          	auipc	ra,0x14
    268c:	998080e7          	jalr	-1640(ra) # 16020 <memset>
    2690:	fd5ff06f          	j	2664 <_ZN6tflite22MicroResourceVariables8ResetAllEv+0x20>
    2694:	00c12083          	lw	ra,12(sp)
    2698:	00812403          	lw	s0,8(sp)
    269c:	00412483          	lw	s1,4(sp)
    26a0:	00012903          	lw	s2,0(sp)
    26a4:	00000513          	li	a0,0
    26a8:	01010113          	addi	sp,sp,16
    26ac:	00008067          	ret

000026b0 <_ZN6tflite12ElementCountERK14TfLiteIntArray>:
    26b0:	00052603          	lw	a2,0(a0)
    26b4:	00450793          	addi	a5,a0,4
    26b8:	00000713          	li	a4,0
    26bc:	00100513          	li	a0,1
    26c0:	00c75c63          	bge	a4,a2,26d8 <_ZN6tflite12ElementCountERK14TfLiteIntArray+0x28>
    26c4:	0007a683          	lw	a3,0(a5)
    26c8:	00170713          	addi	a4,a4,1
    26cc:	00478793          	addi	a5,a5,4
    26d0:	02d50533          	mul	a0,a0,a3
    26d4:	fedff06f          	j	26c0 <_ZN6tflite12ElementCountERK14TfLiteIntArray+0x10>
    26d8:	00008067          	ret

000026dc <_ZN6tflite16InitializeTargetEv>:
    26dc:	00008067          	ret

000026e0 <_ZN6tflite17ConvertTensorTypeENS_10TensorTypeEP10TfLiteType>:
    26e0:	fe010113          	addi	sp,sp,-32
    26e4:	00812c23          	sw	s0,24(sp)
    26e8:	00112e23          	sw	ra,28(sp)
    26ec:	00050413          	mv	s0,a0
    26f0:	00b12623          	sw	a1,12(sp)
    26f4:	00000097          	auipc	ra,0x0
    26f8:	0a4080e7          	jalr	164(ra) # 2798 <_ZN6tflite21GetMicroErrorReporterEv>
    26fc:	00050613          	mv	a2,a0
    2700:	00040513          	mv	a0,s0
    2704:	01812403          	lw	s0,24(sp)
    2708:	00c12583          	lw	a1,12(sp)
    270c:	01c12083          	lw	ra,28(sp)
    2710:	02010113          	addi	sp,sp,32
    2714:	00000317          	auipc	t1,0x0
    2718:	22830067          	jr	552(t1) # 293c <_ZN6tflite17ConvertTensorTypeENS_10TensorTypeEP10TfLiteTypePNS_13ErrorReporterE>

0000271c <_ZN6tflite24CallBuiltinParseFunctionEPF12TfLiteStatusPKNS_8OperatorEPNS_13ErrorReporterEPNS_20BuiltinDataAllocatorEPPvES3_S7_S9_>:
    271c:	fe010113          	addi	sp,sp,-32
    2720:	00812c23          	sw	s0,24(sp)
    2724:	00912a23          	sw	s1,20(sp)
    2728:	00112e23          	sw	ra,28(sp)
    272c:	00058493          	mv	s1,a1
    2730:	00050413          	mv	s0,a0
    2734:	00c12623          	sw	a2,12(sp)
    2738:	00d12423          	sw	a3,8(sp)
    273c:	00000097          	auipc	ra,0x0
    2740:	05c080e7          	jalr	92(ra) # 2798 <_ZN6tflite21GetMicroErrorReporterEv>
    2744:	00040313          	mv	t1,s0
    2748:	01812403          	lw	s0,24(sp)
    274c:	00812683          	lw	a3,8(sp)
    2750:	00c12603          	lw	a2,12(sp)
    2754:	01c12083          	lw	ra,28(sp)
    2758:	00050593          	mv	a1,a0
    275c:	00048513          	mv	a0,s1
    2760:	01412483          	lw	s1,20(sp)
    2764:	02010113          	addi	sp,sp,32
    2768:	00030067          	jr	t1

0000276c <_ZN6tflite18MicroErrorReporterD0Ev>:
    276c:	00008067          	ret

00002770 <_ZN6tflite18MicroErrorReporter6ReportEPKcPv>:
    2770:	ff010113          	addi	sp,sp,-16
    2774:	00058513          	mv	a0,a1
    2778:	00060593          	mv	a1,a2
    277c:	00112623          	sw	ra,12(sp)
    2780:	00000097          	auipc	ra,0x0
    2784:	d34080e7          	jalr	-716(ra) # 24b4 <_Z12VMicroPrintfPKcPv>
    2788:	00c12083          	lw	ra,12(sp)
    278c:	00000513          	li	a0,0
    2790:	01010113          	addi	sp,sp,16
    2794:	00008067          	ret

00002798 <_ZN6tflite21GetMicroErrorReporterEv>:
    2798:	80050797          	auipc	a5,0x80050
    279c:	4ac7a703          	lw	a4,1196(a5) # 80052c44 <__stack_top+0xfff95e24>
    27a0:	80050797          	auipc	a5,0x80050
    27a4:	4a478793          	addi	a5,a5,1188 # 80052c44 <__stack_top+0xfff95e24>
    27a8:	00071e63          	bnez	a4,27c4 <_ZN6tflite21GetMicroErrorReporterEv+0x2c>
    27ac:	80050717          	auipc	a4,0x80050
    27b0:	8004d697          	auipc	a3,0x8004d
    27b4:	49c70713          	addi	a4,a4,1180 # 80052c48 <__stack_top+0xfff95e28>
    27b8:	0e068693          	addi	a3,a3,224 # 8004f890 <__stack_top+0xfff92a70>
    27bc:	00d72023          	sw	a3,0(a4)
    27c0:	00e7a023          	sw	a4,0(a5)
    27c4:	0007a503          	lw	a0,0(a5)
    27c8:	00008067          	ret

000027cc <_ZN6tflite12_GLOBAL__N_117ConvertActivationENS_22ActivationFunctionTypeE>:
    27cc:	fff50513          	addi	a0,a0,-1
    27d0:	0ff57513          	zext.b	a0,a0
    27d4:	00400793          	li	a5,4
    27d8:	00a7ec63          	bltu	a5,a0,27f0 <_ZN6tflite12_GLOBAL__N_117ConvertActivationENS_22ActivationFunctionTypeE+0x24>
    27dc:	80050797          	auipc	a5,0x80050
    27e0:	40078793          	addi	a5,a5,1024 # 80052bdc <__stack_top+0xfff95dbc>
    27e4:	00a787b3          	add	a5,a5,a0
    27e8:	0007c503          	lbu	a0,0(a5)
    27ec:	00008067          	ret
    27f0:	00000513          	li	a0,0
    27f4:	00008067          	ret

000027f8 <_ZN6tflite12_GLOBAL__N_114ConvertPaddingENS_7PaddingE>:
    27f8:	00100793          	li	a5,1
    27fc:	00050a63          	beqz	a0,2810 <_ZN6tflite12_GLOBAL__N_114ConvertPaddingENS_7PaddingE+0x18>
    2800:	00100713          	li	a4,1
    2804:	00200793          	li	a5,2
    2808:	00e50463          	beq	a0,a4,2810 <_ZN6tflite12_GLOBAL__N_114ConvertPaddingENS_7PaddingE+0x18>
    280c:	00000793          	li	a5,0
    2810:	00078513          	mv	a0,a5
    2814:	00008067          	ret

00002818 <_ZN6tflite12_GLOBAL__N_1L26FlatBufferIntVectorToArrayIlEE12TfLiteStatusiPKN11flatbuffers6VectorIT_mEEPS5_PNS_13ErrorReporterEPKc>:
    2818:	ff010113          	addi	sp,sp,-16
    281c:	00112623          	sw	ra,12(sp)
    2820:	00050793          	mv	a5,a0
    2824:	00068513          	mv	a0,a3
    2828:	02059463          	bnez	a1,2850 <_ZN6tflite12_GLOBAL__N_1L26FlatBufferIntVectorToArrayIlEE12TfLiteStatusiPKN11flatbuffers6VectorIT_mEEPS5_PNS_13ErrorReporterEPKc+0x38>
    282c:	8004d597          	auipc	a1,0x8004d
    2830:	00070613          	mv	a2,a4
    2834:	0cc58593          	addi	a1,a1,204 # 8004f8f8 <__stack_top+0xfff92ad8>
    2838:	00001097          	auipc	ra,0x1
    283c:	aac080e7          	jalr	-1364(ra) # 32e4 <_ZN6tflite13ErrorReporter6ReportEPKcz>
    2840:	00100513          	li	a0,1
    2844:	00c12083          	lw	ra,12(sp)
    2848:	01010113          	addi	sp,sp,16
    284c:	00008067          	ret
    2850:	0005a803          	lw	a6,0(a1)
    2854:	0027d793          	srli	a5,a5,0x2
    2858:	0307ee63          	bltu	a5,a6,2894 <_ZN6tflite12_GLOBAL__N_1L26FlatBufferIntVectorToArrayIlEE12TfLiteStatusiPKN11flatbuffers6VectorIT_mEEPS5_PNS_13ErrorReporterEPKc+0x7c>
    285c:	00458713          	addi	a4,a1,4
    2860:	00000793          	li	a5,0
    2864:	05078e63          	beq	a5,a6,28c0 <_ZN6tflite12_GLOBAL__N_1L26FlatBufferIntVectorToArrayIlEE12TfLiteStatusiPKN11flatbuffers6VectorIT_mEEPS5_PNS_13ErrorReporterEPKc+0xa8>
    2868:	0005a683          	lw	a3,0(a1)
    286c:	02d7ec63          	bltu	a5,a3,28a4 <_ZN6tflite12_GLOBAL__N_1L26FlatBufferIntVectorToArrayIlEE12TfLiteStatusiPKN11flatbuffers6VectorIT_mEEPS5_PNS_13ErrorReporterEPKc+0x8c>
    2870:	8004c697          	auipc	a3,0x8004c
    2874:	8004d617          	auipc	a2,0x8004d
    2878:	8004c517          	auipc	a0,0x8004c
    287c:	e2868693          	addi	a3,a3,-472 # 8004e698 <__stack_top+0xfff91878>
    2880:	17c60613          	addi	a2,a2,380 # 8004f9f0 <__stack_top+0xfff92bd0>
    2884:	0c200593          	li	a1,194
    2888:	e2c50513          	addi	a0,a0,-468 # 8004e6a4 <__stack_top+0xfff91884>
    288c:	00013097          	auipc	ra,0x13
    2890:	9a8080e7          	jalr	-1624(ra) # 15234 <__assert_func>
    2894:	8004d597          	auipc	a1,0x8004d
    2898:	00070613          	mv	a2,a4
    289c:	09458593          	addi	a1,a1,148 # 8004f928 <__stack_top+0xfff92b08>
    28a0:	f99ff06f          	j	2838 <_ZN6tflite12_GLOBAL__N_1L26FlatBufferIntVectorToArrayIlEE12TfLiteStatusiPKN11flatbuffers6VectorIT_mEEPS5_PNS_13ErrorReporterEPKc+0x20>
    28a4:	00072503          	lw	a0,0(a4)
    28a8:	00279693          	slli	a3,a5,0x2
    28ac:	00d606b3          	add	a3,a2,a3
    28b0:	00a6a023          	sw	a0,0(a3)
    28b4:	00178793          	addi	a5,a5,1
    28b8:	00470713          	addi	a4,a4,4
    28bc:	fa9ff06f          	j	2864 <_ZN6tflite12_GLOBAL__N_1L26FlatBufferIntVectorToArrayIlEE12TfLiteStatusiPKN11flatbuffers6VectorIT_mEEPS5_PNS_13ErrorReporterEPKc+0x4c>
    28c0:	00000513          	li	a0,0
    28c4:	f81ff06f          	j	2844 <_ZN6tflite12_GLOBAL__N_1L26FlatBufferIntVectorToArrayIlEE12TfLiteStatusiPKN11flatbuffers6VectorIT_mEEPS5_PNS_13ErrorReporterEPKc+0x2c>

000028c8 <_ZN6tflite12_GLOBAL__N_124SafeBuiltinDataAllocator18BuiltinDataDeleterclEPv.isra.0>:
    28c8:	00052783          	lw	a5,0(a0)
    28cc:	0047a303          	lw	t1,4(a5)
    28d0:	00030067          	jr	t1

000028d4 <_ZNK6tflite8Operator15builtin_optionsEv>:
    28d4:	ff010113          	addi	sp,sp,-16
    28d8:	00c00593          	li	a1,12
    28dc:	00812423          	sw	s0,8(sp)
    28e0:	00112623          	sw	ra,12(sp)
    28e4:	00050413          	mv	s0,a0
    28e8:	ffffe097          	auipc	ra,0xffffe
    28ec:	f1c080e7          	jalr	-228(ra) # 804 <_ZNK11flatbuffers5Table22GetOptionalFieldOffsetEt>
    28f0:	02050063          	beqz	a0,2910 <_ZNK6tflite8Operator15builtin_optionsEv+0x3c>
    28f4:	00a40533          	add	a0,s0,a0
    28f8:	00052783          	lw	a5,0(a0)
    28fc:	00f50533          	add	a0,a0,a5
    2900:	00c12083          	lw	ra,12(sp)
    2904:	00812403          	lw	s0,8(sp)
    2908:	01010113          	addi	sp,sp,16
    290c:	00008067          	ret
    2910:	00000513          	li	a0,0
    2914:	fedff06f          	j	2900 <_ZNK6tflite8Operator15builtin_optionsEv+0x2c>

00002918 <_ZN6tflite12_GLOBAL__N_123CheckParsePointerParamsEPKNS_8OperatorEPNS_13ErrorReporterEPNS_20BuiltinDataAllocatorEPPv>:
    2918:	00051a63          	bnez	a0,292c <_ZN6tflite12_GLOBAL__N_123CheckParsePointerParamsEPKNS_8OperatorEPNS_13ErrorReporterEPNS_20BuiltinDataAllocatorEPPv+0x14>
    291c:	ff010113          	addi	sp,sp,-16
    2920:	00112623          	sw	ra,12(sp)
    2924:	fffff097          	auipc	ra,0xfffff
    2928:	c40080e7          	jalr	-960(ra) # 1564 <_Z9AbortImplv>
    292c:	fe0588e3          	beqz	a1,291c <_ZN6tflite12_GLOBAL__N_123CheckParsePointerParamsEPKNS_8OperatorEPNS_13ErrorReporterEPNS_20BuiltinDataAllocatorEPPv+0x4>
    2930:	fe0606e3          	beqz	a2,291c <_ZN6tflite12_GLOBAL__N_123CheckParsePointerParamsEPKNS_8OperatorEPNS_13ErrorReporterEPNS_20BuiltinDataAllocatorEPPv+0x4>
    2934:	fe0684e3          	beqz	a3,291c <_ZN6tflite12_GLOBAL__N_123CheckParsePointerParamsEPKNS_8OperatorEPNS_13ErrorReporterEPNS_20BuiltinDataAllocatorEPPv+0x4>
    2938:	00008067          	ret

0000293c <_ZN6tflite17ConvertTensorTypeENS_10TensorTypeEP10TfLiteTypePNS_13ErrorReporterE>:
    293c:	0ff57793          	zext.b	a5,a0
    2940:	01400693          	li	a3,20
    2944:	0cf6e863          	bltu	a3,a5,2a14 <_ZN6tflite17ConvertTensorTypeENS_10TensorTypeEP10TfLiteTypePNS_13ErrorReporterE+0xd8>
    2948:	8004d717          	auipc	a4,0x8004d
    294c:	f5470713          	addi	a4,a4,-172 # 8004f89c <__stack_top+0xfff92a7c>
    2950:	00279793          	slli	a5,a5,0x2
    2954:	00e787b3          	add	a5,a5,a4
    2958:	0007a783          	lw	a5,0(a5)
    295c:	00e78733          	add	a4,a5,a4
    2960:	00070067          	jr	a4
    2964:	00a00793          	li	a5,10
    2968:	00f5a023          	sw	a5,0(a1)
    296c:	00000513          	li	a0,0
    2970:	00008067          	ret
    2974:	01300793          	li	a5,19
    2978:	ff1ff06f          	j	2968 <_ZN6tflite17ConvertTensorTypeENS_10TensorTypeEP10TfLiteTypePNS_13ErrorReporterE+0x2c>
    297c:	00100793          	li	a5,1
    2980:	fe9ff06f          	j	2968 <_ZN6tflite17ConvertTensorTypeENS_10TensorTypeEP10TfLiteTypePNS_13ErrorReporterE+0x2c>
    2984:	00b00793          	li	a5,11
    2988:	fe1ff06f          	j	2968 <_ZN6tflite17ConvertTensorTypeENS_10TensorTypeEP10TfLiteTypePNS_13ErrorReporterE+0x2c>
    298c:	00700793          	li	a5,7
    2990:	fd9ff06f          	j	2968 <_ZN6tflite17ConvertTensorTypeENS_10TensorTypeEP10TfLiteTypePNS_13ErrorReporterE+0x2c>
    2994:	01100793          	li	a5,17
    2998:	fd1ff06f          	j	2968 <_ZN6tflite17ConvertTensorTypeENS_10TensorTypeEP10TfLiteTypePNS_13ErrorReporterE+0x2c>
    299c:	00200793          	li	a5,2
    29a0:	fc9ff06f          	j	2968 <_ZN6tflite17ConvertTensorTypeENS_10TensorTypeEP10TfLiteTypePNS_13ErrorReporterE+0x2c>
    29a4:	01000793          	li	a5,16
    29a8:	fc1ff06f          	j	2968 <_ZN6tflite17ConvertTensorTypeENS_10TensorTypeEP10TfLiteTypePNS_13ErrorReporterE+0x2c>
    29ac:	00300793          	li	a5,3
    29b0:	fb9ff06f          	j	2968 <_ZN6tflite17ConvertTensorTypeENS_10TensorTypeEP10TfLiteTypePNS_13ErrorReporterE+0x2c>
    29b4:	00900793          	li	a5,9
    29b8:	fb1ff06f          	j	2968 <_ZN6tflite17ConvertTensorTypeENS_10TensorTypeEP10TfLiteTypePNS_13ErrorReporterE+0x2c>
    29bc:	00400793          	li	a5,4
    29c0:	fa9ff06f          	j	2968 <_ZN6tflite17ConvertTensorTypeENS_10TensorTypeEP10TfLiteTypePNS_13ErrorReporterE+0x2c>
    29c4:	00d00793          	li	a5,13
    29c8:	fa1ff06f          	j	2968 <_ZN6tflite17ConvertTensorTypeENS_10TensorTypeEP10TfLiteTypePNS_13ErrorReporterE+0x2c>
    29cc:	00500793          	li	a5,5
    29d0:	f99ff06f          	j	2968 <_ZN6tflite17ConvertTensorTypeENS_10TensorTypeEP10TfLiteTypePNS_13ErrorReporterE+0x2c>
    29d4:	00600793          	li	a5,6
    29d8:	f91ff06f          	j	2968 <_ZN6tflite17ConvertTensorTypeENS_10TensorTypeEP10TfLiteTypePNS_13ErrorReporterE+0x2c>
    29dc:	00800793          	li	a5,8
    29e0:	f89ff06f          	j	2968 <_ZN6tflite17ConvertTensorTypeENS_10TensorTypeEP10TfLiteTypePNS_13ErrorReporterE+0x2c>
    29e4:	00c00793          	li	a5,12
    29e8:	f81ff06f          	j	2968 <_ZN6tflite17ConvertTensorTypeENS_10TensorTypeEP10TfLiteTypePNS_13ErrorReporterE+0x2c>
    29ec:	00e00793          	li	a5,14
    29f0:	f79ff06f          	j	2968 <_ZN6tflite17ConvertTensorTypeENS_10TensorTypeEP10TfLiteTypePNS_13ErrorReporterE+0x2c>
    29f4:	00f00793          	li	a5,15
    29f8:	f71ff06f          	j	2968 <_ZN6tflite17ConvertTensorTypeENS_10TensorTypeEP10TfLiteTypePNS_13ErrorReporterE+0x2c>
    29fc:	01200793          	li	a5,18
    2a00:	f69ff06f          	j	2968 <_ZN6tflite17ConvertTensorTypeENS_10TensorTypeEP10TfLiteTypePNS_13ErrorReporterE+0x2c>
    2a04:	01400793          	li	a5,20
    2a08:	f61ff06f          	j	2968 <_ZN6tflite17ConvertTensorTypeENS_10TensorTypeEP10TfLiteTypePNS_13ErrorReporterE+0x2c>
    2a0c:	01500793          	li	a5,21
    2a10:	f59ff06f          	j	2968 <_ZN6tflite17ConvertTensorTypeENS_10TensorTypeEP10TfLiteTypePNS_13ErrorReporterE+0x2c>
    2a14:	ff010113          	addi	sp,sp,-16
    2a18:	00112623          	sw	ra,12(sp)
    2a1c:	00050713          	mv	a4,a0
    2a20:	0005a023          	sw	zero,0(a1)
    2a24:	8004d597          	auipc	a1,0x8004d
    2a28:	00060513          	mv	a0,a2
    2a2c:	fa858593          	addi	a1,a1,-88 # 8004f9cc <__stack_top+0xfff92bac>
    2a30:	00070613          	mv	a2,a4
    2a34:	00001097          	auipc	ra,0x1
    2a38:	8b0080e7          	jalr	-1872(ra) # 32e4 <_ZN6tflite13ErrorReporter6ReportEPKcz>
    2a3c:	00c12083          	lw	ra,12(sp)
    2a40:	00100513          	li	a0,1
    2a44:	01010113          	addi	sp,sp,16
    2a48:	00008067          	ret

00002a4c <_ZNK11flatbuffers5Table8GetFieldIlEET_tS2_>:
    2a4c:	fe010113          	addi	sp,sp,-32
    2a50:	00812c23          	sw	s0,24(sp)
    2a54:	00c12623          	sw	a2,12(sp)
    2a58:	00112e23          	sw	ra,28(sp)
    2a5c:	00050413          	mv	s0,a0
    2a60:	ffffe097          	auipc	ra,0xffffe
    2a64:	da4080e7          	jalr	-604(ra) # 804 <_ZNK11flatbuffers5Table22GetOptionalFieldOffsetEt>
    2a68:	00c12603          	lw	a2,12(sp)
    2a6c:	00050663          	beqz	a0,2a78 <_ZNK11flatbuffers5Table8GetFieldIlEET_tS2_+0x2c>
    2a70:	00a40433          	add	s0,s0,a0
    2a74:	00042603          	lw	a2,0(s0)
    2a78:	01c12083          	lw	ra,28(sp)
    2a7c:	01812403          	lw	s0,24(sp)
    2a80:	00060513          	mv	a0,a2
    2a84:	02010113          	addi	sp,sp,32
    2a88:	00008067          	ret

00002a8c <_ZNK11flatbuffers5Table8GetFieldIhEET_tS2_>:
    2a8c:	fe010113          	addi	sp,sp,-32
    2a90:	00812c23          	sw	s0,24(sp)
    2a94:	00c12623          	sw	a2,12(sp)
    2a98:	00112e23          	sw	ra,28(sp)
    2a9c:	00050413          	mv	s0,a0
    2aa0:	ffffe097          	auipc	ra,0xffffe
    2aa4:	d64080e7          	jalr	-668(ra) # 804 <_ZNK11flatbuffers5Table22GetOptionalFieldOffsetEt>
    2aa8:	00c12603          	lw	a2,12(sp)
    2aac:	00050663          	beqz	a0,2ab8 <_ZNK11flatbuffers5Table8GetFieldIhEET_tS2_+0x2c>
    2ab0:	00a40433          	add	s0,s0,a0
    2ab4:	00044603          	lbu	a2,0(s0)
    2ab8:	01c12083          	lw	ra,28(sp)
    2abc:	01812403          	lw	s0,24(sp)
    2ac0:	00060513          	mv	a0,a2
    2ac4:	02010113          	addi	sp,sp,32
    2ac8:	00008067          	ret

00002acc <_ZNK6tflite8Operator20builtin_options_typeEv>:
    2acc:	00000613          	li	a2,0
    2ad0:	00a00593          	li	a1,10
    2ad4:	00000317          	auipc	t1,0x0
    2ad8:	fb830067          	jr	-72(t1) # 2a8c <_ZNK11flatbuffers5Table8GetFieldIhEET_tS2_>

00002adc <_ZNK11flatbuffers5Table8GetFieldIaEET_tS2_>:
    2adc:	fe010113          	addi	sp,sp,-32
    2ae0:	00812c23          	sw	s0,24(sp)
    2ae4:	00c12623          	sw	a2,12(sp)
    2ae8:	00112e23          	sw	ra,28(sp)
    2aec:	00050413          	mv	s0,a0
    2af0:	ffffe097          	auipc	ra,0xffffe
    2af4:	d14080e7          	jalr	-748(ra) # 804 <_ZNK11flatbuffers5Table22GetOptionalFieldOffsetEt>
    2af8:	00c12603          	lw	a2,12(sp)
    2afc:	00050663          	beqz	a0,2b08 <_ZNK11flatbuffers5Table8GetFieldIaEET_tS2_+0x2c>
    2b00:	00a40433          	add	s0,s0,a0
    2b04:	00040603          	lb	a2,0(s0)
    2b08:	01c12083          	lw	ra,28(sp)
    2b0c:	01812403          	lw	s0,24(sp)
    2b10:	00060513          	mv	a0,a2
    2b14:	02010113          	addi	sp,sp,32
    2b18:	00008067          	ret

00002b1c <_ZN6tflite11ParseConv2DEPKNS_8OperatorEPNS_13ErrorReporterEPNS_20BuiltinDataAllocatorEPPv>:
    2b1c:	fe010113          	addi	sp,sp,-32
    2b20:	00112e23          	sw	ra,28(sp)
    2b24:	00812c23          	sw	s0,24(sp)
    2b28:	00912a23          	sw	s1,20(sp)
    2b2c:	01212823          	sw	s2,16(sp)
    2b30:	01312623          	sw	s3,12(sp)
    2b34:	00060913          	mv	s2,a2
    2b38:	01412423          	sw	s4,8(sp)
    2b3c:	00050493          	mv	s1,a0
    2b40:	00058993          	mv	s3,a1
    2b44:	00068a13          	mv	s4,a3
    2b48:	00000097          	auipc	ra,0x0
    2b4c:	dd0080e7          	jalr	-560(ra) # 2918 <_ZN6tflite12_GLOBAL__N_123CheckParsePointerParamsEPKNS_8OperatorEPNS_13ErrorReporterEPNS_20BuiltinDataAllocatorEPPv>
    2b50:	00092783          	lw	a5,0(s2)
    2b54:	00400613          	li	a2,4
    2b58:	01c00593          	li	a1,28
    2b5c:	0007a783          	lw	a5,0(a5)
    2b60:	00090513          	mv	a0,s2
    2b64:	000780e7          	jalr	a5
    2b68:	00050413          	mv	s0,a0
    2b6c:	01c00613          	li	a2,28
    2b70:	00000593          	li	a1,0
    2b74:	00013097          	auipc	ra,0x13
    2b78:	4ac080e7          	jalr	1196(ra) # 16020 <memset>
    2b7c:	04041c63          	bnez	s0,2bd4 <_ZN6tflite11ParseConv2DEPKNS_8OperatorEPNS_13ErrorReporterEPNS_20BuiltinDataAllocatorEPPv+0xb8>
    2b80:	8004d797          	auipc	a5,0x8004d
    2b84:	8004d697          	auipc	a3,0x8004d
    2b88:	8004d617          	auipc	a2,0x8004d
    2b8c:	dec78793          	addi	a5,a5,-532 # 8004f96c <__stack_top+0xfff92b4c>
    2b90:	54200713          	li	a4,1346
    2b94:	dfc68693          	addi	a3,a3,-516 # 8004f980 <__stack_top+0xfff92b60>
    2b98:	e2c60613          	addi	a2,a2,-468 # 8004f9b4 <__stack_top+0xfff92b94>
    2b9c:	00098593          	mv	a1,s3
    2ba0:	00098513          	mv	a0,s3
    2ba4:	00000097          	auipc	ra,0x0
    2ba8:	780080e7          	jalr	1920(ra) # 3324 <_ZN6tflite13ErrorReporter11ReportErrorEPvPKcz>
    2bac:	00100493          	li	s1,1
    2bb0:	01c12083          	lw	ra,28(sp)
    2bb4:	01812403          	lw	s0,24(sp)
    2bb8:	00048513          	mv	a0,s1
    2bbc:	01012903          	lw	s2,16(sp)
    2bc0:	01412483          	lw	s1,20(sp)
    2bc4:	00c12983          	lw	s3,12(sp)
    2bc8:	00812a03          	lw	s4,8(sp)
    2bcc:	02010113          	addi	sp,sp,32
    2bd0:	00008067          	ret
    2bd4:	00048513          	mv	a0,s1
    2bd8:	00000097          	auipc	ra,0x0
    2bdc:	ef4080e7          	jalr	-268(ra) # 2acc <_ZNK6tflite8Operator20builtin_options_typeEv>
    2be0:	00100793          	li	a5,1
    2be4:	00f50863          	beq	a0,a5,2bf4 <_ZN6tflite11ParseConv2DEPKNS_8OperatorEPNS_13ErrorReporterEPNS_20BuiltinDataAllocatorEPPv+0xd8>
    2be8:	008a2023          	sw	s0,0(s4)
    2bec:	00000493          	li	s1,0
    2bf0:	fc1ff06f          	j	2bb0 <_ZN6tflite11ParseConv2DEPKNS_8OperatorEPNS_13ErrorReporterEPNS_20BuiltinDataAllocatorEPPv+0x94>
    2bf4:	00048513          	mv	a0,s1
    2bf8:	00000097          	auipc	ra,0x0
    2bfc:	cdc080e7          	jalr	-804(ra) # 28d4 <_ZNK6tflite8Operator15builtin_optionsEv>
    2c00:	00050493          	mv	s1,a0
    2c04:	fe0502e3          	beqz	a0,2be8 <_ZN6tflite11ParseConv2DEPKNS_8OperatorEPNS_13ErrorReporterEPNS_20BuiltinDataAllocatorEPPv+0xcc>
    2c08:	00000613          	li	a2,0
    2c0c:	00400593          	li	a1,4
    2c10:	00000097          	auipc	ra,0x0
    2c14:	ecc080e7          	jalr	-308(ra) # 2adc <_ZNK11flatbuffers5Table8GetFieldIaEET_tS2_>
    2c18:	00000097          	auipc	ra,0x0
    2c1c:	be0080e7          	jalr	-1056(ra) # 27f8 <_ZN6tflite12_GLOBAL__N_114ConvertPaddingENS_7PaddingE>
    2c20:	00a42023          	sw	a0,0(s0)
    2c24:	00000613          	li	a2,0
    2c28:	00600593          	li	a1,6
    2c2c:	00048513          	mv	a0,s1
    2c30:	00000097          	auipc	ra,0x0
    2c34:	e1c080e7          	jalr	-484(ra) # 2a4c <_ZNK11flatbuffers5Table8GetFieldIlEET_tS2_>
    2c38:	00a42223          	sw	a0,4(s0)
    2c3c:	00000613          	li	a2,0
    2c40:	00800593          	li	a1,8
    2c44:	00048513          	mv	a0,s1
    2c48:	00000097          	auipc	ra,0x0
    2c4c:	e04080e7          	jalr	-508(ra) # 2a4c <_ZNK11flatbuffers5Table8GetFieldIlEET_tS2_>
    2c50:	00000613          	li	a2,0
    2c54:	00a00593          	li	a1,10
    2c58:	00a42423          	sw	a0,8(s0)
    2c5c:	00048513          	mv	a0,s1
    2c60:	00000097          	auipc	ra,0x0
    2c64:	e7c080e7          	jalr	-388(ra) # 2adc <_ZNK11flatbuffers5Table8GetFieldIaEET_tS2_>
    2c68:	00000097          	auipc	ra,0x0
    2c6c:	b64080e7          	jalr	-1180(ra) # 27cc <_ZN6tflite12_GLOBAL__N_117ConvertActivationENS_22ActivationFunctionTypeE>
    2c70:	00a42623          	sw	a0,12(s0)
    2c74:	00100613          	li	a2,1
    2c78:	00c00593          	li	a1,12
    2c7c:	00048513          	mv	a0,s1
    2c80:	00000097          	auipc	ra,0x0
    2c84:	dcc080e7          	jalr	-564(ra) # 2a4c <_ZNK11flatbuffers5Table8GetFieldIlEET_tS2_>
    2c88:	00a42823          	sw	a0,16(s0)
    2c8c:	00100613          	li	a2,1
    2c90:	00e00593          	li	a1,14
    2c94:	00048513          	mv	a0,s1
    2c98:	00000097          	auipc	ra,0x0
    2c9c:	db4080e7          	jalr	-588(ra) # 2a4c <_ZNK11flatbuffers5Table8GetFieldIlEET_tS2_>
    2ca0:	00a42a23          	sw	a0,20(s0)
    2ca4:	00000613          	li	a2,0
    2ca8:	01000593          	li	a1,16
    2cac:	00048513          	mv	a0,s1
    2cb0:	00000097          	auipc	ra,0x0
    2cb4:	e2c080e7          	jalr	-468(ra) # 2adc <_ZNK11flatbuffers5Table8GetFieldIaEET_tS2_>
    2cb8:	00098613          	mv	a2,s3
    2cbc:	01840593          	addi	a1,s0,24
    2cc0:	00000097          	auipc	ra,0x0
    2cc4:	c7c080e7          	jalr	-900(ra) # 293c <_ZN6tflite17ConvertTensorTypeENS_10TensorTypeEP10TfLiteTypePNS_13ErrorReporterE>
    2cc8:	00050493          	mv	s1,a0
    2ccc:	f0050ee3          	beqz	a0,2be8 <_ZN6tflite11ParseConv2DEPKNS_8OperatorEPNS_13ErrorReporterEPNS_20BuiltinDataAllocatorEPPv+0xcc>
    2cd0:	00040593          	mv	a1,s0
    2cd4:	00090513          	mv	a0,s2
    2cd8:	00000097          	auipc	ra,0x0
    2cdc:	bf0080e7          	jalr	-1040(ra) # 28c8 <_ZN6tflite12_GLOBAL__N_124SafeBuiltinDataAllocator18BuiltinDataDeleterclEPv.isra.0>
    2ce0:	ed1ff06f          	j	2bb0 <_ZN6tflite11ParseConv2DEPKNS_8OperatorEPNS_13ErrorReporterEPNS_20BuiltinDataAllocatorEPPv+0x94>

00002ce4 <_ZN6tflite20ParseDepthwiseConv2DEPKNS_8OperatorEPNS_13ErrorReporterEPNS_20BuiltinDataAllocatorEPPv>:
    2ce4:	fe010113          	addi	sp,sp,-32
    2ce8:	00112e23          	sw	ra,28(sp)
    2cec:	00812c23          	sw	s0,24(sp)
    2cf0:	00912a23          	sw	s1,20(sp)
    2cf4:	00060413          	mv	s0,a2
    2cf8:	01212823          	sw	s2,16(sp)
    2cfc:	01312623          	sw	s3,12(sp)
    2d00:	00050493          	mv	s1,a0
    2d04:	00058993          	mv	s3,a1
    2d08:	00068913          	mv	s2,a3
    2d0c:	00000097          	auipc	ra,0x0
    2d10:	c0c080e7          	jalr	-1012(ra) # 2918 <_ZN6tflite12_GLOBAL__N_123CheckParsePointerParamsEPKNS_8OperatorEPNS_13ErrorReporterEPNS_20BuiltinDataAllocatorEPPv>
    2d14:	00042783          	lw	a5,0(s0)
    2d18:	00400613          	li	a2,4
    2d1c:	01c00593          	li	a1,28
    2d20:	0007a783          	lw	a5,0(a5)
    2d24:	00040513          	mv	a0,s0
    2d28:	000780e7          	jalr	a5
    2d2c:	00050413          	mv	s0,a0
    2d30:	01c00613          	li	a2,28
    2d34:	00000593          	li	a1,0
    2d38:	00013097          	auipc	ra,0x13
    2d3c:	2e8080e7          	jalr	744(ra) # 16020 <memset>
    2d40:	04041863          	bnez	s0,2d90 <_ZN6tflite20ParseDepthwiseConv2DEPKNS_8OperatorEPNS_13ErrorReporterEPNS_20BuiltinDataAllocatorEPPv+0xac>
    2d44:	8004d797          	auipc	a5,0x8004d
    2d48:	8004d697          	auipc	a3,0x8004d
    2d4c:	8004d617          	auipc	a2,0x8004d
    2d50:	c2878793          	addi	a5,a5,-984 # 8004f96c <__stack_top+0xfff92b4c>
    2d54:	59a00713          	li	a4,1434
    2d58:	c3868693          	addi	a3,a3,-968 # 8004f980 <__stack_top+0xfff92b60>
    2d5c:	c6860613          	addi	a2,a2,-920 # 8004f9b4 <__stack_top+0xfff92b94>
    2d60:	00098593          	mv	a1,s3
    2d64:	00098513          	mv	a0,s3
    2d68:	00000097          	auipc	ra,0x0
    2d6c:	5bc080e7          	jalr	1468(ra) # 3324 <_ZN6tflite13ErrorReporter11ReportErrorEPvPKcz>
    2d70:	00100513          	li	a0,1
    2d74:	01c12083          	lw	ra,28(sp)
    2d78:	01812403          	lw	s0,24(sp)
    2d7c:	01412483          	lw	s1,20(sp)
    2d80:	01012903          	lw	s2,16(sp)
    2d84:	00c12983          	lw	s3,12(sp)
    2d88:	02010113          	addi	sp,sp,32
    2d8c:	00008067          	ret
    2d90:	00048513          	mv	a0,s1
    2d94:	00000097          	auipc	ra,0x0
    2d98:	d38080e7          	jalr	-712(ra) # 2acc <_ZNK6tflite8Operator20builtin_options_typeEv>
    2d9c:	00200793          	li	a5,2
    2da0:	0cf51663          	bne	a0,a5,2e6c <_ZN6tflite20ParseDepthwiseConv2DEPKNS_8OperatorEPNS_13ErrorReporterEPNS_20BuiltinDataAllocatorEPPv+0x188>
    2da4:	00048513          	mv	a0,s1
    2da8:	00000097          	auipc	ra,0x0
    2dac:	b2c080e7          	jalr	-1236(ra) # 28d4 <_ZNK6tflite8Operator15builtin_optionsEv>
    2db0:	00050493          	mv	s1,a0
    2db4:	0a050c63          	beqz	a0,2e6c <_ZN6tflite20ParseDepthwiseConv2DEPKNS_8OperatorEPNS_13ErrorReporterEPNS_20BuiltinDataAllocatorEPPv+0x188>
    2db8:	00000613          	li	a2,0
    2dbc:	00400593          	li	a1,4
    2dc0:	00000097          	auipc	ra,0x0
    2dc4:	d1c080e7          	jalr	-740(ra) # 2adc <_ZNK11flatbuffers5Table8GetFieldIaEET_tS2_>
    2dc8:	00000097          	auipc	ra,0x0
    2dcc:	a30080e7          	jalr	-1488(ra) # 27f8 <_ZN6tflite12_GLOBAL__N_114ConvertPaddingENS_7PaddingE>
    2dd0:	00a42023          	sw	a0,0(s0)
    2dd4:	00000613          	li	a2,0
    2dd8:	00600593          	li	a1,6
    2ddc:	00048513          	mv	a0,s1
    2de0:	00000097          	auipc	ra,0x0
    2de4:	c6c080e7          	jalr	-916(ra) # 2a4c <_ZNK11flatbuffers5Table8GetFieldIlEET_tS2_>
    2de8:	00a42223          	sw	a0,4(s0)
    2dec:	00000613          	li	a2,0
    2df0:	00800593          	li	a1,8
    2df4:	00048513          	mv	a0,s1
    2df8:	00000097          	auipc	ra,0x0
    2dfc:	c54080e7          	jalr	-940(ra) # 2a4c <_ZNK11flatbuffers5Table8GetFieldIlEET_tS2_>
    2e00:	00a42423          	sw	a0,8(s0)
    2e04:	00000613          	li	a2,0
    2e08:	00a00593          	li	a1,10
    2e0c:	00048513          	mv	a0,s1
    2e10:	00000097          	auipc	ra,0x0
    2e14:	c3c080e7          	jalr	-964(ra) # 2a4c <_ZNK11flatbuffers5Table8GetFieldIlEET_tS2_>
    2e18:	00000613          	li	a2,0
    2e1c:	00c00593          	li	a1,12
    2e20:	00a42623          	sw	a0,12(s0)
    2e24:	00048513          	mv	a0,s1
    2e28:	00000097          	auipc	ra,0x0
    2e2c:	cb4080e7          	jalr	-844(ra) # 2adc <_ZNK11flatbuffers5Table8GetFieldIaEET_tS2_>
    2e30:	00000097          	auipc	ra,0x0
    2e34:	99c080e7          	jalr	-1636(ra) # 27cc <_ZN6tflite12_GLOBAL__N_117ConvertActivationENS_22ActivationFunctionTypeE>
    2e38:	00a42823          	sw	a0,16(s0)
    2e3c:	00100613          	li	a2,1
    2e40:	00e00593          	li	a1,14
    2e44:	00048513          	mv	a0,s1
    2e48:	00000097          	auipc	ra,0x0
    2e4c:	c04080e7          	jalr	-1020(ra) # 2a4c <_ZNK11flatbuffers5Table8GetFieldIlEET_tS2_>
    2e50:	00a42a23          	sw	a0,20(s0)
    2e54:	00100613          	li	a2,1
    2e58:	01000593          	li	a1,16
    2e5c:	00048513          	mv	a0,s1
    2e60:	00000097          	auipc	ra,0x0
    2e64:	bec080e7          	jalr	-1044(ra) # 2a4c <_ZNK11flatbuffers5Table8GetFieldIlEET_tS2_>
    2e68:	00a42c23          	sw	a0,24(s0)
    2e6c:	00892023          	sw	s0,0(s2)
    2e70:	00000513          	li	a0,0
    2e74:	f01ff06f          	j	2d74 <_ZN6tflite20ParseDepthwiseConv2DEPKNS_8OperatorEPNS_13ErrorReporterEPNS_20BuiltinDataAllocatorEPPv+0x90>

00002e78 <_ZN6tflite9ParsePoolEPKNS_8OperatorEPNS_13ErrorReporterEPNS_20BuiltinDataAllocatorEPPv>:
    2e78:	fe010113          	addi	sp,sp,-32
    2e7c:	00112e23          	sw	ra,28(sp)
    2e80:	00812c23          	sw	s0,24(sp)
    2e84:	00912a23          	sw	s1,20(sp)
    2e88:	00060413          	mv	s0,a2
    2e8c:	01212823          	sw	s2,16(sp)
    2e90:	01312623          	sw	s3,12(sp)
    2e94:	00050493          	mv	s1,a0
    2e98:	00058993          	mv	s3,a1
    2e9c:	00068913          	mv	s2,a3
    2ea0:	00000097          	auipc	ra,0x0
    2ea4:	a78080e7          	jalr	-1416(ra) # 2918 <_ZN6tflite12_GLOBAL__N_123CheckParsePointerParamsEPKNS_8OperatorEPNS_13ErrorReporterEPNS_20BuiltinDataAllocatorEPPv>
    2ea8:	00042783          	lw	a5,0(s0)
    2eac:	00400613          	li	a2,4
    2eb0:	02800593          	li	a1,40
    2eb4:	0007a783          	lw	a5,0(a5)
    2eb8:	00040513          	mv	a0,s0
    2ebc:	000780e7          	jalr	a5
    2ec0:	00050413          	mv	s0,a0
    2ec4:	02800613          	li	a2,40
    2ec8:	00000593          	li	a1,0
    2ecc:	00013097          	auipc	ra,0x13
    2ed0:	154080e7          	jalr	340(ra) # 16020 <memset>
    2ed4:	04041863          	bnez	s0,2f24 <_ZN6tflite9ParsePoolEPKNS_8OperatorEPNS_13ErrorReporterEPNS_20BuiltinDataAllocatorEPPv+0xac>
    2ed8:	8004d797          	auipc	a5,0x8004d
    2edc:	8004d697          	auipc	a3,0x8004d
    2ee0:	8004d617          	auipc	a2,0x8004d
    2ee4:	a9478793          	addi	a5,a5,-1388 # 8004f96c <__stack_top+0xfff92b4c>
    2ee8:	7a700713          	li	a4,1959
    2eec:	aa468693          	addi	a3,a3,-1372 # 8004f980 <__stack_top+0xfff92b60>
    2ef0:	ad460613          	addi	a2,a2,-1324 # 8004f9b4 <__stack_top+0xfff92b94>
    2ef4:	00098593          	mv	a1,s3
    2ef8:	00098513          	mv	a0,s3
    2efc:	00000097          	auipc	ra,0x0
    2f00:	428080e7          	jalr	1064(ra) # 3324 <_ZN6tflite13ErrorReporter11ReportErrorEPvPKcz>
    2f04:	00100513          	li	a0,1
    2f08:	01c12083          	lw	ra,28(sp)
    2f0c:	01812403          	lw	s0,24(sp)
    2f10:	01412483          	lw	s1,20(sp)
    2f14:	01012903          	lw	s2,16(sp)
    2f18:	00c12983          	lw	s3,12(sp)
    2f1c:	02010113          	addi	sp,sp,32
    2f20:	00008067          	ret
    2f24:	00048513          	mv	a0,s1
    2f28:	00000097          	auipc	ra,0x0
    2f2c:	ba4080e7          	jalr	-1116(ra) # 2acc <_ZNK6tflite8Operator20builtin_options_typeEv>
    2f30:	00500793          	li	a5,5
    2f34:	0af51a63          	bne	a0,a5,2fe8 <_ZN6tflite9ParsePoolEPKNS_8OperatorEPNS_13ErrorReporterEPNS_20BuiltinDataAllocatorEPPv+0x170>
    2f38:	00048513          	mv	a0,s1
    2f3c:	00000097          	auipc	ra,0x0
    2f40:	998080e7          	jalr	-1640(ra) # 28d4 <_ZNK6tflite8Operator15builtin_optionsEv>
    2f44:	00050493          	mv	s1,a0
    2f48:	0a050063          	beqz	a0,2fe8 <_ZN6tflite9ParsePoolEPKNS_8OperatorEPNS_13ErrorReporterEPNS_20BuiltinDataAllocatorEPPv+0x170>
    2f4c:	00000613          	li	a2,0
    2f50:	00400593          	li	a1,4
    2f54:	00000097          	auipc	ra,0x0
    2f58:	b88080e7          	jalr	-1144(ra) # 2adc <_ZNK11flatbuffers5Table8GetFieldIaEET_tS2_>
    2f5c:	00000097          	auipc	ra,0x0
    2f60:	89c080e7          	jalr	-1892(ra) # 27f8 <_ZN6tflite12_GLOBAL__N_114ConvertPaddingENS_7PaddingE>
    2f64:	00a42023          	sw	a0,0(s0)
    2f68:	00000613          	li	a2,0
    2f6c:	00600593          	li	a1,6
    2f70:	00048513          	mv	a0,s1
    2f74:	00000097          	auipc	ra,0x0
    2f78:	ad8080e7          	jalr	-1320(ra) # 2a4c <_ZNK11flatbuffers5Table8GetFieldIlEET_tS2_>
    2f7c:	00a42223          	sw	a0,4(s0)
    2f80:	00000613          	li	a2,0
    2f84:	00800593          	li	a1,8
    2f88:	00048513          	mv	a0,s1
    2f8c:	00000097          	auipc	ra,0x0
    2f90:	ac0080e7          	jalr	-1344(ra) # 2a4c <_ZNK11flatbuffers5Table8GetFieldIlEET_tS2_>
    2f94:	00a42423          	sw	a0,8(s0)
    2f98:	00000613          	li	a2,0
    2f9c:	00a00593          	li	a1,10
    2fa0:	00048513          	mv	a0,s1
    2fa4:	00000097          	auipc	ra,0x0
    2fa8:	aa8080e7          	jalr	-1368(ra) # 2a4c <_ZNK11flatbuffers5Table8GetFieldIlEET_tS2_>
    2fac:	00a42623          	sw	a0,12(s0)
    2fb0:	00000613          	li	a2,0
    2fb4:	00c00593          	li	a1,12
    2fb8:	00048513          	mv	a0,s1
    2fbc:	00000097          	auipc	ra,0x0
    2fc0:	a90080e7          	jalr	-1392(ra) # 2a4c <_ZNK11flatbuffers5Table8GetFieldIlEET_tS2_>
    2fc4:	00a42823          	sw	a0,16(s0)
    2fc8:	00000613          	li	a2,0
    2fcc:	00e00593          	li	a1,14
    2fd0:	00048513          	mv	a0,s1
    2fd4:	00000097          	auipc	ra,0x0
    2fd8:	b08080e7          	jalr	-1272(ra) # 2adc <_ZNK11flatbuffers5Table8GetFieldIaEET_tS2_>
    2fdc:	fffff097          	auipc	ra,0xfffff
    2fe0:	7f0080e7          	jalr	2032(ra) # 27cc <_ZN6tflite12_GLOBAL__N_117ConvertActivationENS_22ActivationFunctionTypeE>
    2fe4:	00a42a23          	sw	a0,20(s0)
    2fe8:	00892023          	sw	s0,0(s2)
    2fec:	00000513          	li	a0,0
    2ff0:	f19ff06f          	j	2f08 <_ZN6tflite9ParsePoolEPKNS_8OperatorEPNS_13ErrorReporterEPNS_20BuiltinDataAllocatorEPPv+0x90>

00002ff4 <_ZNK11flatbuffers5Table8GetFieldIfEET_tS2_>:
    2ff4:	fe010113          	addi	sp,sp,-32
    2ff8:	00812c23          	sw	s0,24(sp)
    2ffc:	00c12623          	sw	a2,12(sp)
    3000:	00112e23          	sw	ra,28(sp)
    3004:	00050413          	mv	s0,a0
    3008:	ffffd097          	auipc	ra,0xffffd
    300c:	7fc080e7          	jalr	2044(ra) # 804 <_ZNK11flatbuffers5Table22GetOptionalFieldOffsetEt>
    3010:	00c12603          	lw	a2,12(sp)
    3014:	00050663          	beqz	a0,3020 <_ZNK11flatbuffers5Table8GetFieldIfEET_tS2_+0x2c>
    3018:	00a40433          	add	s0,s0,a0
    301c:	00042603          	lw	a2,0(s0)
    3020:	01c12083          	lw	ra,28(sp)
    3024:	01812403          	lw	s0,24(sp)
    3028:	00060513          	mv	a0,a2
    302c:	02010113          	addi	sp,sp,32
    3030:	00008067          	ret

00003034 <_ZN6tflite12ParseSoftmaxEPKNS_8OperatorEPNS_13ErrorReporterEPNS_20BuiltinDataAllocatorEPPv>:
    3034:	fe010113          	addi	sp,sp,-32
    3038:	00112e23          	sw	ra,28(sp)
    303c:	00812c23          	sw	s0,24(sp)
    3040:	00912a23          	sw	s1,20(sp)
    3044:	00060413          	mv	s0,a2
    3048:	01212823          	sw	s2,16(sp)
    304c:	01312623          	sw	s3,12(sp)
    3050:	00050493          	mv	s1,a0
    3054:	00058993          	mv	s3,a1
    3058:	00068913          	mv	s2,a3
    305c:	00000097          	auipc	ra,0x0
    3060:	8bc080e7          	jalr	-1860(ra) # 2918 <_ZN6tflite12_GLOBAL__N_123CheckParsePointerParamsEPKNS_8OperatorEPNS_13ErrorReporterEPNS_20BuiltinDataAllocatorEPPv>
    3064:	00042783          	lw	a5,0(s0)
    3068:	00400613          	li	a2,4
    306c:	00400593          	li	a1,4
    3070:	0007a783          	lw	a5,0(a5)
    3074:	00040513          	mv	a0,s0
    3078:	000780e7          	jalr	a5
    307c:	00000793          	li	a5,0
    3080:	00f52023          	sw	a5,0(a0)
    3084:	04051a63          	bnez	a0,30d8 <_ZN6tflite12ParseSoftmaxEPKNS_8OperatorEPNS_13ErrorReporterEPNS_20BuiltinDataAllocatorEPPv+0xa4>
    3088:	8004d797          	auipc	a5,0x8004d
    308c:	00001737          	lui	a4,0x1
    3090:	8004d697          	auipc	a3,0x8004d
    3094:	8004d617          	auipc	a2,0x8004d
    3098:	8e478793          	addi	a5,a5,-1820 # 8004f96c <__stack_top+0xfff92b4c>
    309c:	a1670713          	addi	a4,a4,-1514 # a16 <_ZN6tflite16MicroInterpreterC1EPKNS_5ModelERKNS_15MicroOpResolverEPhjPNS_22MicroResourceVariablesEPNS_22MicroProfilerInterfaceEb+0xd6>
    30a0:	8f068693          	addi	a3,a3,-1808 # 8004f980 <__stack_top+0xfff92b60>
    30a4:	92060613          	addi	a2,a2,-1760 # 8004f9b4 <__stack_top+0xfff92b94>
    30a8:	00098593          	mv	a1,s3
    30ac:	00098513          	mv	a0,s3
    30b0:	00000097          	auipc	ra,0x0
    30b4:	274080e7          	jalr	628(ra) # 3324 <_ZN6tflite13ErrorReporter11ReportErrorEPvPKcz>
    30b8:	00100513          	li	a0,1
    30bc:	01c12083          	lw	ra,28(sp)
    30c0:	01812403          	lw	s0,24(sp)
    30c4:	01412483          	lw	s1,20(sp)
    30c8:	01012903          	lw	s2,16(sp)
    30cc:	00c12983          	lw	s3,12(sp)
    30d0:	02010113          	addi	sp,sp,32
    30d4:	00008067          	ret
    30d8:	00050413          	mv	s0,a0
    30dc:	00048513          	mv	a0,s1
    30e0:	00000097          	auipc	ra,0x0
    30e4:	9ec080e7          	jalr	-1556(ra) # 2acc <_ZNK6tflite8Operator20builtin_options_typeEv>
    30e8:	00900793          	li	a5,9
    30ec:	02f51463          	bne	a0,a5,3114 <_ZN6tflite12ParseSoftmaxEPKNS_8OperatorEPNS_13ErrorReporterEPNS_20BuiltinDataAllocatorEPPv+0xe0>
    30f0:	00048513          	mv	a0,s1
    30f4:	fffff097          	auipc	ra,0xfffff
    30f8:	7e0080e7          	jalr	2016(ra) # 28d4 <_ZNK6tflite8Operator15builtin_optionsEv>
    30fc:	00050c63          	beqz	a0,3114 <_ZN6tflite12ParseSoftmaxEPKNS_8OperatorEPNS_13ErrorReporterEPNS_20BuiltinDataAllocatorEPPv+0xe0>
    3100:	00000613          	li	a2,0
    3104:	00400593          	li	a1,4
    3108:	00000097          	auipc	ra,0x0
    310c:	eec080e7          	jalr	-276(ra) # 2ff4 <_ZNK11flatbuffers5Table8GetFieldIfEET_tS2_>
    3110:	00a42023          	sw	a0,0(s0)
    3114:	00892023          	sw	s0,0(s2)
    3118:	00000513          	li	a0,0
    311c:	fa1ff06f          	j	30bc <_ZN6tflite12ParseSoftmaxEPKNS_8OperatorEPNS_13ErrorReporterEPNS_20BuiltinDataAllocatorEPPv+0x88>

00003120 <_ZN6tflite12ParseReshapeEPKNS_8OperatorEPNS_13ErrorReporterEPNS_20BuiltinDataAllocatorEPPv>:
    3120:	fe010113          	addi	sp,sp,-32
    3124:	00112e23          	sw	ra,28(sp)
    3128:	00812c23          	sw	s0,24(sp)
    312c:	00912a23          	sw	s1,20(sp)
    3130:	01212823          	sw	s2,16(sp)
    3134:	01312623          	sw	s3,12(sp)
    3138:	00060913          	mv	s2,a2
    313c:	01412423          	sw	s4,8(sp)
    3140:	00050993          	mv	s3,a0
    3144:	00058493          	mv	s1,a1
    3148:	00068a13          	mv	s4,a3
    314c:	fffff097          	auipc	ra,0xfffff
    3150:	7cc080e7          	jalr	1996(ra) # 2918 <_ZN6tflite12_GLOBAL__N_123CheckParsePointerParamsEPKNS_8OperatorEPNS_13ErrorReporterEPNS_20BuiltinDataAllocatorEPPv>
    3154:	00092783          	lw	a5,0(s2)
    3158:	00400613          	li	a2,4
    315c:	02400593          	li	a1,36
    3160:	0007a783          	lw	a5,0(a5)
    3164:	00090513          	mv	a0,s2
    3168:	000780e7          	jalr	a5
    316c:	00050413          	mv	s0,a0
    3170:	02400613          	li	a2,36
    3174:	00000593          	li	a1,0
    3178:	00013097          	auipc	ra,0x13
    317c:	ea8080e7          	jalr	-344(ra) # 16020 <memset>
    3180:	04041e63          	bnez	s0,31dc <_ZN6tflite12ParseReshapeEPKNS_8OperatorEPNS_13ErrorReporterEPNS_20BuiltinDataAllocatorEPPv+0xbc>
    3184:	8004c797          	auipc	a5,0x8004c
    3188:	00001737          	lui	a4,0x1
    318c:	8004c697          	auipc	a3,0x8004c
    3190:	8004d617          	auipc	a2,0x8004d
    3194:	00048593          	mv	a1,s1
    3198:	00048513          	mv	a0,s1
    319c:	7e878793          	addi	a5,a5,2024 # 8004f96c <__stack_top+0xfff92b4c>
    31a0:	81170713          	addi	a4,a4,-2031 # 811 <_ZNK11flatbuffers5Table22GetOptionalFieldOffsetEt+0xd>
    31a4:	7f468693          	addi	a3,a3,2036 # 8004f980 <__stack_top+0xfff92b60>
    31a8:	82460613          	addi	a2,a2,-2012 # 8004f9b4 <__stack_top+0xfff92b94>
    31ac:	00000097          	auipc	ra,0x0
    31b0:	178080e7          	jalr	376(ra) # 3324 <_ZN6tflite13ErrorReporter11ReportErrorEPvPKcz>
    31b4:	00100493          	li	s1,1
    31b8:	01c12083          	lw	ra,28(sp)
    31bc:	01812403          	lw	s0,24(sp)
    31c0:	00048513          	mv	a0,s1
    31c4:	01012903          	lw	s2,16(sp)
    31c8:	01412483          	lw	s1,20(sp)
    31cc:	00c12983          	lw	s3,12(sp)
    31d0:	00812a03          	lw	s4,8(sp)
    31d4:	02010113          	addi	sp,sp,32
    31d8:	00008067          	ret
    31dc:	00098513          	mv	a0,s3
    31e0:	00000097          	auipc	ra,0x0
    31e4:	8ec080e7          	jalr	-1812(ra) # 2acc <_ZNK6tflite8Operator20builtin_options_typeEv>
    31e8:	01100793          	li	a5,17
    31ec:	04f51c63          	bne	a0,a5,3244 <_ZN6tflite12ParseReshapeEPKNS_8OperatorEPNS_13ErrorReporterEPNS_20BuiltinDataAllocatorEPPv+0x124>
    31f0:	00098513          	mv	a0,s3
    31f4:	fffff097          	auipc	ra,0xfffff
    31f8:	6e0080e7          	jalr	1760(ra) # 28d4 <_ZNK6tflite8Operator15builtin_optionsEv>
    31fc:	04050463          	beqz	a0,3244 <_ZN6tflite12ParseReshapeEPKNS_8OperatorEPNS_13ErrorReporterEPNS_20BuiltinDataAllocatorEPPv+0x124>
    3200:	00400593          	li	a1,4
    3204:	ffffe097          	auipc	ra,0xffffe
    3208:	8c4080e7          	jalr	-1852(ra) # ac8 <_ZN11flatbuffers5Table10GetPointerIPKNS_6VectorIlmEEmEET_t>
    320c:	00050993          	mv	s3,a0
    3210:	02050a63          	beqz	a0,3244 <_ZN6tflite12ParseReshapeEPKNS_8OperatorEPNS_13ErrorReporterEPNS_20BuiltinDataAllocatorEPPv+0x124>
    3214:	8004c717          	auipc	a4,0x8004c
    3218:	00048693          	mv	a3,s1
    321c:	00050593          	mv	a1,a0
    3220:	6dc70713          	addi	a4,a4,1756 # 8004f8f0 <__stack_top+0xfff92ad0>
    3224:	00040613          	mv	a2,s0
    3228:	02000513          	li	a0,32
    322c:	fffff097          	auipc	ra,0xfffff
    3230:	5ec080e7          	jalr	1516(ra) # 2818 <_ZN6tflite12_GLOBAL__N_1L26FlatBufferIntVectorToArrayIlEE12TfLiteStatusiPKN11flatbuffers6VectorIT_mEEPS5_PNS_13ErrorReporterEPKc>
    3234:	00050493          	mv	s1,a0
    3238:	00051c63          	bnez	a0,3250 <_ZN6tflite12ParseReshapeEPKNS_8OperatorEPNS_13ErrorReporterEPNS_20BuiltinDataAllocatorEPPv+0x130>
    323c:	0009a783          	lw	a5,0(s3)
    3240:	02f42023          	sw	a5,32(s0)
    3244:	008a2023          	sw	s0,0(s4)
    3248:	00000493          	li	s1,0
    324c:	f6dff06f          	j	31b8 <_ZN6tflite12ParseReshapeEPKNS_8OperatorEPNS_13ErrorReporterEPNS_20BuiltinDataAllocatorEPPv+0x98>
    3250:	00040593          	mv	a1,s0
    3254:	00090513          	mv	a0,s2
    3258:	fffff097          	auipc	ra,0xfffff
    325c:	670080e7          	jalr	1648(ra) # 28c8 <_ZN6tflite12_GLOBAL__N_124SafeBuiltinDataAllocator18BuiltinDataDeleterclEPv.isra.0>
    3260:	f59ff06f          	j	31b8 <_ZN6tflite12ParseReshapeEPKNS_8OperatorEPNS_13ErrorReporterEPNS_20BuiltinDataAllocatorEPPv+0x98>

00003264 <_ZN6tflite14GetBuiltinCodeEPKNS_12OperatorCodeE>:
    3264:	02051063          	bnez	a0,3284 <_ZN6tflite14GetBuiltinCodeEPKNS_12OperatorCodeE+0x20>
    3268:	7fffd517          	auipc	a0,0x7fffd
    326c:	ff010113          	addi	sp,sp,-16
    3270:	f6450513          	addi	a0,a0,-156 # 800001cc <_ZTVN6tflite22MicroMutableOpResolverILj5EEE+0x104>
    3274:	00112623          	sw	ra,12(sp)
    3278:	fffff097          	auipc	ra,0xfffff
    327c:	264080e7          	jalr	612(ra) # 24dc <_Z11MicroPrintfPKcz>
    3280:	0000006f          	j	3280 <_ZN6tflite14GetBuiltinCodeEPKNS_12OperatorCodeE+0x1c>
    3284:	00052703          	lw	a4,0(a0)
    3288:	00a00793          	li	a5,10
    328c:	40e50733          	sub	a4,a0,a4
    3290:	00075603          	lhu	a2,0(a4)
    3294:	02c7f863          	bgeu	a5,a2,32c4 <_ZN6tflite14GetBuiltinCodeEPKNS_12OperatorCodeE+0x60>
    3298:	00a75783          	lhu	a5,10(a4)
    329c:	00000693          	li	a3,0
    32a0:	00078663          	beqz	a5,32ac <_ZN6tflite14GetBuiltinCodeEPKNS_12OperatorCodeE+0x48>
    32a4:	00f507b3          	add	a5,a0,a5
    32a8:	0007a683          	lw	a3,0(a5)
    32ac:	00475703          	lhu	a4,4(a4)
    32b0:	00000793          	li	a5,0
    32b4:	02070063          	beqz	a4,32d4 <_ZN6tflite14GetBuiltinCodeEPKNS_12OperatorCodeE+0x70>
    32b8:	00e50533          	add	a0,a0,a4
    32bc:	00050783          	lb	a5,0(a0)
    32c0:	0140006f          	j	32d4 <_ZN6tflite14GetBuiltinCodeEPKNS_12OperatorCodeE+0x70>
    32c4:	00400593          	li	a1,4
    32c8:	00000693          	li	a3,0
    32cc:	00000793          	li	a5,0
    32d0:	fcc5eee3          	bltu	a1,a2,32ac <_ZN6tflite14GetBuiltinCodeEPKNS_12OperatorCodeE+0x48>
    32d4:	00078513          	mv	a0,a5
    32d8:	00d7d463          	bge	a5,a3,32e0 <_ZN6tflite14GetBuiltinCodeEPKNS_12OperatorCodeE+0x7c>
    32dc:	00068513          	mv	a0,a3
    32e0:	00008067          	ret

000032e4 <_ZN6tflite13ErrorReporter6ReportEPKcz>:
    32e4:	fc010113          	addi	sp,sp,-64
    32e8:	02c12423          	sw	a2,40(sp)
    32ec:	02d12623          	sw	a3,44(sp)
    32f0:	02e12823          	sw	a4,48(sp)
    32f4:	02f12a23          	sw	a5,52(sp)
    32f8:	03012c23          	sw	a6,56(sp)
    32fc:	03112e23          	sw	a7,60(sp)
    3300:	00052783          	lw	a5,0(a0)
    3304:	02810613          	addi	a2,sp,40
    3308:	00112e23          	sw	ra,28(sp)
    330c:	0087a783          	lw	a5,8(a5)
    3310:	00c12623          	sw	a2,12(sp)
    3314:	000780e7          	jalr	a5
    3318:	01c12083          	lw	ra,28(sp)
    331c:	04010113          	addi	sp,sp,64
    3320:	00008067          	ret

00003324 <_ZN6tflite13ErrorReporter11ReportErrorEPvPKcz>:
    3324:	fc010113          	addi	sp,sp,-64
    3328:	02d12623          	sw	a3,44(sp)
    332c:	02e12823          	sw	a4,48(sp)
    3330:	02f12a23          	sw	a5,52(sp)
    3334:	03012c23          	sw	a6,56(sp)
    3338:	03112e23          	sw	a7,60(sp)
    333c:	00052783          	lw	a5,0(a0)
    3340:	00060593          	mv	a1,a2
    3344:	02c10613          	addi	a2,sp,44
    3348:	0087a783          	lw	a5,8(a5)
    334c:	00112e23          	sw	ra,28(sp)
    3350:	00c12623          	sw	a2,12(sp)
    3354:	000780e7          	jalr	a5
    3358:	01c12083          	lw	ra,28(sp)
    335c:	04010113          	addi	sp,sp,64
    3360:	00008067          	ret

00003364 <_ZN6tflite12_GLOBAL__N_18ConvEvalEP13TfLiteContextP10TfLiteNode>:
    3364:	80050797          	auipc	a5,0x80050
    3368:	8847a603          	lw	a2,-1916(a5) # 80052be8 <__stack_top+0xfff95dc8>
    336c:	b8010113          	addi	sp,sp,-1152
    3370:	46112e23          	sw	ra,1148(sp)
    3374:	46912a23          	sw	s1,1140(sp)
    3378:	47212823          	sw	s2,1136(sp)
    337c:	47312623          	sw	s3,1132(sp)
    3380:	47412423          	sw	s4,1128(sp)
    3384:	47512223          	sw	s5,1124(sp)
    3388:	00058a13          	mv	s4,a1
    338c:	00050a93          	mv	s5,a0
    3390:	46812c23          	sw	s0,1144(sp)
    3394:	47612023          	sw	s6,1120(sp)
    3398:	45712e23          	sw	s7,1116(sp)
    339c:	45812c23          	sw	s8,1112(sp)
    33a0:	45912a23          	sw	s9,1108(sp)
    33a4:	45a12823          	sw	s10,1104(sp)
    33a8:	45b12623          	sw	s11,1100(sp)
    33ac:	00005097          	auipc	ra,0x5
    33b0:	db0080e7          	jalr	-592(ra) # 815c <_ZN6tflite5micro12GetEvalInputEPK13TfLiteContextPK10TfLiteNodei>
    33b4:	80050797          	auipc	a5,0x80050
    33b8:	83c7a603          	lw	a2,-1988(a5) # 80052bf0 <__stack_top+0xfff95dd0>
    33bc:	00050993          	mv	s3,a0
    33c0:	000a0593          	mv	a1,s4
    33c4:	000a8513          	mv	a0,s5
    33c8:	00005097          	auipc	ra,0x5
    33cc:	d94080e7          	jalr	-620(ra) # 815c <_ZN6tflite5micro12GetEvalInputEPK13TfLiteContextPK10TfLiteNodei>
    33d0:	000a2783          	lw	a5,0(s4)
    33d4:	00050913          	mv	s2,a0
    33d8:	00000493          	li	s1,0
    33dc:	00078a63          	beqz	a5,33f0 <_ZN6tflite12_GLOBAL__N_18ConvEvalEP13TfLiteContextP10TfLiteNode+0x8c>
    33e0:	0007a703          	lw	a4,0(a5)
    33e4:	00300793          	li	a5,3
    33e8:	00f71463          	bne	a4,a5,33f0 <_ZN6tflite12_GLOBAL__N_18ConvEvalEP13TfLiteContextP10TfLiteNode+0x8c>
    33ec:	68d0106f          	j	5278 <_ZN6tflite12_GLOBAL__N_18ConvEvalEP13TfLiteContextP10TfLiteNode+0x1f14>
    33f0:	8004f797          	auipc	a5,0x8004f
    33f4:	7fc7a603          	lw	a2,2044(a5) # 80052bec <__stack_top+0xfff95dcc>
    33f8:	000a0593          	mv	a1,s4
    33fc:	000a8513          	mv	a0,s5
    3400:	00005097          	auipc	ra,0x5
    3404:	d64080e7          	jalr	-668(ra) # 8164 <_ZN6tflite5micro13GetEvalOutputEPK13TfLiteContextPK10TfLiteNodei>
    3408:	010a2b03          	lw	s6,16(s4)
    340c:	00050413          	mv	s0,a0
    3410:	2e0b0a63          	beqz	s6,3704 <_ZN6tflite12_GLOBAL__N_18ConvEvalEP13TfLiteContextP10TfLiteNode+0x3a0>
    3414:	00ca2a03          	lw	s4,12(s4)
    3418:	2e0a0663          	beqz	s4,3704 <_ZN6tflite12_GLOBAL__N_18ConvEvalEP13TfLiteContextP10TfLiteNode+0x3a0>
    341c:	0089a503          	lw	a0,8(s3)
    3420:	00700793          	li	a5,7
    3424:	26f50ee3          	beq	a0,a5,3ea0 <_ZN6tflite12_GLOBAL__N_18ConvEvalEP13TfLiteContextP10TfLiteNode+0xb3c>
    3428:	00900793          	li	a5,9
    342c:	0af500e3          	beq	a0,a5,3ccc <_ZN6tflite12_GLOBAL__N_18ConvEvalEP13TfLiteContextP10TfLiteNode+0x968>
    3430:	00100793          	li	a5,1
    3434:	2cf50c63          	beq	a0,a5,370c <_ZN6tflite12_GLOBAL__N_18ConvEvalEP13TfLiteContextP10TfLiteNode+0x3a8>
    3438:	0000d097          	auipc	ra,0xd
    343c:	900080e7          	jalr	-1792(ra) # fd38 <TfLiteTypeGetName>
    3440:	0089a603          	lw	a2,8(s3)
    3444:	00050593          	mv	a1,a0
    3448:	8004c517          	auipc	a0,0x8004c
    344c:	6b450513          	addi	a0,a0,1716 # 8004fafc <__stack_top+0xfff92cdc>
    3450:	fffff097          	auipc	ra,0xfffff
    3454:	08c080e7          	jalr	140(ra) # 24dc <_Z11MicroPrintfPKcz>
    3458:	00100513          	li	a0,1
    345c:	47c12083          	lw	ra,1148(sp)
    3460:	47812403          	lw	s0,1144(sp)
    3464:	47412483          	lw	s1,1140(sp)
    3468:	47012903          	lw	s2,1136(sp)
    346c:	46c12983          	lw	s3,1132(sp)
    3470:	46812a03          	lw	s4,1128(sp)
    3474:	46412a83          	lw	s5,1124(sp)
    3478:	46012b03          	lw	s6,1120(sp)
    347c:	45c12b83          	lw	s7,1116(sp)
    3480:	45812c03          	lw	s8,1112(sp)
    3484:	45412c83          	lw	s9,1108(sp)
    3488:	45012d03          	lw	s10,1104(sp)
    348c:	44c12d83          	lw	s11,1100(sp)
    3490:	48010113          	addi	sp,sp,1152
    3494:	00008067          	ret
    3498:	00100713          	li	a4,1
    349c:	04012783          	lw	a5,64(sp)
    34a0:	26f71263          	bne	a4,a5,3704 <_ZN6tflite12_GLOBAL__N_18ConvEvalEP13TfLiteContextP10TfLiteNode+0x3a0>
    34a4:	25012783          	lw	a5,592(sp)
    34a8:	27412b83          	lw	s7,628(sp)
    34ac:	26c12703          	lw	a4,620(sp)
    34b0:	02f12a23          	sw	a5,52(sp)
    34b4:	25412783          	lw	a5,596(sp)
    34b8:	00e12a23          	sw	a4,20(sp)
    34bc:	27012d83          	lw	s11,624(sp)
    34c0:	02f12c23          	sw	a5,56(sp)
    34c4:	037647b3          	div	a5,a2,s7
    34c8:	22078e63          	beqz	a5,3704 <_ZN6tflite12_GLOBAL__N_18ConvEvalEP13TfLiteContextP10TfLiteNode+0x3a0>
    34cc:	03766633          	rem	a2,a2,s7
    34d0:	22061a63          	bnez	a2,3704 <_ZN6tflite12_GLOBAL__N_18ConvEvalEP13TfLiteContextP10TfLiteNode+0x3a0>
    34d4:	04012703          	lw	a4,64(sp)
    34d8:	02f747b3          	div	a5,a4,a5
    34dc:	04f12823          	sw	a5,80(sp)
    34e0:	22078263          	beqz	a5,3704 <_ZN6tflite12_GLOBAL__N_18ConvEvalEP13TfLiteContextP10TfLiteNode+0x3a0>
    34e4:	2a412783          	lw	a5,676(sp)
    34e8:	00000d13          	li	s10,0
    34ec:	000d8c13          	mv	s8,s11
    34f0:	06f12c23          	sw	a5,120(sp)
    34f4:	2a812783          	lw	a5,680(sp)
    34f8:	000d0d93          	mv	s11,s10
    34fc:	00400c93          	li	s9,4
    3500:	06f12823          	sw	a5,112(sp)
    3504:	07c12783          	lw	a5,124(sp)
    3508:	000b8d13          	mv	s10,s7
    350c:	72f05463          	blez	a5,3c34 <_ZN6tflite12_GLOBAL__N_18ConvEvalEP13TfLiteContextP10TfLiteNode+0x8d0>
    3510:	08412783          	lw	a5,132(sp)
    3514:	04012223          	sw	zero,68(sp)
    3518:	40f007b3          	neg	a5,a5
    351c:	04f12a23          	sw	a5,84(sp)
    3520:	07812783          	lw	a5,120(sp)
    3524:	00f04463          	bgtz	a5,352c <_ZN6tflite12_GLOBAL__N_18ConvEvalEP13TfLiteContextP10TfLiteNode+0x1c8>
    3528:	0b10106f          	j	4dd8 <_ZN6tflite12_GLOBAL__N_18ConvEvalEP13TfLiteContextP10TfLiteNode+0x1a74>
    352c:	08012783          	lw	a5,128(sp)
    3530:	02012e23          	sw	zero,60(sp)
    3534:	40f007b3          	neg	a5,a5
    3538:	00f12823          	sw	a5,16(sp)
    353c:	07012783          	lw	a5,112(sp)
    3540:	00f04463          	bgtz	a5,3548 <_ZN6tflite12_GLOBAL__N_18ConvEvalEP13TfLiteContextP10TfLiteNode+0x1e4>
    3544:	06d0106f          	j	4db0 <_ZN6tflite12_GLOBAL__N_18ConvEvalEP13TfLiteContextP10TfLiteNode+0x1a4c>
    3548:	000c0b93          	mv	s7,s8
    354c:	000d0c13          	mv	s8,s10
    3550:	000d8d13          	mv	s10,s11
    3554:	04012783          	lw	a5,64(sp)
    3558:	00000d93          	li	s11,0
    355c:	00f04463          	bgtz	a5,3564 <_ZN6tflite12_GLOBAL__N_18ConvEvalEP13TfLiteContextP10TfLiteNode+0x200>
    3560:	01d0106f          	j	4d7c <_ZN6tflite12_GLOBAL__N_18ConvEvalEP13TfLiteContextP10TfLiteNode+0x1a18>
    3564:	05012783          	lw	a5,80(sp)
    3568:	02fdcab3          	div	s5,s11,a5
    356c:	01412783          	lw	a5,20(sp)
    3570:	00f04463          	bgtz	a5,3578 <_ZN6tflite12_GLOBAL__N_18ConvEvalEP13TfLiteContextP10TfLiteNode+0x214>
    3574:	5d50106f          	j	5348 <_ZN6tflite12_GLOBAL__N_18ConvEvalEP13TfLiteContextP10TfLiteNode+0x1fe4>
    3578:	25012903          	lw	s2,592(sp)
    357c:	24812783          	lw	a5,584(sp)
    3580:	25412403          	lw	s0,596(sp)
    3584:	27012083          	lw	ra,624(sp)
    3588:	02f12223          	sw	a5,36(sp)
    358c:	26412783          	lw	a5,612(sp)
    3590:	26c12483          	lw	s1,620(sp)
    3594:	25812383          	lw	t2,600(sp)
    3598:	02f12023          	sw	a5,32(sp)
    359c:	05412783          	lw	a5,84(sp)
    35a0:	27412283          	lw	t0,628(sp)
    35a4:	24c12a03          	lw	s4,588(sp)
    35a8:	00078693          	mv	a3,a5
    35ac:	26812983          	lw	s3,616(sp)
    35b0:	00000893          	li	a7,0
    35b4:	00000513          	li	a0,0
    35b8:	03a90833          	mul	a6,s2,s10
    35bc:	00f80833          	add	a6,a6,a5
    35c0:	02880833          	mul	a6,a6,s0
    35c4:	01012783          	lw	a5,16(sp)
    35c8:	02148333          	mul	t1,s1,ra
    35cc:	00f80833          	add	a6,a6,a5
    35d0:	05812783          	lw	a5,88(sp)
    35d4:	038a8ab3          	mul	s5,s5,s8
    35d8:	02780833          	mul	a6,a6,t2
    35dc:	02530333          	mul	t1,t1,t0
    35e0:	01580833          	add	a6,a6,s5
    35e4:	01078833          	add	a6,a5,a6
    35e8:	025087b3          	mul	a5,ra,t0
    35ec:	03b30333          	mul	t1,t1,s11
    35f0:	02f12623          	sw	a5,44(sp)
    35f4:	04812783          	lw	a5,72(sp)
    35f8:	02740b33          	mul	s6,s0,t2
    35fc:	00678333          	add	t1,a5,t1
    3600:	01c12783          	lw	a5,28(sp)
    3604:	02fb0b33          	mul	s6,s6,a5
    3608:	01812783          	lw	a5,24(sp)
    360c:	027787b3          	mul	a5,a5,t2
    3610:	02f12423          	sw	a5,40(sp)
    3614:	05705663          	blez	s7,3660 <_ZN6tflite12_GLOBAL__N_18ConvEvalEP13TfLiteContextP10TfLiteNode+0x2fc>
    3618:	01012703          	lw	a4,16(sp)
    361c:	00080e93          	mv	t4,a6
    3620:	00030e13          	mv	t3,t1
    3624:	00000613          	li	a2,0
    3628:	00074e63          	bltz	a4,3644 <_ZN6tflite12_GLOBAL__N_18ConvEvalEP13TfLiteContextP10TfLiteNode+0x2e0>
    362c:	03812783          	lw	a5,56(sp)
    3630:	00f75a63          	bge	a4,a5,3644 <_ZN6tflite12_GLOBAL__N_18ConvEvalEP13TfLiteContextP10TfLiteNode+0x2e0>
    3634:	0006c863          	bltz	a3,3644 <_ZN6tflite12_GLOBAL__N_18ConvEvalEP13TfLiteContextP10TfLiteNode+0x2e0>
    3638:	03412783          	lw	a5,52(sp)
    363c:	00f6d463          	bge	a3,a5,3644 <_ZN6tflite12_GLOBAL__N_18ConvEvalEP13TfLiteContextP10TfLiteNode+0x2e0>
    3640:	0c50106f          	j	4f04 <_ZN6tflite12_GLOBAL__N_18ConvEvalEP13TfLiteContextP10TfLiteNode+0x1ba0>
    3644:	01812783          	lw	a5,24(sp)
    3648:	00160613          	addi	a2,a2,1
    364c:	005e0e33          	add	t3,t3,t0
    3650:	00f70733          	add	a4,a4,a5
    3654:	02812783          	lw	a5,40(sp)
    3658:	00fe8eb3          	add	t4,t4,a5
    365c:	fccb96e3          	bne	s7,a2,3628 <_ZN6tflite12_GLOBAL__N_18ConvEvalEP13TfLiteContextP10TfLiteNode+0x2c4>
    3660:	01c12783          	lw	a5,28(sp)
    3664:	00188893          	addi	a7,a7,1
    3668:	01680833          	add	a6,a6,s6
    366c:	00f686b3          	add	a3,a3,a5
    3670:	02c12783          	lw	a5,44(sp)
    3674:	00f30333          	add	t1,t1,a5
    3678:	01412783          	lw	a5,20(sp)
    367c:	f9179ce3          	bne	a5,a7,3614 <_ZN6tflite12_GLOBAL__N_18ConvEvalEP13TfLiteContextP10TfLiteNode+0x2b0>
    3680:	04c12703          	lw	a4,76(sp)
    3684:	00070a63          	beqz	a4,3698 <_ZN6tflite12_GLOBAL__N_18ConvEvalEP13TfLiteContextP10TfLiteNode+0x334>
    3688:	002d9793          	slli	a5,s11,0x2
    368c:	00f707b3          	add	a5,a4,a5
    3690:	0007a783          	lw	a5,0(a5)
    3694:	00f50533          	add	a0,a0,a5
    3698:	06012703          	lw	a4,96(sp)
    369c:	05c12683          	lw	a3,92(sp)
    36a0:	002d9793          	slli	a5,s11,0x2
    36a4:	00f70733          	add	a4,a4,a5
    36a8:	00f687b3          	add	a5,a3,a5
    36ac:	00072603          	lw	a2,0(a4)
    36b0:	0007a583          	lw	a1,0(a5)
    36b4:	0000b097          	auipc	ra,0xb
    36b8:	7a4080e7          	jalr	1956(ra) # ee58 <_ZN6tflite29MultiplyByQuantizedMultiplierElli>
    36bc:	06412783          	lw	a5,100(sp)
    36c0:	00a78533          	add	a0,a5,a0
    36c4:	06812783          	lw	a5,104(sp)
    36c8:	00078713          	mv	a4,a5
    36cc:	00f54a63          	blt	a0,a5,36e0 <_ZN6tflite12_GLOBAL__N_18ConvEvalEP13TfLiteContextP10TfLiteNode+0x37c>
    36d0:	07412783          	lw	a5,116(sp)
    36d4:	00078713          	mv	a4,a5
    36d8:	00f55463          	bge	a0,a5,36e0 <_ZN6tflite12_GLOBAL__N_18ConvEvalEP13TfLiteContextP10TfLiteNode+0x37c>
    36dc:	00050713          	mv	a4,a0
    36e0:	29c12783          	lw	a5,668(sp)
    36e4:	01871713          	slli	a4,a4,0x18
    36e8:	41875713          	srai	a4,a4,0x18
    36ec:	01979c63          	bne	a5,s9,3704 <_ZN6tflite12_GLOBAL__N_18ConvEvalEP13TfLiteContextP10TfLiteNode+0x3a0>
    36f0:	2a012783          	lw	a5,672(sp)
    36f4:	00078463          	beqz	a5,36fc <_ZN6tflite12_GLOBAL__N_18ConvEvalEP13TfLiteContextP10TfLiteNode+0x398>
    36f8:	6080106f          	j	4d00 <_ZN6tflite12_GLOBAL__N_18ConvEvalEP13TfLiteContextP10TfLiteNode+0x199c>
    36fc:	000d1463          	bnez	s10,3704 <_ZN6tflite12_GLOBAL__N_18ConvEvalEP13TfLiteContextP10TfLiteNode+0x3a0>
    3700:	6080106f          	j	4d08 <_ZN6tflite12_GLOBAL__N_18ConvEvalEP13TfLiteContextP10TfLiteNode+0x19a4>
    3704:	ffffe097          	auipc	ra,0xffffe
    3708:	e60080e7          	jalr	-416(ra) # 1564 <_Z9AbortImplv>
    370c:	32810513          	addi	a0,sp,808
    3710:	000b0593          	mv	a1,s6
    3714:	000a0613          	mv	a2,s4
    3718:	00002097          	auipc	ra,0x2
    371c:	cd8080e7          	jalr	-808(ra) # 53f0 <_ZN6tflite15ConvParamsFloatERK16TfLiteConvParamsRKNS_10OpDataConvE>
    3720:	00098593          	mv	a1,s3
    3724:	0dc10513          	addi	a0,sp,220
    3728:	00005097          	auipc	ra,0x5
    372c:	a6c080e7          	jalr	-1428(ra) # 8194 <_ZN6tflite5micro14GetTensorShapeEPK16TfLiteEvalTensor>
    3730:	fc098ae3          	beqz	s3,3704 <_ZN6tflite12_GLOBAL__N_18ConvEvalEP13TfLiteContextP10TfLiteNode+0x3a0>
    3734:	0009a783          	lw	a5,0(s3)
    3738:	00090593          	mv	a1,s2
    373c:	0f810513          	addi	a0,sp,248
    3740:	06f12823          	sw	a5,112(sp)
    3744:	00005097          	auipc	ra,0x5
    3748:	a50080e7          	jalr	-1456(ra) # 8194 <_ZN6tflite5micro14GetTensorShapeEPK16TfLiteEvalTensor>
    374c:	fa090ce3          	beqz	s2,3704 <_ZN6tflite12_GLOBAL__N_18ConvEvalEP13TfLiteContextP10TfLiteNode+0x3a0>
    3750:	00092783          	lw	a5,0(s2)
    3754:	00048593          	mv	a1,s1
    3758:	11410513          	addi	a0,sp,276
    375c:	08f12823          	sw	a5,144(sp)
    3760:	00005097          	auipc	ra,0x5
    3764:	a34080e7          	jalr	-1484(ra) # 8194 <_ZN6tflite5micro14GetTensorShapeEPK16TfLiteEvalTensor>
    3768:	00049463          	bnez	s1,3770 <_ZN6tflite12_GLOBAL__N_18ConvEvalEP13TfLiteContextP10TfLiteNode+0x40c>
    376c:	3cd0106f          	j	5338 <_ZN6tflite12_GLOBAL__N_18ConvEvalEP13TfLiteContextP10TfLiteNode+0x1fd4>
    3770:	0004a783          	lw	a5,0(s1)
    3774:	04f12e23          	sw	a5,92(sp)
    3778:	00040593          	mv	a1,s0
    377c:	13010513          	addi	a0,sp,304
    3780:	00005097          	auipc	ra,0x5
    3784:	a14080e7          	jalr	-1516(ra) # 8194 <_ZN6tflite5micro14GetTensorShapeEPK16TfLiteEvalTensor>
    3788:	f6040ee3          	beqz	s0,3704 <_ZN6tflite12_GLOBAL__N_18ConvEvalEP13TfLiteContextP10TfLiteNode+0x3a0>
    378c:	00000593          	li	a1,0
    3790:	14c10513          	addi	a0,sp,332
    3794:	00042403          	lw	s0,0(s0)
    3798:	00005097          	auipc	ra,0x5
    379c:	9fc080e7          	jalr	-1540(ra) # 8194 <_ZN6tflite5micro14GetTensorShapeEPK16TfLiteEvalTensor>
    37a0:	33211683          	lh	a3,818(sp)
    37a4:	0dc12703          	lw	a4,220(sp)
    37a8:	00400793          	li	a5,4
    37ac:	08d12623          	sw	a3,140(sp)
    37b0:	33411683          	lh	a3,820(sp)
    37b4:	0ad12023          	sw	a3,160(sp)
    37b8:	33611683          	lh	a3,822(sp)
    37bc:	02d12623          	sw	a3,44(sp)
    37c0:	33811683          	lh	a3,824(sp)
    37c4:	02d12823          	sw	a3,48(sp)
    37c8:	32a11683          	lh	a3,810(sp)
    37cc:	08d12223          	sw	a3,132(sp)
    37d0:	32c11683          	lh	a3,812(sp)
    37d4:	08d12423          	sw	a3,136(sp)
    37d8:	35812683          	lw	a3,856(sp)
    37dc:	06d12423          	sw	a3,104(sp)
    37e0:	35c12683          	lw	a3,860(sp)
    37e4:	06d12623          	sw	a3,108(sp)
    37e8:	f0f71ee3          	bne	a4,a5,3704 <_ZN6tflite12_GLOBAL__N_18ConvEvalEP13TfLiteContextP10TfLiteNode+0x3a0>
    37ec:	0f812783          	lw	a5,248(sp)
    37f0:	f0e79ae3          	bne	a5,a4,3704 <_ZN6tflite12_GLOBAL__N_18ConvEvalEP13TfLiteContextP10TfLiteNode+0x3a0>
    37f4:	13012703          	lw	a4,304(sp)
    37f8:	f0f716e3          	bne	a4,a5,3704 <_ZN6tflite12_GLOBAL__N_18ConvEvalEP13TfLiteContextP10TfLiteNode+0x3a0>
    37fc:	0e012783          	lw	a5,224(sp)
    3800:	00078713          	mv	a4,a5
    3804:	08f12a23          	sw	a5,148(sp)
    3808:	13412783          	lw	a5,308(sp)
    380c:	eef71ce3          	bne	a4,a5,3704 <_ZN6tflite12_GLOBAL__N_18ConvEvalEP13TfLiteContextP10TfLiteNode+0x3a0>
    3810:	0fc12783          	lw	a5,252(sp)
    3814:	14012583          	lw	a1,320(sp)
    3818:	0ec12d03          	lw	s10,236(sp)
    381c:	02f12423          	sw	a5,40(sp)
    3820:	eeb792e3          	bne	a5,a1,3704 <_ZN6tflite12_GLOBAL__N_18ConvEvalEP13TfLiteContextP10TfLiteNode+0x3a0>
    3824:	05c12783          	lw	a5,92(sp)
    3828:	02078c63          	beqz	a5,3860 <_ZN6tflite12_GLOBAL__N_18ConvEvalEP13TfLiteContextP10TfLiteNode+0x4fc>
    382c:	11412603          	lw	a2,276(sp)
    3830:	00c04463          	bgtz	a2,3838 <_ZN6tflite12_GLOBAL__N_18ConvEvalEP13TfLiteContextP10TfLiteNode+0x4d4>
    3834:	3310106f          	j	5364 <_ZN6tflite12_GLOBAL__N_18ConvEvalEP13TfLiteContextP10TfLiteNode+0x2000>
    3838:	11810793          	addi	a5,sp,280
    383c:	00261613          	slli	a2,a2,0x2
    3840:	00f60633          	add	a2,a2,a5
    3844:	00100713          	li	a4,1
    3848:	0007a683          	lw	a3,0(a5)
    384c:	00478793          	addi	a5,a5,4
    3850:	02d70733          	mul	a4,a4,a3
    3854:	fef61ae3          	bne	a2,a5,3848 <_ZN6tflite12_GLOBAL__N_18ConvEvalEP13TfLiteContextP10TfLiteNode+0x4e4>
    3858:	02812783          	lw	a5,40(sp)
    385c:	eae794e3          	bne	a5,a4,3704 <_ZN6tflite12_GLOBAL__N_18ConvEvalEP13TfLiteContextP10TfLiteNode+0x3a0>
    3860:	0e412783          	lw	a5,228(sp)
    3864:	10812a83          	lw	s5,264(sp)
    3868:	10012a03          	lw	s4,256(sp)
    386c:	02f12a23          	sw	a5,52(sp)
    3870:	0e812783          	lw	a5,232(sp)
    3874:	10412b03          	lw	s6,260(sp)
    3878:	02f12c23          	sw	a5,56(sp)
    387c:	035d47b3          	div	a5,s10,s5
    3880:	e80782e3          	beqz	a5,3704 <_ZN6tflite12_GLOBAL__N_18ConvEvalEP13TfLiteContextP10TfLiteNode+0x3a0>
    3884:	035d6733          	rem	a4,s10,s5
    3888:	e6071ee3          	bnez	a4,3704 <_ZN6tflite12_GLOBAL__N_18ConvEvalEP13TfLiteContextP10TfLiteNode+0x3a0>
    388c:	02812703          	lw	a4,40(sp)
    3890:	02f747b3          	div	a5,a4,a5
    3894:	06f12023          	sw	a5,96(sp)
    3898:	e60786e3          	beqz	a5,3704 <_ZN6tflite12_GLOBAL__N_18ConvEvalEP13TfLiteContextP10TfLiteNode+0x3a0>
    389c:	13812783          	lw	a5,312(sp)
    38a0:	06f12c23          	sw	a5,120(sp)
    38a4:	13c12783          	lw	a5,316(sp)
    38a8:	06f12a23          	sw	a5,116(sp)
    38ac:	09412783          	lw	a5,148(sp)
    38b0:	38f05263          	blez	a5,3c34 <_ZN6tflite12_GLOBAL__N_18ConvEvalEP13TfLiteContextP10TfLiteNode+0x8d0>
    38b4:	03812703          	lw	a4,56(sp)
    38b8:	08812783          	lw	a5,136(sp)
    38bc:	00259693          	slli	a3,a1,0x2
    38c0:	0ad12a23          	sw	a3,180(sp)
    38c4:	02e787b3          	mul	a5,a5,a4
    38c8:	002a9693          	slli	a3,s5,0x2
    38cc:	04d12823          	sw	a3,80(sp)
    38d0:	08412683          	lw	a3,132(sp)
    38d4:	07412883          	lw	a7,116(sp)
    38d8:	03412803          	lw	a6,52(sp)
    38dc:	0a812223          	sw	s0,164(sp)
    38e0:	0a012e23          	sw	zero,188(sp)
    38e4:	01412e23          	sw	s4,28(sp)
    38e8:	40f007b3          	neg	a5,a5
    38ec:	40d787b3          	sub	a5,a5,a3
    38f0:	07812683          	lw	a3,120(sp)
    38f4:	03a787b3          	mul	a5,a5,s10
    38f8:	03168633          	mul	a2,a3,a7
    38fc:	0af12423          	sw	a5,168(sp)
    3900:	0a012783          	lw	a5,160(sp)
    3904:	02b60633          	mul	a2,a2,a1
    3908:	036a06b3          	mul	a3,s4,s6
    390c:	00261613          	slli	a2,a2,0x2
    3910:	0cc12423          	sw	a2,200(sp)
    3914:	03012603          	lw	a2,48(sp)
    3918:	03a70533          	mul	a0,a4,s10
    391c:	035686b3          	mul	a3,a3,s5
    3920:	02e80833          	mul	a6,a6,a4
    3924:	00269693          	slli	a3,a3,0x2
    3928:	06d12e23          	sw	a3,124(sp)
    392c:	02b88733          	mul	a4,a7,a1
    3930:	02a605b3          	mul	a1,a2,a0
    3934:	00271713          	slli	a4,a4,0x2
    3938:	0ce12223          	sw	a4,196(sp)
    393c:	02a787b3          	mul	a5,a5,a0
    3940:	00259693          	slli	a3,a1,0x2
    3944:	04d12423          	sw	a3,72(sp)
    3948:	02c12683          	lw	a3,44(sp)
    394c:	036a8633          	mul	a2,s5,s6
    3950:	0cf12023          	sw	a5,192(sp)
    3954:	08c12783          	lw	a5,140(sp)
    3958:	00261613          	slli	a2,a2,0x2
    395c:	02dd06b3          	mul	a3,s10,a3
    3960:	04c12223          	sw	a2,68(sp)
    3964:	02fd07b3          	mul	a5,s10,a5
    3968:	00269693          	slli	a3,a3,0x2
    396c:	04d12623          	sw	a3,76(sp)
    3970:	03a80633          	mul	a2,a6,s10
    3974:	0af12823          	sw	a5,176(sp)
    3978:	0cc12623          	sw	a2,204(sp)
    397c:	07812783          	lw	a5,120(sp)
    3980:	28f05063          	blez	a5,3c00 <_ZN6tflite12_GLOBAL__N_18ConvEvalEP13TfLiteContextP10TfLiteNode+0x89c>
    3984:	08812783          	lw	a5,136(sp)
    3988:	0a012c23          	sw	zero,184(sp)
    398c:	40f007b3          	neg	a5,a5
    3990:	06f12223          	sw	a5,100(sp)
    3994:	0a812783          	lw	a5,168(sp)
    3998:	08f12c23          	sw	a5,152(sp)
    399c:	0a412783          	lw	a5,164(sp)
    39a0:	08f12e23          	sw	a5,156(sp)
    39a4:	07412783          	lw	a5,116(sp)
    39a8:	20f05a63          	blez	a5,3bbc <_ZN6tflite12_GLOBAL__N_18ConvEvalEP13TfLiteContextP10TfLiteNode+0x858>
    39ac:	08412783          	lw	a5,132(sp)
    39b0:	0a012623          	sw	zero,172(sp)
    39b4:	40f007b3          	neg	a5,a5
    39b8:	02f12e23          	sw	a5,60(sp)
    39bc:	09812783          	lw	a5,152(sp)
    39c0:	04f12c23          	sw	a5,88(sp)
    39c4:	09c12783          	lw	a5,156(sp)
    39c8:	08f12023          	sw	a5,128(sp)
    39cc:	09012783          	lw	a5,144(sp)
    39d0:	00000413          	li	s0,0
    39d4:	00f12c23          	sw	a5,24(sp)
    39d8:	08012783          	lw	a5,128(sp)
    39dc:	04f12023          	sw	a5,64(sp)
    39e0:	02812783          	lw	a5,40(sp)
    39e4:	18f05a63          	blez	a5,3b78 <_ZN6tflite12_GLOBAL__N_18ConvEvalEP13TfLiteContextP10TfLiteNode+0x814>
    39e8:	06012783          	lw	a5,96(sp)
    39ec:	02f44833          	div	a6,s0,a5
    39f0:	01c12783          	lw	a5,28(sp)
    39f4:	00f04463          	bgtz	a5,39fc <_ZN6tflite12_GLOBAL__N_18ConvEvalEP13TfLiteContextP10TfLiteNode+0x698>
    39f8:	1090106f          	j	5300 <_ZN6tflite12_GLOBAL__N_18ConvEvalEP13TfLiteContextP10TfLiteNode+0x1f9c>
    39fc:	05812783          	lw	a5,88(sp)
    3a00:	01812903          	lw	s2,24(sp)
    3a04:	06412a03          	lw	s4,100(sp)
    3a08:	00000b93          	li	s7,0
    3a0c:	00000d93          	li	s11,0
    3a10:	000b8613          	mv	a2,s7
    3a14:	04812a23          	sw	s0,84(sp)
    3a18:	000d0b93          	mv	s7,s10
    3a1c:	00090d13          	mv	s10,s2
    3a20:	03580c33          	mul	s8,a6,s5
    3a24:	000a8813          	mv	a6,s5
    3a28:	00fc0733          	add	a4,s8,a5
    3a2c:	07012783          	lw	a5,112(sp)
    3a30:	00271713          	slli	a4,a4,0x2
    3a34:	03812223          	sw	s8,36(sp)
    3a38:	00e78cb3          	add	s9,a5,a4
    3a3c:	015c07b3          	add	a5,s8,s5
    3a40:	02f12023          	sw	a5,32(sp)
    3a44:	000d8a93          	mv	s5,s11
    3a48:	000c8793          	mv	a5,s9
    3a4c:	07605a63          	blez	s6,3ac0 <_ZN6tflite12_GLOBAL__N_18ConvEvalEP13TfLiteContextP10TfLiteNode+0x75c>
    3a50:	03c12983          	lw	s3,60(sp)
    3a54:	000d0c93          	mv	s9,s10
    3a58:	000a8713          	mv	a4,s5
    3a5c:	000d0693          	mv	a3,s10
    3a60:	000a0a93          	mv	s5,s4
    3a64:	00078c13          	mv	s8,a5
    3a68:	00000913          	li	s2,0
    3a6c:	00080d13          	mv	s10,a6
    3a70:	00060a13          	mv	s4,a2
    3a74:	0009cc63          	bltz	s3,3a8c <_ZN6tflite12_GLOBAL__N_18ConvEvalEP13TfLiteContextP10TfLiteNode+0x728>
    3a78:	03812603          	lw	a2,56(sp)
    3a7c:	00c9d863          	bge	s3,a2,3a8c <_ZN6tflite12_GLOBAL__N_18ConvEvalEP13TfLiteContextP10TfLiteNode+0x728>
    3a80:	000ac663          	bltz	s5,3a8c <_ZN6tflite12_GLOBAL__N_18ConvEvalEP13TfLiteContextP10TfLiteNode+0x728>
    3a84:	03412603          	lw	a2,52(sp)
    3a88:	1acaca63          	blt	s5,a2,3c3c <_ZN6tflite12_GLOBAL__N_18ConvEvalEP13TfLiteContextP10TfLiteNode+0x8d8>
    3a8c:	02c12603          	lw	a2,44(sp)
    3a90:	00190913          	addi	s2,s2,1
    3a94:	00c989b3          	add	s3,s3,a2
    3a98:	04c12603          	lw	a2,76(sp)
    3a9c:	00cc0c33          	add	s8,s8,a2
    3aa0:	05012603          	lw	a2,80(sp)
    3aa4:	00cc8cb3          	add	s9,s9,a2
    3aa8:	fd2b16e3          	bne	s6,s2,3a74 <_ZN6tflite12_GLOBAL__N_18ConvEvalEP13TfLiteContextP10TfLiteNode+0x710>
    3aac:	000d0813          	mv	a6,s10
    3ab0:	000a0613          	mv	a2,s4
    3ab4:	00068d13          	mv	s10,a3
    3ab8:	000a8a13          	mv	s4,s5
    3abc:	00070a93          	mv	s5,a4
    3ac0:	03012703          	lw	a4,48(sp)
    3ac4:	001a8a93          	addi	s5,s5,1
    3ac8:	00ea0a33          	add	s4,s4,a4
    3acc:	04812703          	lw	a4,72(sp)
    3ad0:	00e787b3          	add	a5,a5,a4
    3ad4:	04412703          	lw	a4,68(sp)
    3ad8:	00ed0d33          	add	s10,s10,a4
    3adc:	01c12703          	lw	a4,28(sp)
    3ae0:	f75716e3          	bne	a4,s5,3a4c <_ZN6tflite12_GLOBAL__N_18ConvEvalEP13TfLiteContextP10TfLiteNode+0x6e8>
    3ae4:	05412403          	lw	s0,84(sp)
    3ae8:	000b8d13          	mv	s10,s7
    3aec:	00080a93          	mv	s5,a6
    3af0:	00060b93          	mv	s7,a2
    3af4:	05c12703          	lw	a4,92(sp)
    3af8:	00000513          	li	a0,0
    3afc:	00070863          	beqz	a4,3b0c <_ZN6tflite12_GLOBAL__N_18ConvEvalEP13TfLiteContextP10TfLiteNode+0x7a8>
    3b00:	00241793          	slli	a5,s0,0x2
    3b04:	00f707b3          	add	a5,a4,a5
    3b08:	0007a503          	lw	a0,0(a5)
    3b0c:	000b8593          	mv	a1,s7
    3b10:	00010097          	auipc	ra,0x10
    3b14:	1bc080e7          	jalr	444(ra) # 13ccc <__addsf3>
    3b18:	00050993          	mv	s3,a0
    3b1c:	00050593          	mv	a1,a0
    3b20:	06812503          	lw	a0,104(sp)
    3b24:	00011097          	auipc	ra,0x11
    3b28:	99c080e7          	jalr	-1636(ra) # 144c0 <__gesf2>
    3b2c:	00a05463          	blez	a0,3b34 <_ZN6tflite12_GLOBAL__N_18ConvEvalEP13TfLiteContextP10TfLiteNode+0x7d0>
    3b30:	06812983          	lw	s3,104(sp)
    3b34:	06c12503          	lw	a0,108(sp)
    3b38:	00098593          	mv	a1,s3
    3b3c:	00011097          	auipc	ra,0x11
    3b40:	a40080e7          	jalr	-1472(ra) # 1457c <__lesf2>
    3b44:	00055463          	bgez	a0,3b4c <_ZN6tflite12_GLOBAL__N_18ConvEvalEP13TfLiteContextP10TfLiteNode+0x7e8>
    3b48:	06c12983          	lw	s3,108(sp)
    3b4c:	04012783          	lw	a5,64(sp)
    3b50:	07c12703          	lw	a4,124(sp)
    3b54:	00140413          	addi	s0,s0,1
    3b58:	0137a023          	sw	s3,0(a5)
    3b5c:	00478793          	addi	a5,a5,4
    3b60:	04f12023          	sw	a5,64(sp)
    3b64:	01812783          	lw	a5,24(sp)
    3b68:	00e787b3          	add	a5,a5,a4
    3b6c:	00f12c23          	sw	a5,24(sp)
    3b70:	02812783          	lw	a5,40(sp)
    3b74:	e6f41ae3          	bne	s0,a5,39e8 <_ZN6tflite12_GLOBAL__N_18ConvEvalEP13TfLiteContextP10TfLiteNode+0x684>
    3b78:	08012703          	lw	a4,128(sp)
    3b7c:	0b412683          	lw	a3,180(sp)
    3b80:	0ac12783          	lw	a5,172(sp)
    3b84:	00d70733          	add	a4,a4,a3
    3b88:	08e12023          	sw	a4,128(sp)
    3b8c:	08c12683          	lw	a3,140(sp)
    3b90:	03c12703          	lw	a4,60(sp)
    3b94:	00178793          	addi	a5,a5,1
    3b98:	0af12623          	sw	a5,172(sp)
    3b9c:	00d70733          	add	a4,a4,a3
    3ba0:	02e12e23          	sw	a4,60(sp)
    3ba4:	0b012683          	lw	a3,176(sp)
    3ba8:	05812703          	lw	a4,88(sp)
    3bac:	00d70733          	add	a4,a4,a3
    3bb0:	04e12c23          	sw	a4,88(sp)
    3bb4:	07412703          	lw	a4,116(sp)
    3bb8:	e0f71ae3          	bne	a4,a5,39cc <_ZN6tflite12_GLOBAL__N_18ConvEvalEP13TfLiteContextP10TfLiteNode+0x668>
    3bbc:	09c12703          	lw	a4,156(sp)
    3bc0:	0c412683          	lw	a3,196(sp)
    3bc4:	0b812783          	lw	a5,184(sp)
    3bc8:	00d70733          	add	a4,a4,a3
    3bcc:	08e12e23          	sw	a4,156(sp)
    3bd0:	0c012683          	lw	a3,192(sp)
    3bd4:	09812703          	lw	a4,152(sp)
    3bd8:	00178793          	addi	a5,a5,1
    3bdc:	0af12c23          	sw	a5,184(sp)
    3be0:	00d70733          	add	a4,a4,a3
    3be4:	08e12c23          	sw	a4,152(sp)
    3be8:	0a012683          	lw	a3,160(sp)
    3bec:	06412703          	lw	a4,100(sp)
    3bf0:	00d70733          	add	a4,a4,a3
    3bf4:	06e12223          	sw	a4,100(sp)
    3bf8:	07812703          	lw	a4,120(sp)
    3bfc:	daf714e3          	bne	a4,a5,39a4 <_ZN6tflite12_GLOBAL__N_18ConvEvalEP13TfLiteContextP10TfLiteNode+0x640>
    3c00:	0a412703          	lw	a4,164(sp)
    3c04:	0c812683          	lw	a3,200(sp)
    3c08:	0bc12783          	lw	a5,188(sp)
    3c0c:	00d70733          	add	a4,a4,a3
    3c10:	0ae12223          	sw	a4,164(sp)
    3c14:	0cc12683          	lw	a3,204(sp)
    3c18:	0a812703          	lw	a4,168(sp)
    3c1c:	00178793          	addi	a5,a5,1
    3c20:	0af12e23          	sw	a5,188(sp)
    3c24:	00d70733          	add	a4,a4,a3
    3c28:	0ae12423          	sw	a4,168(sp)
    3c2c:	09412703          	lw	a4,148(sp)
    3c30:	d4e796e3          	bne	a5,a4,397c <_ZN6tflite12_GLOBAL__N_18ConvEvalEP13TfLiteContextP10TfLiteNode+0x618>
    3c34:	00000513          	li	a0,0
    3c38:	825ff06f          	j	345c <_ZN6tflite12_GLOBAL__N_18ConvEvalEP13TfLiteContextP10TfLiteNode+0xf8>
    3c3c:	e5a058e3          	blez	s10,3a8c <_ZN6tflite12_GLOBAL__N_18ConvEvalEP13TfLiteContextP10TfLiteNode+0x728>
    3c40:	02412403          	lw	s0,36(sp)
    3c44:	000c0493          	mv	s1,s8
    3c48:	01812623          	sw	s8,12(sp)
    3c4c:	01312823          	sw	s3,16(sp)
    3c50:	01512a23          	sw	s5,20(sp)
    3c54:	000c8d93          	mv	s11,s9
    3c58:	00078c13          	mv	s8,a5
    3c5c:	00070993          	mv	s3,a4
    3c60:	00068a93          	mv	s5,a3
    3c64:	040b9e63          	bnez	s7,3cc0 <_ZN6tflite12_GLOBAL__N_18ConvEvalEP13TfLiteContextP10TfLiteNode+0x95c>
    3c68:	a8041ee3          	bnez	s0,3704 <_ZN6tflite12_GLOBAL__N_18ConvEvalEP13TfLiteContextP10TfLiteNode+0x3a0>
    3c6c:	000da583          	lw	a1,0(s11)
    3c70:	0004a503          	lw	a0,0(s1)
    3c74:	00140413          	addi	s0,s0,1
    3c78:	00448493          	addi	s1,s1,4
    3c7c:	00011097          	auipc	ra,0x11
    3c80:	9bc080e7          	jalr	-1604(ra) # 14638 <__mulsf3>
    3c84:	00050593          	mv	a1,a0
    3c88:	000a0513          	mv	a0,s4
    3c8c:	00010097          	auipc	ra,0x10
    3c90:	040080e7          	jalr	64(ra) # 13ccc <__addsf3>
    3c94:	02012783          	lw	a5,32(sp)
    3c98:	00050a13          	mv	s4,a0
    3c9c:	004d8d93          	addi	s11,s11,4
    3ca0:	fc8792e3          	bne	a5,s0,3c64 <_ZN6tflite12_GLOBAL__N_18ConvEvalEP13TfLiteContextP10TfLiteNode+0x900>
    3ca4:	00098713          	mv	a4,s3
    3ca8:	000a8693          	mv	a3,s5
    3cac:	000c0793          	mv	a5,s8
    3cb0:	01012983          	lw	s3,16(sp)
    3cb4:	00c12c03          	lw	s8,12(sp)
    3cb8:	01412a83          	lw	s5,20(sp)
    3cbc:	dd1ff06f          	j	3a8c <_ZN6tflite12_GLOBAL__N_18ConvEvalEP13TfLiteContextP10TfLiteNode+0x728>
    3cc0:	a40442e3          	bltz	s0,3704 <_ZN6tflite12_GLOBAL__N_18ConvEvalEP13TfLiteContextP10TfLiteNode+0x3a0>
    3cc4:	fb7444e3          	blt	s0,s7,3c6c <_ZN6tflite12_GLOBAL__N_18ConvEvalEP13TfLiteContextP10TfLiteNode+0x908>
    3cc8:	a3dff06f          	j	3704 <_ZN6tflite12_GLOBAL__N_18ConvEvalEP13TfLiteContextP10TfLiteNode+0x3a0>
    3ccc:	00892783          	lw	a5,8(s2)
    3cd0:	6ca78663          	beq	a5,a0,439c <_ZN6tflite12_GLOBAL__N_18ConvEvalEP13TfLiteContextP10TfLiteNode+0x1038>
    3cd4:	01200713          	li	a4,18
    3cd8:	68e79c63          	bne	a5,a4,4370 <_ZN6tflite12_GLOBAL__N_18ConvEvalEP13TfLiteContextP10TfLiteNode+0x100c>
    3cdc:	044aa783          	lw	a5,68(s5)
    3ce0:	034a2583          	lw	a1,52(s4)
    3ce4:	000a8513          	mv	a0,s5
    3ce8:	000780e7          	jalr	a5
    3cec:	04a12423          	sw	a0,72(sp)
    3cf0:	a0090ae3          	beqz	s2,3704 <_ZN6tflite12_GLOBAL__N_18ConvEvalEP13TfLiteContextP10TfLiteNode+0x3a0>
    3cf4:	00090593          	mv	a1,s2
    3cf8:	40810513          	addi	a0,sp,1032
    3cfc:	00092a83          	lw	s5,0(s2)
    3d00:	00004097          	auipc	ra,0x4
    3d04:	494080e7          	jalr	1172(ra) # 8194 <_ZN6tflite5micro14GetTensorShapeEPK16TfLiteEvalTensor>
    3d08:	40812683          	lw	a3,1032(sp)
    3d0c:	00d04463          	bgtz	a3,3d14 <_ZN6tflite12_GLOBAL__N_18ConvEvalEP13TfLiteContextP10TfLiteNode+0x9b0>
    3d10:	6740106f          	j	5384 <_ZN6tflite12_GLOBAL__N_18ConvEvalEP13TfLiteContextP10TfLiteNode+0x2020>
    3d14:	40c10793          	addi	a5,sp,1036
    3d18:	00269693          	slli	a3,a3,0x2
    3d1c:	00d786b3          	add	a3,a5,a3
    3d20:	00100593          	li	a1,1
    3d24:	0007a703          	lw	a4,0(a5)
    3d28:	00478793          	addi	a5,a5,4
    3d2c:	02e585b3          	mul	a1,a1,a4
    3d30:	fed79ae3          	bne	a5,a3,3d24 <_ZN6tflite12_GLOBAL__N_18ConvEvalEP13TfLiteContextP10TfLiteNode+0x9c0>
    3d34:	04812603          	lw	a2,72(sp)
    3d38:	000a8513          	mv	a0,s5
    3d3c:	0000b097          	auipc	ra,0xb
    3d40:	684080e7          	jalr	1668(ra) # f3c0 <_ZN6tflite12tensor_utils23UnpackDenseInt4IntoInt8EPKaiPa>
    3d44:	000b0593          	mv	a1,s6
    3d48:	3d010513          	addi	a0,sp,976
    3d4c:	000a0613          	mv	a2,s4
    3d50:	00001097          	auipc	ra,0x1
    3d54:	79c080e7          	jalr	1948(ra) # 54ec <_ZN6tflite19ConvParamsQuantizedERK16TfLiteConvParamsRKNS_10OpDataConvE>
    3d58:	024a2783          	lw	a5,36(s4)
    3d5c:	00098593          	mv	a1,s3
    3d60:	24810513          	addi	a0,sp,584
    3d64:	04f12e23          	sw	a5,92(sp)
    3d68:	028a2783          	lw	a5,40(s4)
    3d6c:	06f12023          	sw	a5,96(sp)
    3d70:	00004097          	auipc	ra,0x4
    3d74:	424080e7          	jalr	1060(ra) # 8194 <_ZN6tflite5micro14GetTensorShapeEPK16TfLiteEvalTensor>
    3d78:	980986e3          	beqz	s3,3704 <_ZN6tflite12_GLOBAL__N_18ConvEvalEP13TfLiteContextP10TfLiteNode+0x3a0>
    3d7c:	0009a783          	lw	a5,0(s3)
    3d80:	26410513          	addi	a0,sp,612
    3d84:	00090593          	mv	a1,s2
    3d88:	04f12c23          	sw	a5,88(sp)
    3d8c:	00004097          	auipc	ra,0x4
    3d90:	408080e7          	jalr	1032(ra) # 8194 <_ZN6tflite5micro14GetTensorShapeEPK16TfLiteEvalTensor>
    3d94:	00048593          	mv	a1,s1
    3d98:	28010513          	addi	a0,sp,640
    3d9c:	00004097          	auipc	ra,0x4
    3da0:	3f8080e7          	jalr	1016(ra) # 8194 <_ZN6tflite5micro14GetTensorShapeEPK16TfLiteEvalTensor>
    3da4:	00049463          	bnez	s1,3dac <_ZN6tflite12_GLOBAL__N_18ConvEvalEP13TfLiteContextP10TfLiteNode+0xa48>
    3da8:	5cc0106f          	j	5374 <_ZN6tflite12_GLOBAL__N_18ConvEvalEP13TfLiteContextP10TfLiteNode+0x2010>
    3dac:	0004a783          	lw	a5,0(s1)
    3db0:	04f12623          	sw	a5,76(sp)
    3db4:	00040593          	mv	a1,s0
    3db8:	29c10513          	addi	a0,sp,668
    3dbc:	00004097          	auipc	ra,0x4
    3dc0:	3d8080e7          	jalr	984(ra) # 8194 <_ZN6tflite5micro14GetTensorShapeEPK16TfLiteEvalTensor>
    3dc4:	940400e3          	beqz	s0,3704 <_ZN6tflite12_GLOBAL__N_18ConvEvalEP13TfLiteContextP10TfLiteNode+0x3a0>
    3dc8:	00042683          	lw	a3,0(s0)
    3dcc:	3f812783          	lw	a5,1016(sp)
    3dd0:	3fc12703          	lw	a4,1020(sp)
    3dd4:	06d12623          	sw	a3,108(sp)
    3dd8:	3e412683          	lw	a3,996(sp)
    3ddc:	06f12423          	sw	a5,104(sp)
    3de0:	06e12a23          	sw	a4,116(sp)
    3de4:	02d12823          	sw	a3,48(sp)
    3de8:	3da11683          	lh	a3,986(sp)
    3dec:	08d12423          	sw	a3,136(sp)
    3df0:	3dc11683          	lh	a3,988(sp)
    3df4:	08d12623          	sw	a3,140(sp)
    3df8:	3de11683          	lh	a3,990(sp)
    3dfc:	00d12c23          	sw	a3,24(sp)
    3e00:	3e011683          	lh	a3,992(sp)
    3e04:	00d12e23          	sw	a3,28(sp)
    3e08:	3d211683          	lh	a3,978(sp)
    3e0c:	08d12023          	sw	a3,128(sp)
    3e10:	3d411683          	lh	a3,980(sp)
    3e14:	08d12223          	sw	a3,132(sp)
    3e18:	3ec12683          	lw	a3,1004(sp)
    3e1c:	06d12223          	sw	a3,100(sp)
    3e20:	8ef742e3          	blt	a4,a5,3704 <_ZN6tflite12_GLOBAL__N_18ConvEvalEP13TfLiteContextP10TfLiteNode+0x3a0>
    3e24:	24812703          	lw	a4,584(sp)
    3e28:	00400793          	li	a5,4
    3e2c:	8cf71ce3          	bne	a4,a5,3704 <_ZN6tflite12_GLOBAL__N_18ConvEvalEP13TfLiteContextP10TfLiteNode+0x3a0>
    3e30:	26412783          	lw	a5,612(sp)
    3e34:	8ce798e3          	bne	a5,a4,3704 <_ZN6tflite12_GLOBAL__N_18ConvEvalEP13TfLiteContextP10TfLiteNode+0x3a0>
    3e38:	29c12703          	lw	a4,668(sp)
    3e3c:	8cf714e3          	bne	a4,a5,3704 <_ZN6tflite12_GLOBAL__N_18ConvEvalEP13TfLiteContextP10TfLiteNode+0x3a0>
    3e40:	24c12783          	lw	a5,588(sp)
    3e44:	00078713          	mv	a4,a5
    3e48:	06f12e23          	sw	a5,124(sp)
    3e4c:	2a012783          	lw	a5,672(sp)
    3e50:	8af71ae3          	bne	a4,a5,3704 <_ZN6tflite12_GLOBAL__N_18ConvEvalEP13TfLiteContextP10TfLiteNode+0x3a0>
    3e54:	26812783          	lw	a5,616(sp)
    3e58:	25812603          	lw	a2,600(sp)
    3e5c:	00078713          	mv	a4,a5
    3e60:	04f12023          	sw	a5,64(sp)
    3e64:	2ac12783          	lw	a5,684(sp)
    3e68:	88f71ee3          	bne	a4,a5,3704 <_ZN6tflite12_GLOBAL__N_18ConvEvalEP13TfLiteContextP10TfLiteNode+0x3a0>
    3e6c:	04c12783          	lw	a5,76(sp)
    3e70:	e2078a63          	beqz	a5,34a4 <_ZN6tflite12_GLOBAL__N_18ConvEvalEP13TfLiteContextP10TfLiteNode+0x140>
    3e74:	28012583          	lw	a1,640(sp)
    3e78:	e2b05063          	blez	a1,3498 <_ZN6tflite12_GLOBAL__N_18ConvEvalEP13TfLiteContextP10TfLiteNode+0x134>
    3e7c:	28410793          	addi	a5,sp,644
    3e80:	00259593          	slli	a1,a1,0x2
    3e84:	00b785b3          	add	a1,a5,a1
    3e88:	00100713          	li	a4,1
    3e8c:	0007a683          	lw	a3,0(a5)
    3e90:	00478793          	addi	a5,a5,4
    3e94:	02d70733          	mul	a4,a4,a3
    3e98:	feb79ae3          	bne	a5,a1,3e8c <_ZN6tflite12_GLOBAL__N_18ConvEvalEP13TfLiteContextP10TfLiteNode+0xb28>
    3e9c:	e00ff06f          	j	349c <_ZN6tflite12_GLOBAL__N_18ConvEvalEP13TfLiteContextP10TfLiteNode+0x138>
    3ea0:	180484e3          	beqz	s1,4828 <_ZN6tflite12_GLOBAL__N_18ConvEvalEP13TfLiteContextP10TfLiteNode+0x14c4>
    3ea4:	0084a503          	lw	a0,8(s1)
    3ea8:	00200793          	li	a5,2
    3eac:	16f50ee3          	beq	a0,a5,4828 <_ZN6tflite12_GLOBAL__N_18ConvEvalEP13TfLiteContextP10TfLiteNode+0x14c4>
    3eb0:	00400793          	li	a5,4
    3eb4:	00f50463          	beq	a0,a5,3ebc <_ZN6tflite12_GLOBAL__N_18ConvEvalEP13TfLiteContextP10TfLiteNode+0xb58>
    3eb8:	4500106f          	j	5308 <_ZN6tflite12_GLOBAL__N_18ConvEvalEP13TfLiteContextP10TfLiteNode+0x1fa4>
    3ebc:	000b0593          	mv	a1,s6
    3ec0:	39810513          	addi	a0,sp,920
    3ec4:	000a0613          	mv	a2,s4
    3ec8:	00001097          	auipc	ra,0x1
    3ecc:	624080e7          	jalr	1572(ra) # 54ec <_ZN6tflite19ConvParamsQuantizedERK16TfLiteConvParamsRKNS_10OpDataConvE>
    3ed0:	024a2783          	lw	a5,36(s4)
    3ed4:	00098593          	mv	a1,s3
    3ed8:	1d810513          	addi	a0,sp,472
    3edc:	04f12e23          	sw	a5,92(sp)
    3ee0:	028a2783          	lw	a5,40(s4)
    3ee4:	06f12023          	sw	a5,96(sp)
    3ee8:	00004097          	auipc	ra,0x4
    3eec:	2ac080e7          	jalr	684(ra) # 8194 <_ZN6tflite5micro14GetTensorShapeEPK16TfLiteEvalTensor>
    3ef0:	80098ae3          	beqz	s3,3704 <_ZN6tflite12_GLOBAL__N_18ConvEvalEP13TfLiteContextP10TfLiteNode+0x3a0>
    3ef4:	0009a783          	lw	a5,0(s3)
    3ef8:	00090593          	mv	a1,s2
    3efc:	1f410513          	addi	a0,sp,500
    3f00:	04f12a23          	sw	a5,84(sp)
    3f04:	00004097          	auipc	ra,0x4
    3f08:	290080e7          	jalr	656(ra) # 8194 <_ZN6tflite5micro14GetTensorShapeEPK16TfLiteEvalTensor>
    3f0c:	fe090c63          	beqz	s2,3704 <_ZN6tflite12_GLOBAL__N_18ConvEvalEP13TfLiteContextP10TfLiteNode+0x3a0>
    3f10:	00092783          	lw	a5,0(s2)
    3f14:	00048593          	mv	a1,s1
    3f18:	21010513          	addi	a0,sp,528
    3f1c:	04f12c23          	sw	a5,88(sp)
    3f20:	00004097          	auipc	ra,0x4
    3f24:	274080e7          	jalr	628(ra) # 8194 <_ZN6tflite5micro14GetTensorShapeEPK16TfLiteEvalTensor>
    3f28:	0004a483          	lw	s1,0(s1)
    3f2c:	00040593          	mv	a1,s0
    3f30:	22c10513          	addi	a0,sp,556
    3f34:	06912223          	sw	s1,100(sp)
    3f38:	00004097          	auipc	ra,0x4
    3f3c:	25c080e7          	jalr	604(ra) # 8194 <_ZN6tflite5micro14GetTensorShapeEPK16TfLiteEvalTensor>
    3f40:	fc040263          	beqz	s0,3704 <_ZN6tflite12_GLOBAL__N_18ConvEvalEP13TfLiteContextP10TfLiteNode+0x3a0>
    3f44:	00042683          	lw	a3,0(s0)
    3f48:	3c012783          	lw	a5,960(sp)
    3f4c:	3c412703          	lw	a4,964(sp)
    3f50:	06d12423          	sw	a3,104(sp)
    3f54:	3a211683          	lh	a3,930(sp)
    3f58:	06f12623          	sw	a5,108(sp)
    3f5c:	06e12a23          	sw	a4,116(sp)
    3f60:	08d12423          	sw	a3,136(sp)
    3f64:	3a411683          	lh	a3,932(sp)
    3f68:	08d12623          	sw	a3,140(sp)
    3f6c:	3a611683          	lh	a3,934(sp)
    3f70:	00d12c23          	sw	a3,24(sp)
    3f74:	3a811683          	lh	a3,936(sp)
    3f78:	00d12e23          	sw	a3,28(sp)
    3f7c:	39a11683          	lh	a3,922(sp)
    3f80:	08d12023          	sw	a3,128(sp)
    3f84:	39c11683          	lh	a3,924(sp)
    3f88:	08d12223          	sw	a3,132(sp)
    3f8c:	f6f74c63          	blt	a4,a5,3704 <_ZN6tflite12_GLOBAL__N_18ConvEvalEP13TfLiteContextP10TfLiteNode+0x3a0>
    3f90:	1d812783          	lw	a5,472(sp)
    3f94:	00400713          	li	a4,4
    3f98:	f6e79663          	bne	a5,a4,3704 <_ZN6tflite12_GLOBAL__N_18ConvEvalEP13TfLiteContextP10TfLiteNode+0x3a0>
    3f9c:	1f412703          	lw	a4,500(sp)
    3fa0:	f6f71263          	bne	a4,a5,3704 <_ZN6tflite12_GLOBAL__N_18ConvEvalEP13TfLiteContextP10TfLiteNode+0x3a0>
    3fa4:	22c12783          	lw	a5,556(sp)
    3fa8:	f4e79e63          	bne	a5,a4,3704 <_ZN6tflite12_GLOBAL__N_18ConvEvalEP13TfLiteContextP10TfLiteNode+0x3a0>
    3fac:	1dc12783          	lw	a5,476(sp)
    3fb0:	00078713          	mv	a4,a5
    3fb4:	06f12e23          	sw	a5,124(sp)
    3fb8:	23012783          	lw	a5,560(sp)
    3fbc:	f4f71463          	bne	a4,a5,3704 <_ZN6tflite12_GLOBAL__N_18ConvEvalEP13TfLiteContextP10TfLiteNode+0x3a0>
    3fc0:	1f812783          	lw	a5,504(sp)
    3fc4:	1e812583          	lw	a1,488(sp)
    3fc8:	00078713          	mv	a4,a5
    3fcc:	04f12223          	sw	a5,68(sp)
    3fd0:	23c12783          	lw	a5,572(sp)
    3fd4:	f2f71863          	bne	a4,a5,3704 <_ZN6tflite12_GLOBAL__N_18ConvEvalEP13TfLiteContextP10TfLiteNode+0x3a0>
    3fd8:	02048c63          	beqz	s1,4010 <_ZN6tflite12_GLOBAL__N_18ConvEvalEP13TfLiteContextP10TfLiteNode+0xcac>
    3fdc:	21012603          	lw	a2,528(sp)
    3fe0:	00c04463          	bgtz	a2,3fe8 <_ZN6tflite12_GLOBAL__N_18ConvEvalEP13TfLiteContextP10TfLiteNode+0xc84>
    3fe4:	3b80106f          	j	539c <_ZN6tflite12_GLOBAL__N_18ConvEvalEP13TfLiteContextP10TfLiteNode+0x2038>
    3fe8:	21410793          	addi	a5,sp,532
    3fec:	00261613          	slli	a2,a2,0x2
    3ff0:	00f60633          	add	a2,a2,a5
    3ff4:	00100713          	li	a4,1
    3ff8:	0007a683          	lw	a3,0(a5)
    3ffc:	00478793          	addi	a5,a5,4
    4000:	02d70733          	mul	a4,a4,a3
    4004:	fec79ae3          	bne	a5,a2,3ff8 <_ZN6tflite12_GLOBAL__N_18ConvEvalEP13TfLiteContextP10TfLiteNode+0xc94>
    4008:	04412783          	lw	a5,68(sp)
    400c:	eee79c63          	bne	a5,a4,3704 <_ZN6tflite12_GLOBAL__N_18ConvEvalEP13TfLiteContextP10TfLiteNode+0x3a0>
    4010:	1e012783          	lw	a5,480(sp)
    4014:	20412c83          	lw	s9,516(sp)
    4018:	1fc12703          	lw	a4,508(sp)
    401c:	02f12c23          	sw	a5,56(sp)
    4020:	1e412783          	lw	a5,484(sp)
    4024:	00e12a23          	sw	a4,20(sp)
    4028:	20012d03          	lw	s10,512(sp)
    402c:	02f12e23          	sw	a5,60(sp)
    4030:	0395e7b3          	rem	a5,a1,s9
    4034:	0395c5b3          	div	a1,a1,s9
    4038:	ec079663          	bnez	a5,3704 <_ZN6tflite12_GLOBAL__N_18ConvEvalEP13TfLiteContextP10TfLiteNode+0x3a0>
    403c:	23412783          	lw	a5,564(sp)
    4040:	00000b13          	li	s6,0
    4044:	00400d93          	li	s11,4
    4048:	06f12c23          	sw	a5,120(sp)
    404c:	23812783          	lw	a5,568(sp)
    4050:	000b0a93          	mv	s5,s6
    4054:	06f12823          	sw	a5,112(sp)
    4058:	04412783          	lw	a5,68(sp)
    405c:	02b7c7b3          	div	a5,a5,a1
    4060:	04f12623          	sw	a5,76(sp)
    4064:	07c12783          	lw	a5,124(sp)
    4068:	bcf056e3          	blez	a5,3c34 <_ZN6tflite12_GLOBAL__N_18ConvEvalEP13TfLiteContextP10TfLiteNode+0x8d0>
    406c:	08412783          	lw	a5,132(sp)
    4070:	04012423          	sw	zero,72(sp)
    4074:	40f007b3          	neg	a5,a5
    4078:	04f12823          	sw	a5,80(sp)
    407c:	07812783          	lw	a5,120(sp)
    4080:	2cf05e63          	blez	a5,435c <_ZN6tflite12_GLOBAL__N_18ConvEvalEP13TfLiteContextP10TfLiteNode+0xff8>
    4084:	000c8c13          	mv	s8,s9
    4088:	000d0c93          	mv	s9,s10
    408c:	000a8d13          	mv	s10,s5
    4090:	08012783          	lw	a5,128(sp)
    4094:	04012023          	sw	zero,64(sp)
    4098:	40f007b3          	neg	a5,a5
    409c:	00f12823          	sw	a5,16(sp)
    40a0:	07012783          	lw	a5,112(sp)
    40a4:	28f05463          	blez	a5,432c <_ZN6tflite12_GLOBAL__N_18ConvEvalEP13TfLiteContextP10TfLiteNode+0xfc8>
    40a8:	000c8793          	mv	a5,s9
    40ac:	000d0c93          	mv	s9,s10
    40b0:	00078d13          	mv	s10,a5
    40b4:	04412783          	lw	a5,68(sp)
    40b8:	00000b93          	li	s7,0
    40bc:	24f05063          	blez	a5,42fc <_ZN6tflite12_GLOBAL__N_18ConvEvalEP13TfLiteContextP10TfLiteNode+0xf98>
    40c0:	04c12783          	lw	a5,76(sp)
    40c4:	01412703          	lw	a4,20(sp)
    40c8:	02fbc7b3          	div	a5,s7,a5
    40cc:	00e04463          	bgtz	a4,40d4 <_ZN6tflite12_GLOBAL__N_18ConvEvalEP13TfLiteContextP10TfLiteNode+0xd70>
    40d0:	2880106f          	j	5358 <_ZN6tflite12_GLOBAL__N_18ConvEvalEP13TfLiteContextP10TfLiteNode+0x1ff4>
    40d4:	1e012a03          	lw	s4,480(sp)
    40d8:	1d812703          	lw	a4,472(sp)
    40dc:	1e412903          	lw	s2,484(sp)
    40e0:	20012483          	lw	s1,512(sp)
    40e4:	02e12a23          	sw	a4,52(sp)
    40e8:	1f412703          	lw	a4,500(sp)
    40ec:	1fc12983          	lw	s3,508(sp)
    40f0:	1e812403          	lw	s0,488(sp)
    40f4:	02e12023          	sw	a4,32(sp)
    40f8:	05012703          	lw	a4,80(sp)
    40fc:	20412383          	lw	t2,516(sp)
    4100:	1dc12b03          	lw	s6,476(sp)
    4104:	00070613          	mv	a2,a4
    4108:	1f812a83          	lw	s5,504(sp)
    410c:	00000e13          	li	t3,0
    4110:	00000513          	li	a0,0
    4114:	00000593          	li	a1,0
    4118:	034c8333          	mul	t1,s9,s4
    411c:	00e30333          	add	t1,t1,a4
    4120:	03230333          	mul	t1,t1,s2
    4124:	01012703          	lw	a4,16(sp)
    4128:	02998eb3          	mul	t4,s3,s1
    412c:	00e30333          	add	t1,t1,a4
    4130:	038787b3          	mul	a5,a5,s8
    4134:	02830333          	mul	t1,t1,s0
    4138:	02f12423          	sw	a5,40(sp)
    413c:	027e8eb3          	mul	t4,t4,t2
    4140:	00f30333          	add	t1,t1,a5
    4144:	05412783          	lw	a5,84(sp)
    4148:	00131313          	slli	t1,t1,0x1
    414c:	00678333          	add	t1,a5,t1
    4150:	01c12783          	lw	a5,28(sp)
    4154:	03240733          	mul	a4,s0,s2
    4158:	037e8eb3          	mul	t4,t4,s7
    415c:	02f70733          	mul	a4,a4,a5
    4160:	05812783          	lw	a5,88(sp)
    4164:	01d78eb3          	add	t4,a5,t4
    4168:	01812783          	lw	a5,24(sp)
    416c:	00171713          	slli	a4,a4,0x1
    4170:	02f407b3          	mul	a5,s0,a5
    4174:	02e12223          	sw	a4,36(sp)
    4178:	02938733          	mul	a4,t2,s1
    417c:	00179793          	slli	a5,a5,0x1
    4180:	02f12823          	sw	a5,48(sp)
    4184:	02e12623          	sw	a4,44(sp)
    4188:	05a05863          	blez	s10,41d8 <_ZN6tflite12_GLOBAL__N_18ConvEvalEP13TfLiteContextP10TfLiteNode+0xe74>
    418c:	01012683          	lw	a3,16(sp)
    4190:	00030293          	mv	t0,t1
    4194:	000e8f93          	mv	t6,t4
    4198:	00000893          	li	a7,0
    419c:	00030093          	mv	ra,t1
    41a0:	0006cc63          	bltz	a3,41b8 <_ZN6tflite12_GLOBAL__N_18ConvEvalEP13TfLiteContextP10TfLiteNode+0xe54>
    41a4:	03c12783          	lw	a5,60(sp)
    41a8:	00f6d863          	bge	a3,a5,41b8 <_ZN6tflite12_GLOBAL__N_18ConvEvalEP13TfLiteContextP10TfLiteNode+0xe54>
    41ac:	00064663          	bltz	a2,41b8 <_ZN6tflite12_GLOBAL__N_18ConvEvalEP13TfLiteContextP10TfLiteNode+0xe54>
    41b0:	03812783          	lw	a5,56(sp)
    41b4:	42f64ee3          	blt	a2,a5,4df0 <_ZN6tflite12_GLOBAL__N_18ConvEvalEP13TfLiteContextP10TfLiteNode+0x1a8c>
    41b8:	01812783          	lw	a5,24(sp)
    41bc:	00188893          	addi	a7,a7,1
    41c0:	007f8fb3          	add	t6,t6,t2
    41c4:	00f686b3          	add	a3,a3,a5
    41c8:	03012783          	lw	a5,48(sp)
    41cc:	00f282b3          	add	t0,t0,a5
    41d0:	fd1d18e3          	bne	s10,a7,41a0 <_ZN6tflite12_GLOBAL__N_18ConvEvalEP13TfLiteContextP10TfLiteNode+0xe3c>
    41d4:	00008313          	mv	t1,ra
    41d8:	01c12783          	lw	a5,28(sp)
    41dc:	001e0e13          	addi	t3,t3,1
    41e0:	00f60633          	add	a2,a2,a5
    41e4:	02c12783          	lw	a5,44(sp)
    41e8:	00fe8eb3          	add	t4,t4,a5
    41ec:	02412783          	lw	a5,36(sp)
    41f0:	00f30333          	add	t1,t1,a5
    41f4:	01412783          	lw	a5,20(sp)
    41f8:	f9c798e3          	bne	a5,t3,4188 <_ZN6tflite12_GLOBAL__N_18ConvEvalEP13TfLiteContextP10TfLiteNode+0xe24>
    41fc:	06412783          	lw	a5,100(sp)
    4200:	02078463          	beqz	a5,4228 <_ZN6tflite12_GLOBAL__N_18ConvEvalEP13TfLiteContextP10TfLiteNode+0xec4>
    4204:	003b9713          	slli	a4,s7,0x3
    4208:	00e78733          	add	a4,a5,a4
    420c:	00072783          	lw	a5,0(a4)
    4210:	00472703          	lw	a4,4(a4)
    4214:	00f507b3          	add	a5,a0,a5
    4218:	00a7b6b3          	sltu	a3,a5,a0
    421c:	00e585b3          	add	a1,a1,a4
    4220:	00078513          	mv	a0,a5
    4224:	00b685b3          	add	a1,a3,a1
    4228:	05c12683          	lw	a3,92(sp)
    422c:	06012703          	lw	a4,96(sp)
    4230:	002b9793          	slli	a5,s7,0x2
    4234:	00f70733          	add	a4,a4,a5
    4238:	00f687b3          	add	a5,a3,a5
    423c:	0007a603          	lw	a2,0(a5)
    4240:	00072683          	lw	a3,0(a4)
    4244:	0000b097          	auipc	ra,0xb
    4248:	d2c080e7          	jalr	-724(ra) # ef70 <_ZN6tflite29MultiplyByQuantizedMultiplierExli>
    424c:	06c12783          	lw	a5,108(sp)
    4250:	00078713          	mv	a4,a5
    4254:	00f54a63          	blt	a0,a5,4268 <_ZN6tflite12_GLOBAL__N_18ConvEvalEP13TfLiteContextP10TfLiteNode+0xf04>
    4258:	07412783          	lw	a5,116(sp)
    425c:	00078713          	mv	a4,a5
    4260:	00f55463          	bge	a0,a5,4268 <_ZN6tflite12_GLOBAL__N_18ConvEvalEP13TfLiteContextP10TfLiteNode+0xf04>
    4264:	0cc0106f          	j	5330 <_ZN6tflite12_GLOBAL__N_18ConvEvalEP13TfLiteContextP10TfLiteNode+0x1fcc>
    4268:	22c12783          	lw	a5,556(sp)
    426c:	01071713          	slli	a4,a4,0x10
    4270:	41075713          	srai	a4,a4,0x10
    4274:	c9b79863          	bne	a5,s11,3704 <_ZN6tflite12_GLOBAL__N_18ConvEvalEP13TfLiteContextP10TfLiteNode+0x3a0>
    4278:	23012783          	lw	a5,560(sp)
    427c:	00078463          	beqz	a5,4284 <_ZN6tflite12_GLOBAL__N_18ConvEvalEP13TfLiteContextP10TfLiteNode+0xf20>
    4280:	0500106f          	j	52d0 <_ZN6tflite12_GLOBAL__N_18ConvEvalEP13TfLiteContextP10TfLiteNode+0x1f6c>
    4284:	c80c9063          	bnez	s9,3704 <_ZN6tflite12_GLOBAL__N_18ConvEvalEP13TfLiteContextP10TfLiteNode+0x3a0>
    4288:	23412783          	lw	a5,564(sp)
    428c:	04812683          	lw	a3,72(sp)
    4290:	00078463          	beqz	a5,4298 <_ZN6tflite12_GLOBAL__N_18ConvEvalEP13TfLiteContextP10TfLiteNode+0xf34>
    4294:	0540106f          	j	52e8 <_ZN6tflite12_GLOBAL__N_18ConvEvalEP13TfLiteContextP10TfLiteNode+0x1f84>
    4298:	c6069663          	bnez	a3,3704 <_ZN6tflite12_GLOBAL__N_18ConvEvalEP13TfLiteContextP10TfLiteNode+0x3a0>
    429c:	23812603          	lw	a2,568(sp)
    42a0:	04012683          	lw	a3,64(sp)
    42a4:	00060463          	beqz	a2,42ac <_ZN6tflite12_GLOBAL__N_18ConvEvalEP13TfLiteContextP10TfLiteNode+0xf48>
    42a8:	0340106f          	j	52dc <_ZN6tflite12_GLOBAL__N_18ConvEvalEP13TfLiteContextP10TfLiteNode+0x1f78>
    42ac:	c4069c63          	bnez	a3,3704 <_ZN6tflite12_GLOBAL__N_18ConvEvalEP13TfLiteContextP10TfLiteNode+0x3a0>
    42b0:	23c12683          	lw	a3,572(sp)
    42b4:	00068463          	beqz	a3,42bc <_ZN6tflite12_GLOBAL__N_18ConvEvalEP13TfLiteContextP10TfLiteNode+0xf58>
    42b8:	03c0106f          	j	52f4 <_ZN6tflite12_GLOBAL__N_18ConvEvalEP13TfLiteContextP10TfLiteNode+0x1f90>
    42bc:	c40b9463          	bnez	s7,3704 <_ZN6tflite12_GLOBAL__N_18ConvEvalEP13TfLiteContextP10TfLiteNode+0x3a0>
    42c0:	02fc87b3          	mul	a5,s9,a5
    42c4:	04812583          	lw	a1,72(sp)
    42c8:	00b787b3          	add	a5,a5,a1
    42cc:	02c787b3          	mul	a5,a5,a2
    42d0:	04012603          	lw	a2,64(sp)
    42d4:	00c787b3          	add	a5,a5,a2
    42d8:	02d787b3          	mul	a5,a5,a3
    42dc:	06812683          	lw	a3,104(sp)
    42e0:	017787b3          	add	a5,a5,s7
    42e4:	00179793          	slli	a5,a5,0x1
    42e8:	00f687b3          	add	a5,a3,a5
    42ec:	00e79023          	sh	a4,0(a5)
    42f0:	04412783          	lw	a5,68(sp)
    42f4:	001b8b93          	addi	s7,s7,1
    42f8:	dcfb94e3          	bne	s7,a5,40c0 <_ZN6tflite12_GLOBAL__N_18ConvEvalEP13TfLiteContextP10TfLiteNode+0xd5c>
    42fc:	01012703          	lw	a4,16(sp)
    4300:	08812683          	lw	a3,136(sp)
    4304:	04012783          	lw	a5,64(sp)
    4308:	00d70733          	add	a4,a4,a3
    430c:	00e12823          	sw	a4,16(sp)
    4310:	07012703          	lw	a4,112(sp)
    4314:	00178793          	addi	a5,a5,1
    4318:	04f12023          	sw	a5,64(sp)
    431c:	d8f71ce3          	bne	a4,a5,40b4 <_ZN6tflite12_GLOBAL__N_18ConvEvalEP13TfLiteContextP10TfLiteNode+0xd50>
    4320:	000d0793          	mv	a5,s10
    4324:	000c8d13          	mv	s10,s9
    4328:	00078c93          	mv	s9,a5
    432c:	05012703          	lw	a4,80(sp)
    4330:	08c12683          	lw	a3,140(sp)
    4334:	04812783          	lw	a5,72(sp)
    4338:	00d70733          	add	a4,a4,a3
    433c:	04e12823          	sw	a4,80(sp)
    4340:	07812703          	lw	a4,120(sp)
    4344:	00178793          	addi	a5,a5,1
    4348:	04f12423          	sw	a5,72(sp)
    434c:	d4f712e3          	bne	a4,a5,4090 <_ZN6tflite12_GLOBAL__N_18ConvEvalEP13TfLiteContextP10TfLiteNode+0xd2c>
    4350:	000d0a93          	mv	s5,s10
    4354:	000c8d13          	mv	s10,s9
    4358:	000c0c93          	mv	s9,s8
    435c:	07c12783          	lw	a5,124(sp)
    4360:	001a8a93          	addi	s5,s5,1
    4364:	d0fa94e3          	bne	s5,a5,406c <_ZN6tflite12_GLOBAL__N_18ConvEvalEP13TfLiteContextP10TfLiteNode+0xd08>
    4368:	00000513          	li	a0,0
    436c:	8f0ff06f          	j	345c <_ZN6tflite12_GLOBAL__N_18ConvEvalEP13TfLiteContextP10TfLiteNode+0xf8>
    4370:	00078513          	mv	a0,a5
    4374:	0000c097          	auipc	ra,0xc
    4378:	9c4080e7          	jalr	-1596(ra) # fd38 <TfLiteTypeGetName>
    437c:	00892603          	lw	a2,8(s2)
    4380:	00050593          	mv	a1,a0
    4384:	8004b517          	auipc	a0,0x8004b
    4388:	75450513          	addi	a0,a0,1876 # 8004fad8 <__stack_top+0xfff92cb8>
    438c:	ffffe097          	auipc	ra,0xffffe
    4390:	150080e7          	jalr	336(ra) # 24dc <_Z11MicroPrintfPKcz>
    4394:	00100513          	li	a0,1
    4398:	8c4ff06f          	j	345c <_ZN6tflite12_GLOBAL__N_18ConvEvalEP13TfLiteContextP10TfLiteNode+0xf8>
    439c:	000b0593          	mv	a1,s6
    43a0:	40810513          	addi	a0,sp,1032
    43a4:	000a0613          	mv	a2,s4
    43a8:	00001097          	auipc	ra,0x1
    43ac:	144080e7          	jalr	324(ra) # 54ec <_ZN6tflite19ConvParamsQuantizedERK16TfLiteConvParamsRKNS_10OpDataConvE>
    43b0:	024a2783          	lw	a5,36(s4)
    43b4:	00098593          	mv	a1,s3
    43b8:	2b810513          	addi	a0,sp,696
    43bc:	04f12e23          	sw	a5,92(sp)
    43c0:	028a2783          	lw	a5,40(s4)
    43c4:	06f12023          	sw	a5,96(sp)
    43c8:	00004097          	auipc	ra,0x4
    43cc:	dcc080e7          	jalr	-564(ra) # 8194 <_ZN6tflite5micro14GetTensorShapeEPK16TfLiteEvalTensor>
    43d0:	b2098a63          	beqz	s3,3704 <_ZN6tflite12_GLOBAL__N_18ConvEvalEP13TfLiteContextP10TfLiteNode+0x3a0>
    43d4:	0009a783          	lw	a5,0(s3)
    43d8:	00090593          	mv	a1,s2
    43dc:	2d410513          	addi	a0,sp,724
    43e0:	04f12c23          	sw	a5,88(sp)
    43e4:	00004097          	auipc	ra,0x4
    43e8:	db0080e7          	jalr	-592(ra) # 8194 <_ZN6tflite5micro14GetTensorShapeEPK16TfLiteEvalTensor>
    43ec:	b0090c63          	beqz	s2,3704 <_ZN6tflite12_GLOBAL__N_18ConvEvalEP13TfLiteContextP10TfLiteNode+0x3a0>
    43f0:	00092783          	lw	a5,0(s2)
    43f4:	00048593          	mv	a1,s1
    43f8:	2f010513          	addi	a0,sp,752
    43fc:	04f12a23          	sw	a5,84(sp)
    4400:	00004097          	auipc	ra,0x4
    4404:	d94080e7          	jalr	-620(ra) # 8194 <_ZN6tflite5micro14GetTensorShapeEPK16TfLiteEvalTensor>
    4408:	76048ae3          	beqz	s1,537c <_ZN6tflite12_GLOBAL__N_18ConvEvalEP13TfLiteContextP10TfLiteNode+0x2018>
    440c:	0004a783          	lw	a5,0(s1)
    4410:	04f12423          	sw	a5,72(sp)
    4414:	00040593          	mv	a1,s0
    4418:	30c10513          	addi	a0,sp,780
    441c:	00004097          	auipc	ra,0x4
    4420:	d78080e7          	jalr	-648(ra) # 8194 <_ZN6tflite5micro14GetTensorShapeEPK16TfLiteEvalTensor>
    4424:	ae040063          	beqz	s0,3704 <_ZN6tflite12_GLOBAL__N_18ConvEvalEP13TfLiteContextP10TfLiteNode+0x3a0>
    4428:	00042683          	lw	a3,0(s0)
    442c:	43012783          	lw	a5,1072(sp)
    4430:	43412703          	lw	a4,1076(sp)
    4434:	06d12623          	sw	a3,108(sp)
    4438:	41c12683          	lw	a3,1052(sp)
    443c:	06f12423          	sw	a5,104(sp)
    4440:	06e12a23          	sw	a4,116(sp)
    4444:	02d12823          	sw	a3,48(sp)
    4448:	41211683          	lh	a3,1042(sp)
    444c:	08d12423          	sw	a3,136(sp)
    4450:	41411683          	lh	a3,1044(sp)
    4454:	08d12623          	sw	a3,140(sp)
    4458:	41611683          	lh	a3,1046(sp)
    445c:	00d12c23          	sw	a3,24(sp)
    4460:	41811683          	lh	a3,1048(sp)
    4464:	00d12e23          	sw	a3,28(sp)
    4468:	40a11683          	lh	a3,1034(sp)
    446c:	08d12023          	sw	a3,128(sp)
    4470:	40c11683          	lh	a3,1036(sp)
    4474:	08d12223          	sw	a3,132(sp)
    4478:	42412683          	lw	a3,1060(sp)
    447c:	06d12223          	sw	a3,100(sp)
    4480:	a8f74263          	blt	a4,a5,3704 <_ZN6tflite12_GLOBAL__N_18ConvEvalEP13TfLiteContextP10TfLiteNode+0x3a0>
    4484:	2b812703          	lw	a4,696(sp)
    4488:	00400793          	li	a5,4
    448c:	a6f71c63          	bne	a4,a5,3704 <_ZN6tflite12_GLOBAL__N_18ConvEvalEP13TfLiteContextP10TfLiteNode+0x3a0>
    4490:	2d412783          	lw	a5,724(sp)
    4494:	a6e79863          	bne	a5,a4,3704 <_ZN6tflite12_GLOBAL__N_18ConvEvalEP13TfLiteContextP10TfLiteNode+0x3a0>
    4498:	30c12703          	lw	a4,780(sp)
    449c:	a6f71463          	bne	a4,a5,3704 <_ZN6tflite12_GLOBAL__N_18ConvEvalEP13TfLiteContextP10TfLiteNode+0x3a0>
    44a0:	2bc12783          	lw	a5,700(sp)
    44a4:	00078713          	mv	a4,a5
    44a8:	06f12e23          	sw	a5,124(sp)
    44ac:	31012783          	lw	a5,784(sp)
    44b0:	a4f71a63          	bne	a4,a5,3704 <_ZN6tflite12_GLOBAL__N_18ConvEvalEP13TfLiteContextP10TfLiteNode+0x3a0>
    44b4:	2d812783          	lw	a5,728(sp)
    44b8:	2c812603          	lw	a2,712(sp)
    44bc:	00078713          	mv	a4,a5
    44c0:	04f12023          	sw	a5,64(sp)
    44c4:	31c12783          	lw	a5,796(sp)
    44c8:	a2f71e63          	bne	a4,a5,3704 <_ZN6tflite12_GLOBAL__N_18ConvEvalEP13TfLiteContextP10TfLiteNode+0x3a0>
    44cc:	04812783          	lw	a5,72(sp)
    44d0:	02078a63          	beqz	a5,4504 <_ZN6tflite12_GLOBAL__N_18ConvEvalEP13TfLiteContextP10TfLiteNode+0x11a0>
    44d4:	2f012583          	lw	a1,752(sp)
    44d8:	6ab05ee3          	blez	a1,5394 <_ZN6tflite12_GLOBAL__N_18ConvEvalEP13TfLiteContextP10TfLiteNode+0x2030>
    44dc:	2f410793          	addi	a5,sp,756
    44e0:	00259593          	slli	a1,a1,0x2
    44e4:	00b785b3          	add	a1,a5,a1
    44e8:	00100713          	li	a4,1
    44ec:	0007a683          	lw	a3,0(a5)
    44f0:	00478793          	addi	a5,a5,4
    44f4:	02d70733          	mul	a4,a4,a3
    44f8:	feb79ae3          	bne	a5,a1,44ec <_ZN6tflite12_GLOBAL__N_18ConvEvalEP13TfLiteContextP10TfLiteNode+0x1188>
    44fc:	04012783          	lw	a5,64(sp)
    4500:	a0e79263          	bne	a5,a4,3704 <_ZN6tflite12_GLOBAL__N_18ConvEvalEP13TfLiteContextP10TfLiteNode+0x3a0>
    4504:	2c012783          	lw	a5,704(sp)
    4508:	2e412b83          	lw	s7,740(sp)
    450c:	2dc12703          	lw	a4,732(sp)
    4510:	02f12a23          	sw	a5,52(sp)
    4514:	2c412783          	lw	a5,708(sp)
    4518:	00e12a23          	sw	a4,20(sp)
    451c:	2e012d83          	lw	s11,736(sp)
    4520:	02f12c23          	sw	a5,56(sp)
    4524:	037647b3          	div	a5,a2,s7
    4528:	9c078e63          	beqz	a5,3704 <_ZN6tflite12_GLOBAL__N_18ConvEvalEP13TfLiteContextP10TfLiteNode+0x3a0>
    452c:	03766633          	rem	a2,a2,s7
    4530:	9c061a63          	bnez	a2,3704 <_ZN6tflite12_GLOBAL__N_18ConvEvalEP13TfLiteContextP10TfLiteNode+0x3a0>
    4534:	04012703          	lw	a4,64(sp)
    4538:	02f747b3          	div	a5,a4,a5
    453c:	04f12623          	sw	a5,76(sp)
    4540:	9c078263          	beqz	a5,3704 <_ZN6tflite12_GLOBAL__N_18ConvEvalEP13TfLiteContextP10TfLiteNode+0x3a0>
    4544:	31412783          	lw	a5,788(sp)
