
gen/riscv32_generic_x86_64_default_gcc/bin/person_detection:     file format elf32-littleriscv


Disassembly of section .text:

00000000 <_start>:
       0:	800bd117          	auipc	sp,0x800bd
       4:	e2010113          	addi	sp,sp,-480 # 800bce20 <__stack_top+0x0>
       8:	80053517          	auipc	a0,0x80053
       c:	c1850513          	addi	a0,a0,-1000 # 80052c20 <__stack_top+0xfff95e00>
      10:	80075597          	auipc	a1,0x80075
      14:	e1058593          	addi	a1,a1,-496 # 80074e20 <__stack_top+0xfffb8000>
      18:	00b57663          	bgeu	a0,a1,24 <_start+0x24>
      1c:	00052023          	sw	zero,0(a0)
      20:	0511                	addi	a0,a0,4
      22:	bfdd                	j	18 <_start+0x18>
      24:	00000097          	auipc	ra,0x0
      28:	0fc080e7          	jalr	252(ra) # 120 <main>
      2c:	a001                	j	2c <_start+0x2c>

0000002e <_Z18RespondToDetectionaa>:
      2e:	1141                	addi	sp,sp,-16
      30:	c422                	sw	s0,8(sp)
      32:	c226                	sw	s1,4(sp)
      34:	862e                	mv	a2,a1
      36:	84aa                	mv	s1,a0
      38:	842e                	mv	s0,a1
      3a:	85aa                	mv	a1,a0
      3c:	80000517          	auipc	a0,0x80000
      40:	fc450513          	addi	a0,a0,-60 # 80000000 <__stack_top+0xfff431e0>
      44:	c606                	sw	ra,12(sp)
      46:	00002097          	auipc	ra,0x2
      4a:	928080e7          	jalr	-1752(ra) # 196e <_Z11MicroPrintfPKcz>
      4e:	80000517          	auipc	a0,0x80000
      52:	fda50513          	addi	a0,a0,-38 # 80000028 <__stack_top+0xfff43208>
      56:	00944663          	blt	s0,s1,62 <_Z18RespondToDetectionaa+0x34>
      5a:	80000517          	auipc	a0,0x80000
      5e:	fde50513          	addi	a0,a0,-34 # 80000038 <__stack_top+0xfff43218>
      62:	4422                	lw	s0,8(sp)
      64:	40b2                	lw	ra,12(sp)
      66:	4492                	lw	s1,4(sp)
      68:	0141                	addi	sp,sp,16
      6a:	00002317          	auipc	t1,0x2
      6e:	90430067          	jr	-1788(t1) # 196e <_Z11MicroPrintfPKcz>

00000072 <_Z8GetImageiiiPa>:
      72:	1141                	addi	sp,sp,-16
      74:	c606                	sw	ra,12(sp)
      76:	c422                	sw	s0,8(sp)
      78:	ee91                	bnez	a3,94 <_Z8GetImageiiiPa+0x22>
      7a:	80000517          	auipc	a0,0x80000
      7e:	fd250513          	addi	a0,a0,-46 # 8000004c <__stack_top+0xfff4322c>
      82:	00002097          	auipc	ra,0x2
      86:	8ec080e7          	jalr	-1812(ra) # 196e <_Z11MicroPrintfPKcz>
      8a:	4505                	li	a0,1
      8c:	40b2                	lw	ra,12(sp)
      8e:	4422                	lw	s0,8(sp)
      90:	0141                	addi	sp,sp,16
      92:	8082                	ret
      94:	06000793          	li	a5,96
      98:	00f51763          	bne	a0,a5,a6 <_Z8GetImageiiiPa+0x34>
      9c:	00a59563          	bne	a1,a0,a6 <_Z8GetImageiiiPa+0x34>
      a0:	4785                	li	a5,1
      a2:	00f60e63          	beq	a2,a5,be <_Z8GetImageiiiPa+0x4c>
      a6:	86b2                	mv	a3,a2
      a8:	862e                	mv	a2,a1
      aa:	85aa                	mv	a1,a0
      ac:	80000517          	auipc	a0,0x80000
      b0:	fb850513          	addi	a0,a0,-72 # 80000064 <__stack_top+0xfff43244>
      b4:	00002097          	auipc	ra,0x2
      b8:	8ba080e7          	jalr	-1862(ra) # 196e <_Z11MicroPrintfPKcz>
      bc:	b7f9                	j	8a <_Z8GetImageiiiPa+0x18>
      be:	80053797          	auipc	a5,0x80053
      c2:	b627a783          	lw	a5,-1182(a5) # 80052c20 <__stack_top+0xfff95e00>
      c6:	80053417          	auipc	s0,0x80053
      ca:	6609                	lui	a2,0x2
      cc:	b5a40413          	addi	s0,s0,-1190 # 80052c20 <__stack_top+0xfff95e00>
      d0:	40060613          	addi	a2,a2,1024 # 2400 <_ZN6tflite12_GLOBAL__N_18ConvEvalEP13TfLiteContextP10TfLiteNode+0x106>
      d4:	eb85                	bnez	a5,104 <_Z8GetImageiiiPa+0x92>
      d6:	80049597          	auipc	a1,0x80049
      da:	7fa58593          	addi	a1,a1,2042 # 800498d0 <__stack_top+0xfff8cab0>
      de:	8536                	mv	a0,a3
      e0:	00011097          	auipc	ra,0x11
      e4:	e40080e7          	jalr	-448(ra) # 10f20 <memcpy>
      e8:	80000517          	auipc	a0,0x80000
      ec:	fa050513          	addi	a0,a0,-96 # 80000088 <__stack_top+0xfff43268>
      f0:	00002097          	auipc	ra,0x2
      f4:	87e080e7          	jalr	-1922(ra) # 196e <_Z11MicroPrintfPKcz>
      f8:	401c                	lw	a5,0(s0)
      fa:	4501                	li	a0,0
      fc:	0017c793          	xori	a5,a5,1
     100:	c01c                	sw	a5,0(s0)
     102:	b769                	j	8c <_Z8GetImageiiiPa+0x1a>
     104:	8004c597          	auipc	a1,0x8004c
     108:	bcc58593          	addi	a1,a1,-1076 # 8004bcd0 <__stack_top+0xfff8eeb0>
     10c:	8536                	mv	a0,a3
     10e:	00011097          	auipc	ra,0x11
     112:	e12080e7          	jalr	-494(ra) # 10f20 <memcpy>
     116:	80000517          	auipc	a0,0x80000
     11a:	f9250513          	addi	a0,a0,-110 # 800000a8 <__stack_top+0xfff43288>
     11e:	bfc9                	j	f0 <_Z8GetImageiiiPa+0x7e>

00000120 <main>:
     120:	1141                	addi	sp,sp,-16
     122:	c606                	sw	ra,12(sp)
     124:	00000097          	auipc	ra,0x0
     128:	286080e7          	jalr	646(ra) # 3aa <setup>
     12c:	00000097          	auipc	ra,0x0
     130:	100080e7          	jalr	256(ra) # 22c <loop>
     134:	bfe5                	j	12c <main+0xc>

00000136 <__tcf_0>:
     136:	8082                	ret

00000138 <_ZNK6tflite22MicroMutableOpResolverILj5EE6FindOpENS_15BuiltinOperatorE>:
     138:	02000793          	li	a5,32
     13c:	02f58663          	beq	a1,a5,168 <_ZNK6tflite22MicroMutableOpResolverILj5EE6FindOpENS_15BuiltinOperatorE+0x30>
     140:	09052683          	lw	a3,144(a0)
     144:	01850713          	addi	a4,a0,24
     148:	4781                	li	a5,0
     14a:	00f68f63          	beq	a3,a5,168 <_ZNK6tflite22MicroMutableOpResolverILj5EE6FindOpENS_15BuiltinOperatorE+0x30>
     14e:	0771                	addi	a4,a4,28
     150:	fe472603          	lw	a2,-28(a4)
     154:	00b61863          	bne	a2,a1,164 <_ZNK6tflite22MicroMutableOpResolverILj5EE6FindOpENS_15BuiltinOperatorE+0x2c>
     158:	4771                	li	a4,28
     15a:	02e787b3          	mul	a5,a5,a4
     15e:	0791                	addi	a5,a5,4
     160:	953e                	add	a0,a0,a5
     162:	8082                	ret
     164:	0785                	addi	a5,a5,1
     166:	b7d5                	j	14a <_ZNK6tflite22MicroMutableOpResolverILj5EE6FindOpENS_15BuiltinOperatorE+0x12>
     168:	4501                	li	a0,0
     16a:	8082                	ret

0000016c <_ZN6tflite22MicroMutableOpResolverILj5EED0Ev>:
     16c:	8082                	ret

0000016e <_ZNK6tflite22MicroMutableOpResolverILj5EE15GetOpDataParserENS_15BuiltinOperatorE>:
     16e:	0bc52683          	lw	a3,188(a0)
     172:	4795                	li	a5,5
     174:	02d7e263          	bltu	a5,a3,198 <_ZNK6tflite22MicroMutableOpResolverILj5EE15GetOpDataParserENS_15BuiltinOperatorE+0x2a>
     178:	09450713          	addi	a4,a0,148
     17c:	4781                	li	a5,0
     17e:	02f68a63          	beq	a3,a5,1b2 <_ZNK6tflite22MicroMutableOpResolverILj5EE15GetOpDataParserENS_15BuiltinOperatorE+0x44>
     182:	0711                	addi	a4,a4,4
     184:	ffc72603          	lw	a2,-4(a4)
     188:	02b61363          	bne	a2,a1,1ae <_ZNK6tflite22MicroMutableOpResolverILj5EE15GetOpDataParserENS_15BuiltinOperatorE+0x40>
     18c:	02878793          	addi	a5,a5,40
     190:	078a                	slli	a5,a5,0x2
     192:	97aa                	add	a5,a5,a0
     194:	4788                	lw	a0,8(a5)
     196:	8082                	ret
     198:	80000517          	auipc	a0,0x80000
     19c:	1141                	addi	sp,sp,-16
     19e:	03450513          	addi	a0,a0,52 # 800001cc <__stack_top+0xfff433ac>
     1a2:	c606                	sw	ra,12(sp)
     1a4:	00001097          	auipc	ra,0x1
     1a8:	7ca080e7          	jalr	1994(ra) # 196e <_Z11MicroPrintfPKcz>
     1ac:	a001                	j	1ac <_ZNK6tflite22MicroMutableOpResolverILj5EE15GetOpDataParserENS_15BuiltinOperatorE+0x3e>
     1ae:	0785                	addi	a5,a5,1
     1b0:	b7f9                	j	17e <_ZNK6tflite22MicroMutableOpResolverILj5EE15GetOpDataParserENS_15BuiltinOperatorE+0x10>
     1b2:	4501                	li	a0,0
     1b4:	8082                	ret

000001b6 <__tcf_1>:
     1b6:	80075517          	auipc	a0,0x80075
     1ba:	aaa50513          	addi	a0,a0,-1366 # 80074c60 <__stack_top+0xfffb7e40>
     1be:	00000317          	auipc	t1,0x0
     1c2:	76430067          	jr	1892(t1) # 922 <_ZN6tflite16MicroInterpreterD1Ev>

000001c6 <_ZNK6tflite22MicroMutableOpResolverILj5EE6FindOpEPKc>:
     1c6:	1101                	addi	sp,sp,-32
     1c8:	c64e                	sw	s3,12(sp)
     1ca:	09052983          	lw	s3,144(a0)
     1ce:	cc22                	sw	s0,24(sp)
     1d0:	ca26                	sw	s1,20(sp)
     1d2:	c84a                	sw	s2,16(sp)
     1d4:	c452                	sw	s4,8(sp)
     1d6:	c256                	sw	s5,4(sp)
     1d8:	ce06                	sw	ra,28(sp)
     1da:	84aa                	mv	s1,a0
     1dc:	8a2e                	mv	s4,a1
     1de:	01850913          	addi	s2,a0,24
     1e2:	4401                	li	s0,0
     1e4:	02000a93          	li	s5,32
     1e8:	04898063          	beq	s3,s0,228 <_ZNK6tflite22MicroMutableOpResolverILj5EE6FindOpEPKc+0x62>
     1ec:	00092783          	lw	a5,0(s2)
     1f0:	03579963          	bne	a5,s5,222 <_ZNK6tflite22MicroMutableOpResolverILj5EE6FindOpEPKc+0x5c>
     1f4:	00492503          	lw	a0,4(s2)
     1f8:	85d2                	mv	a1,s4
     1fa:	00012097          	auipc	ra,0x12
     1fe:	8de080e7          	jalr	-1826(ra) # 11ad8 <strcmp>
     202:	e105                	bnez	a0,222 <_ZNK6tflite22MicroMutableOpResolverILj5EE6FindOpEPKc+0x5c>
     204:	4571                	li	a0,28
     206:	02a40433          	mul	s0,s0,a0
     20a:	00440513          	addi	a0,s0,4
     20e:	9526                	add	a0,a0,s1
     210:	40f2                	lw	ra,28(sp)
     212:	4462                	lw	s0,24(sp)
     214:	44d2                	lw	s1,20(sp)
     216:	4942                	lw	s2,16(sp)
     218:	49b2                	lw	s3,12(sp)
     21a:	4a22                	lw	s4,8(sp)
     21c:	4a92                	lw	s5,4(sp)
     21e:	6105                	addi	sp,sp,32
     220:	8082                	ret
     222:	0405                	addi	s0,s0,1
     224:	0971                	addi	s2,s2,28
     226:	b7c9                	j	1e8 <_ZNK6tflite22MicroMutableOpResolverILj5EE6FindOpEPKc+0x22>
     228:	4501                	li	a0,0
     22a:	b7dd                	j	210 <_ZNK6tflite22MicroMutableOpResolverILj5EE6FindOpEPKc+0x4a>

0000022c <loop>:
     22c:	80053797          	auipc	a5,0x80053
     230:	a107a783          	lw	a5,-1520(a5) # 80052c3c <__stack_top+0xfff95e1c>
     234:	1141                	addi	sp,sp,-16
     236:	c606                	sw	ra,12(sp)
     238:	c422                	sw	s0,8(sp)
     23a:	c799                	beqz	a5,248 <loop+0x1c>
     23c:	80053417          	auipc	s0,0x80053
     240:	9fc40413          	addi	s0,s0,-1540 # 80052c38 <__stack_top+0xfff95e18>
     244:	4018                	lw	a4,0(s0)
     246:	ef01                	bnez	a4,25e <loop+0x32>
     248:	80000517          	auipc	a0,0x80000
     24c:	f8c50513          	addi	a0,a0,-116 # 800001d4 <__stack_top+0xfff433b4>
     250:	4422                	lw	s0,8(sp)
     252:	40b2                	lw	ra,12(sp)
     254:	0141                	addi	sp,sp,16
     256:	00001317          	auipc	t1,0x1
     25a:	71830067          	jr	1816(t1) # 196e <_Z11MicroPrintfPKcz>
     25e:	4b94                	lw	a3,16(a5)
     260:	4605                	li	a2,1
     262:	06000593          	li	a1,96
     266:	06000513          	li	a0,96
     26a:	00000097          	auipc	ra,0x0
     26e:	e08080e7          	jalr	-504(ra) # 72 <_Z8GetImageiiiPa>
     272:	c511                	beqz	a0,27e <loop+0x52>
     274:	80000517          	auipc	a0,0x80000
     278:	f7450513          	addi	a0,a0,-140 # 800001e8 <__stack_top+0xfff433c8>
     27c:	bfd1                	j	250 <loop+0x24>
     27e:	4008                	lw	a0,0(s0)
     280:	00001097          	auipc	ra,0x1
     284:	c36080e7          	jalr	-970(ra) # eb6 <_ZN6tflite16MicroInterpreter6InvokeEv>
     288:	c511                	beqz	a0,294 <loop+0x68>
     28a:	80000517          	auipc	a0,0x80000
     28e:	f7250513          	addi	a0,a0,-142 # 800001fc <__stack_top+0xfff433dc>
     292:	bf7d                	j	250 <loop+0x24>
     294:	4008                	lw	a0,0(s0)
     296:	4581                	li	a1,0
     298:	00000097          	auipc	ra,0x0
     29c:	648080e7          	jalr	1608(ra) # 8e0 <_ZN6tflite16MicroInterpreter6outputEj>
     2a0:	e511                	bnez	a0,2ac <loop+0x80>
     2a2:	80000517          	auipc	a0,0x80000
     2a6:	f6a50513          	addi	a0,a0,-150 # 8000020c <__stack_top+0xfff433ec>
     2aa:	b75d                	j	250 <loop+0x24>
     2ac:	491c                	lw	a5,16(a0)
     2ae:	4422                	lw	s0,8(sp)
     2b0:	40b2                	lw	ra,12(sp)
     2b2:	00078583          	lb	a1,0(a5)
     2b6:	00178503          	lb	a0,1(a5)
     2ba:	0141                	addi	sp,sp,16
     2bc:	00000317          	auipc	t1,0x0
     2c0:	d7230067          	jr	-654(t1) # 2e <_Z18RespondToDetectionaa>

000002c4 <_ZN6tflite22MicroMutableOpResolverILj5EE10AddBuiltinENS_15BuiltinOperatorERK16TFLMRegistrationPF12TfLiteStatusPKNS_8OperatorEPNS_13ErrorReporterEPNS_20BuiltinDataAllocatorEPPvE>:
     2c4:	1101                	addi	sp,sp,-32
     2c6:	ce06                	sw	ra,28(sp)
     2c8:	cc22                	sw	s0,24(sp)
     2ca:	ca26                	sw	s1,20(sp)
     2cc:	c84a                	sw	s2,16(sp)
     2ce:	c64e                	sw	s3,12(sp)
     2d0:	c452                	sw	s4,8(sp)
     2d2:	c256                	sw	s5,4(sp)
     2d4:	02000793          	li	a5,32
     2d8:	02f59c63          	bne	a1,a5,310 <_ZN6tflite22MicroMutableOpResolverILj5EE10AddBuiltinENS_15BuiltinOperatorERK16TFLMRegistrationPF12TfLiteStatusPKNS_8OperatorEPNS_13ErrorReporterEPNS_20BuiltinDataAllocatorEPPvE+0x4c>
     2dc:	80000517          	auipc	a0,0x80000
     2e0:	e0850513          	addi	a0,a0,-504 # 800000e4 <__stack_top+0xfff432c4>
     2e4:	00001097          	auipc	ra,0x1
     2e8:	68a080e7          	jalr	1674(ra) # 196e <_Z11MicroPrintfPKcz>
     2ec:	80000517          	auipc	a0,0x80000
     2f0:	e2c50513          	addi	a0,a0,-468 # 80000118 <__stack_top+0xfff432f8>
     2f4:	00001097          	auipc	ra,0x1
     2f8:	67a080e7          	jalr	1658(ra) # 196e <_Z11MicroPrintfPKcz>
     2fc:	4505                	li	a0,1
     2fe:	40f2                	lw	ra,28(sp)
     300:	4462                	lw	s0,24(sp)
     302:	44d2                	lw	s1,20(sp)
     304:	4942                	lw	s2,16(sp)
     306:	49b2                	lw	s3,12(sp)
     308:	4a22                	lw	s4,8(sp)
     30a:	4a92                	lw	s5,4(sp)
     30c:	6105                	addi	sp,sp,32
     30e:	8082                	ret
     310:	411c                	lw	a5,0(a0)
     312:	842a                	mv	s0,a0
     314:	892e                	mv	s2,a1
     316:	439c                	lw	a5,0(a5)
     318:	8ab2                	mv	s5,a2
     31a:	8a36                	mv	s4,a3
     31c:	9782                	jalr	a5
     31e:	c11d                	beqz	a0,344 <_ZN6tflite22MicroMutableOpResolverILj5EE10AddBuiltinENS_15BuiltinOperatorERK16TFLMRegistrationPF12TfLiteStatusPKNS_8OperatorEPNS_13ErrorReporterEPNS_20BuiltinDataAllocatorEPPvE+0x80>
     320:	80000517          	auipc	a0,0x80000
     324:	e1050513          	addi	a0,a0,-496 # 80000130 <__stack_top+0xfff43310>
     328:	00001097          	auipc	ra,0x1
     32c:	646080e7          	jalr	1606(ra) # 196e <_Z11MicroPrintfPKcz>
     330:	80000517          	auipc	a0,0x80000
     334:	85ca                	mv	a1,s2
     336:	e3050513          	addi	a0,a0,-464 # 80000160 <__stack_top+0xfff43340>
     33a:	00001097          	auipc	ra,0x1
     33e:	634080e7          	jalr	1588(ra) # 196e <_Z11MicroPrintfPKcz>
     342:	bf6d                	j	2fc <_ZN6tflite22MicroMutableOpResolverILj5EE10AddBuiltinENS_15BuiltinOperatorERK16TFLMRegistrationPF12TfLiteStatusPKNS_8OperatorEPNS_13ErrorReporterEPNS_20BuiltinDataAllocatorEPPvE+0x38>
     344:	09042983          	lw	s3,144(s0)
     348:	4791                	li	a5,4
     34a:	0337f163          	bgeu	a5,s3,36c <_ZN6tflite22MicroMutableOpResolverILj5EE10AddBuiltinENS_15BuiltinOperatorERK16TFLMRegistrationPF12TfLiteStatusPKNS_8OperatorEPNS_13ErrorReporterEPNS_20BuiltinDataAllocatorEPPvE+0xa8>
     34e:	80000517          	auipc	a0,0x80000
     352:	85ca                	mv	a1,s2
     354:	e3650513          	addi	a0,a0,-458 # 80000184 <__stack_top+0xfff43364>
     358:	00001097          	auipc	ra,0x1
     35c:	616080e7          	jalr	1558(ra) # 196e <_Z11MicroPrintfPKcz>
     360:	80000517          	auipc	a0,0x80000
     364:	4595                	li	a1,5
     366:	e5850513          	addi	a0,a0,-424 # 800001b8 <__stack_top+0xfff43398>
     36a:	bfc1                	j	33a <_ZN6tflite22MicroMutableOpResolverILj5EE10AddBuiltinENS_15BuiltinOperatorERK16TFLMRegistrationPF12TfLiteStatusPKNS_8OperatorEPNS_13ErrorReporterEPNS_20BuiltinDataAllocatorEPPvE+0x76>
     36c:	44f1                	li	s1,28
     36e:	029984b3          	mul	s1,s3,s1
     372:	4671                	li	a2,28
     374:	85d6                	mv	a1,s5
     376:	0985                	addi	s3,s3,1
     378:	94a2                	add	s1,s1,s0
     37a:	00448513          	addi	a0,s1,4
     37e:	00011097          	auipc	ra,0x11
     382:	ba2080e7          	jalr	-1118(ra) # 10f20 <memcpy>
     386:	0bc42783          	lw	a5,188(s0)
     38a:	0124ac23          	sw	s2,24(s1)
     38e:	09342823          	sw	s3,144(s0)
     392:	00279713          	slli	a4,a5,0x2
     396:	9722                	add	a4,a4,s0
     398:	09272a23          	sw	s2,148(a4)
     39c:	0b472423          	sw	s4,168(a4)
     3a0:	0785                	addi	a5,a5,1
     3a2:	0af42e23          	sw	a5,188(s0)
     3a6:	4501                	li	a0,0
     3a8:	bf99                	j	2fe <_ZN6tflite22MicroMutableOpResolverILj5EE10AddBuiltinENS_15BuiltinOperatorERK16TFLMRegistrationPF12TfLiteStatusPKNS_8OperatorEPNS_13ErrorReporterEPNS_20BuiltinDataAllocatorEPPvE+0x3a>

000003aa <setup>:
     3aa:	7139                	addi	sp,sp,-64
     3ac:	de06                	sw	ra,60(sp)
     3ae:	d84a                	sw	s2,48(sp)
     3b0:	dc22                	sw	s0,56(sp)
     3b2:	da26                	sw	s1,52(sp)
     3b4:	d64e                	sw	s3,44(sp)
     3b6:	00001097          	auipc	ra,0x1
     3ba:	70a080e7          	jalr	1802(ra) # 1ac0 <_ZN6tflite16InitializeTargetEv>
     3be:	80000517          	auipc	a0,0x80000
     3c2:	e5e50513          	addi	a0,a0,-418 # 8000021c <__stack_top+0xfff433fc>
     3c6:	00001097          	auipc	ra,0x1
     3ca:	5a8080e7          	jalr	1448(ra) # 196e <_Z11MicroPrintfPKcz>
     3ce:	80000617          	auipc	a2,0x80000
     3d2:	80053917          	auipc	s2,0x80053
     3d6:	ee260613          	addi	a2,a2,-286 # 800002b0 <__stack_top+0xfff43490>
     3da:	86e90913          	addi	s2,s2,-1938 # 80052c40 <__stack_top+0xfff95e20>
     3de:	ee01                	bnez	a2,3f6 <setup+0x4c>
     3e0:	00092023          	sw	zero,0(s2)
     3e4:	80000517          	auipc	a0,0x80000
     3e8:	e5850513          	addi	a0,a0,-424 # 8000023c <__stack_top+0xfff4341c>
     3ec:	00001097          	auipc	ra,0x1
     3f0:	582080e7          	jalr	1410(ra) # 196e <_Z11MicroPrintfPKcz>
     3f4:	a085                	j	454 <setup+0xaa>
     3f6:	80000597          	auipc	a1,0x80000
     3fa:	ebb5c703          	lbu	a4,-325(a1) # 800002b1 <__stack_top+0xfff43491>
     3fe:	eba5c683          	lbu	a3,-326(a1)
     402:	0722                	slli	a4,a4,0x8
     404:	8ed9                	or	a3,a3,a4
     406:	ebc5c703          	lbu	a4,-324(a1)
     40a:	01071793          	slli	a5,a4,0x10
     40e:	00d7e733          	or	a4,a5,a3
     412:	ebd5c783          	lbu	a5,-323(a1)
     416:	07e2                	slli	a5,a5,0x18
     418:	8fd9                	or	a5,a5,a4
     41a:	97b2                	add	a5,a5,a2
     41c:	00f92023          	sw	a5,0(s2)
     420:	d3f1                	beqz	a5,3e4 <setup+0x3a>
     422:	4398                	lw	a4,0(a5)
     424:	4691                	li	a3,4
     426:	40e78733          	sub	a4,a5,a4
     42a:	00075603          	lhu	a2,0(a4)
     42e:	02c6fa63          	bgeu	a3,a2,462 <setup+0xb8>
     432:	00475703          	lhu	a4,4(a4)
     436:	c715                	beqz	a4,462 <setup+0xb8>
     438:	97ba                	add	a5,a5,a4
     43a:	438c                	lw	a1,0(a5)
     43c:	478d                	li	a5,3
     43e:	02f58463          	beq	a1,a5,466 <setup+0xbc>
     442:	80000517          	auipc	a0,0x80000
     446:	460d                	li	a2,3
     448:	e0e50513          	addi	a0,a0,-498 # 80000250 <__stack_top+0xfff43430>
     44c:	00001097          	auipc	ra,0x1
     450:	522080e7          	jalr	1314(ra) # 196e <_Z11MicroPrintfPKcz>
     454:	50f2                	lw	ra,60(sp)
     456:	5462                	lw	s0,56(sp)
     458:	54d2                	lw	s1,52(sp)
     45a:	5942                	lw	s2,48(sp)
     45c:	59b2                	lw	s3,44(sp)
     45e:	6121                	addi	sp,sp,64
     460:	8082                	ret
     462:	4581                	li	a1,0
     464:	bff9                	j	442 <setup+0x98>
     466:	80052797          	auipc	a5,0x80052
     46a:	7ca78793          	addi	a5,a5,1994 # 80052c30 <__stack_top+0xfff95e10>
     46e:	0007c703          	lbu	a4,0(a5)
     472:	80075417          	auipc	s0,0x80075
     476:	8c240413          	addi	s0,s0,-1854 # 80074d34 <__stack_top+0xfffb7f14>
     47a:	e70d                	bnez	a4,4a4 <setup+0xfa>
     47c:	80000717          	auipc	a4,0x80000
     480:	c5470713          	addi	a4,a4,-940 # 800000d0 <__stack_top+0xfff432b0>
     484:	c018                	sw	a4,0(s0)
     486:	00000517          	auipc	a0,0x0
     48a:	4705                	li	a4,1
     48c:	00e78023          	sb	a4,0(a5)
     490:	cb050513          	addi	a0,a0,-848 # 136 <__tcf_0>
     494:	08042823          	sw	zero,144(s0)
     498:	0a042e23          	sw	zero,188(s0)
     49c:	00010097          	auipc	ra,0x10
     4a0:	e40080e7          	jalr	-448(ra) # 102dc <atexit>
     4a4:	0048                	addi	a0,sp,4
     4a6:	00006097          	auipc	ra,0x6
     4aa:	d6e080e7          	jalr	-658(ra) # 6214 <_ZN6tflite24Register_AVERAGE_POOL_2DEv>
     4ae:	00002697          	auipc	a3,0x2
     4b2:	b0668693          	addi	a3,a3,-1274 # 1fb4 <_ZN6tflite9ParsePoolEPKNS_8OperatorEPNS_13ErrorReporterEPNS_20BuiltinDataAllocatorEPPv>
     4b6:	0050                	addi	a2,sp,4
     4b8:	4585                	li	a1,1
     4ba:	8522                	mv	a0,s0
     4bc:	00000097          	auipc	ra,0x0
     4c0:	e08080e7          	jalr	-504(ra) # 2c4 <_ZN6tflite22MicroMutableOpResolverILj5EE10AddBuiltinENS_15BuiltinOperatorERK16TFLMRegistrationPF12TfLiteStatusPKNS_8OperatorEPNS_13ErrorReporterEPNS_20BuiltinDataAllocatorEPPvE>
     4c4:	0048                	addi	a0,sp,4
     4c6:	00003097          	auipc	ra,0x3
     4ca:	580080e7          	jalr	1408(ra) # 3a46 <_ZN6tflite16Register_CONV_2DEv>
     4ce:	00002697          	auipc	a3,0x2
     4d2:	89868693          	addi	a3,a3,-1896 # 1d66 <_ZN6tflite11ParseConv2DEPKNS_8OperatorEPNS_13ErrorReporterEPNS_20BuiltinDataAllocatorEPPv>
     4d6:	0050                	addi	a2,sp,4
     4d8:	458d                	li	a1,3
     4da:	8522                	mv	a0,s0
     4dc:	00000097          	auipc	ra,0x0
     4e0:	de8080e7          	jalr	-536(ra) # 2c4 <_ZN6tflite22MicroMutableOpResolverILj5EE10AddBuiltinENS_15BuiltinOperatorERK16TFLMRegistrationPF12TfLiteStatusPKNS_8OperatorEPNS_13ErrorReporterEPNS_20BuiltinDataAllocatorEPPvE>
     4e4:	0048                	addi	a0,sp,4
     4e6:	00005097          	auipc	ra,0x5
     4ea:	e5a080e7          	jalr	-422(ra) # 5340 <_ZN6tflite26Register_DEPTHWISE_CONV_2DEv>
     4ee:	00002697          	auipc	a3,0x2
     4f2:	9b268693          	addi	a3,a3,-1614 # 1ea0 <_ZN6tflite20ParseDepthwiseConv2DEPKNS_8OperatorEPNS_13ErrorReporterEPNS_20BuiltinDataAllocatorEPPv>
     4f6:	0050                	addi	a2,sp,4
     4f8:	4591                	li	a1,4
     4fa:	8522                	mv	a0,s0
     4fc:	00000097          	auipc	ra,0x0
     500:	dc8080e7          	jalr	-568(ra) # 2c4 <_ZN6tflite22MicroMutableOpResolverILj5EE10AddBuiltinENS_15BuiltinOperatorERK16TFLMRegistrationPF12TfLiteStatusPKNS_8OperatorEPNS_13ErrorReporterEPNS_20BuiltinDataAllocatorEPPvE>
     504:	0048                	addi	a0,sp,4
     506:	00006097          	auipc	ra,0x6
     50a:	392080e7          	jalr	914(ra) # 6898 <_ZN6tflite16Register_RESHAPEEv>
     50e:	00002697          	auipc	a3,0x2
     512:	c7268693          	addi	a3,a3,-910 # 2180 <_ZN6tflite12ParseReshapeEPKNS_8OperatorEPNS_13ErrorReporterEPNS_20BuiltinDataAllocatorEPPv>
     516:	0050                	addi	a2,sp,4
     518:	45d9                	li	a1,22
     51a:	8522                	mv	a0,s0
     51c:	00000097          	auipc	ra,0x0
     520:	da8080e7          	jalr	-600(ra) # 2c4 <_ZN6tflite22MicroMutableOpResolverILj5EE10AddBuiltinENS_15BuiltinOperatorERK16TFLMRegistrationPF12TfLiteStatusPKNS_8OperatorEPNS_13ErrorReporterEPNS_20BuiltinDataAllocatorEPPvE>
     524:	0048                	addi	a0,sp,4
     526:	00006097          	auipc	ra,0x6
     52a:	768080e7          	jalr	1896(ra) # 6c8e <_ZN6tflite16Register_SOFTMAXEv>
     52e:	00002697          	auipc	a3,0x2
     532:	bb268693          	addi	a3,a3,-1102 # 20e0 <_ZN6tflite12ParseSoftmaxEPKNS_8OperatorEPNS_13ErrorReporterEPNS_20BuiltinDataAllocatorEPPv>
     536:	0050                	addi	a2,sp,4
     538:	45e5                	li	a1,25
     53a:	8522                	mv	a0,s0
     53c:	80052997          	auipc	s3,0x80052
     540:	00000097          	auipc	ra,0x0
     544:	d84080e7          	jalr	-636(ra) # 2c4 <_ZN6tflite22MicroMutableOpResolverILj5EE10AddBuiltinENS_15BuiltinOperatorERK16TFLMRegistrationPF12TfLiteStatusPKNS_8OperatorEPNS_13ErrorReporterEPNS_20BuiltinDataAllocatorEPPvE>
     548:	6ec98993          	addi	s3,s3,1772 # 80052c28 <__stack_top+0xfff95e08>
     54c:	0009c783          	lbu	a5,0(s3)
     550:	80074497          	auipc	s1,0x80074
     554:	71048493          	addi	s1,s1,1808 # 80074c60 <__stack_top+0xfffb7e40>
     558:	ef85                	bnez	a5,590 <setup+0x1e6>
     55a:	00092583          	lw	a1,0(s2)
     55e:	80052697          	auipc	a3,0x80052
     562:	8526                	mv	a0,s1
     564:	4881                	li	a7,0
     566:	4801                	li	a6,0
     568:	00022737          	lui	a4,0x22
     56c:	70268693          	addi	a3,a3,1794 # 80052c60 <__stack_top+0xfff95e40>
     570:	8622                	mv	a2,s0
     572:	00000097          	auipc	ra,0x0
     576:	17e080e7          	jalr	382(ra) # 6f0 <_ZN6tflite16MicroInterpreterC1EPKNS_5ModelERKNS_15MicroOpResolverEPhjPNS_22MicroResourceVariablesEPNS_22MicroProfilerInterfaceEb>
     57a:	4785                	li	a5,1
     57c:	00000517          	auipc	a0,0x0
     580:	00f98023          	sb	a5,0(s3)
     584:	c3a50513          	addi	a0,a0,-966 # 1b6 <__tcf_1>
     588:	00010097          	auipc	ra,0x10
     58c:	d54080e7          	jalr	-684(ra) # 102dc <atexit>
     590:	80052417          	auipc	s0,0x80052
     594:	6a840413          	addi	s0,s0,1704 # 80052c38 <__stack_top+0xfff95e18>
     598:	8526                	mv	a0,s1
     59a:	c004                	sw	s1,0(s0)
     59c:	00000097          	auipc	ra,0x0
     5a0:	6aa080e7          	jalr	1706(ra) # c46 <_ZN6tflite16MicroInterpreter15AllocateTensorsEv>
     5a4:	c511                	beqz	a0,5b0 <setup+0x206>
     5a6:	80000517          	auipc	a0,0x80000
     5aa:	cce50513          	addi	a0,a0,-818 # 80000274 <__stack_top+0xfff43454>
     5ae:	bd3d                	j	3ec <setup+0x42>
     5b0:	4008                	lw	a0,0(s0)
     5b2:	4581                	li	a1,0
     5b4:	00000097          	auipc	ra,0x0
     5b8:	2c0080e7          	jalr	704(ra) # 874 <_ZN6tflite16MicroInterpreter5inputEj>
     5bc:	80052797          	auipc	a5,0x80052
     5c0:	68a7a023          	sw	a0,1664(a5) # 80052c3c <__stack_top+0xfff95e1c>
     5c4:	e511                	bnez	a0,5d0 <setup+0x226>
     5c6:	80000517          	auipc	a0,0x80000
     5ca:	cc650513          	addi	a0,a0,-826 # 8000028c <__stack_top+0xfff4346c>
     5ce:	bd39                	j	3ec <setup+0x42>
     5d0:	80000517          	auipc	a0,0x80000
     5d4:	ccc50513          	addi	a0,a0,-820 # 8000029c <__stack_top+0xfff4347c>
     5d8:	bd11                	j	3ec <setup+0x42>

000005da <_ZN6tflite36MicroContextAllocatePersistentBufferEP13TfLiteContextj>:
     5da:	4548                	lw	a0,12(a0)
     5dc:	411c                	lw	a5,0(a0)
     5de:	0087a303          	lw	t1,8(a5)
     5e2:	8302                	jr	t1

000005e4 <_ZN6tflite39MicroContextRequestScratchBufferInArenaEP13TfLiteContextjPi>:
     5e4:	4548                	lw	a0,12(a0)
     5e6:	411c                	lw	a5,0(a0)
     5e8:	00c7a303          	lw	t1,12(a5)
     5ec:	8302                	jr	t1

000005ee <_ZN6tflite28MicroContextGetScratchBufferEP13TfLiteContexti>:
     5ee:	4548                	lw	a0,12(a0)
     5f0:	411c                	lw	a5,0(a0)
     5f2:	0107a303          	lw	t1,16(a5)
     5f6:	8302                	jr	t1

000005f8 <_ZN6tflite21MicroContextGetTensorEPK13TfLiteContexti>:
     5f8:	4548                	lw	a0,12(a0)
     5fa:	411c                	lw	a5,0(a0)
     5fc:	0147a303          	lw	t1,20(a5)
     600:	8302                	jr	t1

00000602 <_ZN6tflite25MicroContextGetEvalTensorEPK13TfLiteContexti>:
     602:	4548                	lw	a0,12(a0)
     604:	411c                	lw	a5,0(a0)
     606:	0247a303          	lw	t1,36(a5)
     60a:	8302                	jr	t1

0000060c <_ZN6tflite30MicroContextGetExternalContextEP13TfLiteContext25TfLiteExternalContextType>:
     60c:	4548                	lw	a0,12(a0)
     60e:	411c                	lw	a5,0(a0)
     610:	02c7a303          	lw	t1,44(a5)
     614:	8302                	jr	t1

00000616 <_ZNK11flatbuffers5Table22GetOptionalFieldOffsetEt>:
     616:	411c                	lw	a5,0(a0)
     618:	8d1d                	sub	a0,a0,a5
     61a:	00055783          	lhu	a5,0(a0)
     61e:	00f5f663          	bgeu	a1,a5,62a <_ZNK11flatbuffers5Table22GetOptionalFieldOffsetEt+0x14>
     622:	952e                	add	a0,a0,a1
     624:	00055503          	lhu	a0,0(a0)
     628:	8082                	ret
     62a:	4501                	li	a0,0
     62c:	8082                	ret

0000062e <_ZN6tflite23EnumNameBuiltinOperatorENS_15BuiltinOperatorE>:
     62e:	0d100793          	li	a5,209
     632:	00a7ea63          	bltu	a5,a0,646 <_ZN6tflite23EnumNameBuiltinOperatorENS_15BuiltinOperatorE+0x18>
     636:	8004e797          	auipc	a5,0x8004e
     63a:	a9a78793          	addi	a5,a5,-1382 # 8004e0d0 <__stack_top+0xfff912b0>
     63e:	050a                	slli	a0,a0,0x2
     640:	953e                	add	a0,a0,a5
     642:	4108                	lw	a0,0(a0)
     644:	8082                	ret
     646:	8004f517          	auipc	a0,0x8004f
     64a:	32250513          	addi	a0,a0,802 # 8004f968 <__stack_top+0xfff92b48>
     64e:	8082                	ret

00000650 <_ZNK6tflite8Operator14custom_optionsEv>:
     650:	1141                	addi	sp,sp,-16
     652:	45b9                	li	a1,14
     654:	c422                	sw	s0,8(sp)
     656:	c606                	sw	ra,12(sp)
     658:	842a                	mv	s0,a0
     65a:	00000097          	auipc	ra,0x0
     65e:	fbc080e7          	jalr	-68(ra) # 616 <_ZNK11flatbuffers5Table22GetOptionalFieldOffsetEt>
     662:	c901                	beqz	a0,672 <_ZNK6tflite8Operator14custom_optionsEv+0x22>
     664:	9522                	add	a0,a0,s0
     666:	411c                	lw	a5,0(a0)
     668:	953e                	add	a0,a0,a5
     66a:	40b2                	lw	ra,12(sp)
     66c:	4422                	lw	s0,8(sp)
     66e:	0141                	addi	sp,sp,16
     670:	8082                	ret
     672:	4501                	li	a0,0
     674:	bfdd                	j	66a <_ZNK6tflite8Operator14custom_optionsEv+0x1a>

00000676 <_ZN6tflite16MicroInterpreter4InitEPNS_22MicroProfilerInterfaceE>:
     676:	1141                	addi	sp,sp,-16
     678:	c226                	sw	s1,4(sp)
     67a:	0a850493          	addi	s1,a0,168
     67e:	c422                	sw	s0,8(sp)
     680:	c04a                	sw	s2,0(sp)
     682:	842a                	mv	s0,a0
     684:	892e                	mv	s2,a1
     686:	8526                	mv	a0,s1
     688:	4581                	li	a1,0
     68a:	c606                	sw	ra,12(sp)
     68c:	00001097          	auipc	ra,0x1
     690:	a10080e7          	jalr	-1520(ra) # 109c <_ZN6tflite23MicroInterpreterContext19SetInterpreterStateENS0_16InterpreterStateE>
     694:	00009797          	auipc	a5,0x9
     698:	71478793          	addi	a5,a5,1812 # 9da8 <_ZN6tflite25MicroContextReportOpErrorEP13TfLiteContextPKcz>
     69c:	cc5c                	sw	a5,28(s0)
     69e:	00000797          	auipc	a5,0x0
     6a2:	f5a78793          	addi	a5,a5,-166 # 5f8 <_ZN6tflite21MicroContextGetTensorEPK13TfLiteContexti>
     6a6:	cc3c                	sw	a5,88(s0)
     6a8:	00000797          	auipc	a5,0x0
     6ac:	f5a78793          	addi	a5,a5,-166 # 602 <_ZN6tflite25MicroContextGetEvalTensorEPK13TfLiteContexti>
     6b0:	cc7c                	sw	a5,92(s0)
     6b2:	00000797          	auipc	a5,0x0
     6b6:	f3278793          	addi	a5,a5,-206 # 5e4 <_ZN6tflite39MicroContextRequestScratchBufferInArenaEP13TfLiteContextjPi>
     6ba:	c43c                	sw	a5,72(s0)
     6bc:	00000797          	auipc	a5,0x0
     6c0:	f5078793          	addi	a5,a5,-176 # 60c <_ZN6tflite30MicroContextGetExternalContextEP13TfLiteContext25TfLiteExternalContextType>
     6c4:	d81c                	sw	a5,48(s0)
     6c6:	00000797          	auipc	a5,0x0
     6ca:	f1478793          	addi	a5,a5,-236 # 5da <_ZN6tflite36MicroContextAllocatePersistentBufferEP13TfLiteContextj>
     6ce:	c03c                	sw	a5,64(s0)
     6d0:	00000797          	auipc	a5,0x0
     6d4:	f1e78793          	addi	a5,a5,-226 # 5ee <_ZN6tflite28MicroContextGetScratchBufferEP13TfLiteContexti>
     6d8:	c844                	sw	s1,20(s0)
     6da:	03242e23          	sw	s2,60(s0)
     6de:	c47c                	sw	a5,76(s0)
     6e0:	08042c23          	sw	zero,152(s0)
     6e4:	40b2                	lw	ra,12(sp)
     6e6:	4422                	lw	s0,8(sp)
     6e8:	4492                	lw	s1,4(sp)
     6ea:	4902                	lw	s2,0(sp)
     6ec:	0141                	addi	sp,sp,16
     6ee:	8082                	ret

000006f0 <_ZN6tflite16MicroInterpreterC1EPKNS_5ModelERKNS_15MicroOpResolverEPhjPNS_22MicroResourceVariablesEPNS_22MicroProfilerInterfaceEb>:
     6f0:	7139                	addi	sp,sp,-64
     6f2:	dc22                	sw	s0,56(sp)
     6f4:	842a                	mv	s0,a0
     6f6:	de06                	sw	ra,60(sp)
     6f8:	da26                	sw	s1,52(sp)
     6fa:	d84a                	sw	s2,48(sp)
     6fc:	d64e                	sw	s3,44(sp)
     6fe:	c00c                	sw	a1,0(s0)
     700:	00850913          	addi	s2,a0,8
     704:	89ae                	mv	s3,a1
     706:	c150                	sw	a2,4(a0)
     708:	4581                	li	a1,0
     70a:	06400613          	li	a2,100
     70e:	854a                	mv	a0,s2
     710:	c842                	sw	a6,16(sp)
     712:	ca3e                	sw	a5,20(sp)
     714:	ce36                	sw	a3,28(sp)
     716:	cc3a                	sw	a4,24(sp)
     718:	c646                	sw	a7,12(sp)
     71a:	00011097          	auipc	ra,0x11
     71e:	93a080e7          	jalr	-1734(ra) # 11054 <memset>
     722:	48b2                	lw	a7,12(sp)
     724:	4762                	lw	a4,24(sp)
     726:	46f2                	lw	a3,28(sp)
     728:	8646                	mv	a2,a7
     72a:	85ba                	mv	a1,a4
     72c:	8536                	mv	a0,a3
     72e:	00009097          	auipc	ra,0x9
     732:	a04080e7          	jalr	-1532(ra) # 9132 <_ZN6tflite14MicroAllocator6CreateEPhjNS_17MemoryPlannerTypeE>
     736:	47d2                	lw	a5,20(sp)
     738:	07040493          	addi	s1,s0,112
     73c:	86aa                	mv	a3,a0
     73e:	d468                	sw	a0,108(s0)
     740:	873e                	mv	a4,a5
     742:	864e                	mv	a2,s3
     744:	85ca                	mv	a1,s2
     746:	8526                	mv	a0,s1
     748:	00001097          	auipc	ra,0x1
     74c:	0da080e7          	jalr	218(ra) # 1822 <_ZN6tflite21MicroInterpreterGraphC1EP13TfLiteContextPKNS_5ModelEPNS_14MicroAllocatorEPNS_22MicroResourceVariablesE>
     750:	546c                	lw	a1,108(s0)
     752:	4010                	lw	a2,0(s0)
     754:	4785                	li	a5,1
     756:	0a840513          	addi	a0,s0,168
     75a:	08040a23          	sb	zero,148(s0)
     75e:	08f42c23          	sw	a5,152(s0)
     762:	08042e23          	sw	zero,156(s0)
     766:	0a042023          	sw	zero,160(s0)
     76a:	0a042223          	sw	zero,164(s0)
     76e:	86a6                	mv	a3,s1
     770:	00001097          	auipc	ra,0x1
     774:	8fa080e7          	jalr	-1798(ra) # 106a <_ZN6tflite23MicroInterpreterContextC1EPNS_14MicroAllocatorEPKNS_5ModelEPNS_21MicroInterpreterGraphE>
     778:	4842                	lw	a6,16(sp)
     77a:	8522                	mv	a0,s0
     77c:	5462                	lw	s0,56(sp)
     77e:	50f2                	lw	ra,60(sp)
     780:	54d2                	lw	s1,52(sp)
     782:	5942                	lw	s2,48(sp)
     784:	59b2                	lw	s3,44(sp)
     786:	85c2                	mv	a1,a6
     788:	6121                	addi	sp,sp,64
     78a:	00000317          	auipc	t1,0x0
     78e:	eec30067          	jr	-276(t1) # 676 <_ZN6tflite16MicroInterpreter4InitEPNS_22MicroProfilerInterfaceE>

00000792 <_ZNK11flatbuffers6VectorIlmE3GetEm>:
     792:	411c                	lw	a5,0(a0)
     794:	02f5e663          	bltu	a1,a5,7c0 <_ZNK11flatbuffers6VectorIlmE3GetEm+0x2e>
     798:	8004e697          	auipc	a3,0x8004e
     79c:	8004e617          	auipc	a2,0x8004e
     7a0:	8004e517          	auipc	a0,0x8004e
     7a4:	1141                	addi	sp,sp,-16
     7a6:	f0068693          	addi	a3,a3,-256 # 8004e698 <__stack_top+0xfff91878>
     7aa:	13c60613          	addi	a2,a2,316 # 8004e8d8 <__stack_top+0xfff91ab8>
     7ae:	0c200593          	li	a1,194
     7b2:	f0450513          	addi	a0,a0,-252 # 8004e6a4 <__stack_top+0xfff91884>
     7b6:	c606                	sw	ra,12(sp)
     7b8:	00010097          	auipc	ra,0x10
     7bc:	ab0080e7          	jalr	-1360(ra) # 10268 <__assert_func>
     7c0:	058a                	slli	a1,a1,0x2
     7c2:	952e                	add	a0,a0,a1
     7c4:	4148                	lw	a0,4(a0)
     7c6:	8082                	ret

000007c8 <_ZNK11flatbuffers6VectorINS_6OffsetIN6tflite8SubGraphEEEmE3GetEm>:
     7c8:	411c                	lw	a5,0(a0)
     7ca:	02f5e663          	bltu	a1,a5,7f6 <_ZNK11flatbuffers6VectorINS_6OffsetIN6tflite8SubGraphEEEmE3GetEm+0x2e>
     7ce:	8004e697          	auipc	a3,0x8004e
     7d2:	8004e617          	auipc	a2,0x8004e
     7d6:	8004e517          	auipc	a0,0x8004e
     7da:	1141                	addi	sp,sp,-16
     7dc:	eca68693          	addi	a3,a3,-310 # 8004e698 <__stack_top+0xfff91878>
     7e0:	01660613          	addi	a2,a2,22 # 8004e7e8 <__stack_top+0xfff919c8>
     7e4:	0c200593          	li	a1,194
     7e8:	ece50513          	addi	a0,a0,-306 # 8004e6a4 <__stack_top+0xfff91884>
     7ec:	c606                	sw	ra,12(sp)
     7ee:	00010097          	auipc	ra,0x10
     7f2:	a7a080e7          	jalr	-1414(ra) # 10268 <__assert_func>
     7f6:	058a                	slli	a1,a1,0x2
     7f8:	0511                	addi	a0,a0,4
     7fa:	952e                	add	a0,a0,a1
     7fc:	411c                	lw	a5,0(a0)
     7fe:	953e                	add	a0,a0,a5
     800:	8082                	ret

00000802 <_ZN11flatbuffers5Table10GetPointerIPKNS_6VectorIlmEEmEET_t>:
     802:	1141                	addi	sp,sp,-16
     804:	c422                	sw	s0,8(sp)
     806:	c606                	sw	ra,12(sp)
     808:	842a                	mv	s0,a0
     80a:	00000097          	auipc	ra,0x0
     80e:	e0c080e7          	jalr	-500(ra) # 616 <_ZNK11flatbuffers5Table22GetOptionalFieldOffsetEt>
     812:	c901                	beqz	a0,822 <_ZN11flatbuffers5Table10GetPointerIPKNS_6VectorIlmEEmEET_t+0x20>
     814:	9522                	add	a0,a0,s0
     816:	411c                	lw	a5,0(a0)
     818:	953e                	add	a0,a0,a5
     81a:	40b2                	lw	ra,12(sp)
     81c:	4422                	lw	s0,8(sp)
     81e:	0141                	addi	sp,sp,16
     820:	8082                	ret
     822:	4501                	li	a0,0
     824:	bfdd                	j	81a <_ZN11flatbuffers5Table10GetPointerIPKNS_6VectorIlmEEmEET_t+0x18>

00000826 <_ZN11flatbuffers5Table10GetPointerIPKNS_6VectorINS_6OffsetIN6tflite8SubGraphEEEmEEmEET_t>:
     826:	1141                	addi	sp,sp,-16
     828:	c422                	sw	s0,8(sp)
     82a:	c606                	sw	ra,12(sp)
     82c:	842a                	mv	s0,a0
     82e:	00000097          	auipc	ra,0x0
     832:	de8080e7          	jalr	-536(ra) # 616 <_ZNK11flatbuffers5Table22GetOptionalFieldOffsetEt>
     836:	c901                	beqz	a0,846 <_ZN11flatbuffers5Table10GetPointerIPKNS_6VectorINS_6OffsetIN6tflite8SubGraphEEEmEEmEET_t+0x20>
     838:	9522                	add	a0,a0,s0
     83a:	411c                	lw	a5,0(a0)
     83c:	953e                	add	a0,a0,a5
     83e:	40b2                	lw	ra,12(sp)
     840:	4422                	lw	s0,8(sp)
     842:	0141                	addi	sp,sp,16
     844:	8082                	ret
     846:	4501                	li	a0,0
     848:	bfdd                	j	83e <_ZN11flatbuffers5Table10GetPointerIPKNS_6VectorINS_6OffsetIN6tflite8SubGraphEEEmEEmEET_t+0x18>

0000084a <_ZNK6tflite16MicroInterpreter11inputs_sizeEv.isra.9>:
     84a:	1141                	addi	sp,sp,-16
     84c:	45a1                	li	a1,8
     84e:	c606                	sw	ra,12(sp)
     850:	00000097          	auipc	ra,0x0
     854:	fd6080e7          	jalr	-42(ra) # 826 <_ZN11flatbuffers5Table10GetPointerIPKNS_6VectorINS_6OffsetIN6tflite8SubGraphEEEmEEmEET_t>
     858:	4581                	li	a1,0
     85a:	00000097          	auipc	ra,0x0
     85e:	f6e080e7          	jalr	-146(ra) # 7c8 <_ZNK11flatbuffers6VectorINS_6OffsetIN6tflite8SubGraphEEEmE3GetEm>
     862:	4599                	li	a1,6
     864:	00000097          	auipc	ra,0x0
     868:	f9e080e7          	jalr	-98(ra) # 802 <_ZN11flatbuffers5Table10GetPointerIPKNS_6VectorIlmEEmEET_t>
     86c:	40b2                	lw	ra,12(sp)
     86e:	4108                	lw	a0,0(a0)
     870:	0141                	addi	sp,sp,16
     872:	8082                	ret

00000874 <_ZN6tflite16MicroInterpreter5inputEj>:
     874:	1101                	addi	sp,sp,-32
     876:	cc22                	sw	s0,24(sp)
     878:	842a                	mv	s0,a0
     87a:	4108                	lw	a0,0(a0)
     87c:	c62e                	sw	a1,12(sp)
     87e:	ce06                	sw	ra,28(sp)
     880:	00000097          	auipc	ra,0x0
     884:	fca080e7          	jalr	-54(ra) # 84a <_ZNK6tflite16MicroInterpreter11inputs_sizeEv.isra.9>
     888:	45b2                	lw	a1,12(sp)
     88a:	02a5e063          	bltu	a1,a0,8aa <_ZN6tflite16MicroInterpreter5inputEj+0x36>
     88e:	862a                	mv	a2,a0
     890:	8004e517          	auipc	a0,0x8004e
     894:	d8050513          	addi	a0,a0,-640 # 8004e610 <__stack_top+0xfff917f0>
     898:	00001097          	auipc	ra,0x1
     89c:	0d6080e7          	jalr	214(ra) # 196e <_Z11MicroPrintfPKcz>
     8a0:	4501                	li	a0,0
     8a2:	40f2                	lw	ra,28(sp)
     8a4:	4462                	lw	s0,24(sp)
     8a6:	6105                	addi	sp,sp,32
     8a8:	8082                	ret
     8aa:	0a042783          	lw	a5,160(s0)
     8ae:	058a                	slli	a1,a1,0x2
     8b0:	95be                	add	a1,a1,a5
     8b2:	4188                	lw	a0,0(a1)
     8b4:	b7fd                	j	8a2 <_ZN6tflite16MicroInterpreter5inputEj+0x2e>

000008b6 <_ZNK6tflite16MicroInterpreter12outputs_sizeEv.isra.11>:
     8b6:	1141                	addi	sp,sp,-16
     8b8:	45a1                	li	a1,8
     8ba:	c606                	sw	ra,12(sp)
     8bc:	00000097          	auipc	ra,0x0
     8c0:	f6a080e7          	jalr	-150(ra) # 826 <_ZN11flatbuffers5Table10GetPointerIPKNS_6VectorINS_6OffsetIN6tflite8SubGraphEEEmEEmEET_t>
     8c4:	4581                	li	a1,0
     8c6:	00000097          	auipc	ra,0x0
     8ca:	f02080e7          	jalr	-254(ra) # 7c8 <_ZNK11flatbuffers6VectorINS_6OffsetIN6tflite8SubGraphEEEmE3GetEm>
     8ce:	45a1                	li	a1,8
     8d0:	00000097          	auipc	ra,0x0
     8d4:	f32080e7          	jalr	-206(ra) # 802 <_ZN11flatbuffers5Table10GetPointerIPKNS_6VectorIlmEEmEET_t>
     8d8:	40b2                	lw	ra,12(sp)
     8da:	4108                	lw	a0,0(a0)
     8dc:	0141                	addi	sp,sp,16
     8de:	8082                	ret

000008e0 <_ZN6tflite16MicroInterpreter6outputEj>:
     8e0:	1101                	addi	sp,sp,-32
     8e2:	cc22                	sw	s0,24(sp)
     8e4:	842a                	mv	s0,a0
     8e6:	4108                	lw	a0,0(a0)
     8e8:	c62e                	sw	a1,12(sp)
     8ea:	ce06                	sw	ra,28(sp)
     8ec:	00000097          	auipc	ra,0x0
     8f0:	fca080e7          	jalr	-54(ra) # 8b6 <_ZNK6tflite16MicroInterpreter12outputs_sizeEv.isra.11>
     8f4:	45b2                	lw	a1,12(sp)
     8f6:	02a5e063          	bltu	a1,a0,916 <_ZN6tflite16MicroInterpreter6outputEj+0x36>
     8fa:	862a                	mv	a2,a0
     8fc:	8004e517          	auipc	a0,0x8004e
     900:	d7050513          	addi	a0,a0,-656 # 8004e66c <__stack_top+0xfff9184c>
     904:	00001097          	auipc	ra,0x1
     908:	06a080e7          	jalr	106(ra) # 196e <_Z11MicroPrintfPKcz>
     90c:	4501                	li	a0,0
     90e:	40f2                	lw	ra,28(sp)
     910:	4462                	lw	s0,24(sp)
     912:	6105                	addi	sp,sp,32
     914:	8082                	ret
     916:	0a442783          	lw	a5,164(s0)
     91a:	058a                	slli	a1,a1,0x2
     91c:	95be                	add	a1,a1,a5
     91e:	4188                	lw	a0,0(a1)
     920:	b7fd                	j	90e <_ZN6tflite16MicroInterpreter6outputEj+0x2e>

00000922 <_ZN6tflite16MicroInterpreterD1Ev>:
     922:	08052783          	lw	a5,128(a0)
     926:	1141                	addi	sp,sp,-16
     928:	c422                	sw	s0,8(sp)
     92a:	c226                	sw	s1,4(sp)
     92c:	c606                	sw	ra,12(sp)
     92e:	842a                	mv	s0,a0
     930:	07050493          	addi	s1,a0,112
     934:	c791                	beqz	a5,940 <_ZN6tflite16MicroInterpreterD1Ev+0x1e>
     936:	8526                	mv	a0,s1
     938:	00001097          	auipc	ra,0x1
     93c:	8c0080e7          	jalr	-1856(ra) # 11f8 <_ZN6tflite21MicroInterpreterGraph13FreeSubgraphsEv>
     940:	0a840513          	addi	a0,s0,168
     944:	00000097          	auipc	ra,0x0
     948:	5c8080e7          	jalr	1480(ra) # f0c <_ZN6tflite23MicroInterpreterContextD0Ev>
     94c:	4422                	lw	s0,8(sp)
     94e:	40b2                	lw	ra,12(sp)
     950:	8526                	mv	a0,s1
     952:	4492                	lw	s1,4(sp)
     954:	0141                	addi	sp,sp,16
     956:	00000317          	auipc	t1,0x0
     95a:	77c30067          	jr	1916(t1) # 10d2 <_ZN6tflite21MicroInterpreterGraphD0Ev>

0000095e <_ZN6tflite16MicroInterpreter44PrepareNodeAndRegistrationDataFromFlatbufferEv>:
     95e:	7159                	addi	sp,sp,-112
     960:	07050793          	addi	a5,a0,112
     964:	d2a6                	sw	s1,100(sp)
     966:	cece                	sw	s3,92(sp)
     968:	d686                	sw	ra,108(sp)
     96a:	d4a2                	sw	s0,104(sp)
     96c:	d0ca                	sw	s2,96(sp)
     96e:	ccd2                	sw	s4,88(sp)
     970:	cad6                	sw	s5,84(sp)
     972:	c8da                	sw	s6,80(sp)
     974:	c6de                	sw	s7,76(sp)
     976:	c4e2                	sw	s8,72(sp)
     978:	c2e6                	sw	s9,68(sp)
     97a:	c0ea                	sw	s10,64(sp)
     97c:	de6e                	sw	s11,60(sp)
     97e:	84aa                	mv	s1,a0
     980:	4981                	li	s3,0
     982:	c63e                	sw	a5,12(sp)
     984:	4532                	lw	a0,12(sp)
     986:	00001097          	auipc	ra,0x1
     98a:	e84080e7          	jalr	-380(ra) # 180a <_ZN6tflite21MicroInterpreterGraph12NumSubgraphsEv>
     98e:	28a9d363          	bge	s3,a0,c14 <_ZN6tflite16MicroInterpreter44PrepareNodeAndRegistrationDataFromFlatbufferEv+0x2b6>
     992:	4080                	lw	s0,0(s1)
     994:	45a1                	li	a1,8
     996:	8522                	mv	a0,s0
     998:	00000097          	auipc	ra,0x0
     99c:	e8e080e7          	jalr	-370(ra) # 826 <_ZN11flatbuffers5Table10GetPointerIPKNS_6VectorINS_6OffsetIN6tflite8SubGraphEEEmEEmEET_t>
     9a0:	85ce                	mv	a1,s3
     9a2:	00000097          	auipc	ra,0x0
     9a6:	e26080e7          	jalr	-474(ra) # 7c8 <_ZNK11flatbuffers6VectorINS_6OffsetIN6tflite8SubGraphEEEmE3GetEm>
     9aa:	8aaa                	mv	s5,a0
     9ac:	e911                	bnez	a0,9c0 <_ZN6tflite16MicroInterpreter44PrepareNodeAndRegistrationDataFromFlatbufferEv+0x62>
     9ae:	80000517          	auipc	a0,0x80000
     9b2:	81e50513          	addi	a0,a0,-2018 # 800001cc <__stack_top+0xfff433ac>
     9b6:	00001097          	auipc	ra,0x1
     9ba:	fb8080e7          	jalr	-72(ra) # 196e <_Z11MicroPrintfPKcz>
     9be:	a001                	j	9be <_ZN6tflite16MicroInterpreter44PrepareNodeAndRegistrationDataFromFlatbufferEv+0x60>
     9c0:	4599                	li	a1,6
     9c2:	8522                	mv	a0,s0
     9c4:	00000097          	auipc	ra,0x0
     9c8:	c52080e7          	jalr	-942(ra) # 616 <_ZNK11flatbuffers5Table22GetOptionalFieldOffsetEt>
     9cc:	4a01                	li	s4,0
     9ce:	c509                	beqz	a0,9d8 <_ZN6tflite16MicroInterpreter44PrepareNodeAndRegistrationDataFromFlatbufferEv+0x7a>
     9d0:	942a                	add	s0,s0,a0
     9d2:	00042a03          	lw	s4,0(s0)
     9d6:	9a22                	add	s4,s4,s0
     9d8:	54e8                	lw	a0,108(s1)
     9da:	00399b13          	slli	s6,s3,0x3
     9de:	4901                	li	s2,0
     9e0:	00009097          	auipc	ra,0x9
     9e4:	9ee080e7          	jalr	-1554(ra) # 93ce <_ZN6tflite14MicroAllocator23GetBuiltinDataAllocatorEv>
     9e8:	8caa                	mv	s9,a0
     9ea:	8556                	mv	a0,s5
     9ec:	00008097          	auipc	ra,0x8
     9f0:	294080e7          	jalr	660(ra) # 8c80 <_ZN6tflite20NumSubgraphOperatorsEPKNS_8SubGraphE>
     9f4:	8d2a                	mv	s10,a0
     9f6:	004a0d93          	addi	s11,s4,4
     9fa:	21a90b63          	beq	s2,s10,c10 <_ZN6tflite16MicroInterpreter44PrepareNodeAndRegistrationDataFromFlatbufferEv+0x2b2>
     9fe:	45a9                	li	a1,10
     a00:	8556                	mv	a0,s5
     a02:	00000097          	auipc	ra,0x0
     a06:	c14080e7          	jalr	-1004(ra) # 616 <_ZNK11flatbuffers5Table22GetOptionalFieldOffsetEt>
     a0a:	4401                	li	s0,0
     a0c:	c501                	beqz	a0,a14 <_ZN6tflite16MicroInterpreter44PrepareNodeAndRegistrationDataFromFlatbufferEv+0xb6>
     a0e:	9556                	add	a0,a0,s5
     a10:	4100                	lw	s0,0(a0)
     a12:	942a                	add	s0,s0,a0
     a14:	401c                	lw	a5,0(s0)
     a16:	02f96463          	bltu	s2,a5,a3e <_ZN6tflite16MicroInterpreter44PrepareNodeAndRegistrationDataFromFlatbufferEv+0xe0>
     a1a:	8004e697          	auipc	a3,0x8004e
     a1e:	8004e617          	auipc	a2,0x8004e
     a22:	8004e517          	auipc	a0,0x8004e
     a26:	c7e68693          	addi	a3,a3,-898 # 8004e698 <__stack_top+0xfff91878>
     a2a:	cda60613          	addi	a2,a2,-806 # 8004e6f8 <__stack_top+0xfff918d8>
     a2e:	0c200593          	li	a1,194
     a32:	c8250513          	addi	a0,a0,-894 # 8004e6a4 <__stack_top+0xfff91884>
     a36:	00010097          	auipc	ra,0x10
     a3a:	832080e7          	jalr	-1998(ra) # 10268 <__assert_func>
     a3e:	00291793          	slli	a5,s2,0x2
     a42:	0411                	addi	s0,s0,4
     a44:	943e                	add	s0,s0,a5
     a46:	401c                	lw	a5,0(s0)
     a48:	4591                	li	a1,4
     a4a:	4c01                	li	s8,0
     a4c:	943e                	add	s0,s0,a5
     a4e:	8522                	mv	a0,s0
     a50:	00000097          	auipc	ra,0x0
     a54:	bc6080e7          	jalr	-1082(ra) # 616 <_ZNK11flatbuffers5Table22GetOptionalFieldOffsetEt>
     a58:	c501                	beqz	a0,a60 <_ZN6tflite16MicroInterpreter44PrepareNodeAndRegistrationDataFromFlatbufferEv+0x102>
     a5a:	9522                	add	a0,a0,s0
     a5c:	00052c03          	lw	s8,0(a0)
     a60:	000a2783          	lw	a5,0(s4)
     a64:	00fc6d63          	bltu	s8,a5,a7e <_ZN6tflite16MicroInterpreter44PrepareNodeAndRegistrationDataFromFlatbufferEv+0x120>
     a68:	8004e517          	auipc	a0,0x8004e
     a6c:	85e2                	mv	a1,s8
     a6e:	ac050513          	addi	a0,a0,-1344 # 8004e528 <__stack_top+0xfff91708>
     a72:	00001097          	auipc	ra,0x1
     a76:	efc080e7          	jalr	-260(ra) # 196e <_Z11MicroPrintfPKcz>
     a7a:	4785                	li	a5,1
     a7c:	a899                	j	ad2 <_ZN6tflite16MicroInterpreter44PrepareNodeAndRegistrationDataFromFlatbufferEv+0x174>
     a7e:	002c1713          	slli	a4,s8,0x2
     a82:	976e                	add	a4,a4,s11
     a84:	431c                	lw	a5,0(a4)
     a86:	00591b93          	slli	s7,s2,0x5
     a8a:	40cc                	lw	a1,4(s1)
     a8c:	973e                	add	a4,a4,a5
     a8e:	0804a783          	lw	a5,128(s1)
     a92:	853a                	mv	a0,a4
     a94:	c83a                	sw	a4,16(sp)
     a96:	97da                	add	a5,a5,s6
     a98:	4390                	lw	a2,0(a5)
     a9a:	965e                	add	a2,a2,s7
     a9c:	0671                	addi	a2,a2,28
     a9e:	00001097          	auipc	ra,0x1
     aa2:	ef4080e7          	jalr	-268(ra) # 1992 <_ZN6tflite25GetRegistrationFromOpCodeEPKNS_12OperatorCodeERKNS_15MicroOpResolverEPPK16TFLMRegistration>
     aa6:	4742                	lw	a4,16(sp)
     aa8:	c529                	beqz	a0,af2 <_ZN6tflite16MicroInterpreter44PrepareNodeAndRegistrationDataFromFlatbufferEv+0x194>
     aaa:	c62a                	sw	a0,12(sp)
     aac:	853a                	mv	a0,a4
     aae:	00001097          	auipc	ra,0x1
     ab2:	7b4080e7          	jalr	1972(ra) # 2262 <_ZN6tflite14GetBuiltinCodeEPKNS_12OperatorCodeE>
     ab6:	00000097          	auipc	ra,0x0
     aba:	b78080e7          	jalr	-1160(ra) # 62e <_ZN6tflite23EnumNameBuiltinOperatorENS_15BuiltinOperatorE>
     abe:	85aa                	mv	a1,a0
     ac0:	8004e517          	auipc	a0,0x8004e
     ac4:	a9450513          	addi	a0,a0,-1388 # 8004e554 <__stack_top+0xfff91734>
     ac8:	00001097          	auipc	ra,0x1
     acc:	ea6080e7          	jalr	-346(ra) # 196e <_Z11MicroPrintfPKcz>
     ad0:	47b2                	lw	a5,12(sp)
     ad2:	50b6                	lw	ra,108(sp)
     ad4:	5426                	lw	s0,104(sp)
     ad6:	5496                	lw	s1,100(sp)
     ad8:	5906                	lw	s2,96(sp)
     ada:	49f6                	lw	s3,92(sp)
     adc:	4a66                	lw	s4,88(sp)
     ade:	4ad6                	lw	s5,84(sp)
     ae0:	4b46                	lw	s6,80(sp)
     ae2:	4bb6                	lw	s7,76(sp)
     ae4:	4c26                	lw	s8,72(sp)
     ae6:	4c96                	lw	s9,68(sp)
     ae8:	4d06                	lw	s10,64(sp)
     aea:	5df2                	lw	s11,60(sp)
     aec:	853e                	mv	a0,a5
     aee:	6165                	addi	sp,sp,112
     af0:	8082                	ret
     af2:	0804a783          	lw	a5,128(s1)
     af6:	97da                	add	a5,a5,s6
     af8:	439c                	lw	a5,0(a5)
     afa:	97de                	add	a5,a5,s7
     afc:	4fdc                	lw	a5,28(a5)
     afe:	e799                	bnez	a5,b0c <_ZN6tflite16MicroInterpreter44PrepareNodeAndRegistrationDataFromFlatbufferEv+0x1ae>
     b00:	8004e517          	auipc	a0,0x8004e
     b04:	85e2                	mv	a1,s8
     b06:	a8450513          	addi	a0,a0,-1404 # 8004e584 <__stack_top+0xfff91764>
     b0a:	b7a5                	j	a72 <_ZN6tflite16MicroInterpreter44PrepareNodeAndRegistrationDataFromFlatbufferEv+0x114>
     b0c:	0147ac03          	lw	s8,20(a5)
     b10:	d602                	sw	zero,44(sp)
     b12:	02000793          	li	a5,32
     b16:	8522                	mv	a0,s0
     b18:	0afc1163          	bne	s8,a5,bba <_ZN6tflite16MicroInterpreter44PrepareNodeAndRegistrationDataFromFlatbufferEv+0x25c>
     b1c:	00000097          	auipc	ra,0x0
     b20:	b34080e7          	jalr	-1228(ra) # 650 <_ZNK6tflite8Operator14custom_optionsEv>
     b24:	e559                	bnez	a0,bb2 <_ZN6tflite16MicroInterpreter44PrepareNodeAndRegistrationDataFromFlatbufferEv+0x254>
     b26:	4701                	li	a4,0
     b28:	4681                	li	a3,0
     b2a:	4599                	li	a1,6
     b2c:	8522                	mv	a0,s0
     b2e:	ce3a                	sw	a4,28(sp)
     b30:	cc36                	sw	a3,24(sp)
     b32:	00000097          	auipc	ra,0x0
     b36:	cd0080e7          	jalr	-816(ra) # 802 <_ZN11flatbuffers5Table10GetPointerIPKNS_6VectorIlmEEmEET_t>
     b3a:	00008097          	auipc	ra,0x8
     b3e:	1d0080e7          	jalr	464(ra) # 8d0a <_ZN6tflite33FlatBufferVectorToTfLiteTypeArrayEPKN11flatbuffers6VectorIlmEE>
     b42:	45a1                	li	a1,8
     b44:	ca2a                	sw	a0,20(sp)
     b46:	8522                	mv	a0,s0
     b48:	00000097          	auipc	ra,0x0
     b4c:	cba080e7          	jalr	-838(ra) # 802 <_ZN11flatbuffers5Table10GetPointerIPKNS_6VectorIlmEEmEET_t>
     b50:	00008097          	auipc	ra,0x8
     b54:	1ba080e7          	jalr	442(ra) # 8d0a <_ZN6tflite33FlatBufferVectorToTfLiteTypeArrayEPKN11flatbuffers6VectorIlmEE>
     b58:	0804a783          	lw	a5,128(s1)
     b5c:	c82a                	sw	a0,16(sp)
     b5e:	4581                	li	a1,0
     b60:	97da                	add	a5,a5,s6
     b62:	439c                	lw	a5,0(a5)
     b64:	4671                	li	a2,28
     b66:	9bbe                	add	s7,s7,a5
     b68:	855e                	mv	a0,s7
     b6a:	00010097          	auipc	ra,0x10
     b6e:	4ea080e7          	jalr	1258(ra) # 11054 <memset>
     b72:	48d2                	lw	a7,20(sp)
     b74:	4842                	lw	a6,16(sp)
     b76:	57b2                	lw	a5,44(sp)
     b78:	46e2                	lw	a3,24(sp)
     b7a:	4772                	lw	a4,28(sp)
     b7c:	011ba023          	sw	a7,0(s7)
     b80:	010ba223          	sw	a6,4(s7)
     b84:	00fba823          	sw	a5,16(s7)
     b88:	00dbaa23          	sw	a3,20(s7)
     b8c:	00ebac23          	sw	a4,24(s7)
     b90:	45d1                	li	a1,20
     b92:	8522                	mv	a0,s0
     b94:	00000097          	auipc	ra,0x0
     b98:	c6e080e7          	jalr	-914(ra) # 802 <_ZN11flatbuffers5Table10GetPointerIPKNS_6VectorIlmEEmEET_t>
     b9c:	c909                	beqz	a0,bae <_ZN6tflite16MicroInterpreter44PrepareNodeAndRegistrationDataFromFlatbufferEv+0x250>
     b9e:	411c                	lw	a5,0(a0)
     ba0:	c799                	beqz	a5,bae <_ZN6tflite16MicroInterpreter44PrepareNodeAndRegistrationDataFromFlatbufferEv+0x250>
     ba2:	00008097          	auipc	ra,0x8
     ba6:	168080e7          	jalr	360(ra) # 8d0a <_ZN6tflite33FlatBufferVectorToTfLiteTypeArrayEPKN11flatbuffers6VectorIlmEE>
     baa:	00aba423          	sw	a0,8(s7)
     bae:	0905                	addi	s2,s2,1
     bb0:	b5a9                	j	9fa <_ZN6tflite16MicroInterpreter44PrepareNodeAndRegistrationDataFromFlatbufferEv+0x9c>
     bb2:	00450693          	addi	a3,a0,4
     bb6:	4118                	lw	a4,0(a0)
     bb8:	bf8d                	j	b2a <_ZN6tflite16MicroInterpreter44PrepareNodeAndRegistrationDataFromFlatbufferEv+0x1cc>
     bba:	00000097          	auipc	ra,0x0
     bbe:	a96080e7          	jalr	-1386(ra) # 650 <_ZNK6tflite8Operator14custom_optionsEv>
     bc2:	cd01                	beqz	a0,bda <_ZN6tflite16MicroInterpreter44PrepareNodeAndRegistrationDataFromFlatbufferEv+0x27c>
     bc4:	8562                	mv	a0,s8
     bc6:	00000097          	auipc	ra,0x0
     bca:	a68080e7          	jalr	-1432(ra) # 62e <_ZN6tflite23EnumNameBuiltinOperatorENS_15BuiltinOperatorE>
     bce:	85aa                	mv	a1,a0
     bd0:	8004e517          	auipc	a0,0x8004e
     bd4:	9d850513          	addi	a0,a0,-1576 # 8004e5a8 <__stack_top+0xfff91788>
     bd8:	bd69                	j	a72 <_ZN6tflite16MicroInterpreter44PrepareNodeAndRegistrationDataFromFlatbufferEv+0x114>
     bda:	40c8                	lw	a0,4(s1)
     bdc:	85e2                	mv	a1,s8
     bde:	4118                	lw	a4,0(a0)
     be0:	4718                	lw	a4,8(a4)
     be2:	9702                	jalr	a4
     be4:	ed01                	bnez	a0,bfc <_ZN6tflite16MicroInterpreter44PrepareNodeAndRegistrationDataFromFlatbufferEv+0x29e>
     be6:	8562                	mv	a0,s8
     be8:	00000097          	auipc	ra,0x0
     bec:	a46080e7          	jalr	-1466(ra) # 62e <_ZN6tflite23EnumNameBuiltinOperatorENS_15BuiltinOperatorE>
     bf0:	85aa                	mv	a1,a0
     bf2:	8004e517          	auipc	a0,0x8004e
     bf6:	9fe50513          	addi	a0,a0,-1538 # 8004e5f0 <__stack_top+0xfff917d0>
     bfa:	bda5                	j	a72 <_ZN6tflite16MicroInterpreter44PrepareNodeAndRegistrationDataFromFlatbufferEv+0x114>
     bfc:	1074                	addi	a3,sp,44
     bfe:	8666                	mv	a2,s9
     c00:	85a2                	mv	a1,s0
     c02:	00001097          	auipc	ra,0x1
     c06:	ee6080e7          	jalr	-282(ra) # 1ae8 <_ZN6tflite24CallBuiltinParseFunctionEPF12TfLiteStatusPKNS_8OperatorEPNS_13ErrorReporterEPNS_20BuiltinDataAllocatorEPPvES3_S7_S9_>
     c0a:	87aa                	mv	a5,a0
     c0c:	dd09                	beqz	a0,b26 <_ZN6tflite16MicroInterpreter44PrepareNodeAndRegistrationDataFromFlatbufferEv+0x1c8>
     c0e:	b5d1                	j	ad2 <_ZN6tflite16MicroInterpreter44PrepareNodeAndRegistrationDataFromFlatbufferEv+0x174>
     c10:	0985                	addi	s3,s3,1
     c12:	bb8d                	j	984 <_ZN6tflite16MicroInterpreter44PrepareNodeAndRegistrationDataFromFlatbufferEv+0x26>
     c14:	4781                	li	a5,0
     c16:	bd75                	j	ad2 <_ZN6tflite16MicroInterpreter44PrepareNodeAndRegistrationDataFromFlatbufferEv+0x174>

00000c18 <_ZN6tflite16MicroInterpreter5ResetEv>:
     c18:	1141                	addi	sp,sp,-16
     c1a:	c422                	sw	s0,8(sp)
     c1c:	07050413          	addi	s0,a0,112
     c20:	8522                	mv	a0,s0
     c22:	c606                	sw	ra,12(sp)
     c24:	00000097          	auipc	ra,0x0
     c28:	550080e7          	jalr	1360(ra) # 1174 <_ZN6tflite21MicroInterpreterGraph14ResetSubgraphsEv>
     c2c:	e909                	bnez	a0,c3e <_ZN6tflite16MicroInterpreter5ResetEv+0x26>
     c2e:	8522                	mv	a0,s0
     c30:	4422                	lw	s0,8(sp)
     c32:	40b2                	lw	ra,12(sp)
     c34:	0141                	addi	sp,sp,16
     c36:	00001317          	auipc	t1,0x1
     c3a:	a0230067          	jr	-1534(t1) # 1638 <_ZN6tflite21MicroInterpreterGraph20ResetVariableTensorsEv>
     c3e:	40b2                	lw	ra,12(sp)
     c40:	4422                	lw	s0,8(sp)
     c42:	0141                	addi	sp,sp,16
     c44:	8082                	ret

00000c46 <_ZN6tflite16MicroInterpreter15AllocateTensorsEv>:
     c46:	7179                	addi	sp,sp,-48
     c48:	d422                	sw	s0,40(sp)
     c4a:	410c                	lw	a1,0(a0)
     c4c:	842a                	mv	s0,a0
     c4e:	5568                	lw	a0,108(a0)
     c50:	d606                	sw	ra,44(sp)
     c52:	d226                	sw	s1,36(sp)
     c54:	d04a                	sw	s2,32(sp)
     c56:	ce4e                	sw	s3,28(sp)
     c58:	cc52                	sw	s4,24(sp)
     c5a:	ca56                	sw	s5,20(sp)
     c5c:	c85a                	sw	s6,16(sp)
     c5e:	c65e                	sw	s7,12(sp)
     c60:	00008097          	auipc	ra,0x8
     c64:	5d0080e7          	jalr	1488(ra) # 9230 <_ZN6tflite14MicroAllocator20StartModelAllocationEPKNS_5ModelE>
     c68:	e90d                	bnez	a0,c9a <_ZN6tflite16MicroInterpreter15AllocateTensorsEv+0x54>
     c6a:	8004d517          	auipc	a0,0x8004d
     c6e:	7b250513          	addi	a0,a0,1970 # 8004e41c <__stack_top+0xfff915fc>
     c72:	00001097          	auipc	ra,0x1
     c76:	cfc080e7          	jalr	-772(ra) # 196e <_Z11MicroPrintfPKcz>
     c7a:	4785                	li	a5,1
     c7c:	08f42c23          	sw	a5,152(s0)
     c80:	4485                	li	s1,1
     c82:	50b2                	lw	ra,44(sp)
     c84:	5422                	lw	s0,40(sp)
     c86:	8526                	mv	a0,s1
     c88:	5902                	lw	s2,32(sp)
     c8a:	5492                	lw	s1,36(sp)
     c8c:	49f2                	lw	s3,28(sp)
     c8e:	4a62                	lw	s4,24(sp)
     c90:	4ad2                	lw	s5,20(sp)
     c92:	4b42                	lw	s6,16(sp)
     c94:	4bb2                	lw	s7,12(sp)
     c96:	6145                	addi	sp,sp,48
     c98:	8082                	ret
     c9a:	07040993          	addi	s3,s0,112
     c9e:	85aa                	mv	a1,a0
     ca0:	854e                	mv	a0,s3
     ca2:	00001097          	auipc	ra,0x1
     ca6:	958080e7          	jalr	-1704(ra) # 15fa <_ZN6tflite21MicroInterpreterGraph22SetSubgraphAllocationsEPNS_19SubgraphAllocationsE>
     caa:	8522                	mv	a0,s0
     cac:	00000097          	auipc	ra,0x0
     cb0:	cb2080e7          	jalr	-846(ra) # 95e <_ZN6tflite16MicroInterpreter44PrepareNodeAndRegistrationDataFromFlatbufferEv>
     cb4:	84aa                	mv	s1,a0
     cb6:	f571                	bnez	a0,c82 <_ZN6tflite16MicroInterpreter15AllocateTensorsEv+0x3c>
     cb8:	0a840913          	addi	s2,s0,168
     cbc:	4581                	li	a1,0
     cbe:	854a                	mv	a0,s2
     cc0:	00000097          	auipc	ra,0x0
     cc4:	3dc080e7          	jalr	988(ra) # 109c <_ZN6tflite23MicroInterpreterContext19SetInterpreterStateENS0_16InterpreterStateE>
     cc8:	854e                	mv	a0,s3
     cca:	00000097          	auipc	ra,0x0
     cce:	40a080e7          	jalr	1034(ra) # 10d4 <_ZN6tflite21MicroInterpreterGraph13InitSubgraphsEv>
     cd2:	84aa                	mv	s1,a0
     cd4:	f55d                	bnez	a0,c82 <_ZN6tflite16MicroInterpreter15AllocateTensorsEv+0x3c>
     cd6:	4585                	li	a1,1
     cd8:	854a                	mv	a0,s2
     cda:	00000097          	auipc	ra,0x0
     cde:	3c2080e7          	jalr	962(ra) # 109c <_ZN6tflite23MicroInterpreterContext19SetInterpreterStateENS0_16InterpreterStateE>
     ce2:	854e                	mv	a0,s3
     ce4:	00000097          	auipc	ra,0x0
     ce8:	598080e7          	jalr	1432(ra) # 127c <_ZN6tflite21MicroInterpreterGraph16PrepareSubgraphsEv>
     cec:	84aa                	mv	s1,a0
     cee:	f951                	bnez	a0,c82 <_ZN6tflite16MicroInterpreter15AllocateTensorsEv+0x3c>
     cf0:	4589                	li	a1,2
     cf2:	854a                	mv	a0,s2
     cf4:	00000097          	auipc	ra,0x0
     cf8:	3a8080e7          	jalr	936(ra) # 109c <_ZN6tflite23MicroInterpreterContext19SetInterpreterStateENS0_16InterpreterStateE>
     cfc:	08042603          	lw	a2,128(s0)
     d00:	400c                	lw	a1,0(s0)
     d02:	5468                	lw	a0,108(s0)
     d04:	09c40693          	addi	a3,s0,156
     d08:	00008097          	auipc	ra,0x8
     d0c:	4a6080e7          	jalr	1190(ra) # 91ae <_ZN6tflite14MicroAllocator21FinishModelAllocationEPKNS_5ModelEPNS_19SubgraphAllocationsEPPNS_19ScratchBufferHandleE>
     d10:	84aa                	mv	s1,a0
     d12:	f925                	bnez	a0,c82 <_ZN6tflite16MicroInterpreter15AllocateTensorsEv+0x3c>
     d14:	09c42583          	lw	a1,156(s0)
     d18:	854a                	mv	a0,s2
     d1a:	00000097          	auipc	ra,0x0
     d1e:	37e080e7          	jalr	894(ra) # 1098 <_ZN6tflite23MicroInterpreterContext23SetScratchBufferHandlesEPNS_19ScratchBufferHandleE>
     d22:	4008                	lw	a0,0(s0)
     d24:	5464                	lw	s1,108(s0)
     d26:	00000097          	auipc	ra,0x0
     d2a:	b24080e7          	jalr	-1244(ra) # 84a <_ZNK6tflite16MicroInterpreter11inputs_sizeEv.isra.9>
     d2e:	409c                	lw	a5,0(s1)
     d30:	00251593          	slli	a1,a0,0x2
     d34:	8526                	mv	a0,s1
     d36:	4fdc                	lw	a5,28(a5)
     d38:	4481                	li	s1,0
     d3a:	9782                	jalr	a5
     d3c:	0aa42023          	sw	a0,160(s0)
     d40:	e115                	bnez	a0,d64 <_ZN6tflite16MicroInterpreter15AllocateTensorsEv+0x11e>
     d42:	4008                	lw	a0,0(s0)
     d44:	00000097          	auipc	ra,0x0
     d48:	b06080e7          	jalr	-1274(ra) # 84a <_ZNK6tflite16MicroInterpreter11inputs_sizeEv.isra.9>
     d4c:	00251593          	slli	a1,a0,0x2
     d50:	8004d517          	auipc	a0,0x8004d
     d54:	6f050513          	addi	a0,a0,1776 # 8004e440 <__stack_top+0xfff91620>
     d58:	00001097          	auipc	ra,0x1
     d5c:	c16080e7          	jalr	-1002(ra) # 196e <_Z11MicroPrintfPKcz>
     d60:	b705                	j	c80 <_ZN6tflite16MicroInterpreter15AllocateTensorsEv+0x3a>
     d62:	0485                	addi	s1,s1,1
     d64:	00042983          	lw	s3,0(s0)
     d68:	854e                	mv	a0,s3
     d6a:	00000097          	auipc	ra,0x0
     d6e:	ae0080e7          	jalr	-1312(ra) # 84a <_ZNK6tflite16MicroInterpreter11inputs_sizeEv.isra.9>
     d72:	06c42a83          	lw	s5,108(s0)
     d76:	000aab83          	lw	s7,0(s5)
     d7a:	06a4f363          	bgeu	s1,a0,de0 <_ZN6tflite16MicroInterpreter15AllocateTensorsEv+0x19a>
     d7e:	45a1                	li	a1,8
     d80:	854e                	mv	a0,s3
     d82:	00000097          	auipc	ra,0x0
     d86:	aa4080e7          	jalr	-1372(ra) # 826 <_ZN11flatbuffers5Table10GetPointerIPKNS_6VectorINS_6OffsetIN6tflite8SubGraphEEEmEEmEET_t>
     d8a:	4581                	li	a1,0
     d8c:	00000097          	auipc	ra,0x0
     d90:	a3c080e7          	jalr	-1476(ra) # 7c8 <_ZNK11flatbuffers6VectorINS_6OffsetIN6tflite8SubGraphEEEmE3GetEm>
     d94:	4599                	li	a1,6
     d96:	00000097          	auipc	ra,0x0
     d9a:	a6c080e7          	jalr	-1428(ra) # 802 <_ZN11flatbuffers5Table10GetPointerIPKNS_6VectorIlmEEmEET_t>
     d9e:	85a6                	mv	a1,s1
     da0:	00000097          	auipc	ra,0x0
     da4:	9f2080e7          	jalr	-1550(ra) # 792 <_ZNK11flatbuffers6VectorIlmE3GetEm>
     da8:	000ba783          	lw	a5,0(s7)
     dac:	08042603          	lw	a2,128(s0)
     db0:	86aa                	mv	a3,a0
     db2:	4701                	li	a4,0
     db4:	85ce                	mv	a1,s3
     db6:	8556                	mv	a0,s5
     db8:	0a042b03          	lw	s6,160(s0)
     dbc:	9782                	jalr	a5
     dbe:	0a042783          	lw	a5,160(s0)
     dc2:	00249a13          	slli	s4,s1,0x2
     dc6:	9b52                	add	s6,s6,s4
     dc8:	00ab2023          	sw	a0,0(s6)
     dcc:	9a3e                	add	s4,s4,a5
     dce:	000a2783          	lw	a5,0(s4)
     dd2:	fbc1                	bnez	a5,d62 <_ZN6tflite16MicroInterpreter15AllocateTensorsEv+0x11c>
     dd4:	8004d517          	auipc	a0,0x8004d
     dd8:	85a6                	mv	a1,s1
     dda:	6b850513          	addi	a0,a0,1720 # 8004e48c <__stack_top+0xfff9166c>
     dde:	bfad                	j	d58 <_ZN6tflite16MicroInterpreter15AllocateTensorsEv+0x112>
     de0:	854e                	mv	a0,s3
     de2:	00000097          	auipc	ra,0x0
     de6:	ad4080e7          	jalr	-1324(ra) # 8b6 <_ZNK6tflite16MicroInterpreter12outputs_sizeEv.isra.11>
     dea:	01cba783          	lw	a5,28(s7)
     dee:	00251593          	slli	a1,a0,0x2
     df2:	8556                	mv	a0,s5
     df4:	9782                	jalr	a5
     df6:	0aa42223          	sw	a0,164(s0)
     dfa:	4481                	li	s1,0
     dfc:	ed11                	bnez	a0,e18 <_ZN6tflite16MicroInterpreter15AllocateTensorsEv+0x1d2>
     dfe:	4008                	lw	a0,0(s0)
     e00:	00000097          	auipc	ra,0x0
     e04:	ab6080e7          	jalr	-1354(ra) # 8b6 <_ZNK6tflite16MicroInterpreter12outputs_sizeEv.isra.11>
     e08:	00251593          	slli	a1,a0,0x2
     e0c:	8004d517          	auipc	a0,0x8004d
     e10:	6a850513          	addi	a0,a0,1704 # 8004e4b4 <__stack_top+0xfff91694>
     e14:	b791                	j	d58 <_ZN6tflite16MicroInterpreter15AllocateTensorsEv+0x112>
     e16:	0485                	addi	s1,s1,1
     e18:	00042a83          	lw	s5,0(s0)
     e1c:	8556                	mv	a0,s5
     e1e:	00000097          	auipc	ra,0x0
     e22:	a98080e7          	jalr	-1384(ra) # 8b6 <_ZNK6tflite16MicroInterpreter12outputs_sizeEv.isra.11>
     e26:	06a4f663          	bgeu	s1,a0,e92 <_ZN6tflite16MicroInterpreter15AllocateTensorsEv+0x24c>
     e2a:	45a1                	li	a1,8
     e2c:	8556                	mv	a0,s5
     e2e:	00000097          	auipc	ra,0x0
     e32:	9f8080e7          	jalr	-1544(ra) # 826 <_ZN11flatbuffers5Table10GetPointerIPKNS_6VectorINS_6OffsetIN6tflite8SubGraphEEEmEEmEET_t>
     e36:	4581                	li	a1,0
     e38:	00000097          	auipc	ra,0x0
     e3c:	990080e7          	jalr	-1648(ra) # 7c8 <_ZNK11flatbuffers6VectorINS_6OffsetIN6tflite8SubGraphEEEmE3GetEm>
     e40:	45a1                	li	a1,8
     e42:	00000097          	auipc	ra,0x0
     e46:	9c0080e7          	jalr	-1600(ra) # 802 <_ZN11flatbuffers5Table10GetPointerIPKNS_6VectorIlmEEmEET_t>
     e4a:	06c42b03          	lw	s6,108(s0)
     e4e:	85a6                	mv	a1,s1
     e50:	00000097          	auipc	ra,0x0
     e54:	942080e7          	jalr	-1726(ra) # 792 <_ZNK11flatbuffers6VectorIlmE3GetEm>
     e58:	000b2783          	lw	a5,0(s6)
     e5c:	08042603          	lw	a2,128(s0)
     e60:	86aa                	mv	a3,a0
     e62:	439c                	lw	a5,0(a5)
     e64:	4701                	li	a4,0
     e66:	85d6                	mv	a1,s5
     e68:	855a                	mv	a0,s6
     e6a:	0a442a03          	lw	s4,164(s0)
     e6e:	9782                	jalr	a5
     e70:	0a442783          	lw	a5,164(s0)
     e74:	00249993          	slli	s3,s1,0x2
     e78:	9a4e                	add	s4,s4,s3
     e7a:	00aa2023          	sw	a0,0(s4)
     e7e:	99be                	add	s3,s3,a5
     e80:	0009a783          	lw	a5,0(s3)
     e84:	fbc9                	bnez	a5,e16 <_ZN6tflite16MicroInterpreter15AllocateTensorsEv+0x1d0>
     e86:	8004d517          	auipc	a0,0x8004d
     e8a:	85a6                	mv	a1,s1
     e8c:	67a50513          	addi	a0,a0,1658 # 8004e500 <__stack_top+0xfff916e0>
     e90:	b5e1                	j	d58 <_ZN6tflite16MicroInterpreter15AllocateTensorsEv+0x112>
     e92:	8522                	mv	a0,s0
     e94:	00000097          	auipc	ra,0x0
     e98:	d84080e7          	jalr	-636(ra) # c18 <_ZN6tflite16MicroInterpreter5ResetEv>
     e9c:	84aa                	mv	s1,a0
     e9e:	de0512e3          	bnez	a0,c82 <_ZN6tflite16MicroInterpreter15AllocateTensorsEv+0x3c>
     ea2:	4785                	li	a5,1
     ea4:	08f40a23          	sb	a5,148(s0)
     ea8:	458d                	li	a1,3
     eaa:	854a                	mv	a0,s2
     eac:	00000097          	auipc	ra,0x0
     eb0:	1f0080e7          	jalr	496(ra) # 109c <_ZN6tflite23MicroInterpreterContext19SetInterpreterStateENS0_16InterpreterStateE>
     eb4:	b3f9                	j	c82 <_ZN6tflite16MicroInterpreter15AllocateTensorsEv+0x3c>

00000eb6 <_ZN6tflite16MicroInterpreter6InvokeEv>:
     eb6:	09852783          	lw	a5,152(a0)
     eba:	1141                	addi	sp,sp,-16
     ebc:	c606                	sw	ra,12(sp)
     ebe:	c422                	sw	s0,8(sp)
     ec0:	cf91                	beqz	a5,edc <_ZN6tflite16MicroInterpreter6InvokeEv+0x26>
     ec2:	8004d517          	auipc	a0,0x8004d
     ec6:	77a50513          	addi	a0,a0,1914 # 8004e63c <__stack_top+0xfff9181c>
     eca:	00001097          	auipc	ra,0x1
     ece:	aa4080e7          	jalr	-1372(ra) # 196e <_Z11MicroPrintfPKcz>
     ed2:	4505                	li	a0,1
     ed4:	40b2                	lw	ra,12(sp)
     ed6:	4422                	lw	s0,8(sp)
     ed8:	0141                	addi	sp,sp,16
     eda:	8082                	ret
     edc:	09454783          	lbu	a5,148(a0)
     ee0:	842a                	mv	s0,a0
     ee2:	cb99                	beqz	a5,ef8 <_ZN6tflite16MicroInterpreter6InvokeEv+0x42>
     ee4:	07040513          	addi	a0,s0,112
     ee8:	4422                	lw	s0,8(sp)
     eea:	40b2                	lw	ra,12(sp)
     eec:	4581                	li	a1,0
     eee:	0141                	addi	sp,sp,16
     ef0:	00000317          	auipc	t1,0x0
     ef4:	57430067          	jr	1396(t1) # 1464 <_ZN6tflite21MicroInterpreterGraph14InvokeSubgraphEi>
     ef8:	00000097          	auipc	ra,0x0
     efc:	d4e080e7          	jalr	-690(ra) # c46 <_ZN6tflite16MicroInterpreter15AllocateTensorsEv>
     f00:	d175                	beqz	a0,ee4 <_ZN6tflite16MicroInterpreter6InvokeEv+0x2e>
     f02:	bfc9                	j	ed4 <_ZN6tflite16MicroInterpreter6InvokeEv+0x1e>

00000f04 <_ZN6tflite23MicroInterpreterContext16external_contextEv>:
     f04:	5148                	lw	a0,36(a0)
     f06:	8082                	ret

00000f08 <_ZN6tflite23MicroInterpreterContext5graphEv>:
     f08:	4948                	lw	a0,20(a0)
     f0a:	8082                	ret

00000f0c <_ZN6tflite23MicroInterpreterContextD0Ev>:
     f0c:	8082                	ret

00000f0e <_ZN6tflite23MicroInterpreterContext24AllocateTempTfLiteTensorEi>:
     f0e:	87aa                	mv	a5,a0
     f10:	4908                	lw	a0,16(a0)
     f12:	4bd0                	lw	a2,20(a5)
     f14:	86ae                	mv	a3,a1
     f16:	4118                	lw	a4,0(a0)
     f18:	4f8c                	lw	a1,24(a5)
     f1a:	00472303          	lw	t1,4(a4) # 22004 <__trunctfdf2+0x4060>
     f1e:	4a58                	lw	a4,20(a2)
     f20:	4a10                	lw	a2,16(a2)
     f22:	8302                	jr	t1

00000f24 <_ZN6tflite23MicroInterpreterContext26DeallocateTempTfLiteTensorEP12TfLiteTensor>:
     f24:	4908                	lw	a0,16(a0)
     f26:	411c                	lw	a5,0(a0)
     f28:	0087a303          	lw	t1,8(a5)
     f2c:	8302                	jr	t1

00000f2e <_ZN6tflite23MicroInterpreterContext13GetEvalTensorEi>:
     f2e:	495c                	lw	a5,20(a0)
     f30:	4531                	li	a0,12
     f32:	02a585b3          	mul	a1,a1,a0
     f36:	4bd8                	lw	a4,20(a5)
     f38:	4b9c                	lw	a5,16(a5)
     f3a:	070e                	slli	a4,a4,0x3
     f3c:	97ba                	add	a5,a5,a4
     f3e:	43c8                	lw	a0,4(a5)
     f40:	952e                	add	a0,a0,a1
     f42:	8082                	ret

00000f44 <_ZN6tflite23MicroInterpreterContext20SetAlternateProfilerEPNS_22MicroProfilerInterfaceE>:
     f44:	d50c                	sw	a1,40(a0)
     f46:	4501                	li	a0,0
     f48:	8082                	ret

00000f4a <_ZNK6tflite23MicroInterpreterContext20GetAlternateProfilerEv>:
     f4a:	5508                	lw	a0,40(a0)
     f4c:	8082                	ret

00000f4e <_ZN6tflite23MicroInterpreterContext22SetDecompressionMemoryEPKNS_12MicroContext21AlternateMemoryRegionEj>:
     f4e:	4d5c                	lw	a5,28(a0)
     f50:	e789                	bnez	a5,f5a <_ZN6tflite23MicroInterpreterContext22SetDecompressionMemoryEPKNS_12MicroContext21AlternateMemoryRegionEj+0xc>
     f52:	00009317          	auipc	t1,0x9
     f56:	d2630067          	jr	-730(t1) # 9c78 <_ZN6tflite12MicroContext22SetDecompressionMemoryEPKNS0_21AlternateMemoryRegionEj>
     f5a:	4505                	li	a0,1
     f5c:	8082                	ret

00000f5e <_Z9AbortImplv>:
     f5e:	7ffff517          	auipc	a0,0x7ffff
     f62:	1141                	addi	sp,sp,-16
     f64:	26e50513          	addi	a0,a0,622 # 800001cc <_ZTVN6tflite22MicroMutableOpResolverILj5EEE+0x104>
     f68:	c606                	sw	ra,12(sp)
     f6a:	00001097          	auipc	ra,0x1
     f6e:	a04080e7          	jalr	-1532(ra) # 196e <_Z11MicroPrintfPKcz>
     f72:	a001                	j	f72 <_Z9AbortImplv+0x14>

00000f74 <_ZN6tflite23MicroInterpreterContext24AllocatePersistentBufferEj>:
     f74:	4d58                	lw	a4,28(a0)
     f76:	4785                	li	a5,1
     f78:	00e7f863          	bgeu	a5,a4,f88 <_ZN6tflite23MicroInterpreterContext24AllocatePersistentBufferEj+0x14>
     f7c:	1141                	addi	sp,sp,-16
     f7e:	c606                	sw	ra,12(sp)
     f80:	00000097          	auipc	ra,0x0
     f84:	fde080e7          	jalr	-34(ra) # f5e <_Z9AbortImplv>
     f88:	4908                	lw	a0,16(a0)
     f8a:	411c                	lw	a5,0(a0)
     f8c:	01c7a303          	lw	t1,28(a5)
     f90:	8302                	jr	t1

00000f92 <_ZN6tflite23MicroInterpreterContext27RequestScratchBufferInArenaEjPi>:
     f92:	4d58                	lw	a4,28(a0)
     f94:	4785                	li	a5,1
     f96:	00f70863          	beq	a4,a5,fa6 <_ZN6tflite23MicroInterpreterContext27RequestScratchBufferInArenaEjPi+0x14>
     f9a:	1141                	addi	sp,sp,-16
     f9c:	c606                	sw	ra,12(sp)
     f9e:	00000097          	auipc	ra,0x0
     fa2:	fc0080e7          	jalr	-64(ra) # f5e <_Z9AbortImplv>
     fa6:	495c                	lw	a5,20(a0)
     fa8:	86b2                	mv	a3,a2
     faa:	4908                	lw	a0,16(a0)
     fac:	4bd0                	lw	a2,20(a5)
     fae:	00008317          	auipc	t1,0x8
     fb2:	34a30067          	jr	842(t1) # 92f8 <_ZN6tflite14MicroAllocator27RequestScratchBufferInArenaEjiPi>

00000fb6 <_ZN6tflite23MicroInterpreterContext16GetScratchBufferEi>:
     fb6:	4d58                	lw	a4,28(a0)
     fb8:	478d                	li	a5,3
     fba:	00f70863          	beq	a4,a5,fca <_ZN6tflite23MicroInterpreterContext16GetScratchBufferEi+0x14>
     fbe:	1141                	addi	sp,sp,-16
     fc0:	c606                	sw	ra,12(sp)
     fc2:	00000097          	auipc	ra,0x0
     fc6:	f9c080e7          	jalr	-100(ra) # f5e <_Z9AbortImplv>
     fca:	511c                	lw	a5,32(a0)
     fcc:	058a                	slli	a1,a1,0x2
     fce:	97ae                	add	a5,a5,a1
     fd0:	4388                	lw	a0,0(a5)
     fd2:	8082                	ret

00000fd4 <_ZN6tflite23MicroInterpreterContext18AllocateTempBufferEjj>:
     fd4:	4d58                	lw	a4,28(a0)
     fd6:	4785                	li	a5,1
     fd8:	00f70863          	beq	a4,a5,fe8 <_ZN6tflite23MicroInterpreterContext18AllocateTempBufferEjj+0x14>
     fdc:	1141                	addi	sp,sp,-16
     fde:	c606                	sw	ra,12(sp)
     fe0:	00000097          	auipc	ra,0x0
     fe4:	f7e080e7          	jalr	-130(ra) # f5e <_Z9AbortImplv>
     fe8:	4908                	lw	a0,16(a0)
     fea:	411c                	lw	a5,0(a0)
     fec:	00c7a303          	lw	t1,12(a5)
     ff0:	8302                	jr	t1

00000ff2 <_ZN6tflite23MicroInterpreterContext20DeallocateTempBufferEPh>:
     ff2:	4d58                	lw	a4,28(a0)
     ff4:	4785                	li	a5,1
     ff6:	00f70863          	beq	a4,a5,1006 <_ZN6tflite23MicroInterpreterContext20DeallocateTempBufferEPh+0x14>
     ffa:	1141                	addi	sp,sp,-16
     ffc:	c606                	sw	ra,12(sp)
     ffe:	00000097          	auipc	ra,0x0
    1002:	f60080e7          	jalr	-160(ra) # f5e <_Z9AbortImplv>
    1006:	4908                	lw	a0,16(a0)
    1008:	411c                	lw	a5,0(a0)
    100a:	0107a303          	lw	t1,16(a5)
    100e:	8302                	jr	t1

00001010 <_ZN6tflite23MicroInterpreterContext20set_external_contextEPv>:
    1010:	4d5c                	lw	a5,28(a0)
    1012:	1141                	addi	sp,sp,-16
    1014:	c606                	sw	ra,12(sp)
    1016:	4705                	li	a4,1
    1018:	00f77963          	bgeu	a4,a5,102a <_ZN6tflite23MicroInterpreterContext20set_external_contextEPv+0x1a>
    101c:	470d                	li	a4,3
    101e:	00e78663          	beq	a5,a4,102a <_ZN6tflite23MicroInterpreterContext20set_external_contextEPv+0x1a>
    1022:	00000097          	auipc	ra,0x0
    1026:	f3c080e7          	jalr	-196(ra) # f5e <_Z9AbortImplv>
    102a:	5150                	lw	a2,36(a0)
    102c:	c191                	beqz	a1,1030 <_ZN6tflite23MicroInterpreterContext20set_external_contextEPv+0x20>
    102e:	ce09                	beqz	a2,1048 <_ZN6tflite23MicroInterpreterContext20set_external_contextEPv+0x38>
    1030:	8004e517          	auipc	a0,0x8004e
    1034:	4f050513          	addi	a0,a0,1264 # 8004f520 <__stack_top+0xfff92700>
    1038:	00001097          	auipc	ra,0x1
    103c:	936080e7          	jalr	-1738(ra) # 196e <_Z11MicroPrintfPKcz>
    1040:	4505                	li	a0,1
    1042:	40b2                	lw	ra,12(sp)
    1044:	0141                	addi	sp,sp,16
    1046:	8082                	ret
    1048:	d14c                	sw	a1,36(a0)
    104a:	4501                	li	a0,0
    104c:	bfdd                	j	1042 <_ZN6tflite23MicroInterpreterContext20set_external_contextEPv+0x32>

0000104e <_ZN6tflite23MicroInterpreterContext27AllocateDecompressionMemoryEjj>:
    104e:	4d58                	lw	a4,28(a0)
    1050:	4785                	li	a5,1
    1052:	00f70863          	beq	a4,a5,1062 <_ZN6tflite23MicroInterpreterContext27AllocateDecompressionMemoryEjj+0x14>
    1056:	1141                	addi	sp,sp,-16
    1058:	c606                	sw	ra,12(sp)
    105a:	00000097          	auipc	ra,0x0
    105e:	f04080e7          	jalr	-252(ra) # f5e <_Z9AbortImplv>
    1062:	00009317          	auipc	t1,0x9
    1066:	c4e30067          	jr	-946(t1) # 9cb0 <_ZN6tflite12MicroContext27AllocateDecompressionMemoryEjj>

0000106a <_ZN6tflite23MicroInterpreterContextC1EPNS_14MicroAllocatorEPKNS_5ModelEPNS_21MicroInterpreterGraphE>:
    106a:	8004e797          	auipc	a5,0x8004e
    106e:	46e78793          	addi	a5,a5,1134 # 8004f4d8 <__stack_top+0xfff926b8>
    1072:	00052223          	sw	zero,4(a0)
    1076:	00052423          	sw	zero,8(a0)
    107a:	00052623          	sw	zero,12(a0)
    107e:	c11c                	sw	a5,0(a0)
    1080:	c90c                	sw	a1,16(a0)
    1082:	c954                	sw	a3,20(a0)
    1084:	cd10                	sw	a2,24(a0)
    1086:	00052e23          	sw	zero,28(a0)
    108a:	02052023          	sw	zero,32(a0)
    108e:	02052223          	sw	zero,36(a0)
    1092:	02052423          	sw	zero,40(a0)
    1096:	8082                	ret

00001098 <_ZN6tflite23MicroInterpreterContext23SetScratchBufferHandlesEPNS_19ScratchBufferHandleE>:
    1098:	d10c                	sw	a1,32(a0)
    109a:	8082                	ret

0000109c <_ZN6tflite23MicroInterpreterContext19SetInterpreterStateENS0_16InterpreterStateE>:
    109c:	cd4c                	sw	a1,28(a0)
    109e:	8082                	ret

000010a0 <_ZN6tflite21MicroInterpreterGraph20GetResourceVariablesEv>:
    10a0:	4d48                	lw	a0,28(a0)
    10a2:	8082                	ret

000010a4 <_ZN6tflite12_GLOBAL__N_122OpNameFromRegistrationEPK16TFLMRegistration>:
    10a4:	495c                	lw	a5,20(a0)
    10a6:	02000713          	li	a4,32
    10aa:	00e79463          	bne	a5,a4,10b2 <_ZN6tflite12_GLOBAL__N_122OpNameFromRegistrationEPK16TFLMRegistration+0xe>
    10ae:	4d08                	lw	a0,24(a0)
    10b0:	8082                	ret
    10b2:	8004f517          	auipc	a0,0x8004f
    10b6:	0d100713          	li	a4,209
    10ba:	8b650513          	addi	a0,a0,-1866 # 8004f968 <__stack_top+0xfff92b48>
    10be:	00f76963          	bltu	a4,a5,10d0 <_ZN6tflite12_GLOBAL__N_122OpNameFromRegistrationEPK16TFLMRegistration+0x2c>
    10c2:	8004d717          	auipc	a4,0x8004d
    10c6:	078a                	slli	a5,a5,0x2
    10c8:	00e70713          	addi	a4,a4,14 # 8004e0d0 <__stack_top+0xfff912b0>
    10cc:	97ba                	add	a5,a5,a4
    10ce:	4388                	lw	a0,0(a5)
    10d0:	8082                	ret

000010d2 <_ZN6tflite21MicroInterpreterGraphD0Ev>:
    10d2:	8082                	ret

000010d4 <_ZN6tflite21MicroInterpreterGraph13InitSubgraphsEv>:
    10d4:	7179                	addi	sp,sp,-48
    10d6:	ce4e                	sw	s3,28(sp)
    10d8:	cc52                	sw	s4,24(sp)
    10da:	01852983          	lw	s3,24(a0)
    10de:	01452a03          	lw	s4,20(a0)
    10e2:	d422                	sw	s0,40(sp)
    10e4:	d04a                	sw	s2,32(sp)
    10e6:	ca56                	sw	s5,20(sp)
    10e8:	d606                	sw	ra,44(sp)
    10ea:	d226                	sw	s1,36(sp)
    10ec:	c85a                	sw	s6,16(sp)
    10ee:	c65e                	sw	s7,12(sp)
    10f0:	842a                	mv	s0,a0
    10f2:	4901                	li	s2,0
    10f4:	02000a93          	li	s5,32
    10f8:	501c                	lw	a5,32(s0)
    10fa:	439c                	lw	a5,0(a5)
    10fc:	04f97c63          	bgeu	s2,a5,1154 <_ZN6tflite21MicroInterpreterGraph13InitSubgraphsEv+0x80>
    1100:	4408                	lw	a0,8(s0)
    1102:	01242a23          	sw	s2,20(s0)
    1106:	85ca                	mv	a1,s2
    1108:	00008097          	auipc	ra,0x8
    110c:	ba4080e7          	jalr	-1116(ra) # 8cac <_ZN6tflite20NumSubgraphOperatorsEPKNS_5ModelEi>
    1110:	8b2a                	mv	s6,a0
    1112:	00042c23          	sw	zero,24(s0)
    1116:	00391b93          	slli	s7,s2,0x3
    111a:	4c04                	lw	s1,24(s0)
    111c:	0364fa63          	bgeu	s1,s6,1150 <_ZN6tflite21MicroInterpreterGraph13InitSubgraphsEv+0x7c>
    1120:	4818                	lw	a4,16(s0)
    1122:	00549793          	slli	a5,s1,0x5
    1126:	975e                	add	a4,a4,s7
    1128:	4304                	lw	s1,0(a4)
    112a:	94be                	add	s1,s1,a5
    112c:	4cdc                	lw	a5,28(s1)
    112e:	4bd8                	lw	a4,20(a5)
    1130:	01571d63          	bne	a4,s5,114a <_ZN6tflite21MicroInterpreterGraph13InitSubgraphsEv+0x76>
    1134:	48cc                	lw	a1,20(s1)
    1136:	4c90                	lw	a2,24(s1)
    1138:	439c                	lw	a5,0(a5)
    113a:	c781                	beqz	a5,1142 <_ZN6tflite21MicroInterpreterGraph13InitSubgraphsEv+0x6e>
    113c:	4048                	lw	a0,4(s0)
    113e:	9782                	jalr	a5
    1140:	c4c8                	sw	a0,12(s1)
    1142:	4c1c                	lw	a5,24(s0)
    1144:	0785                	addi	a5,a5,1
    1146:	cc1c                	sw	a5,24(s0)
    1148:	bfc9                	j	111a <_ZN6tflite21MicroInterpreterGraph13InitSubgraphsEv+0x46>
    114a:	488c                	lw	a1,16(s1)
    114c:	4601                	li	a2,0
    114e:	b7ed                	j	1138 <_ZN6tflite21MicroInterpreterGraph13InitSubgraphsEv+0x64>
    1150:	0905                	addi	s2,s2,1
    1152:	b75d                	j	10f8 <_ZN6tflite21MicroInterpreterGraph13InitSubgraphsEv+0x24>
    1154:	01442a23          	sw	s4,20(s0)
    1158:	01342c23          	sw	s3,24(s0)
    115c:	50b2                	lw	ra,44(sp)
    115e:	5422                	lw	s0,40(sp)
    1160:	5492                	lw	s1,36(sp)
    1162:	5902                	lw	s2,32(sp)
    1164:	49f2                	lw	s3,28(sp)
    1166:	4a62                	lw	s4,24(sp)
    1168:	4ad2                	lw	s5,20(sp)
    116a:	4b42                	lw	s6,16(sp)
    116c:	4bb2                	lw	s7,12(sp)
    116e:	4501                	li	a0,0
    1170:	6145                	addi	sp,sp,48
    1172:	8082                	ret

00001174 <_ZN6tflite21MicroInterpreterGraph14ResetSubgraphsEv>:
    1174:	1101                	addi	sp,sp,-32
    1176:	c84a                	sw	s2,16(sp)
    1178:	c64e                	sw	s3,12(sp)
    117a:	01852903          	lw	s2,24(a0)
    117e:	01452983          	lw	s3,20(a0)
    1182:	cc22                	sw	s0,24(sp)
    1184:	ca26                	sw	s1,20(sp)
    1186:	ce06                	sw	ra,28(sp)
    1188:	c452                	sw	s4,8(sp)
    118a:	c256                	sw	s5,4(sp)
    118c:	842a                	mv	s0,a0
    118e:	4481                	li	s1,0
    1190:	501c                	lw	a5,32(s0)
    1192:	439c                	lw	a5,0(a5)
    1194:	04f4f463          	bgeu	s1,a5,11dc <_ZN6tflite21MicroInterpreterGraph14ResetSubgraphsEv+0x68>
    1198:	4408                	lw	a0,8(s0)
    119a:	c844                	sw	s1,20(s0)
    119c:	85a6                	mv	a1,s1
    119e:	00008097          	auipc	ra,0x8
    11a2:	b0e080e7          	jalr	-1266(ra) # 8cac <_ZN6tflite20NumSubgraphOperatorsEPKNS_5ModelEi>
    11a6:	8a2a                	mv	s4,a0
    11a8:	00042c23          	sw	zero,24(s0)
    11ac:	00349a93          	slli	s5,s1,0x3
    11b0:	4c1c                	lw	a5,24(s0)
    11b2:	0347f363          	bgeu	a5,s4,11d8 <_ZN6tflite21MicroInterpreterGraph14ResetSubgraphsEv+0x64>
    11b6:	4814                	lw	a3,16(s0)
    11b8:	00579713          	slli	a4,a5,0x5
    11bc:	96d6                	add	a3,a3,s5
    11be:	429c                	lw	a5,0(a3)
    11c0:	97ba                	add	a5,a5,a4
    11c2:	4fd8                	lw	a4,28(a5)
    11c4:	c711                	beqz	a4,11d0 <_ZN6tflite21MicroInterpreterGraph14ResetSubgraphsEv+0x5c>
    11c6:	4b18                	lw	a4,16(a4)
    11c8:	c701                	beqz	a4,11d0 <_ZN6tflite21MicroInterpreterGraph14ResetSubgraphsEv+0x5c>
    11ca:	47cc                	lw	a1,12(a5)
    11cc:	4048                	lw	a0,4(s0)
    11ce:	9702                	jalr	a4
    11d0:	4c1c                	lw	a5,24(s0)
    11d2:	0785                	addi	a5,a5,1
    11d4:	cc1c                	sw	a5,24(s0)
    11d6:	bfe9                	j	11b0 <_ZN6tflite21MicroInterpreterGraph14ResetSubgraphsEv+0x3c>
    11d8:	0485                	addi	s1,s1,1
    11da:	bf5d                	j	1190 <_ZN6tflite21MicroInterpreterGraph14ResetSubgraphsEv+0x1c>
    11dc:	01342a23          	sw	s3,20(s0)
    11e0:	01242c23          	sw	s2,24(s0)
    11e4:	40f2                	lw	ra,28(sp)
    11e6:	4462                	lw	s0,24(sp)
    11e8:	44d2                	lw	s1,20(sp)
    11ea:	4942                	lw	s2,16(sp)
    11ec:	49b2                	lw	s3,12(sp)
    11ee:	4a22                	lw	s4,8(sp)
    11f0:	4a92                	lw	s5,4(sp)
    11f2:	4501                	li	a0,0
    11f4:	6105                	addi	sp,sp,32
    11f6:	8082                	ret

000011f8 <_ZN6tflite21MicroInterpreterGraph13FreeSubgraphsEv>:
    11f8:	1101                	addi	sp,sp,-32
    11fa:	c84a                	sw	s2,16(sp)
    11fc:	c64e                	sw	s3,12(sp)
    11fe:	01852903          	lw	s2,24(a0)
    1202:	01452983          	lw	s3,20(a0)
    1206:	cc22                	sw	s0,24(sp)
    1208:	ca26                	sw	s1,20(sp)
    120a:	ce06                	sw	ra,28(sp)
    120c:	c452                	sw	s4,8(sp)
    120e:	c256                	sw	s5,4(sp)
    1210:	842a                	mv	s0,a0
    1212:	4481                	li	s1,0
    1214:	501c                	lw	a5,32(s0)
    1216:	439c                	lw	a5,0(a5)
    1218:	04f4f463          	bgeu	s1,a5,1260 <_ZN6tflite21MicroInterpreterGraph13FreeSubgraphsEv+0x68>
    121c:	4408                	lw	a0,8(s0)
    121e:	c844                	sw	s1,20(s0)
    1220:	85a6                	mv	a1,s1
    1222:	00008097          	auipc	ra,0x8
    1226:	a8a080e7          	jalr	-1398(ra) # 8cac <_ZN6tflite20NumSubgraphOperatorsEPKNS_5ModelEi>
    122a:	8a2a                	mv	s4,a0
    122c:	00042c23          	sw	zero,24(s0)
    1230:	00349a93          	slli	s5,s1,0x3
    1234:	4c1c                	lw	a5,24(s0)
    1236:	0347f363          	bgeu	a5,s4,125c <_ZN6tflite21MicroInterpreterGraph13FreeSubgraphsEv+0x64>
    123a:	4814                	lw	a3,16(s0)
    123c:	00579713          	slli	a4,a5,0x5
    1240:	96d6                	add	a3,a3,s5
    1242:	429c                	lw	a5,0(a3)
    1244:	97ba                	add	a5,a5,a4
    1246:	4fd8                	lw	a4,28(a5)
    1248:	c711                	beqz	a4,1254 <_ZN6tflite21MicroInterpreterGraph13FreeSubgraphsEv+0x5c>
    124a:	4358                	lw	a4,4(a4)
    124c:	c701                	beqz	a4,1254 <_ZN6tflite21MicroInterpreterGraph13FreeSubgraphsEv+0x5c>
    124e:	47cc                	lw	a1,12(a5)
    1250:	4048                	lw	a0,4(s0)
    1252:	9702                	jalr	a4
    1254:	4c1c                	lw	a5,24(s0)
    1256:	0785                	addi	a5,a5,1
    1258:	cc1c                	sw	a5,24(s0)
    125a:	bfe9                	j	1234 <_ZN6tflite21MicroInterpreterGraph13FreeSubgraphsEv+0x3c>
    125c:	0485                	addi	s1,s1,1
    125e:	bf5d                	j	1214 <_ZN6tflite21MicroInterpreterGraph13FreeSubgraphsEv+0x1c>
    1260:	01342a23          	sw	s3,20(s0)
    1264:	01242c23          	sw	s2,24(s0)
    1268:	40f2                	lw	ra,28(sp)
    126a:	4462                	lw	s0,24(sp)
    126c:	44d2                	lw	s1,20(sp)
    126e:	4942                	lw	s2,16(sp)
    1270:	49b2                	lw	s3,12(sp)
    1272:	4a22                	lw	s4,8(sp)
    1274:	4a92                	lw	s5,4(sp)
    1276:	4501                	li	a0,0
    1278:	6105                	addi	sp,sp,32
    127a:	8082                	ret

0000127c <_ZN6tflite21MicroInterpreterGraph16PrepareSubgraphsEv>:
    127c:	715d                	addi	sp,sp,-80
    127e:	de4e                	sw	s3,60(sp)
    1280:	dc52                	sw	s4,56(sp)
    1282:	01852983          	lw	s3,24(a0)
    1286:	01452a03          	lw	s4,20(a0)
    128a:	c4a2                	sw	s0,72(sp)
    128c:	c2a6                	sw	s1,68(sp)
    128e:	da56                	sw	s5,52(sp)
    1290:	d85a                	sw	s6,48(sp)
    1292:	d06a                	sw	s10,32(sp)
    1294:	c686                	sw	ra,76(sp)
    1296:	c0ca                	sw	s2,64(sp)
    1298:	d65e                	sw	s7,44(sp)
    129a:	d462                	sw	s8,40(sp)
    129c:	d266                	sw	s9,36(sp)
    129e:	ce6e                	sw	s11,28(sp)
    12a0:	842a                	mv	s0,a0
    12a2:	4d01                	li	s10,0
    12a4:	4ab1                	li	s5,12
    12a6:	4485                	li	s1,1
    12a8:	4b09                	li	s6,2
    12aa:	501c                	lw	a5,32(s0)
    12ac:	439c                	lw	a5,0(a5)
    12ae:	14fd7963          	bgeu	s10,a5,1400 <_ZN6tflite21MicroInterpreterGraph16PrepareSubgraphsEv+0x184>
    12b2:	4408                	lw	a0,8(s0)
    12b4:	01a42a23          	sw	s10,20(s0)
    12b8:	85ea                	mv	a1,s10
    12ba:	00008097          	auipc	ra,0x8
    12be:	9f2080e7          	jalr	-1550(ra) # 8cac <_ZN6tflite20NumSubgraphOperatorsEPKNS_5ModelEi>
    12c2:	8baa                	mv	s7,a0
    12c4:	00042c23          	sw	zero,24(s0)
    12c8:	003d1913          	slli	s2,s10,0x3
    12cc:	4c0d                	li	s8,3
    12ce:	01842c83          	lw	s9,24(s0)
    12d2:	137cf563          	bgeu	s9,s7,13fc <_ZN6tflite21MicroInterpreterGraph16PrepareSubgraphsEv+0x180>
    12d6:	4818                	lw	a4,16(s0)
    12d8:	005c9793          	slli	a5,s9,0x5
    12dc:	974a                	add	a4,a4,s2
    12de:	00072c83          	lw	s9,0(a4)
    12e2:	9cbe                	add	s9,s9,a5
    12e4:	01ccad83          	lw	s11,28(s9)
    12e8:	008da783          	lw	a5,8(s11)
    12ec:	cb85                	beqz	a5,131c <_ZN6tflite21MicroInterpreterGraph16PrepareSubgraphsEv+0xa0>
    12ee:	4048                	lw	a0,4(s0)
    12f0:	85e6                	mv	a1,s9
    12f2:	9782                	jalr	a5
    12f4:	c505                	beqz	a0,131c <_ZN6tflite21MicroInterpreterGraph16PrepareSubgraphsEv+0xa0>
    12f6:	c62a                	sw	a0,12(sp)
    12f8:	856e                	mv	a0,s11
    12fa:	00000097          	auipc	ra,0x0
    12fe:	daa080e7          	jalr	-598(ra) # 10a4 <_ZN6tflite12_GLOBAL__N_122OpNameFromRegistrationEPK16TFLMRegistration>
    1302:	46b2                	lw	a3,12(sp)
    1304:	4c10                	lw	a2,24(s0)
    1306:	85aa                	mv	a1,a0
    1308:	8004e517          	auipc	a0,0x8004e
    130c:	30450513          	addi	a0,a0,772 # 8004f60c <__stack_top+0xfff927ec>
    1310:	00000097          	auipc	ra,0x0
    1314:	65e080e7          	jalr	1630(ra) # 196e <_Z11MicroPrintfPKcz>
    1318:	4505                	li	a0,1
    131a:	a8c5                	j	140a <_ZN6tflite21MicroInterpreterGraph16PrepareSubgraphsEv+0x18e>
    131c:	481c                	lw	a5,16(s0)
    131e:	004ca583          	lw	a1,4(s9)
    1322:	97ca                	add	a5,a5,s2
    1324:	0047a803          	lw	a6,4(a5)
    1328:	c1e1                	beqz	a1,13e8 <_ZN6tflite21MicroInterpreterGraph16PrepareSubgraphsEv+0x16c>
    132a:	0005a883          	lw	a7,0(a1)
    132e:	4501                	li	a0,0
    1330:	0591                	addi	a1,a1,4
    1332:	0b155b63          	bge	a0,a7,13e8 <_ZN6tflite21MicroInterpreterGraph16PrepareSubgraphsEv+0x16c>
    1336:	4198                	lw	a4,0(a1)
    1338:	0a074563          	bltz	a4,13e2 <_ZN6tflite21MicroInterpreterGraph16PrepareSubgraphsEv+0x166>
    133c:	035707b3          	mul	a5,a4,s5
    1340:	97c2                	add	a5,a5,a6
    1342:	43dc                	lw	a5,4(a5)
    1344:	4394                	lw	a3,0(a5)
    1346:	00969463          	bne	a3,s1,134e <_ZN6tflite21MicroInterpreterGraph16PrepareSubgraphsEv+0xd2>
    134a:	43d0                	lw	a2,4(a5)
    134c:	ca59                	beqz	a2,13e2 <_ZN6tflite21MicroInterpreterGraph16PrepareSubgraphsEv+0x166>
    134e:	068a                	slli	a3,a3,0x2
    1350:	0791                	addi	a5,a5,4
    1352:	00d78633          	add	a2,a5,a3
    1356:	8691                	srai	a3,a3,0x4
    1358:	04d05f63          	blez	a3,13b6 <_ZN6tflite21MicroInterpreterGraph16PrepareSubgraphsEv+0x13a>
    135c:	0007a303          	lw	t1,0(a5)
    1360:	00605763          	blez	t1,136e <_ZN6tflite21MicroInterpreterGraph16PrepareSubgraphsEv+0xf2>
    1364:	0047a303          	lw	t1,4(a5)
    1368:	02604863          	bgtz	t1,1398 <_ZN6tflite21MicroInterpreterGraph16PrepareSubgraphsEv+0x11c>
    136c:	0791                	addi	a5,a5,4
    136e:	06f60a63          	beq	a2,a5,13e2 <_ZN6tflite21MicroInterpreterGraph16PrepareSubgraphsEv+0x166>
    1372:	856e                	mv	a0,s11
    1374:	c63a                	sw	a4,12(sp)
    1376:	00000097          	auipc	ra,0x0
    137a:	d2e080e7          	jalr	-722(ra) # 10a4 <_ZN6tflite12_GLOBAL__N_122OpNameFromRegistrationEPK16TFLMRegistration>
    137e:	4732                	lw	a4,12(sp)
    1380:	4854                	lw	a3,20(s0)
    1382:	4c0c                	lw	a1,24(s0)
    1384:	862a                	mv	a2,a0
    1386:	8004e517          	auipc	a0,0x8004e
    138a:	2be50513          	addi	a0,a0,702 # 8004f644 <__stack_top+0xfff92824>
    138e:	00000097          	auipc	ra,0x0
    1392:	5e0080e7          	jalr	1504(ra) # 196e <_Z11MicroPrintfPKcz>
    1396:	b749                	j	1318 <_ZN6tflite21MicroInterpreterGraph16PrepareSubgraphsEv+0x9c>
    1398:	0087a303          	lw	t1,8(a5)
    139c:	00604463          	bgtz	t1,13a4 <_ZN6tflite21MicroInterpreterGraph16PrepareSubgraphsEv+0x128>
    13a0:	07a1                	addi	a5,a5,8
    13a2:	b7f1                	j	136e <_ZN6tflite21MicroInterpreterGraph16PrepareSubgraphsEv+0xf2>
    13a4:	00c7a303          	lw	t1,12(a5)
    13a8:	00604463          	bgtz	t1,13b0 <_ZN6tflite21MicroInterpreterGraph16PrepareSubgraphsEv+0x134>
    13ac:	07b1                	addi	a5,a5,12
    13ae:	b7c1                	j	136e <_ZN6tflite21MicroInterpreterGraph16PrepareSubgraphsEv+0xf2>
    13b0:	07c1                	addi	a5,a5,16
    13b2:	16fd                	addi	a3,a3,-1
    13b4:	b755                	j	1358 <_ZN6tflite21MicroInterpreterGraph16PrepareSubgraphsEv+0xdc>
    13b6:	40f606b3          	sub	a3,a2,a5
    13ba:	8689                	srai	a3,a3,0x2
    13bc:	01668c63          	beq	a3,s6,13d4 <_ZN6tflite21MicroInterpreterGraph16PrepareSubgraphsEv+0x158>
    13c0:	01868663          	beq	a3,s8,13cc <_ZN6tflite21MicroInterpreterGraph16PrepareSubgraphsEv+0x150>
    13c4:	00968c63          	beq	a3,s1,13dc <_ZN6tflite21MicroInterpreterGraph16PrepareSubgraphsEv+0x160>
    13c8:	87b2                	mv	a5,a2
    13ca:	b755                	j	136e <_ZN6tflite21MicroInterpreterGraph16PrepareSubgraphsEv+0xf2>
    13cc:	4394                	lw	a3,0(a5)
    13ce:	fad050e3          	blez	a3,136e <_ZN6tflite21MicroInterpreterGraph16PrepareSubgraphsEv+0xf2>
    13d2:	0791                	addi	a5,a5,4
    13d4:	4394                	lw	a3,0(a5)
    13d6:	f8d05ce3          	blez	a3,136e <_ZN6tflite21MicroInterpreterGraph16PrepareSubgraphsEv+0xf2>
    13da:	0791                	addi	a5,a5,4
    13dc:	4394                	lw	a3,0(a5)
    13de:	f8d058e3          	blez	a3,136e <_ZN6tflite21MicroInterpreterGraph16PrepareSubgraphsEv+0xf2>
    13e2:	0505                	addi	a0,a0,1
    13e4:	0591                	addi	a1,a1,4
    13e6:	b7b1                	j	1332 <_ZN6tflite21MicroInterpreterGraph16PrepareSubgraphsEv+0xb6>
    13e8:	4c0c                	lw	a1,24(s0)
    13ea:	4448                	lw	a0,12(s0)
    13ec:	00008097          	auipc	ra,0x8
    13f0:	f82080e7          	jalr	-126(ra) # 936e <_ZN6tflite14MicroAllocator28FinishPrepareNodeAllocationsEi>
    13f4:	4c1c                	lw	a5,24(s0)
    13f6:	0785                	addi	a5,a5,1
    13f8:	cc1c                	sw	a5,24(s0)
    13fa:	bdd1                	j	12ce <_ZN6tflite21MicroInterpreterGraph16PrepareSubgraphsEv+0x52>
    13fc:	0d05                	addi	s10,s10,1
    13fe:	b575                	j	12aa <_ZN6tflite21MicroInterpreterGraph16PrepareSubgraphsEv+0x2e>
    1400:	01442a23          	sw	s4,20(s0)
    1404:	01342c23          	sw	s3,24(s0)
    1408:	4501                	li	a0,0
    140a:	40b6                	lw	ra,76(sp)
    140c:	4426                	lw	s0,72(sp)
    140e:	4496                	lw	s1,68(sp)
    1410:	4906                	lw	s2,64(sp)
    1412:	59f2                	lw	s3,60(sp)
    1414:	5a62                	lw	s4,56(sp)
    1416:	5ad2                	lw	s5,52(sp)
    1418:	5b42                	lw	s6,48(sp)
    141a:	5bb2                	lw	s7,44(sp)
    141c:	5c22                	lw	s8,40(sp)
    141e:	5c92                	lw	s9,36(sp)
    1420:	5d02                	lw	s10,32(sp)
    1422:	4df2                	lw	s11,28(sp)
    1424:	6161                	addi	sp,sp,80
    1426:	8082                	ret

00001428 <_ZNK6tflite6Tensor11is_variableEv>:
    1428:	1141                	addi	sp,sp,-16
    142a:	45b9                	li	a1,14
    142c:	c422                	sw	s0,8(sp)
    142e:	c606                	sw	ra,12(sp)
    1430:	842a                	mv	s0,a0
    1432:	fffff097          	auipc	ra,0xfffff
    1436:	1e4080e7          	jalr	484(ra) # 616 <_ZNK11flatbuffers5Table22GetOptionalFieldOffsetEt>
    143a:	c911                	beqz	a0,144e <_ZNK6tflite6Tensor11is_variableEv+0x26>
    143c:	942a                	add	s0,s0,a0
    143e:	00044503          	lbu	a0,0(s0)
    1442:	40b2                	lw	ra,12(sp)
    1444:	4422                	lw	s0,8(sp)
    1446:	00a03533          	snez	a0,a0
    144a:	0141                	addi	sp,sp,16
    144c:	8082                	ret
    144e:	4501                	li	a0,0
    1450:	bfcd                	j	1442 <_ZNK6tflite6Tensor11is_variableEv+0x1a>

00001452 <_ZN6tflite19ScopedMicroProfilerD1Ev>:
    1452:	415c                	lw	a5,4(a0)
    1454:	c799                	beqz	a5,1462 <_ZN6tflite19ScopedMicroProfilerD1Ev+0x10>
    1456:	4398                	lw	a4,0(a5)
    1458:	410c                	lw	a1,0(a0)
    145a:	853e                	mv	a0,a5
    145c:	00c72303          	lw	t1,12(a4)
    1460:	8302                	jr	t1
    1462:	8082                	ret

00001464 <_ZN6tflite21MicroInterpreterGraph14InvokeSubgraphEi>:
    1464:	511c                	lw	a5,32(a0)
    1466:	7179                	addi	sp,sp,-48
    1468:	d422                	sw	s0,40(sp)
    146a:	4390                	lw	a2,0(a5)
    146c:	ce4e                	sw	s3,28(sp)
    146e:	cc52                	sw	s4,24(sp)
    1470:	d606                	sw	ra,44(sp)
    1472:	d226                	sw	s1,36(sp)
    1474:	d04a                	sw	s2,32(sp)
    1476:	ca56                	sw	s5,20(sp)
    1478:	c85a                	sw	s6,16(sp)
    147a:	01452a03          	lw	s4,20(a0)
    147e:	c94c                	sw	a1,20(a0)
    1480:	842a                	mv	s0,a0
    1482:	01852983          	lw	s3,24(a0)
    1486:	02c5e663          	bltu	a1,a2,14b2 <_ZN6tflite21MicroInterpreterGraph14InvokeSubgraphEi+0x4e>
    148a:	8004e517          	auipc	a0,0x8004e
    148e:	11a50513          	addi	a0,a0,282 # 8004f5a4 <__stack_top+0xfff92784>
    1492:	00000097          	auipc	ra,0x0
    1496:	4dc080e7          	jalr	1244(ra) # 196e <_Z11MicroPrintfPKcz>
    149a:	4485                	li	s1,1
    149c:	50b2                	lw	ra,44(sp)
    149e:	5422                	lw	s0,40(sp)
    14a0:	8526                	mv	a0,s1
    14a2:	5902                	lw	s2,32(sp)
    14a4:	5492                	lw	s1,36(sp)
    14a6:	49f2                	lw	s3,28(sp)
    14a8:	4a62                	lw	s4,24(sp)
    14aa:	4ad2                	lw	s5,20(sp)
    14ac:	4b42                	lw	s6,16(sp)
    14ae:	6145                	addi	sp,sp,48
    14b0:	8082                	ret
    14b2:	4508                	lw	a0,8(a0)
    14b4:	892e                	mv	s2,a1
    14b6:	090e                	slli	s2,s2,0x3
    14b8:	00007097          	auipc	ra,0x7
    14bc:	7f4080e7          	jalr	2036(ra) # 8cac <_ZN6tflite20NumSubgraphOperatorsEPKNS_5ModelEi>
    14c0:	8aaa                	mv	s5,a0
    14c2:	00042c23          	sw	zero,24(s0)
    14c6:	4c04                	lw	s1,24(s0)
    14c8:	0b54f363          	bgeu	s1,s5,156e <_ZN6tflite21MicroInterpreterGraph14InvokeSubgraphEi+0x10a>
    14cc:	481c                	lw	a5,16(s0)
    14ce:	0496                	slli	s1,s1,0x5
    14d0:	97ca                	add	a5,a5,s2
    14d2:	439c                	lw	a5,0(a5)
    14d4:	94be                	add	s1,s1,a5
    14d6:	01c4ab03          	lw	s6,28(s1)
    14da:	855a                	mv	a0,s6
    14dc:	00000097          	auipc	ra,0x0
    14e0:	bc8080e7          	jalr	-1080(ra) # 10a4 <_ZN6tflite12_GLOBAL__N_122OpNameFromRegistrationEPK16TFLMRegistration>
    14e4:	405c                	lw	a5,4(s0)
    14e6:	85aa                	mv	a1,a0
    14e8:	c402                	sw	zero,8(sp)
    14ea:	5bc8                	lw	a0,52(a5)
    14ec:	c62a                	sw	a0,12(sp)
    14ee:	c509                	beqz	a0,14f8 <_ZN6tflite21MicroInterpreterGraph14InvokeSubgraphEi+0x94>
    14f0:	4118                	lw	a4,0(a0)
    14f2:	4718                	lw	a4,8(a4)
    14f4:	9702                	jalr	a4
    14f6:	c42a                	sw	a0,8(sp)
    14f8:	00cb2783          	lw	a5,12(s6)
    14fc:	eb91                	bnez	a5,1510 <_ZN6tflite21MicroInterpreterGraph14InvokeSubgraphEi+0xac>
    14fe:	7ffff517          	auipc	a0,0x7ffff
    1502:	cce50513          	addi	a0,a0,-818 # 800001cc <_ZTVN6tflite22MicroMutableOpResolverILj5EEE+0x104>
    1506:	00000097          	auipc	ra,0x0
    150a:	468080e7          	jalr	1128(ra) # 196e <_Z11MicroPrintfPKcz>
    150e:	a001                	j	150e <_ZN6tflite21MicroInterpreterGraph14InvokeSubgraphEi+0xaa>
    1510:	4048                	lw	a0,4(s0)
    1512:	85a6                	mv	a1,s1
    1514:	9782                	jalr	a5
    1516:	84aa                	mv	s1,a0
    1518:	4448                	lw	a0,12(s0)
    151a:	411c                	lw	a5,0(a0)
    151c:	4bdc                	lw	a5,20(a5)
    151e:	9782                	jalr	a5
    1520:	cc95                	beqz	s1,155c <_ZN6tflite21MicroInterpreterGraph14InvokeSubgraphEi+0xf8>
    1522:	47bd                	li	a5,15
    1524:	02f48263          	beq	s1,a5,1548 <_ZN6tflite21MicroInterpreterGraph14InvokeSubgraphEi+0xe4>
    1528:	855a                	mv	a0,s6
    152a:	00000097          	auipc	ra,0x0
    152e:	b7a080e7          	jalr	-1158(ra) # 10a4 <_ZN6tflite12_GLOBAL__N_122OpNameFromRegistrationEPK16TFLMRegistration>
    1532:	4c10                	lw	a2,24(s0)
    1534:	85aa                	mv	a1,a0
    1536:	8004e517          	auipc	a0,0x8004e
    153a:	86a6                	mv	a3,s1
    153c:	0a250513          	addi	a0,a0,162 # 8004f5d8 <__stack_top+0xfff927b8>
    1540:	00000097          	auipc	ra,0x0
    1544:	42e080e7          	jalr	1070(ra) # 196e <_Z11MicroPrintfPKcz>
    1548:	0028                	addi	a0,sp,8
    154a:	00000097          	auipc	ra,0x0
    154e:	f08080e7          	jalr	-248(ra) # 1452 <_ZN6tflite19ScopedMicroProfilerD1Ev>
    1552:	01442a23          	sw	s4,20(s0)
    1556:	01342c23          	sw	s3,24(s0)
    155a:	b789                	j	149c <_ZN6tflite21MicroInterpreterGraph14InvokeSubgraphEi+0x38>
    155c:	0028                	addi	a0,sp,8
    155e:	00000097          	auipc	ra,0x0
    1562:	ef4080e7          	jalr	-268(ra) # 1452 <_ZN6tflite19ScopedMicroProfilerD1Ev>
    1566:	4c1c                	lw	a5,24(s0)
    1568:	0785                	addi	a5,a5,1
    156a:	cc1c                	sw	a5,24(s0)
    156c:	bfa9                	j	14c6 <_ZN6tflite21MicroInterpreterGraph14InvokeSubgraphEi+0x62>
    156e:	4481                	li	s1,0
    1570:	b7cd                	j	1552 <_ZN6tflite21MicroInterpreterGraph14InvokeSubgraphEi+0xee>

00001572 <_ZN6tflite21MicroInterpreterGraph15ResetTensorDataEPKNS_6TensorEP16TfLiteEvalTensor>:
    1572:	1101                	addi	sp,sp,-32
    1574:	cc22                	sw	s0,24(sp)
    1576:	8532                	mv	a0,a2
    1578:	842e                	mv	s0,a1
    157a:	006c                	addi	a1,sp,12
    157c:	ca26                	sw	s1,20(sp)
    157e:	ce06                	sw	ra,28(sp)
    1580:	c84a                	sw	s2,16(sp)
    1582:	84b2                	mv	s1,a2
    1584:	00008097          	auipc	ra,0x8
    1588:	87c080e7          	jalr	-1924(ra) # 8e00 <_ZN6tflite26TfLiteEvalTensorByteLengthEPK16TfLiteEvalTensorPj>
    158c:	e12d                	bnez	a0,15ee <_ZN6tflite21MicroInterpreterGraph15ResetTensorDataEPKNS_6TensorEP16TfLiteEvalTensor+0x7c>
    158e:	4599                	li	a1,6
    1590:	8522                	mv	a0,s0
    1592:	fffff097          	auipc	ra,0xfffff
    1596:	084080e7          	jalr	132(ra) # 616 <_ZNK11flatbuffers5Table22GetOptionalFieldOffsetEt>
    159a:	4901                	li	s2,0
    159c:	c129                	beqz	a0,15de <_ZN6tflite21MicroInterpreterGraph15ResetTensorDataEPKNS_6TensorEP16TfLiteEvalTensor+0x6c>
    159e:	9522                	add	a0,a0,s0
    15a0:	00050703          	lb	a4,0(a0)
    15a4:	47a5                	li	a5,9
    15a6:	02f71c63          	bne	a4,a5,15de <_ZN6tflite21MicroInterpreterGraph15ResetTensorDataEPKNS_6TensorEP16TfLiteEvalTensor+0x6c>
    15aa:	45b1                	li	a1,12
    15ac:	8522                	mv	a0,s0
    15ae:	fffff097          	auipc	ra,0xfffff
    15b2:	068080e7          	jalr	104(ra) # 616 <_ZNK11flatbuffers5Table22GetOptionalFieldOffsetEt>
    15b6:	c505                	beqz	a0,15de <_ZN6tflite21MicroInterpreterGraph15ResetTensorDataEPKNS_6TensorEP16TfLiteEvalTensor+0x6c>
    15b8:	942a                	add	s0,s0,a0
    15ba:	4008                	lw	a0,0(s0)
    15bc:	942a                	add	s0,s0,a0
    15be:	c005                	beqz	s0,15de <_ZN6tflite21MicroInterpreterGraph15ResetTensorDataEPKNS_6TensorEP16TfLiteEvalTensor+0x6c>
    15c0:	45a9                	li	a1,10
    15c2:	8522                	mv	a0,s0
    15c4:	fffff097          	auipc	ra,0xfffff
    15c8:	052080e7          	jalr	82(ra) # 616 <_ZNK11flatbuffers5Table22GetOptionalFieldOffsetEt>
    15cc:	c909                	beqz	a0,15de <_ZN6tflite21MicroInterpreterGraph15ResetTensorDataEPKNS_6TensorEP16TfLiteEvalTensor+0x6c>
    15ce:	942a                	add	s0,s0,a0
    15d0:	4008                	lw	a0,0(s0)
    15d2:	942a                	add	s0,s0,a0
    15d4:	c409                	beqz	s0,15de <_ZN6tflite21MicroInterpreterGraph15ResetTensorDataEPKNS_6TensorEP16TfLiteEvalTensor+0x6c>
    15d6:	401c                	lw	a5,0(s0)
    15d8:	c399                	beqz	a5,15de <_ZN6tflite21MicroInterpreterGraph15ResetTensorDataEPKNS_6TensorEP16TfLiteEvalTensor+0x6c>
    15da:	00442903          	lw	s2,4(s0)
    15de:	4632                	lw	a2,12(sp)
    15e0:	4088                	lw	a0,0(s1)
    15e2:	85ca                	mv	a1,s2
    15e4:	00010097          	auipc	ra,0x10
    15e8:	a70080e7          	jalr	-1424(ra) # 11054 <memset>
    15ec:	4501                	li	a0,0
    15ee:	40f2                	lw	ra,28(sp)
    15f0:	4462                	lw	s0,24(sp)
    15f2:	44d2                	lw	s1,20(sp)
    15f4:	4942                	lw	s2,16(sp)
    15f6:	6105                	addi	sp,sp,32
    15f8:	8082                	ret

000015fa <_ZN6tflite21MicroInterpreterGraph22SetSubgraphAllocationsEPNS_19SubgraphAllocationsE>:
    15fa:	c90c                	sw	a1,16(a0)
    15fc:	8082                	ret

000015fe <_ZNK11flatbuffers6VectorINS_6OffsetIN6tflite6TensorEEEmE3GetEm>:
    15fe:	411c                	lw	a5,0(a0)
    1600:	02f5e663          	bltu	a1,a5,162c <_ZNK11flatbuffers6VectorINS_6OffsetIN6tflite6TensorEEEmE3GetEm+0x2e>
    1604:	8004d697          	auipc	a3,0x8004d
    1608:	8004e617          	auipc	a2,0x8004e
    160c:	8004d517          	auipc	a0,0x8004d
    1610:	1141                	addi	sp,sp,-16
    1612:	09468693          	addi	a3,a3,148 # 8004e698 <__stack_top+0xfff91878>
    1616:	10c60613          	addi	a2,a2,268 # 8004f714 <__stack_top+0xfff928f4>
    161a:	0c200593          	li	a1,194
    161e:	09850513          	addi	a0,a0,152 # 8004e6a4 <__stack_top+0xfff91884>
    1622:	c606                	sw	ra,12(sp)
    1624:	0000f097          	auipc	ra,0xf
    1628:	c44080e7          	jalr	-956(ra) # 10268 <__assert_func>
    162c:	058a                	slli	a1,a1,0x2
    162e:	0511                	addi	a0,a0,4
    1630:	952e                	add	a0,a0,a1
    1632:	411c                	lw	a5,0(a0)
    1634:	953e                	add	a0,a0,a5
    1636:	8082                	ret

00001638 <_ZN6tflite21MicroInterpreterGraph20ResetVariableTensorsEv>:
    1638:	7179                	addi	sp,sp,-48
    163a:	d422                	sw	s0,40(sp)
    163c:	d04a                	sw	s2,32(sp)
    163e:	ca56                	sw	s5,20(sp)
    1640:	d606                	sw	ra,44(sp)
    1642:	d226                	sw	s1,36(sp)
    1644:	ce4e                	sw	s3,28(sp)
    1646:	cc52                	sw	s4,24(sp)
    1648:	c85a                	sw	s6,16(sp)
    164a:	892a                	mv	s2,a0
    164c:	4401                	li	s0,0
    164e:	4ab1                	li	s5,12
    1650:	02092503          	lw	a0,32(s2)
    1654:	411c                	lw	a5,0(a0)
    1656:	08f47363          	bgeu	s0,a5,16dc <_ZN6tflite21MicroInterpreterGraph20ResetVariableTensorsEv+0xa4>
    165a:	85a2                	mv	a1,s0
    165c:	fffff097          	auipc	ra,0xfffff
    1660:	16c080e7          	jalr	364(ra) # 7c8 <_ZNK11flatbuffers6VectorINS_6OffsetIN6tflite8SubGraphEEEmE3GetEm>
    1664:	8a2a                	mv	s4,a0
    1666:	00341b13          	slli	s6,s0,0x3
    166a:	4481                	li	s1,0
    166c:	4591                	li	a1,4
    166e:	8552                	mv	a0,s4
    1670:	fffff097          	auipc	ra,0xfffff
    1674:	fa6080e7          	jalr	-90(ra) # 616 <_ZNK11flatbuffers5Table22GetOptionalFieldOffsetEt>
    1678:	87aa                	mv	a5,a0
    167a:	4501                	li	a0,0
    167c:	c781                	beqz	a5,1684 <_ZN6tflite21MicroInterpreterGraph20ResetVariableTensorsEv+0x4c>
    167e:	97d2                	add	a5,a5,s4
    1680:	4388                	lw	a0,0(a5)
    1682:	953e                	add	a0,a0,a5
    1684:	411c                	lw	a5,0(a0)
    1686:	04f4f963          	bgeu	s1,a5,16d8 <_ZN6tflite21MicroInterpreterGraph20ResetVariableTensorsEv+0xa0>
    168a:	85a6                	mv	a1,s1
    168c:	00000097          	auipc	ra,0x0
    1690:	f72080e7          	jalr	-142(ra) # 15fe <_ZNK11flatbuffers6VectorINS_6OffsetIN6tflite6TensorEEEmE3GetEm>
    1694:	c62a                	sw	a0,12(sp)
    1696:	00000097          	auipc	ra,0x0
    169a:	d92080e7          	jalr	-622(ra) # 1428 <_ZNK6tflite6Tensor11is_variableEv>
    169e:	45b2                	lw	a1,12(sp)
    16a0:	e119                	bnez	a0,16a6 <_ZN6tflite21MicroInterpreterGraph20ResetVariableTensorsEv+0x6e>
    16a2:	0485                	addi	s1,s1,1
    16a4:	b7e1                	j	166c <_ZN6tflite21MicroInterpreterGraph20ResetVariableTensorsEv+0x34>
    16a6:	03548633          	mul	a2,s1,s5
    16aa:	01092783          	lw	a5,16(s2)
    16ae:	854a                	mv	a0,s2
    16b0:	97da                	add	a5,a5,s6
    16b2:	43dc                	lw	a5,4(a5)
    16b4:	963e                	add	a2,a2,a5
    16b6:	00000097          	auipc	ra,0x0
    16ba:	ebc080e7          	jalr	-324(ra) # 1572 <_ZN6tflite21MicroInterpreterGraph15ResetTensorDataEPKNS_6TensorEP16TfLiteEvalTensor>
    16be:	89aa                	mv	s3,a0
    16c0:	d16d                	beqz	a0,16a2 <_ZN6tflite21MicroInterpreterGraph20ResetVariableTensorsEv+0x6a>
    16c2:	50b2                	lw	ra,44(sp)
    16c4:	5422                	lw	s0,40(sp)
    16c6:	854e                	mv	a0,s3
    16c8:	5492                	lw	s1,36(sp)
    16ca:	5902                	lw	s2,32(sp)
    16cc:	49f2                	lw	s3,28(sp)
    16ce:	4a62                	lw	s4,24(sp)
    16d0:	4ad2                	lw	s5,20(sp)
    16d2:	4b42                	lw	s6,16(sp)
    16d4:	6145                	addi	sp,sp,48
    16d6:	8082                	ret
    16d8:	0405                	addi	s0,s0,1
    16da:	bf9d                	j	1650 <_ZN6tflite21MicroInterpreterGraph20ResetVariableTensorsEv+0x18>
    16dc:	01c92503          	lw	a0,28(s2)
    16e0:	4981                	li	s3,0
    16e2:	d165                	beqz	a0,16c2 <_ZN6tflite21MicroInterpreterGraph20ResetVariableTensorsEv+0x8a>
    16e4:	00000097          	auipc	ra,0x0
    16e8:	380080e7          	jalr	896(ra) # 1a64 <_ZN6tflite22MicroResourceVariables8ResetAllEv>
    16ec:	bfd9                	j	16c2 <_ZN6tflite21MicroInterpreterGraph20ResetVariableTensorsEv+0x8a>

000016ee <_ZN6tflite21MicroInterpreterGraph19ResetVariableTensorEii>:
    16ee:	7179                	addi	sp,sp,-48
    16f0:	ce4e                	sw	s3,28(sp)
    16f2:	89aa                	mv	s3,a0
    16f4:	5108                	lw	a0,32(a0)
    16f6:	d422                	sw	s0,40(sp)
    16f8:	8432                	mv	s0,a2
    16fa:	4110                	lw	a2,0(a0)
    16fc:	d606                	sw	ra,44(sp)
    16fe:	d226                	sw	s1,36(sp)
    1700:	d04a                	sw	s2,32(sp)
    1702:	00c46c63          	bltu	s0,a2,171a <_ZN6tflite21MicroInterpreterGraph19ResetVariableTensorEii+0x2c>
    1706:	8004e517          	auipc	a0,0x8004e
    170a:	85a2                	mv	a1,s0
    170c:	e9e50513          	addi	a0,a0,-354 # 8004f5a4 <__stack_top+0xfff92784>
    1710:	00000097          	auipc	ra,0x0
    1714:	25e080e7          	jalr	606(ra) # 196e <_Z11MicroPrintfPKcz>
    1718:	a09d                	j	177e <_ZN6tflite21MicroInterpreterGraph19ResetVariableTensorEii+0x90>
    171a:	892e                	mv	s2,a1
    171c:	85a2                	mv	a1,s0
    171e:	fffff097          	auipc	ra,0xfffff
    1722:	0aa080e7          	jalr	170(ra) # 7c8 <_ZNK11flatbuffers6VectorINS_6OffsetIN6tflite8SubGraphEEEmE3GetEm>
    1726:	4591                	li	a1,4
    1728:	84aa                	mv	s1,a0
    172a:	fffff097          	auipc	ra,0xfffff
    172e:	eec080e7          	jalr	-276(ra) # 616 <_ZNK11flatbuffers5Table22GetOptionalFieldOffsetEt>
    1732:	c91d                	beqz	a0,1768 <_ZN6tflite21MicroInterpreterGraph19ResetVariableTensorEii+0x7a>
    1734:	9526                	add	a0,a0,s1
    1736:	411c                	lw	a5,0(a0)
    1738:	953e                	add	a0,a0,a5
    173a:	c51d                	beqz	a0,1768 <_ZN6tflite21MicroInterpreterGraph19ResetVariableTensorEii+0x7a>
    173c:	4110                	lw	a2,0(a0)
    173e:	02c97663          	bgeu	s2,a2,176a <_ZN6tflite21MicroInterpreterGraph19ResetVariableTensorEii+0x7c>
    1742:	85ca                	mv	a1,s2
    1744:	00000097          	auipc	ra,0x0
    1748:	eba080e7          	jalr	-326(ra) # 15fe <_ZNK11flatbuffers6VectorINS_6OffsetIN6tflite6TensorEEEmE3GetEm>
    174c:	c62a                	sw	a0,12(sp)
    174e:	00000097          	auipc	ra,0x0
    1752:	cda080e7          	jalr	-806(ra) # 1428 <_ZNK6tflite6Tensor11is_variableEv>
    1756:	45b2                	lw	a1,12(sp)
    1758:	e91d                	bnez	a0,178e <_ZN6tflite21MicroInterpreterGraph19ResetVariableTensorEii+0xa0>
    175a:	8004e517          	auipc	a0,0x8004e
    175e:	8622                	mv	a2,s0
    1760:	85ca                	mv	a1,s2
    1762:	f7e50513          	addi	a0,a0,-130 # 8004f6d8 <__stack_top+0xfff928b8>
    1766:	b76d                	j	1710 <_ZN6tflite21MicroInterpreterGraph19ResetVariableTensorEii+0x22>
    1768:	4601                	li	a2,0
    176a:	8004e517          	auipc	a0,0x8004e
    176e:	86a2                	mv	a3,s0
    1770:	85ca                	mv	a1,s2
    1772:	f2e50513          	addi	a0,a0,-210 # 8004f698 <__stack_top+0xfff92878>
    1776:	00000097          	auipc	ra,0x0
    177a:	1f8080e7          	jalr	504(ra) # 196e <_Z11MicroPrintfPKcz>
    177e:	50b2                	lw	ra,44(sp)
    1780:	5422                	lw	s0,40(sp)
    1782:	5492                	lw	s1,36(sp)
    1784:	5902                	lw	s2,32(sp)
    1786:	49f2                	lw	s3,28(sp)
    1788:	4505                	li	a0,1
    178a:	6145                	addi	sp,sp,48
    178c:	8082                	ret
    178e:	4631                	li	a2,12
    1790:	02c90933          	mul	s2,s2,a2
    1794:	0109a683          	lw	a3,16(s3)
    1798:	040e                	slli	s0,s0,0x3
    179a:	50b2                	lw	ra,44(sp)
    179c:	9436                	add	s0,s0,a3
    179e:	4050                	lw	a2,4(s0)
    17a0:	5422                	lw	s0,40(sp)
    17a2:	5492                	lw	s1,36(sp)
    17a4:	854e                	mv	a0,s3
    17a6:	49f2                	lw	s3,28(sp)
    17a8:	964a                	add	a2,a2,s2
    17aa:	5902                	lw	s2,32(sp)
    17ac:	6145                	addi	sp,sp,48
    17ae:	00000317          	auipc	t1,0x0
    17b2:	dc430067          	jr	-572(t1) # 1572 <_ZN6tflite21MicroInterpreterGraph15ResetTensorDataEPKNS_6TensorEP16TfLiteEvalTensor>

000017b6 <_ZN6tflite21MicroInterpreterGraph17GetSubgraphOutputEii>:
    17b6:	1101                	addi	sp,sp,-32
    17b8:	ca26                	sw	s1,20(sp)
    17ba:	84aa                	mv	s1,a0
    17bc:	4508                	lw	a0,8(a0)
    17be:	cc22                	sw	s0,24(sp)
    17c0:	842e                	mv	s0,a1
    17c2:	45a1                	li	a1,8
    17c4:	ce06                	sw	ra,28(sp)
    17c6:	c632                	sw	a2,12(sp)
    17c8:	fffff097          	auipc	ra,0xfffff
    17cc:	05e080e7          	jalr	94(ra) # 826 <_ZN11flatbuffers5Table10GetPointerIPKNS_6VectorINS_6OffsetIN6tflite8SubGraphEEEmEEmEET_t>
    17d0:	85a2                	mv	a1,s0
    17d2:	fffff097          	auipc	ra,0xfffff
    17d6:	ff6080e7          	jalr	-10(ra) # 7c8 <_ZNK11flatbuffers6VectorINS_6OffsetIN6tflite8SubGraphEEEmE3GetEm>
    17da:	45a1                	li	a1,8
    17dc:	fffff097          	auipc	ra,0xfffff
    17e0:	026080e7          	jalr	38(ra) # 802 <_ZN11flatbuffers5Table10GetPointerIPKNS_6VectorIlmEEmEET_t>
    17e4:	4632                	lw	a2,12(sp)
    17e6:	040e                	slli	s0,s0,0x3
    17e8:	85b2                	mv	a1,a2
    17ea:	fffff097          	auipc	ra,0xfffff
    17ee:	fa8080e7          	jalr	-88(ra) # 792 <_ZNK11flatbuffers6VectorIlmE3GetEm>
    17f2:	489c                	lw	a5,16(s1)
    17f4:	40f2                	lw	ra,28(sp)
    17f6:	44d2                	lw	s1,20(sp)
    17f8:	943e                	add	s0,s0,a5
    17fa:	47b1                	li	a5,12
    17fc:	02f50533          	mul	a0,a0,a5
    1800:	405c                	lw	a5,4(s0)
    1802:	4462                	lw	s0,24(sp)
    1804:	6105                	addi	sp,sp,32
    1806:	953e                	add	a0,a0,a5
    1808:	8082                	ret

0000180a <_ZN6tflite21MicroInterpreterGraph12NumSubgraphsEv>:
    180a:	4508                	lw	a0,8(a0)
    180c:	1141                	addi	sp,sp,-16
    180e:	45a1                	li	a1,8
    1810:	c606                	sw	ra,12(sp)
    1812:	fffff097          	auipc	ra,0xfffff
    1816:	014080e7          	jalr	20(ra) # 826 <_ZN11flatbuffers5Table10GetPointerIPKNS_6VectorINS_6OffsetIN6tflite8SubGraphEEEmEEmEET_t>
    181a:	40b2                	lw	ra,12(sp)
    181c:	4108                	lw	a0,0(a0)
    181e:	0141                	addi	sp,sp,16
    1820:	8082                	ret

00001822 <_ZN6tflite21MicroInterpreterGraphC1EP13TfLiteContextPKNS_5ModelEPNS_14MicroAllocatorEPNS_22MicroResourceVariablesE>:
    1822:	1141                	addi	sp,sp,-16
    1824:	c422                	sw	s0,8(sp)
    1826:	842a                	mv	s0,a0
    1828:	8004e517          	auipc	a0,0x8004e
    182c:	d4050513          	addi	a0,a0,-704 # 8004f568 <__stack_top+0xfff92748>
    1830:	c606                	sw	ra,12(sp)
    1832:	c008                	sw	a0,0(s0)
    1834:	c04c                	sw	a1,4(s0)
    1836:	c410                	sw	a2,8(s0)
    1838:	c454                	sw	a3,12(s0)
    183a:	00042823          	sw	zero,16(s0)
    183e:	00042a23          	sw	zero,20(s0)
    1842:	00042c23          	sw	zero,24(s0)
    1846:	cc58                	sw	a4,28(s0)
    1848:	02042023          	sw	zero,32(s0)
    184c:	ca01                	beqz	a2,185c <_ZN6tflite21MicroInterpreterGraphC1EP13TfLiteContextPKNS_5ModelEPNS_14MicroAllocatorEPNS_22MicroResourceVariablesE+0x3a>
    184e:	8532                	mv	a0,a2
    1850:	45a1                	li	a1,8
    1852:	fffff097          	auipc	ra,0xfffff
    1856:	fd4080e7          	jalr	-44(ra) # 826 <_ZN11flatbuffers5Table10GetPointerIPKNS_6VectorINS_6OffsetIN6tflite8SubGraphEEEmEEmEET_t>
    185a:	d008                	sw	a0,32(s0)
    185c:	40b2                	lw	ra,12(sp)
    185e:	4422                	lw	s0,8(sp)
    1860:	0141                	addi	sp,sp,16
    1862:	8082                	ret

00001864 <_ZN6tflite21MicroInterpreterGraph17NumSubgraphInputsEi>:
    1864:	4508                	lw	a0,8(a0)
    1866:	1141                	addi	sp,sp,-16
    1868:	c422                	sw	s0,8(sp)
    186a:	842e                	mv	s0,a1
    186c:	45a1                	li	a1,8
    186e:	c606                	sw	ra,12(sp)
    1870:	fffff097          	auipc	ra,0xfffff
    1874:	fb6080e7          	jalr	-74(ra) # 826 <_ZN11flatbuffers5Table10GetPointerIPKNS_6VectorINS_6OffsetIN6tflite8SubGraphEEEmEEmEET_t>
    1878:	85a2                	mv	a1,s0
    187a:	fffff097          	auipc	ra,0xfffff
    187e:	f4e080e7          	jalr	-178(ra) # 7c8 <_ZNK11flatbuffers6VectorINS_6OffsetIN6tflite8SubGraphEEEmE3GetEm>
    1882:	4599                	li	a1,6
    1884:	fffff097          	auipc	ra,0xfffff
    1888:	f7e080e7          	jalr	-130(ra) # 802 <_ZN11flatbuffers5Table10GetPointerIPKNS_6VectorIlmEEmEET_t>
    188c:	40b2                	lw	ra,12(sp)
    188e:	4422                	lw	s0,8(sp)
    1890:	4108                	lw	a0,0(a0)
    1892:	0141                	addi	sp,sp,16
    1894:	8082                	ret

00001896 <_ZN6tflite21MicroInterpreterGraph18NumSubgraphOutputsEi>:
    1896:	4508                	lw	a0,8(a0)
    1898:	1141                	addi	sp,sp,-16
    189a:	c422                	sw	s0,8(sp)
    189c:	842e                	mv	s0,a1
    189e:	45a1                	li	a1,8
    18a0:	c606                	sw	ra,12(sp)
    18a2:	fffff097          	auipc	ra,0xfffff
    18a6:	f84080e7          	jalr	-124(ra) # 826 <_ZN11flatbuffers5Table10GetPointerIPKNS_6VectorINS_6OffsetIN6tflite8SubGraphEEEmEEmEET_t>
    18aa:	85a2                	mv	a1,s0
    18ac:	fffff097          	auipc	ra,0xfffff
    18b0:	f1c080e7          	jalr	-228(ra) # 7c8 <_ZNK11flatbuffers6VectorINS_6OffsetIN6tflite8SubGraphEEEmE3GetEm>
    18b4:	45a1                	li	a1,8
    18b6:	fffff097          	auipc	ra,0xfffff
    18ba:	f4c080e7          	jalr	-180(ra) # 802 <_ZN11flatbuffers5Table10GetPointerIPKNS_6VectorIlmEEmEET_t>
    18be:	c511                	beqz	a0,18ca <_ZN6tflite21MicroInterpreterGraph18NumSubgraphOutputsEi+0x34>
    18c0:	4108                	lw	a0,0(a0)
    18c2:	40b2                	lw	ra,12(sp)
    18c4:	4422                	lw	s0,8(sp)
    18c6:	0141                	addi	sp,sp,16
    18c8:	8082                	ret
    18ca:	4501                	li	a0,0
    18cc:	bfdd                	j	18c2 <_ZN6tflite21MicroInterpreterGraph18NumSubgraphOutputsEi+0x2c>

000018ce <_ZN6tflite21MicroInterpreterGraph16GetSubgraphInputEii>:
    18ce:	1101                	addi	sp,sp,-32
    18d0:	ca26                	sw	s1,20(sp)
    18d2:	84aa                	mv	s1,a0
    18d4:	4508                	lw	a0,8(a0)
    18d6:	cc22                	sw	s0,24(sp)
    18d8:	842e                	mv	s0,a1
    18da:	45a1                	li	a1,8
    18dc:	ce06                	sw	ra,28(sp)
    18de:	c632                	sw	a2,12(sp)
    18e0:	fffff097          	auipc	ra,0xfffff
    18e4:	f46080e7          	jalr	-186(ra) # 826 <_ZN11flatbuffers5Table10GetPointerIPKNS_6VectorINS_6OffsetIN6tflite8SubGraphEEEmEEmEET_t>
    18e8:	85a2                	mv	a1,s0
    18ea:	fffff097          	auipc	ra,0xfffff
    18ee:	ede080e7          	jalr	-290(ra) # 7c8 <_ZNK11flatbuffers6VectorINS_6OffsetIN6tflite8SubGraphEEEmE3GetEm>
    18f2:	4599                	li	a1,6
    18f4:	fffff097          	auipc	ra,0xfffff
    18f8:	f0e080e7          	jalr	-242(ra) # 802 <_ZN11flatbuffers5Table10GetPointerIPKNS_6VectorIlmEEmEET_t>
    18fc:	4632                	lw	a2,12(sp)
    18fe:	040e                	slli	s0,s0,0x3
    1900:	85b2                	mv	a1,a2
    1902:	fffff097          	auipc	ra,0xfffff
    1906:	e90080e7          	jalr	-368(ra) # 792 <_ZNK11flatbuffers6VectorIlmE3GetEm>
    190a:	489c                	lw	a5,16(s1)
    190c:	40f2                	lw	ra,28(sp)
    190e:	44d2                	lw	s1,20(sp)
    1910:	943e                	add	s0,s0,a5
    1912:	47b1                	li	a5,12
    1914:	02f50533          	mul	a0,a0,a5
    1918:	405c                	lw	a5,4(s0)
    191a:	4462                	lw	s0,24(sp)
    191c:	6105                	addi	sp,sp,32
    191e:	953e                	add	a0,a0,a5
    1920:	8082                	ret

00001922 <_ZN12_GLOBAL__N_19VDebugLogEPKcz.constprop.0>:
    1922:	7139                	addi	sp,sp,-64
    1924:	8004e517          	auipc	a0,0x8004e
    1928:	d22e                	sw	a1,36(sp)
    192a:	edc50513          	addi	a0,a0,-292 # 8004f800 <__stack_top+0xfff929e0>
    192e:	104c                	addi	a1,sp,36
    1930:	ce06                	sw	ra,28(sp)
    1932:	d432                	sw	a2,40(sp)
    1934:	d636                	sw	a3,44(sp)
    1936:	d83a                	sw	a4,48(sp)
    1938:	da3e                	sw	a5,52(sp)
    193a:	dc42                	sw	a6,56(sp)
    193c:	de46                	sw	a7,60(sp)
    193e:	c62e                	sw	a1,12(sp)
    1940:	00007097          	auipc	ra,0x7
    1944:	2f4080e7          	jalr	756(ra) # 8c34 <DebugLog>
    1948:	40f2                	lw	ra,28(sp)
    194a:	6121                	addi	sp,sp,64
    194c:	8082                	ret

0000194e <_Z12VMicroPrintfPKcPv>:
    194e:	1141                	addi	sp,sp,-16
    1950:	c606                	sw	ra,12(sp)
    1952:	00007097          	auipc	ra,0x7
    1956:	2e2080e7          	jalr	738(ra) # 8c34 <DebugLog>
    195a:	40b2                	lw	ra,12(sp)
    195c:	8004e517          	auipc	a0,0x8004e
    1960:	ea450513          	addi	a0,a0,-348 # 8004f800 <__stack_top+0xfff929e0>
    1964:	0141                	addi	sp,sp,16
    1966:	00000317          	auipc	t1,0x0
    196a:	fbc30067          	jr	-68(t1) # 1922 <_ZN12_GLOBAL__N_19VDebugLogEPKcz.constprop.0>

0000196e <_Z11MicroPrintfPKcz>:
    196e:	7139                	addi	sp,sp,-64
    1970:	d22e                	sw	a1,36(sp)
    1972:	104c                	addi	a1,sp,36
    1974:	ce06                	sw	ra,28(sp)
    1976:	d432                	sw	a2,40(sp)
    1978:	d636                	sw	a3,44(sp)
    197a:	d83a                	sw	a4,48(sp)
    197c:	da3e                	sw	a5,52(sp)
    197e:	dc42                	sw	a6,56(sp)
    1980:	de46                	sw	a7,60(sp)
    1982:	c62e                	sw	a1,12(sp)
    1984:	00000097          	auipc	ra,0x0
    1988:	fca080e7          	jalr	-54(ra) # 194e <_Z12VMicroPrintfPKcPv>
    198c:	40f2                	lw	ra,28(sp)
    198e:	6121                	addi	sp,sp,64
    1990:	8082                	ret

00001992 <_ZN6tflite25GetRegistrationFromOpCodeEPKNS_12OperatorCodeERKNS_15MicroOpResolverEPPK16TFLMRegistration>:
    1992:	1101                	addi	sp,sp,-32
    1994:	00062023          	sw	zero,0(a2)
    1998:	cc22                	sw	s0,24(sp)
    199a:	ca26                	sw	s1,20(sp)
    199c:	c84a                	sw	s2,16(sp)
    199e:	c64e                	sw	s3,12(sp)
    19a0:	ce06                	sw	ra,28(sp)
    19a2:	84aa                	mv	s1,a0
    19a4:	892e                	mv	s2,a1
    19a6:	89b2                	mv	s3,a2
    19a8:	00001097          	auipc	ra,0x1
    19ac:	8ba080e7          	jalr	-1862(ra) # 2262 <_ZN6tflite14GetBuiltinCodeEPKNS_12OperatorCodeE>
    19b0:	0d100793          	li	a5,209
    19b4:	842a                	mv	s0,a0
    19b6:	02a7d363          	bge	a5,a0,19dc <_ZN6tflite25GetRegistrationFromOpCodeEPKNS_12OperatorCodeERKNS_15MicroOpResolverEPPK16TFLMRegistration+0x4a>
    19ba:	85aa                	mv	a1,a0
    19bc:	8004e517          	auipc	a0,0x8004e
    19c0:	e4850513          	addi	a0,a0,-440 # 8004f804 <__stack_top+0xfff929e4>
    19c4:	00000097          	auipc	ra,0x0
    19c8:	faa080e7          	jalr	-86(ra) # 196e <_Z11MicroPrintfPKcz>
    19cc:	4505                	li	a0,1
    19ce:	40f2                	lw	ra,28(sp)
    19d0:	4462                	lw	s0,24(sp)
    19d2:	44d2                	lw	s1,20(sp)
    19d4:	4942                	lw	s2,16(sp)
    19d6:	49b2                	lw	s3,12(sp)
    19d8:	6105                	addi	sp,sp,32
    19da:	8082                	ret
    19dc:	02000793          	li	a5,32
    19e0:	02f50f63          	beq	a0,a5,1a1e <_ZN6tflite25GetRegistrationFromOpCodeEPKNS_12OperatorCodeERKNS_15MicroOpResolverEPPK16TFLMRegistration+0x8c>
    19e4:	00092783          	lw	a5,0(s2)
    19e8:	85aa                	mv	a1,a0
    19ea:	854a                	mv	a0,s2
    19ec:	439c                	lw	a5,0(a5)
    19ee:	9782                	jalr	a5
    19f0:	87aa                	mv	a5,a0
    19f2:	00a9a023          	sw	a0,0(s3)
    19f6:	4501                	li	a0,0
    19f8:	fbf9                	bnez	a5,19ce <_ZN6tflite25GetRegistrationFromOpCodeEPKNS_12OperatorCodeERKNS_15MicroOpResolverEPPK16TFLMRegistration+0x3c>
    19fa:	8004e597          	auipc	a1,0x8004e
    19fe:	f6e58593          	addi	a1,a1,-146 # 8004f968 <__stack_top+0xfff92b48>
    1a02:	00044963          	bltz	s0,1a14 <_ZN6tflite25GetRegistrationFromOpCodeEPKNS_12OperatorCodeERKNS_15MicroOpResolverEPPK16TFLMRegistration+0x82>
    1a06:	8004c797          	auipc	a5,0x8004c
    1a0a:	040a                	slli	s0,s0,0x2
    1a0c:	6ca78793          	addi	a5,a5,1738 # 8004e0d0 <__stack_top+0xfff912b0>
    1a10:	943e                	add	s0,s0,a5
    1a12:	400c                	lw	a1,0(s0)
    1a14:	8004e517          	auipc	a0,0x8004e
    1a18:	e1450513          	addi	a0,a0,-492 # 8004f828 <__stack_top+0xfff92a08>
    1a1c:	b765                	j	19c4 <_ZN6tflite25GetRegistrationFromOpCodeEPKNS_12OperatorCodeERKNS_15MicroOpResolverEPPK16TFLMRegistration+0x32>
    1a1e:	409c                	lw	a5,0(s1)
    1a20:	4719                	li	a4,6
    1a22:	40f487b3          	sub	a5,s1,a5
    1a26:	0007d683          	lhu	a3,0(a5)
    1a2a:	00d77963          	bgeu	a4,a3,1a3c <_ZN6tflite25GetRegistrationFromOpCodeEPKNS_12OperatorCodeERKNS_15MicroOpResolverEPPK16TFLMRegistration+0xaa>
    1a2e:	0067d783          	lhu	a5,6(a5)
    1a32:	94be                	add	s1,s1,a5
    1a34:	c781                	beqz	a5,1a3c <_ZN6tflite25GetRegistrationFromOpCodeEPKNS_12OperatorCodeERKNS_15MicroOpResolverEPPK16TFLMRegistration+0xaa>
    1a36:	408c                	lw	a1,0(s1)
    1a38:	95a6                	add	a1,a1,s1
    1a3a:	e991                	bnez	a1,1a4e <_ZN6tflite25GetRegistrationFromOpCodeEPKNS_12OperatorCodeERKNS_15MicroOpResolverEPPK16TFLMRegistration+0xbc>
    1a3c:	8004e517          	auipc	a0,0x8004e
    1a40:	e1450513          	addi	a0,a0,-492 # 8004f850 <__stack_top+0xfff92a30>
    1a44:	00000097          	auipc	ra,0x0
    1a48:	f2a080e7          	jalr	-214(ra) # 196e <_Z11MicroPrintfPKcz>
    1a4c:	b741                	j	19cc <_ZN6tflite25GetRegistrationFromOpCodeEPKNS_12OperatorCodeERKNS_15MicroOpResolverEPPK16TFLMRegistration+0x3a>
    1a4e:	00092783          	lw	a5,0(s2)
    1a52:	0591                	addi	a1,a1,4
    1a54:	854a                	mv	a0,s2
    1a56:	43dc                	lw	a5,4(a5)
    1a58:	9782                	jalr	a5
    1a5a:	00a9a023          	sw	a0,0(s3)
    1a5e:	00153513          	seqz	a0,a0
    1a62:	b7b5                	j	19ce <_ZN6tflite25GetRegistrationFromOpCodeEPKNS_12OperatorCodeERKNS_15MicroOpResolverEPPK16TFLMRegistration+0x3c>

00001a64 <_ZN6tflite22MicroResourceVariables8ResetAllEv>:
    1a64:	1141                	addi	sp,sp,-16
    1a66:	c422                	sw	s0,8(sp)
    1a68:	c226                	sw	s1,4(sp)
    1a6a:	c04a                	sw	s2,0(sp)
    1a6c:	c606                	sw	ra,12(sp)
    1a6e:	84aa                	mv	s1,a0
    1a70:	4401                	li	s0,0
    1a72:	4951                	li	s2,20
    1a74:	449c                	lw	a5,8(s1)
    1a76:	02f45063          	bge	s0,a5,1a96 <_ZN6tflite22MicroResourceVariables8ResetAllEv+0x32>
    1a7a:	03240733          	mul	a4,s0,s2
    1a7e:	409c                	lw	a5,0(s1)
    1a80:	0405                	addi	s0,s0,1
    1a82:	97ba                	add	a5,a5,a4
    1a84:	47d0                	lw	a2,12(a5)
    1a86:	01078583          	lb	a1,16(a5)
    1a8a:	4788                	lw	a0,8(a5)
    1a8c:	0000f097          	auipc	ra,0xf
    1a90:	5c8080e7          	jalr	1480(ra) # 11054 <memset>
    1a94:	b7c5                	j	1a74 <_ZN6tflite22MicroResourceVariables8ResetAllEv+0x10>
    1a96:	40b2                	lw	ra,12(sp)
    1a98:	4422                	lw	s0,8(sp)
    1a9a:	4492                	lw	s1,4(sp)
    1a9c:	4902                	lw	s2,0(sp)
    1a9e:	4501                	li	a0,0
    1aa0:	0141                	addi	sp,sp,16
    1aa2:	8082                	ret

00001aa4 <_ZN6tflite12ElementCountERK14TfLiteIntArray>:
    1aa4:	4110                	lw	a2,0(a0)
    1aa6:	00450793          	addi	a5,a0,4
    1aaa:	4701                	li	a4,0
    1aac:	4505                	li	a0,1
    1aae:	00c75863          	bge	a4,a2,1abe <_ZN6tflite12ElementCountERK14TfLiteIntArray+0x1a>
    1ab2:	4394                	lw	a3,0(a5)
    1ab4:	0705                	addi	a4,a4,1
    1ab6:	0791                	addi	a5,a5,4
    1ab8:	02d50533          	mul	a0,a0,a3
    1abc:	bfcd                	j	1aae <_ZN6tflite12ElementCountERK14TfLiteIntArray+0xa>
    1abe:	8082                	ret

00001ac0 <_ZN6tflite16InitializeTargetEv>:
    1ac0:	8082                	ret

00001ac2 <_ZN6tflite17ConvertTensorTypeENS_10TensorTypeEP10TfLiteType>:
    1ac2:	1101                	addi	sp,sp,-32
    1ac4:	cc22                	sw	s0,24(sp)
    1ac6:	ce06                	sw	ra,28(sp)
    1ac8:	842a                	mv	s0,a0
    1aca:	c62e                	sw	a1,12(sp)
    1acc:	00000097          	auipc	ra,0x0
    1ad0:	062080e7          	jalr	98(ra) # 1b2e <_ZN6tflite21GetMicroErrorReporterEv>
    1ad4:	862a                	mv	a2,a0
    1ad6:	8522                	mv	a0,s0
    1ad8:	4462                	lw	s0,24(sp)
    1ada:	45b2                	lw	a1,12(sp)
    1adc:	40f2                	lw	ra,28(sp)
    1ade:	6105                	addi	sp,sp,32
    1ae0:	00000317          	auipc	t1,0x0
    1ae4:	17030067          	jr	368(t1) # 1c50 <_ZN6tflite17ConvertTensorTypeENS_10TensorTypeEP10TfLiteTypePNS_13ErrorReporterE>

00001ae8 <_ZN6tflite24CallBuiltinParseFunctionEPF12TfLiteStatusPKNS_8OperatorEPNS_13ErrorReporterEPNS_20BuiltinDataAllocatorEPPvES3_S7_S9_>:
    1ae8:	1101                	addi	sp,sp,-32
    1aea:	cc22                	sw	s0,24(sp)
    1aec:	ca26                	sw	s1,20(sp)
    1aee:	ce06                	sw	ra,28(sp)
    1af0:	84ae                	mv	s1,a1
    1af2:	842a                	mv	s0,a0
    1af4:	c632                	sw	a2,12(sp)
    1af6:	c436                	sw	a3,8(sp)
    1af8:	00000097          	auipc	ra,0x0
    1afc:	036080e7          	jalr	54(ra) # 1b2e <_ZN6tflite21GetMicroErrorReporterEv>
    1b00:	8322                	mv	t1,s0
    1b02:	4462                	lw	s0,24(sp)
    1b04:	46a2                	lw	a3,8(sp)
    1b06:	4632                	lw	a2,12(sp)
    1b08:	40f2                	lw	ra,28(sp)
    1b0a:	85aa                	mv	a1,a0
    1b0c:	8526                	mv	a0,s1
    1b0e:	44d2                	lw	s1,20(sp)
    1b10:	6105                	addi	sp,sp,32
    1b12:	8302                	jr	t1

00001b14 <_ZN6tflite18MicroErrorReporterD0Ev>:
    1b14:	8082                	ret

00001b16 <_ZN6tflite18MicroErrorReporter6ReportEPKcPv>:
    1b16:	1141                	addi	sp,sp,-16
    1b18:	852e                	mv	a0,a1
    1b1a:	85b2                	mv	a1,a2
    1b1c:	c606                	sw	ra,12(sp)
    1b1e:	00000097          	auipc	ra,0x0
    1b22:	e30080e7          	jalr	-464(ra) # 194e <_Z12VMicroPrintfPKcPv>
    1b26:	40b2                	lw	ra,12(sp)
    1b28:	4501                	li	a0,0
    1b2a:	0141                	addi	sp,sp,16
    1b2c:	8082                	ret

00001b2e <_ZN6tflite21GetMicroErrorReporterEv>:
    1b2e:	80051797          	auipc	a5,0x80051
    1b32:	1167a703          	lw	a4,278(a5) # 80052c44 <__stack_top+0xfff95e24>
    1b36:	80051797          	auipc	a5,0x80051
    1b3a:	10e78793          	addi	a5,a5,270 # 80052c44 <__stack_top+0xfff95e24>
    1b3e:	eb19                	bnez	a4,1b54 <_ZN6tflite21GetMicroErrorReporterEv+0x26>
    1b40:	80051717          	auipc	a4,0x80051
    1b44:	8004e697          	auipc	a3,0x8004e
    1b48:	10870713          	addi	a4,a4,264 # 80052c48 <__stack_top+0xfff95e28>
    1b4c:	d4c68693          	addi	a3,a3,-692 # 8004f890 <__stack_top+0xfff92a70>
    1b50:	c314                	sw	a3,0(a4)
    1b52:	c398                	sw	a4,0(a5)
    1b54:	4388                	lw	a0,0(a5)
    1b56:	8082                	ret

00001b58 <_ZN6tflite12_GLOBAL__N_117ConvertActivationENS_22ActivationFunctionTypeE>:
    1b58:	157d                	addi	a0,a0,-1
    1b5a:	0ff57513          	zext.b	a0,a0
    1b5e:	4791                	li	a5,4
    1b60:	00a7ea63          	bltu	a5,a0,1b74 <_ZN6tflite12_GLOBAL__N_117ConvertActivationENS_22ActivationFunctionTypeE+0x1c>
    1b64:	80051797          	auipc	a5,0x80051
    1b68:	07878793          	addi	a5,a5,120 # 80052bdc <__stack_top+0xfff95dbc>
    1b6c:	97aa                	add	a5,a5,a0
    1b6e:	0007c503          	lbu	a0,0(a5)
    1b72:	8082                	ret
    1b74:	4501                	li	a0,0
    1b76:	8082                	ret

00001b78 <_ZN6tflite12_GLOBAL__N_114ConvertPaddingENS_7PaddingE>:
    1b78:	4785                	li	a5,1
    1b7a:	c511                	beqz	a0,1b86 <_ZN6tflite12_GLOBAL__N_114ConvertPaddingENS_7PaddingE+0xe>
    1b7c:	4705                	li	a4,1
    1b7e:	4789                	li	a5,2
    1b80:	00e50363          	beq	a0,a4,1b86 <_ZN6tflite12_GLOBAL__N_114ConvertPaddingENS_7PaddingE+0xe>
    1b84:	4781                	li	a5,0
    1b86:	853e                	mv	a0,a5
    1b88:	8082                	ret

00001b8a <_ZN6tflite12_GLOBAL__N_1L26FlatBufferIntVectorToArrayIlEE12TfLiteStatusiPKN11flatbuffers6VectorIT_mEEPS5_PNS_13ErrorReporterEPKc>:
    1b8a:	1141                	addi	sp,sp,-16
    1b8c:	c606                	sw	ra,12(sp)
    1b8e:	87aa                	mv	a5,a0
    1b90:	8536                	mv	a0,a3
    1b92:	ed91                	bnez	a1,1bae <_ZN6tflite12_GLOBAL__N_1L26FlatBufferIntVectorToArrayIlEE12TfLiteStatusiPKN11flatbuffers6VectorIT_mEEPS5_PNS_13ErrorReporterEPKc+0x24>
    1b94:	8004e597          	auipc	a1,0x8004e
    1b98:	863a                	mv	a2,a4
    1b9a:	d6458593          	addi	a1,a1,-668 # 8004f8f8 <__stack_top+0xfff92ad8>
    1b9e:	00000097          	auipc	ra,0x0
    1ba2:	71c080e7          	jalr	1820(ra) # 22ba <_ZN6tflite13ErrorReporter6ReportEPKcz>
    1ba6:	4505                	li	a0,1
    1ba8:	40b2                	lw	ra,12(sp)
    1baa:	0141                	addi	sp,sp,16
    1bac:	8082                	ret
    1bae:	0005a803          	lw	a6,0(a1)
    1bb2:	8389                	srli	a5,a5,0x2
    1bb4:	0307ec63          	bltu	a5,a6,1bec <_ZN6tflite12_GLOBAL__N_1L26FlatBufferIntVectorToArrayIlEE12TfLiteStatusiPKN11flatbuffers6VectorIT_mEEPS5_PNS_13ErrorReporterEPKc+0x62>
    1bb8:	00458713          	addi	a4,a1,4
    1bbc:	4781                	li	a5,0
    1bbe:	05078563          	beq	a5,a6,1c08 <_ZN6tflite12_GLOBAL__N_1L26FlatBufferIntVectorToArrayIlEE12TfLiteStatusiPKN11flatbuffers6VectorIT_mEEPS5_PNS_13ErrorReporterEPKc+0x7e>
    1bc2:	4194                	lw	a3,0(a1)
    1bc4:	02d7ea63          	bltu	a5,a3,1bf8 <_ZN6tflite12_GLOBAL__N_1L26FlatBufferIntVectorToArrayIlEE12TfLiteStatusiPKN11flatbuffers6VectorIT_mEEPS5_PNS_13ErrorReporterEPKc+0x6e>
    1bc8:	8004d697          	auipc	a3,0x8004d
    1bcc:	8004e617          	auipc	a2,0x8004e
    1bd0:	8004d517          	auipc	a0,0x8004d
    1bd4:	ad068693          	addi	a3,a3,-1328 # 8004e698 <__stack_top+0xfff91878>
    1bd8:	e2460613          	addi	a2,a2,-476 # 8004f9f0 <__stack_top+0xfff92bd0>
    1bdc:	0c200593          	li	a1,194
    1be0:	ad450513          	addi	a0,a0,-1324 # 8004e6a4 <__stack_top+0xfff91884>
    1be4:	0000e097          	auipc	ra,0xe
    1be8:	684080e7          	jalr	1668(ra) # 10268 <__assert_func>
    1bec:	8004e597          	auipc	a1,0x8004e
    1bf0:	863a                	mv	a2,a4
    1bf2:	d3c58593          	addi	a1,a1,-708 # 8004f928 <__stack_top+0xfff92b08>
    1bf6:	b765                	j	1b9e <_ZN6tflite12_GLOBAL__N_1L26FlatBufferIntVectorToArrayIlEE12TfLiteStatusiPKN11flatbuffers6VectorIT_mEEPS5_PNS_13ErrorReporterEPKc+0x14>
    1bf8:	4308                	lw	a0,0(a4)
    1bfa:	00279693          	slli	a3,a5,0x2
    1bfe:	96b2                	add	a3,a3,a2
    1c00:	c288                	sw	a0,0(a3)
    1c02:	0785                	addi	a5,a5,1
    1c04:	0711                	addi	a4,a4,4
    1c06:	bf65                	j	1bbe <_ZN6tflite12_GLOBAL__N_1L26FlatBufferIntVectorToArrayIlEE12TfLiteStatusiPKN11flatbuffers6VectorIT_mEEPS5_PNS_13ErrorReporterEPKc+0x34>
    1c08:	4501                	li	a0,0
    1c0a:	bf79                	j	1ba8 <_ZN6tflite12_GLOBAL__N_1L26FlatBufferIntVectorToArrayIlEE12TfLiteStatusiPKN11flatbuffers6VectorIT_mEEPS5_PNS_13ErrorReporterEPKc+0x1e>

00001c0c <_ZN6tflite12_GLOBAL__N_124SafeBuiltinDataAllocator18BuiltinDataDeleterclEPv.isra.0>:
    1c0c:	411c                	lw	a5,0(a0)
    1c0e:	0047a303          	lw	t1,4(a5)
    1c12:	8302                	jr	t1

00001c14 <_ZNK6tflite8Operator15builtin_optionsEv>:
    1c14:	1141                	addi	sp,sp,-16
    1c16:	45b1                	li	a1,12
    1c18:	c422                	sw	s0,8(sp)
    1c1a:	c606                	sw	ra,12(sp)
    1c1c:	842a                	mv	s0,a0
    1c1e:	fffff097          	auipc	ra,0xfffff
    1c22:	9f8080e7          	jalr	-1544(ra) # 616 <_ZNK11flatbuffers5Table22GetOptionalFieldOffsetEt>
    1c26:	c901                	beqz	a0,1c36 <_ZNK6tflite8Operator15builtin_optionsEv+0x22>
    1c28:	9522                	add	a0,a0,s0
    1c2a:	411c                	lw	a5,0(a0)
    1c2c:	953e                	add	a0,a0,a5
    1c2e:	40b2                	lw	ra,12(sp)
    1c30:	4422                	lw	s0,8(sp)
    1c32:	0141                	addi	sp,sp,16
    1c34:	8082                	ret
    1c36:	4501                	li	a0,0
    1c38:	bfdd                	j	1c2e <_ZNK6tflite8Operator15builtin_optionsEv+0x1a>

00001c3a <_ZN6tflite12_GLOBAL__N_123CheckParsePointerParamsEPKNS_8OperatorEPNS_13ErrorReporterEPNS_20BuiltinDataAllocatorEPPv>:
    1c3a:	e519                	bnez	a0,1c48 <_ZN6tflite12_GLOBAL__N_123CheckParsePointerParamsEPKNS_8OperatorEPNS_13ErrorReporterEPNS_20BuiltinDataAllocatorEPPv+0xe>
    1c3c:	1141                	addi	sp,sp,-16
    1c3e:	c606                	sw	ra,12(sp)
    1c40:	fffff097          	auipc	ra,0xfffff
    1c44:	31e080e7          	jalr	798(ra) # f5e <_Z9AbortImplv>
    1c48:	d9f5                	beqz	a1,1c3c <_ZN6tflite12_GLOBAL__N_123CheckParsePointerParamsEPKNS_8OperatorEPNS_13ErrorReporterEPNS_20BuiltinDataAllocatorEPPv+0x2>
    1c4a:	da6d                	beqz	a2,1c3c <_ZN6tflite12_GLOBAL__N_123CheckParsePointerParamsEPKNS_8OperatorEPNS_13ErrorReporterEPNS_20BuiltinDataAllocatorEPPv+0x2>
    1c4c:	dae5                	beqz	a3,1c3c <_ZN6tflite12_GLOBAL__N_123CheckParsePointerParamsEPKNS_8OperatorEPNS_13ErrorReporterEPNS_20BuiltinDataAllocatorEPPv+0x2>
    1c4e:	8082                	ret

00001c50 <_ZN6tflite17ConvertTensorTypeENS_10TensorTypeEP10TfLiteTypePNS_13ErrorReporterE>:
    1c50:	0ff57793          	zext.b	a5,a0
    1c54:	46d1                	li	a3,20
    1c56:	06f6e763          	bltu	a3,a5,1cc4 <_ZN6tflite17ConvertTensorTypeENS_10TensorTypeEP10TfLiteTypePNS_13ErrorReporterE+0x74>
    1c5a:	8004e717          	auipc	a4,0x8004e
    1c5e:	c4270713          	addi	a4,a4,-958 # 8004f89c <__stack_top+0xfff92a7c>
    1c62:	078a                	slli	a5,a5,0x2
    1c64:	97ba                	add	a5,a5,a4
    1c66:	439c                	lw	a5,0(a5)
    1c68:	973e                	add	a4,a4,a5
    1c6a:	8702                	jr	a4
    1c6c:	47a9                	li	a5,10
    1c6e:	c19c                	sw	a5,0(a1)
    1c70:	4501                	li	a0,0
    1c72:	8082                	ret
    1c74:	47cd                	li	a5,19
    1c76:	bfe5                	j	1c6e <_ZN6tflite17ConvertTensorTypeENS_10TensorTypeEP10TfLiteTypePNS_13ErrorReporterE+0x1e>
    1c78:	4785                	li	a5,1
    1c7a:	bfd5                	j	1c6e <_ZN6tflite17ConvertTensorTypeENS_10TensorTypeEP10TfLiteTypePNS_13ErrorReporterE+0x1e>
    1c7c:	47ad                	li	a5,11
    1c7e:	bfc5                	j	1c6e <_ZN6tflite17ConvertTensorTypeENS_10TensorTypeEP10TfLiteTypePNS_13ErrorReporterE+0x1e>
    1c80:	479d                	li	a5,7
    1c82:	b7f5                	j	1c6e <_ZN6tflite17ConvertTensorTypeENS_10TensorTypeEP10TfLiteTypePNS_13ErrorReporterE+0x1e>
    1c84:	47c5                	li	a5,17
    1c86:	b7e5                	j	1c6e <_ZN6tflite17ConvertTensorTypeENS_10TensorTypeEP10TfLiteTypePNS_13ErrorReporterE+0x1e>
    1c88:	4789                	li	a5,2
    1c8a:	b7d5                	j	1c6e <_ZN6tflite17ConvertTensorTypeENS_10TensorTypeEP10TfLiteTypePNS_13ErrorReporterE+0x1e>
    1c8c:	47c1                	li	a5,16
    1c8e:	b7c5                	j	1c6e <_ZN6tflite17ConvertTensorTypeENS_10TensorTypeEP10TfLiteTypePNS_13ErrorReporterE+0x1e>
    1c90:	478d                	li	a5,3
    1c92:	bff1                	j	1c6e <_ZN6tflite17ConvertTensorTypeENS_10TensorTypeEP10TfLiteTypePNS_13ErrorReporterE+0x1e>
    1c94:	47a5                	li	a5,9
    1c96:	bfe1                	j	1c6e <_ZN6tflite17ConvertTensorTypeENS_10TensorTypeEP10TfLiteTypePNS_13ErrorReporterE+0x1e>
    1c98:	4791                	li	a5,4
    1c9a:	bfd1                	j	1c6e <_ZN6tflite17ConvertTensorTypeENS_10TensorTypeEP10TfLiteTypePNS_13ErrorReporterE+0x1e>
    1c9c:	47b5                	li	a5,13
    1c9e:	bfc1                	j	1c6e <_ZN6tflite17ConvertTensorTypeENS_10TensorTypeEP10TfLiteTypePNS_13ErrorReporterE+0x1e>
    1ca0:	4795                	li	a5,5
    1ca2:	b7f1                	j	1c6e <_ZN6tflite17ConvertTensorTypeENS_10TensorTypeEP10TfLiteTypePNS_13ErrorReporterE+0x1e>
    1ca4:	4799                	li	a5,6
    1ca6:	b7e1                	j	1c6e <_ZN6tflite17ConvertTensorTypeENS_10TensorTypeEP10TfLiteTypePNS_13ErrorReporterE+0x1e>
    1ca8:	47a1                	li	a5,8
    1caa:	b7d1                	j	1c6e <_ZN6tflite17ConvertTensorTypeENS_10TensorTypeEP10TfLiteTypePNS_13ErrorReporterE+0x1e>
    1cac:	47b1                	li	a5,12
    1cae:	b7c1                	j	1c6e <_ZN6tflite17ConvertTensorTypeENS_10TensorTypeEP10TfLiteTypePNS_13ErrorReporterE+0x1e>
    1cb0:	47b9                	li	a5,14
    1cb2:	bf75                	j	1c6e <_ZN6tflite17ConvertTensorTypeENS_10TensorTypeEP10TfLiteTypePNS_13ErrorReporterE+0x1e>
    1cb4:	47bd                	li	a5,15
    1cb6:	bf65                	j	1c6e <_ZN6tflite17ConvertTensorTypeENS_10TensorTypeEP10TfLiteTypePNS_13ErrorReporterE+0x1e>
    1cb8:	47c9                	li	a5,18
    1cba:	bf55                	j	1c6e <_ZN6tflite17ConvertTensorTypeENS_10TensorTypeEP10TfLiteTypePNS_13ErrorReporterE+0x1e>
    1cbc:	47d1                	li	a5,20
    1cbe:	bf45                	j	1c6e <_ZN6tflite17ConvertTensorTypeENS_10TensorTypeEP10TfLiteTypePNS_13ErrorReporterE+0x1e>
    1cc0:	47d5                	li	a5,21
    1cc2:	b775                	j	1c6e <_ZN6tflite17ConvertTensorTypeENS_10TensorTypeEP10TfLiteTypePNS_13ErrorReporterE+0x1e>
    1cc4:	1141                	addi	sp,sp,-16
    1cc6:	c606                	sw	ra,12(sp)
    1cc8:	872a                	mv	a4,a0
    1cca:	0005a023          	sw	zero,0(a1)
    1cce:	8004e597          	auipc	a1,0x8004e
    1cd2:	8532                	mv	a0,a2
    1cd4:	cfe58593          	addi	a1,a1,-770 # 8004f9cc <__stack_top+0xfff92bac>
    1cd8:	863a                	mv	a2,a4
    1cda:	00000097          	auipc	ra,0x0
    1cde:	5e0080e7          	jalr	1504(ra) # 22ba <_ZN6tflite13ErrorReporter6ReportEPKcz>
    1ce2:	40b2                	lw	ra,12(sp)
    1ce4:	4505                	li	a0,1
    1ce6:	0141                	addi	sp,sp,16
    1ce8:	8082                	ret

00001cea <_ZNK11flatbuffers5Table8GetFieldIlEET_tS2_>:
    1cea:	1101                	addi	sp,sp,-32
    1cec:	cc22                	sw	s0,24(sp)
    1cee:	c632                	sw	a2,12(sp)
    1cf0:	ce06                	sw	ra,28(sp)
    1cf2:	842a                	mv	s0,a0
    1cf4:	fffff097          	auipc	ra,0xfffff
    1cf8:	922080e7          	jalr	-1758(ra) # 616 <_ZNK11flatbuffers5Table22GetOptionalFieldOffsetEt>
    1cfc:	4632                	lw	a2,12(sp)
    1cfe:	c119                	beqz	a0,1d04 <_ZNK11flatbuffers5Table8GetFieldIlEET_tS2_+0x1a>
    1d00:	942a                	add	s0,s0,a0
    1d02:	4010                	lw	a2,0(s0)
    1d04:	40f2                	lw	ra,28(sp)
    1d06:	4462                	lw	s0,24(sp)
    1d08:	8532                	mv	a0,a2
    1d0a:	6105                	addi	sp,sp,32
    1d0c:	8082                	ret

00001d0e <_ZNK11flatbuffers5Table8GetFieldIhEET_tS2_>:
    1d0e:	1101                	addi	sp,sp,-32
    1d10:	cc22                	sw	s0,24(sp)
    1d12:	c632                	sw	a2,12(sp)
    1d14:	ce06                	sw	ra,28(sp)
    1d16:	842a                	mv	s0,a0
    1d18:	fffff097          	auipc	ra,0xfffff
    1d1c:	8fe080e7          	jalr	-1794(ra) # 616 <_ZNK11flatbuffers5Table22GetOptionalFieldOffsetEt>
    1d20:	4632                	lw	a2,12(sp)
    1d22:	c501                	beqz	a0,1d2a <_ZNK11flatbuffers5Table8GetFieldIhEET_tS2_+0x1c>
    1d24:	942a                	add	s0,s0,a0
    1d26:	00044603          	lbu	a2,0(s0)
    1d2a:	40f2                	lw	ra,28(sp)
    1d2c:	4462                	lw	s0,24(sp)
    1d2e:	8532                	mv	a0,a2
    1d30:	6105                	addi	sp,sp,32
    1d32:	8082                	ret

00001d34 <_ZNK6tflite8Operator20builtin_options_typeEv>:
    1d34:	4601                	li	a2,0
    1d36:	45a9                	li	a1,10
    1d38:	00000317          	auipc	t1,0x0
    1d3c:	fd630067          	jr	-42(t1) # 1d0e <_ZNK11flatbuffers5Table8GetFieldIhEET_tS2_>

00001d40 <_ZNK11flatbuffers5Table8GetFieldIaEET_tS2_>:
    1d40:	1101                	addi	sp,sp,-32
    1d42:	cc22                	sw	s0,24(sp)
    1d44:	c632                	sw	a2,12(sp)
    1d46:	ce06                	sw	ra,28(sp)
    1d48:	842a                	mv	s0,a0
    1d4a:	fffff097          	auipc	ra,0xfffff
    1d4e:	8cc080e7          	jalr	-1844(ra) # 616 <_ZNK11flatbuffers5Table22GetOptionalFieldOffsetEt>
    1d52:	4632                	lw	a2,12(sp)
    1d54:	c501                	beqz	a0,1d5c <_ZNK11flatbuffers5Table8GetFieldIaEET_tS2_+0x1c>
    1d56:	942a                	add	s0,s0,a0
    1d58:	00040603          	lb	a2,0(s0)
    1d5c:	40f2                	lw	ra,28(sp)
    1d5e:	4462                	lw	s0,24(sp)
    1d60:	8532                	mv	a0,a2
    1d62:	6105                	addi	sp,sp,32
    1d64:	8082                	ret

00001d66 <_ZN6tflite11ParseConv2DEPKNS_8OperatorEPNS_13ErrorReporterEPNS_20BuiltinDataAllocatorEPPv>:
    1d66:	1101                	addi	sp,sp,-32
    1d68:	ce06                	sw	ra,28(sp)
    1d6a:	cc22                	sw	s0,24(sp)
    1d6c:	ca26                	sw	s1,20(sp)
    1d6e:	c84a                	sw	s2,16(sp)
    1d70:	c64e                	sw	s3,12(sp)
    1d72:	8932                	mv	s2,a2
    1d74:	c452                	sw	s4,8(sp)
    1d76:	84aa                	mv	s1,a0
    1d78:	89ae                	mv	s3,a1
    1d7a:	8a36                	mv	s4,a3
    1d7c:	00000097          	auipc	ra,0x0
    1d80:	ebe080e7          	jalr	-322(ra) # 1c3a <_ZN6tflite12_GLOBAL__N_123CheckParsePointerParamsEPKNS_8OperatorEPNS_13ErrorReporterEPNS_20BuiltinDataAllocatorEPPv>
    1d84:	00092783          	lw	a5,0(s2)
    1d88:	4611                	li	a2,4
    1d8a:	45f1                	li	a1,28
    1d8c:	439c                	lw	a5,0(a5)
    1d8e:	854a                	mv	a0,s2
    1d90:	9782                	jalr	a5
    1d92:	842a                	mv	s0,a0
    1d94:	4671                	li	a2,28
    1d96:	4581                	li	a1,0
    1d98:	0000f097          	auipc	ra,0xf
    1d9c:	2bc080e7          	jalr	700(ra) # 11054 <memset>
    1da0:	ec1d                	bnez	s0,1dde <_ZN6tflite11ParseConv2DEPKNS_8OperatorEPNS_13ErrorReporterEPNS_20BuiltinDataAllocatorEPPv+0x78>
    1da2:	8004e797          	auipc	a5,0x8004e
    1da6:	8004e697          	auipc	a3,0x8004e
    1daa:	8004e617          	auipc	a2,0x8004e
    1dae:	bca78793          	addi	a5,a5,-1078 # 8004f96c <__stack_top+0xfff92b4c>
    1db2:	54200713          	li	a4,1346
    1db6:	bda68693          	addi	a3,a3,-1062 # 8004f980 <__stack_top+0xfff92b60>
    1dba:	c0a60613          	addi	a2,a2,-1014 # 8004f9b4 <__stack_top+0xfff92b94>
    1dbe:	85ce                	mv	a1,s3
    1dc0:	854e                	mv	a0,s3
    1dc2:	00000097          	auipc	ra,0x0
    1dc6:	518080e7          	jalr	1304(ra) # 22da <_ZN6tflite13ErrorReporter11ReportErrorEPvPKcz>
    1dca:	4485                	li	s1,1
    1dcc:	40f2                	lw	ra,28(sp)
    1dce:	4462                	lw	s0,24(sp)
    1dd0:	8526                	mv	a0,s1
    1dd2:	4942                	lw	s2,16(sp)
    1dd4:	44d2                	lw	s1,20(sp)
    1dd6:	49b2                	lw	s3,12(sp)
    1dd8:	4a22                	lw	s4,8(sp)
    1dda:	6105                	addi	sp,sp,32
    1ddc:	8082                	ret
    1dde:	8526                	mv	a0,s1
    1de0:	00000097          	auipc	ra,0x0
    1de4:	f54080e7          	jalr	-172(ra) # 1d34 <_ZNK6tflite8Operator20builtin_options_typeEv>
    1de8:	4785                	li	a5,1
    1dea:	00f50663          	beq	a0,a5,1df6 <_ZN6tflite11ParseConv2DEPKNS_8OperatorEPNS_13ErrorReporterEPNS_20BuiltinDataAllocatorEPPv+0x90>
    1dee:	008a2023          	sw	s0,0(s4)
    1df2:	4481                	li	s1,0
    1df4:	bfe1                	j	1dcc <_ZN6tflite11ParseConv2DEPKNS_8OperatorEPNS_13ErrorReporterEPNS_20BuiltinDataAllocatorEPPv+0x66>
    1df6:	8526                	mv	a0,s1
    1df8:	00000097          	auipc	ra,0x0
    1dfc:	e1c080e7          	jalr	-484(ra) # 1c14 <_ZNK6tflite8Operator15builtin_optionsEv>
    1e00:	84aa                	mv	s1,a0
    1e02:	d575                	beqz	a0,1dee <_ZN6tflite11ParseConv2DEPKNS_8OperatorEPNS_13ErrorReporterEPNS_20BuiltinDataAllocatorEPPv+0x88>
    1e04:	4601                	li	a2,0
    1e06:	4591                	li	a1,4
    1e08:	00000097          	auipc	ra,0x0
    1e0c:	f38080e7          	jalr	-200(ra) # 1d40 <_ZNK11flatbuffers5Table8GetFieldIaEET_tS2_>
    1e10:	00000097          	auipc	ra,0x0
    1e14:	d68080e7          	jalr	-664(ra) # 1b78 <_ZN6tflite12_GLOBAL__N_114ConvertPaddingENS_7PaddingE>
    1e18:	c008                	sw	a0,0(s0)
    1e1a:	4601                	li	a2,0
    1e1c:	4599                	li	a1,6
    1e1e:	8526                	mv	a0,s1
    1e20:	00000097          	auipc	ra,0x0
    1e24:	eca080e7          	jalr	-310(ra) # 1cea <_ZNK11flatbuffers5Table8GetFieldIlEET_tS2_>
    1e28:	c048                	sw	a0,4(s0)
    1e2a:	4601                	li	a2,0
    1e2c:	45a1                	li	a1,8
    1e2e:	8526                	mv	a0,s1
    1e30:	00000097          	auipc	ra,0x0
    1e34:	eba080e7          	jalr	-326(ra) # 1cea <_ZNK11flatbuffers5Table8GetFieldIlEET_tS2_>
    1e38:	4601                	li	a2,0
    1e3a:	45a9                	li	a1,10
    1e3c:	c408                	sw	a0,8(s0)
    1e3e:	8526                	mv	a0,s1
    1e40:	00000097          	auipc	ra,0x0
    1e44:	f00080e7          	jalr	-256(ra) # 1d40 <_ZNK11flatbuffers5Table8GetFieldIaEET_tS2_>
    1e48:	00000097          	auipc	ra,0x0
    1e4c:	d10080e7          	jalr	-752(ra) # 1b58 <_ZN6tflite12_GLOBAL__N_117ConvertActivationENS_22ActivationFunctionTypeE>
    1e50:	c448                	sw	a0,12(s0)
    1e52:	4605                	li	a2,1
    1e54:	45b1                	li	a1,12
    1e56:	8526                	mv	a0,s1
    1e58:	00000097          	auipc	ra,0x0
    1e5c:	e92080e7          	jalr	-366(ra) # 1cea <_ZNK11flatbuffers5Table8GetFieldIlEET_tS2_>
    1e60:	c808                	sw	a0,16(s0)
    1e62:	4605                	li	a2,1
    1e64:	45b9                	li	a1,14
    1e66:	8526                	mv	a0,s1
    1e68:	00000097          	auipc	ra,0x0
    1e6c:	e82080e7          	jalr	-382(ra) # 1cea <_ZNK11flatbuffers5Table8GetFieldIlEET_tS2_>
    1e70:	c848                	sw	a0,20(s0)
    1e72:	4601                	li	a2,0
    1e74:	45c1                	li	a1,16
    1e76:	8526                	mv	a0,s1
    1e78:	00000097          	auipc	ra,0x0
    1e7c:	ec8080e7          	jalr	-312(ra) # 1d40 <_ZNK11flatbuffers5Table8GetFieldIaEET_tS2_>
    1e80:	864e                	mv	a2,s3
    1e82:	01840593          	addi	a1,s0,24
    1e86:	00000097          	auipc	ra,0x0
    1e8a:	dca080e7          	jalr	-566(ra) # 1c50 <_ZN6tflite17ConvertTensorTypeENS_10TensorTypeEP10TfLiteTypePNS_13ErrorReporterE>
    1e8e:	84aa                	mv	s1,a0
    1e90:	dd39                	beqz	a0,1dee <_ZN6tflite11ParseConv2DEPKNS_8OperatorEPNS_13ErrorReporterEPNS_20BuiltinDataAllocatorEPPv+0x88>
    1e92:	85a2                	mv	a1,s0
    1e94:	854a                	mv	a0,s2
    1e96:	00000097          	auipc	ra,0x0
    1e9a:	d76080e7          	jalr	-650(ra) # 1c0c <_ZN6tflite12_GLOBAL__N_124SafeBuiltinDataAllocator18BuiltinDataDeleterclEPv.isra.0>
    1e9e:	b73d                	j	1dcc <_ZN6tflite11ParseConv2DEPKNS_8OperatorEPNS_13ErrorReporterEPNS_20BuiltinDataAllocatorEPPv+0x66>

00001ea0 <_ZN6tflite20ParseDepthwiseConv2DEPKNS_8OperatorEPNS_13ErrorReporterEPNS_20BuiltinDataAllocatorEPPv>:
    1ea0:	1101                	addi	sp,sp,-32
    1ea2:	ce06                	sw	ra,28(sp)
    1ea4:	cc22                	sw	s0,24(sp)
    1ea6:	ca26                	sw	s1,20(sp)
    1ea8:	8432                	mv	s0,a2
    1eaa:	c84a                	sw	s2,16(sp)
    1eac:	c64e                	sw	s3,12(sp)
    1eae:	84aa                	mv	s1,a0
    1eb0:	89ae                	mv	s3,a1
    1eb2:	8936                	mv	s2,a3
    1eb4:	00000097          	auipc	ra,0x0
    1eb8:	d86080e7          	jalr	-634(ra) # 1c3a <_ZN6tflite12_GLOBAL__N_123CheckParsePointerParamsEPKNS_8OperatorEPNS_13ErrorReporterEPNS_20BuiltinDataAllocatorEPPv>
    1ebc:	401c                	lw	a5,0(s0)
    1ebe:	4611                	li	a2,4
    1ec0:	45f1                	li	a1,28
    1ec2:	439c                	lw	a5,0(a5)
    1ec4:	8522                	mv	a0,s0
    1ec6:	9782                	jalr	a5
    1ec8:	842a                	mv	s0,a0
    1eca:	4671                	li	a2,28
    1ecc:	4581                	li	a1,0
    1ece:	0000f097          	auipc	ra,0xf
    1ed2:	186080e7          	jalr	390(ra) # 11054 <memset>
    1ed6:	ec0d                	bnez	s0,1f10 <_ZN6tflite20ParseDepthwiseConv2DEPKNS_8OperatorEPNS_13ErrorReporterEPNS_20BuiltinDataAllocatorEPPv+0x70>
    1ed8:	8004e797          	auipc	a5,0x8004e
    1edc:	8004e697          	auipc	a3,0x8004e
    1ee0:	8004e617          	auipc	a2,0x8004e
    1ee4:	a9478793          	addi	a5,a5,-1388 # 8004f96c <__stack_top+0xfff92b4c>
    1ee8:	59a00713          	li	a4,1434
    1eec:	aa468693          	addi	a3,a3,-1372 # 8004f980 <__stack_top+0xfff92b60>
    1ef0:	ad460613          	addi	a2,a2,-1324 # 8004f9b4 <__stack_top+0xfff92b94>
    1ef4:	85ce                	mv	a1,s3
    1ef6:	854e                	mv	a0,s3
    1ef8:	00000097          	auipc	ra,0x0
    1efc:	3e2080e7          	jalr	994(ra) # 22da <_ZN6tflite13ErrorReporter11ReportErrorEPvPKcz>
    1f00:	4505                	li	a0,1
    1f02:	40f2                	lw	ra,28(sp)
    1f04:	4462                	lw	s0,24(sp)
    1f06:	44d2                	lw	s1,20(sp)
    1f08:	4942                	lw	s2,16(sp)
    1f0a:	49b2                	lw	s3,12(sp)
    1f0c:	6105                	addi	sp,sp,32
    1f0e:	8082                	ret
    1f10:	8526                	mv	a0,s1
    1f12:	00000097          	auipc	ra,0x0
    1f16:	e22080e7          	jalr	-478(ra) # 1d34 <_ZNK6tflite8Operator20builtin_options_typeEv>
    1f1a:	4789                	li	a5,2
    1f1c:	08f51863          	bne	a0,a5,1fac <_ZN6tflite20ParseDepthwiseConv2DEPKNS_8OperatorEPNS_13ErrorReporterEPNS_20BuiltinDataAllocatorEPPv+0x10c>
    1f20:	8526                	mv	a0,s1
    1f22:	00000097          	auipc	ra,0x0
    1f26:	cf2080e7          	jalr	-782(ra) # 1c14 <_ZNK6tflite8Operator15builtin_optionsEv>
    1f2a:	84aa                	mv	s1,a0
    1f2c:	c141                	beqz	a0,1fac <_ZN6tflite20ParseDepthwiseConv2DEPKNS_8OperatorEPNS_13ErrorReporterEPNS_20BuiltinDataAllocatorEPPv+0x10c>
    1f2e:	4601                	li	a2,0
    1f30:	4591                	li	a1,4
    1f32:	00000097          	auipc	ra,0x0
    1f36:	e0e080e7          	jalr	-498(ra) # 1d40 <_ZNK11flatbuffers5Table8GetFieldIaEET_tS2_>
    1f3a:	00000097          	auipc	ra,0x0
    1f3e:	c3e080e7          	jalr	-962(ra) # 1b78 <_ZN6tflite12_GLOBAL__N_114ConvertPaddingENS_7PaddingE>
    1f42:	c008                	sw	a0,0(s0)
    1f44:	4601                	li	a2,0
    1f46:	4599                	li	a1,6
    1f48:	8526                	mv	a0,s1
    1f4a:	00000097          	auipc	ra,0x0
    1f4e:	da0080e7          	jalr	-608(ra) # 1cea <_ZNK11flatbuffers5Table8GetFieldIlEET_tS2_>
    1f52:	c048                	sw	a0,4(s0)
    1f54:	4601                	li	a2,0
    1f56:	45a1                	li	a1,8
    1f58:	8526                	mv	a0,s1
    1f5a:	00000097          	auipc	ra,0x0
    1f5e:	d90080e7          	jalr	-624(ra) # 1cea <_ZNK11flatbuffers5Table8GetFieldIlEET_tS2_>
    1f62:	c408                	sw	a0,8(s0)
    1f64:	4601                	li	a2,0
    1f66:	45a9                	li	a1,10
    1f68:	8526                	mv	a0,s1
    1f6a:	00000097          	auipc	ra,0x0
    1f6e:	d80080e7          	jalr	-640(ra) # 1cea <_ZNK11flatbuffers5Table8GetFieldIlEET_tS2_>
    1f72:	4601                	li	a2,0
    1f74:	45b1                	li	a1,12
    1f76:	c448                	sw	a0,12(s0)
    1f78:	8526                	mv	a0,s1
    1f7a:	00000097          	auipc	ra,0x0
    1f7e:	dc6080e7          	jalr	-570(ra) # 1d40 <_ZNK11flatbuffers5Table8GetFieldIaEET_tS2_>
    1f82:	00000097          	auipc	ra,0x0
    1f86:	bd6080e7          	jalr	-1066(ra) # 1b58 <_ZN6tflite12_GLOBAL__N_117ConvertActivationENS_22ActivationFunctionTypeE>
    1f8a:	c808                	sw	a0,16(s0)
    1f8c:	4605                	li	a2,1
    1f8e:	45b9                	li	a1,14
    1f90:	8526                	mv	a0,s1
    1f92:	00000097          	auipc	ra,0x0
    1f96:	d58080e7          	jalr	-680(ra) # 1cea <_ZNK11flatbuffers5Table8GetFieldIlEET_tS2_>
    1f9a:	c848                	sw	a0,20(s0)
    1f9c:	4605                	li	a2,1
    1f9e:	45c1                	li	a1,16
    1fa0:	8526                	mv	a0,s1
    1fa2:	00000097          	auipc	ra,0x0
    1fa6:	d48080e7          	jalr	-696(ra) # 1cea <_ZNK11flatbuffers5Table8GetFieldIlEET_tS2_>
    1faa:	cc08                	sw	a0,24(s0)
    1fac:	00892023          	sw	s0,0(s2)
    1fb0:	4501                	li	a0,0
    1fb2:	bf81                	j	1f02 <_ZN6tflite20ParseDepthwiseConv2DEPKNS_8OperatorEPNS_13ErrorReporterEPNS_20BuiltinDataAllocatorEPPv+0x62>

00001fb4 <_ZN6tflite9ParsePoolEPKNS_8OperatorEPNS_13ErrorReporterEPNS_20BuiltinDataAllocatorEPPv>:
    1fb4:	1101                	addi	sp,sp,-32
    1fb6:	ce06                	sw	ra,28(sp)
    1fb8:	cc22                	sw	s0,24(sp)
    1fba:	ca26                	sw	s1,20(sp)
    1fbc:	8432                	mv	s0,a2
    1fbe:	c84a                	sw	s2,16(sp)
    1fc0:	c64e                	sw	s3,12(sp)
    1fc2:	84aa                	mv	s1,a0
    1fc4:	89ae                	mv	s3,a1
    1fc6:	8936                	mv	s2,a3
    1fc8:	00000097          	auipc	ra,0x0
    1fcc:	c72080e7          	jalr	-910(ra) # 1c3a <_ZN6tflite12_GLOBAL__N_123CheckParsePointerParamsEPKNS_8OperatorEPNS_13ErrorReporterEPNS_20BuiltinDataAllocatorEPPv>
    1fd0:	401c                	lw	a5,0(s0)
    1fd2:	4611                	li	a2,4
    1fd4:	02800593          	li	a1,40
    1fd8:	439c                	lw	a5,0(a5)
    1fda:	8522                	mv	a0,s0
    1fdc:	9782                	jalr	a5
    1fde:	842a                	mv	s0,a0
    1fe0:	02800613          	li	a2,40
    1fe4:	4581                	li	a1,0
    1fe6:	0000f097          	auipc	ra,0xf
    1fea:	06e080e7          	jalr	110(ra) # 11054 <memset>
    1fee:	ec0d                	bnez	s0,2028 <_ZN6tflite9ParsePoolEPKNS_8OperatorEPNS_13ErrorReporterEPNS_20BuiltinDataAllocatorEPPv+0x74>
    1ff0:	8004e797          	auipc	a5,0x8004e
    1ff4:	8004e697          	auipc	a3,0x8004e
    1ff8:	8004e617          	auipc	a2,0x8004e
    1ffc:	97c78793          	addi	a5,a5,-1668 # 8004f96c <__stack_top+0xfff92b4c>
    2000:	7a700713          	li	a4,1959
    2004:	98c68693          	addi	a3,a3,-1652 # 8004f980 <__stack_top+0xfff92b60>
    2008:	9bc60613          	addi	a2,a2,-1604 # 8004f9b4 <__stack_top+0xfff92b94>
    200c:	85ce                	mv	a1,s3
    200e:	854e                	mv	a0,s3
    2010:	00000097          	auipc	ra,0x0
    2014:	2ca080e7          	jalr	714(ra) # 22da <_ZN6tflite13ErrorReporter11ReportErrorEPvPKcz>
    2018:	4505                	li	a0,1
    201a:	40f2                	lw	ra,28(sp)
    201c:	4462                	lw	s0,24(sp)
    201e:	44d2                	lw	s1,20(sp)
    2020:	4942                	lw	s2,16(sp)
    2022:	49b2                	lw	s3,12(sp)
    2024:	6105                	addi	sp,sp,32
    2026:	8082                	ret
    2028:	8526                	mv	a0,s1
    202a:	00000097          	auipc	ra,0x0
    202e:	d0a080e7          	jalr	-758(ra) # 1d34 <_ZNK6tflite8Operator20builtin_options_typeEv>
    2032:	4795                	li	a5,5
    2034:	08f51063          	bne	a0,a5,20b4 <_ZN6tflite9ParsePoolEPKNS_8OperatorEPNS_13ErrorReporterEPNS_20BuiltinDataAllocatorEPPv+0x100>
    2038:	8526                	mv	a0,s1
    203a:	00000097          	auipc	ra,0x0
    203e:	bda080e7          	jalr	-1062(ra) # 1c14 <_ZNK6tflite8Operator15builtin_optionsEv>
    2042:	84aa                	mv	s1,a0
    2044:	c925                	beqz	a0,20b4 <_ZN6tflite9ParsePoolEPKNS_8OperatorEPNS_13ErrorReporterEPNS_20BuiltinDataAllocatorEPPv+0x100>
    2046:	4601                	li	a2,0
    2048:	4591                	li	a1,4
    204a:	00000097          	auipc	ra,0x0
    204e:	cf6080e7          	jalr	-778(ra) # 1d40 <_ZNK11flatbuffers5Table8GetFieldIaEET_tS2_>
    2052:	00000097          	auipc	ra,0x0
    2056:	b26080e7          	jalr	-1242(ra) # 1b78 <_ZN6tflite12_GLOBAL__N_114ConvertPaddingENS_7PaddingE>
    205a:	c008                	sw	a0,0(s0)
    205c:	4601                	li	a2,0
    205e:	4599                	li	a1,6
    2060:	8526                	mv	a0,s1
    2062:	00000097          	auipc	ra,0x0
    2066:	c88080e7          	jalr	-888(ra) # 1cea <_ZNK11flatbuffers5Table8GetFieldIlEET_tS2_>
    206a:	c048                	sw	a0,4(s0)
    206c:	4601                	li	a2,0
    206e:	45a1                	li	a1,8
    2070:	8526                	mv	a0,s1
    2072:	00000097          	auipc	ra,0x0
    2076:	c78080e7          	jalr	-904(ra) # 1cea <_ZNK11flatbuffers5Table8GetFieldIlEET_tS2_>
    207a:	c408                	sw	a0,8(s0)
    207c:	4601                	li	a2,0
    207e:	45a9                	li	a1,10
    2080:	8526                	mv	a0,s1
    2082:	00000097          	auipc	ra,0x0
    2086:	c68080e7          	jalr	-920(ra) # 1cea <_ZNK11flatbuffers5Table8GetFieldIlEET_tS2_>
    208a:	c448                	sw	a0,12(s0)
    208c:	4601                	li	a2,0
    208e:	45b1                	li	a1,12
    2090:	8526                	mv	a0,s1
    2092:	00000097          	auipc	ra,0x0
    2096:	c58080e7          	jalr	-936(ra) # 1cea <_ZNK11flatbuffers5Table8GetFieldIlEET_tS2_>
    209a:	c808                	sw	a0,16(s0)
    209c:	4601                	li	a2,0
    209e:	45b9                	li	a1,14
    20a0:	8526                	mv	a0,s1
    20a2:	00000097          	auipc	ra,0x0
    20a6:	c9e080e7          	jalr	-866(ra) # 1d40 <_ZNK11flatbuffers5Table8GetFieldIaEET_tS2_>
    20aa:	00000097          	auipc	ra,0x0
    20ae:	aae080e7          	jalr	-1362(ra) # 1b58 <_ZN6tflite12_GLOBAL__N_117ConvertActivationENS_22ActivationFunctionTypeE>
    20b2:	c848                	sw	a0,20(s0)
    20b4:	00892023          	sw	s0,0(s2)
    20b8:	4501                	li	a0,0
    20ba:	b785                	j	201a <_ZN6tflite9ParsePoolEPKNS_8OperatorEPNS_13ErrorReporterEPNS_20BuiltinDataAllocatorEPPv+0x66>

000020bc <_ZNK11flatbuffers5Table8GetFieldIfEET_tS2_>:
    20bc:	1101                	addi	sp,sp,-32
    20be:	cc22                	sw	s0,24(sp)
    20c0:	c632                	sw	a2,12(sp)
    20c2:	ce06                	sw	ra,28(sp)
    20c4:	842a                	mv	s0,a0
    20c6:	ffffe097          	auipc	ra,0xffffe
    20ca:	550080e7          	jalr	1360(ra) # 616 <_ZNK11flatbuffers5Table22GetOptionalFieldOffsetEt>
    20ce:	4632                	lw	a2,12(sp)
    20d0:	c119                	beqz	a0,20d6 <_ZNK11flatbuffers5Table8GetFieldIfEET_tS2_+0x1a>
    20d2:	942a                	add	s0,s0,a0
    20d4:	4010                	lw	a2,0(s0)
    20d6:	40f2                	lw	ra,28(sp)
    20d8:	4462                	lw	s0,24(sp)
    20da:	8532                	mv	a0,a2
    20dc:	6105                	addi	sp,sp,32
    20de:	8082                	ret

000020e0 <_ZN6tflite12ParseSoftmaxEPKNS_8OperatorEPNS_13ErrorReporterEPNS_20BuiltinDataAllocatorEPPv>:
    20e0:	1101                	addi	sp,sp,-32
    20e2:	ce06                	sw	ra,28(sp)
    20e4:	cc22                	sw	s0,24(sp)
    20e6:	ca26                	sw	s1,20(sp)
    20e8:	8432                	mv	s0,a2
    20ea:	c84a                	sw	s2,16(sp)
    20ec:	c64e                	sw	s3,12(sp)
    20ee:	84aa                	mv	s1,a0
    20f0:	89ae                	mv	s3,a1
    20f2:	8936                	mv	s2,a3
    20f4:	00000097          	auipc	ra,0x0
    20f8:	b46080e7          	jalr	-1210(ra) # 1c3a <_ZN6tflite12_GLOBAL__N_123CheckParsePointerParamsEPKNS_8OperatorEPNS_13ErrorReporterEPNS_20BuiltinDataAllocatorEPPv>
    20fc:	401c                	lw	a5,0(s0)
    20fe:	4611                	li	a2,4
    2100:	4591                	li	a1,4
    2102:	439c                	lw	a5,0(a5)
    2104:	8522                	mv	a0,s0
    2106:	9782                	jalr	a5
    2108:	00000793          	li	a5,0
    210c:	c11c                	sw	a5,0(a0)
    210e:	ed15                	bnez	a0,214a <_ZN6tflite12ParseSoftmaxEPKNS_8OperatorEPNS_13ErrorReporterEPNS_20BuiltinDataAllocatorEPPv+0x6a>
    2110:	8004e797          	auipc	a5,0x8004e
    2114:	6705                	lui	a4,0x1
    2116:	8004e697          	auipc	a3,0x8004e
    211a:	8004e617          	auipc	a2,0x8004e
    211e:	85c78793          	addi	a5,a5,-1956 # 8004f96c <__stack_top+0xfff92b4c>
    2122:	a1670713          	addi	a4,a4,-1514 # a16 <_ZN6tflite16MicroInterpreter44PrepareNodeAndRegistrationDataFromFlatbufferEv+0xb8>
    2126:	86a68693          	addi	a3,a3,-1942 # 8004f980 <__stack_top+0xfff92b60>
    212a:	89a60613          	addi	a2,a2,-1894 # 8004f9b4 <__stack_top+0xfff92b94>
    212e:	85ce                	mv	a1,s3
    2130:	854e                	mv	a0,s3
    2132:	00000097          	auipc	ra,0x0
    2136:	1a8080e7          	jalr	424(ra) # 22da <_ZN6tflite13ErrorReporter11ReportErrorEPvPKcz>
    213a:	4505                	li	a0,1
    213c:	40f2                	lw	ra,28(sp)
    213e:	4462                	lw	s0,24(sp)
    2140:	44d2                	lw	s1,20(sp)
    2142:	4942                	lw	s2,16(sp)
    2144:	49b2                	lw	s3,12(sp)
    2146:	6105                	addi	sp,sp,32
    2148:	8082                	ret
    214a:	842a                	mv	s0,a0
    214c:	8526                	mv	a0,s1
    214e:	00000097          	auipc	ra,0x0
    2152:	be6080e7          	jalr	-1050(ra) # 1d34 <_ZNK6tflite8Operator20builtin_options_typeEv>
    2156:	47a5                	li	a5,9
    2158:	02f51063          	bne	a0,a5,2178 <_ZN6tflite12ParseSoftmaxEPKNS_8OperatorEPNS_13ErrorReporterEPNS_20BuiltinDataAllocatorEPPv+0x98>
    215c:	8526                	mv	a0,s1
    215e:	00000097          	auipc	ra,0x0
    2162:	ab6080e7          	jalr	-1354(ra) # 1c14 <_ZNK6tflite8Operator15builtin_optionsEv>
    2166:	c909                	beqz	a0,2178 <_ZN6tflite12ParseSoftmaxEPKNS_8OperatorEPNS_13ErrorReporterEPNS_20BuiltinDataAllocatorEPPv+0x98>
    2168:	00000613          	li	a2,0
    216c:	4591                	li	a1,4
    216e:	00000097          	auipc	ra,0x0
    2172:	f4e080e7          	jalr	-178(ra) # 20bc <_ZNK11flatbuffers5Table8GetFieldIfEET_tS2_>
    2176:	c008                	sw	a0,0(s0)
    2178:	00892023          	sw	s0,0(s2)
    217c:	4501                	li	a0,0
    217e:	bf7d                	j	213c <_ZN6tflite12ParseSoftmaxEPKNS_8OperatorEPNS_13ErrorReporterEPNS_20BuiltinDataAllocatorEPPv+0x5c>

00002180 <_ZN6tflite12ParseReshapeEPKNS_8OperatorEPNS_13ErrorReporterEPNS_20BuiltinDataAllocatorEPPv>:
    2180:	1101                	addi	sp,sp,-32
    2182:	ce06                	sw	ra,28(sp)
    2184:	cc22                	sw	s0,24(sp)
    2186:	ca26                	sw	s1,20(sp)
    2188:	c84a                	sw	s2,16(sp)
    218a:	c64e                	sw	s3,12(sp)
    218c:	8932                	mv	s2,a2
    218e:	c452                	sw	s4,8(sp)
    2190:	89aa                	mv	s3,a0
    2192:	84ae                	mv	s1,a1
    2194:	8a36                	mv	s4,a3
    2196:	00000097          	auipc	ra,0x0
    219a:	aa4080e7          	jalr	-1372(ra) # 1c3a <_ZN6tflite12_GLOBAL__N_123CheckParsePointerParamsEPKNS_8OperatorEPNS_13ErrorReporterEPNS_20BuiltinDataAllocatorEPPv>
    219e:	00092783          	lw	a5,0(s2)
    21a2:	4611                	li	a2,4
    21a4:	02400593          	li	a1,36
    21a8:	439c                	lw	a5,0(a5)
    21aa:	854a                	mv	a0,s2
    21ac:	9782                	jalr	a5
    21ae:	842a                	mv	s0,a0
    21b0:	02400613          	li	a2,36
    21b4:	4581                	li	a1,0
    21b6:	0000f097          	auipc	ra,0xf
    21ba:	e9e080e7          	jalr	-354(ra) # 11054 <memset>
    21be:	e021                	bnez	s0,21fe <_ZN6tflite12ParseReshapeEPKNS_8OperatorEPNS_13ErrorReporterEPNS_20BuiltinDataAllocatorEPPv+0x7e>
    21c0:	8004d797          	auipc	a5,0x8004d
    21c4:	6705                	lui	a4,0x1
    21c6:	8004d697          	auipc	a3,0x8004d
    21ca:	8004d617          	auipc	a2,0x8004d
    21ce:	85a6                	mv	a1,s1
    21d0:	8526                	mv	a0,s1
    21d2:	7ac78793          	addi	a5,a5,1964 # 8004f96c <__stack_top+0xfff92b4c>
    21d6:	81170713          	addi	a4,a4,-2031 # 811 <_ZN11flatbuffers5Table10GetPointerIPKNS_6VectorIlmEEmEET_t+0xf>
    21da:	7ba68693          	addi	a3,a3,1978 # 8004f980 <__stack_top+0xfff92b60>
    21de:	7ea60613          	addi	a2,a2,2026 # 8004f9b4 <__stack_top+0xfff92b94>
    21e2:	00000097          	auipc	ra,0x0
    21e6:	0f8080e7          	jalr	248(ra) # 22da <_ZN6tflite13ErrorReporter11ReportErrorEPvPKcz>
    21ea:	4485                	li	s1,1
    21ec:	40f2                	lw	ra,28(sp)
    21ee:	4462                	lw	s0,24(sp)
    21f0:	8526                	mv	a0,s1
    21f2:	4942                	lw	s2,16(sp)
    21f4:	44d2                	lw	s1,20(sp)
    21f6:	49b2                	lw	s3,12(sp)
    21f8:	4a22                	lw	s4,8(sp)
    21fa:	6105                	addi	sp,sp,32
    21fc:	8082                	ret
    21fe:	854e                	mv	a0,s3
    2200:	00000097          	auipc	ra,0x0
    2204:	b34080e7          	jalr	-1228(ra) # 1d34 <_ZNK6tflite8Operator20builtin_options_typeEv>
    2208:	47c5                	li	a5,17
    220a:	04f51163          	bne	a0,a5,224c <_ZN6tflite12ParseReshapeEPKNS_8OperatorEPNS_13ErrorReporterEPNS_20BuiltinDataAllocatorEPPv+0xcc>
    220e:	854e                	mv	a0,s3
    2210:	00000097          	auipc	ra,0x0
    2214:	a04080e7          	jalr	-1532(ra) # 1c14 <_ZNK6tflite8Operator15builtin_optionsEv>
    2218:	c915                	beqz	a0,224c <_ZN6tflite12ParseReshapeEPKNS_8OperatorEPNS_13ErrorReporterEPNS_20BuiltinDataAllocatorEPPv+0xcc>
    221a:	4591                	li	a1,4
    221c:	ffffe097          	auipc	ra,0xffffe
    2220:	5e6080e7          	jalr	1510(ra) # 802 <_ZN11flatbuffers5Table10GetPointerIPKNS_6VectorIlmEEmEET_t>
    2224:	89aa                	mv	s3,a0
    2226:	c11d                	beqz	a0,224c <_ZN6tflite12ParseReshapeEPKNS_8OperatorEPNS_13ErrorReporterEPNS_20BuiltinDataAllocatorEPPv+0xcc>
    2228:	8004d717          	auipc	a4,0x8004d
    222c:	86a6                	mv	a3,s1
    222e:	85aa                	mv	a1,a0
    2230:	6c870713          	addi	a4,a4,1736 # 8004f8f0 <__stack_top+0xfff92ad0>
    2234:	8622                	mv	a2,s0
    2236:	02000513          	li	a0,32
    223a:	00000097          	auipc	ra,0x0
    223e:	950080e7          	jalr	-1712(ra) # 1b8a <_ZN6tflite12_GLOBAL__N_1L26FlatBufferIntVectorToArrayIlEE12TfLiteStatusiPKN11flatbuffers6VectorIT_mEEPS5_PNS_13ErrorReporterEPKc>
    2242:	84aa                	mv	s1,a0
    2244:	e901                	bnez	a0,2254 <_ZN6tflite12ParseReshapeEPKNS_8OperatorEPNS_13ErrorReporterEPNS_20BuiltinDataAllocatorEPPv+0xd4>
    2246:	0009a783          	lw	a5,0(s3)
    224a:	d01c                	sw	a5,32(s0)
    224c:	008a2023          	sw	s0,0(s4)
    2250:	4481                	li	s1,0
    2252:	bf69                	j	21ec <_ZN6tflite12ParseReshapeEPKNS_8OperatorEPNS_13ErrorReporterEPNS_20BuiltinDataAllocatorEPPv+0x6c>
    2254:	85a2                	mv	a1,s0
    2256:	854a                	mv	a0,s2
    2258:	00000097          	auipc	ra,0x0
    225c:	9b4080e7          	jalr	-1612(ra) # 1c0c <_ZN6tflite12_GLOBAL__N_124SafeBuiltinDataAllocator18BuiltinDataDeleterclEPv.isra.0>
    2260:	b771                	j	21ec <_ZN6tflite12ParseReshapeEPKNS_8OperatorEPNS_13ErrorReporterEPNS_20BuiltinDataAllocatorEPPv+0x6c>

00002262 <_ZN6tflite14GetBuiltinCodeEPKNS_12OperatorCodeE>:
    2262:	ed01                	bnez	a0,227a <_ZN6tflite14GetBuiltinCodeEPKNS_12OperatorCodeE+0x18>
    2264:	7fffe517          	auipc	a0,0x7fffe
    2268:	1141                	addi	sp,sp,-16
    226a:	f6850513          	addi	a0,a0,-152 # 800001cc <_ZTVN6tflite22MicroMutableOpResolverILj5EEE+0x104>
    226e:	c606                	sw	ra,12(sp)
    2270:	fffff097          	auipc	ra,0xfffff
    2274:	6fe080e7          	jalr	1790(ra) # 196e <_Z11MicroPrintfPKcz>
    2278:	a001                	j	2278 <_ZN6tflite14GetBuiltinCodeEPKNS_12OperatorCodeE+0x16>
    227a:	4118                	lw	a4,0(a0)
    227c:	47a9                	li	a5,10
    227e:	40e50733          	sub	a4,a0,a4
    2282:	00075603          	lhu	a2,0(a4)
    2286:	02c7f063          	bgeu	a5,a2,22a6 <_ZN6tflite14GetBuiltinCodeEPKNS_12OperatorCodeE+0x44>
    228a:	00a75783          	lhu	a5,10(a4)
    228e:	4681                	li	a3,0
    2290:	c399                	beqz	a5,2296 <_ZN6tflite14GetBuiltinCodeEPKNS_12OperatorCodeE+0x34>
    2292:	97aa                	add	a5,a5,a0
    2294:	4394                	lw	a3,0(a5)
    2296:	00475703          	lhu	a4,4(a4)
    229a:	4781                	li	a5,0
    229c:	cb11                	beqz	a4,22b0 <_ZN6tflite14GetBuiltinCodeEPKNS_12OperatorCodeE+0x4e>
    229e:	953a                	add	a0,a0,a4
    22a0:	00050783          	lb	a5,0(a0)
    22a4:	a031                	j	22b0 <_ZN6tflite14GetBuiltinCodeEPKNS_12OperatorCodeE+0x4e>
    22a6:	4591                	li	a1,4
    22a8:	4681                	li	a3,0
    22aa:	4781                	li	a5,0
    22ac:	fec5e5e3          	bltu	a1,a2,2296 <_ZN6tflite14GetBuiltinCodeEPKNS_12OperatorCodeE+0x34>
    22b0:	853e                	mv	a0,a5
    22b2:	00d7d363          	bge	a5,a3,22b8 <_ZN6tflite14GetBuiltinCodeEPKNS_12OperatorCodeE+0x56>
    22b6:	8536                	mv	a0,a3
    22b8:	8082                	ret

000022ba <_ZN6tflite13ErrorReporter6ReportEPKcz>:
    22ba:	7139                	addi	sp,sp,-64
    22bc:	d432                	sw	a2,40(sp)
    22be:	d636                	sw	a3,44(sp)
    22c0:	d83a                	sw	a4,48(sp)
    22c2:	da3e                	sw	a5,52(sp)
    22c4:	dc42                	sw	a6,56(sp)
    22c6:	de46                	sw	a7,60(sp)
    22c8:	411c                	lw	a5,0(a0)
    22ca:	1030                	addi	a2,sp,40
    22cc:	ce06                	sw	ra,28(sp)
    22ce:	479c                	lw	a5,8(a5)
    22d0:	c632                	sw	a2,12(sp)
    22d2:	9782                	jalr	a5
    22d4:	40f2                	lw	ra,28(sp)
    22d6:	6121                	addi	sp,sp,64
    22d8:	8082                	ret

000022da <_ZN6tflite13ErrorReporter11ReportErrorEPvPKcz>:
    22da:	7139                	addi	sp,sp,-64
    22dc:	d636                	sw	a3,44(sp)
    22de:	d83a                	sw	a4,48(sp)
    22e0:	da3e                	sw	a5,52(sp)
    22e2:	dc42                	sw	a6,56(sp)
    22e4:	de46                	sw	a7,60(sp)
    22e6:	411c                	lw	a5,0(a0)
    22e8:	85b2                	mv	a1,a2
    22ea:	1070                	addi	a2,sp,44
    22ec:	479c                	lw	a5,8(a5)
    22ee:	ce06                	sw	ra,28(sp)
    22f0:	c632                	sw	a2,12(sp)
    22f2:	9782                	jalr	a5
    22f4:	40f2                	lw	ra,28(sp)
    22f6:	6121                	addi	sp,sp,64
    22f8:	8082                	ret

000022fa <_ZN6tflite12_GLOBAL__N_18ConvEvalEP13TfLiteContextP10TfLiteNode>:
    22fa:	80051797          	auipc	a5,0x80051
    22fe:	8ee7a603          	lw	a2,-1810(a5) # 80052be8 <__stack_top+0xfff95dc8>
    2302:	b8010113          	addi	sp,sp,-1152
    2306:	46112e23          	sw	ra,1148(sp)
    230a:	46912a23          	sw	s1,1140(sp)
    230e:	47212823          	sw	s2,1136(sp)
    2312:	47312623          	sw	s3,1132(sp)
    2316:	47412423          	sw	s4,1128(sp)
    231a:	47512223          	sw	s5,1124(sp)
    231e:	8a2e                	mv	s4,a1
    2320:	8aaa                	mv	s5,a0
    2322:	46812c23          	sw	s0,1144(sp)
    2326:	47612023          	sw	s6,1120(sp)
    232a:	45712e23          	sw	s7,1116(sp)
    232e:	45812c23          	sw	s8,1112(sp)
    2332:	45912a23          	sw	s9,1108(sp)
    2336:	45a12823          	sw	s10,1104(sp)
    233a:	45b12623          	sw	s11,1100(sp)
    233e:	00003097          	auipc	ra,0x3
    2342:	78c080e7          	jalr	1932(ra) # 5aca <_ZN6tflite5micro12GetEvalInputEPK13TfLiteContextPK10TfLiteNodei>
    2346:	80051797          	auipc	a5,0x80051
    234a:	8aa7a603          	lw	a2,-1878(a5) # 80052bf0 <__stack_top+0xfff95dd0>
    234e:	89aa                	mv	s3,a0
    2350:	85d2                	mv	a1,s4
    2352:	8556                	mv	a0,s5
    2354:	00003097          	auipc	ra,0x3
    2358:	776080e7          	jalr	1910(ra) # 5aca <_ZN6tflite5micro12GetEvalInputEPK13TfLiteContextPK10TfLiteNodei>
    235c:	000a2783          	lw	a5,0(s4)
    2360:	892a                	mv	s2,a0
    2362:	4481                	li	s1,0
    2364:	c799                	beqz	a5,2372 <_ZN6tflite12_GLOBAL__N_18ConvEvalEP13TfLiteContextP10TfLiteNode+0x78>
    2366:	4398                	lw	a4,0(a5)
    2368:	478d                	li	a5,3
    236a:	00f71463          	bne	a4,a5,2372 <_ZN6tflite12_GLOBAL__N_18ConvEvalEP13TfLiteContextP10TfLiteNode+0x78>
    236e:	5ea0106f          	j	3958 <_ZN6tflite12_GLOBAL__N_18ConvEvalEP13TfLiteContextP10TfLiteNode+0x165e>
    2372:	80051797          	auipc	a5,0x80051
    2376:	87a7a603          	lw	a2,-1926(a5) # 80052bec <__stack_top+0xfff95dcc>
    237a:	85d2                	mv	a1,s4
    237c:	8556                	mv	a0,s5
    237e:	00003097          	auipc	ra,0x3
    2382:	754080e7          	jalr	1876(ra) # 5ad2 <_ZN6tflite5micro13GetEvalOutputEPK13TfLiteContextPK10TfLiteNodei>
    2386:	010a2b03          	lw	s6,16(s4)
    238a:	842a                	mv	s0,a0
    238c:	220b0963          	beqz	s6,25be <_ZN6tflite12_GLOBAL__N_18ConvEvalEP13TfLiteContextP10TfLiteNode+0x2c4>
    2390:	00ca2a03          	lw	s4,12(s4)
    2394:	220a0563          	beqz	s4,25be <_ZN6tflite12_GLOBAL__N_18ConvEvalEP13TfLiteContextP10TfLiteNode+0x2c4>
    2398:	0089a503          	lw	a0,8(s3)
    239c:	479d                	li	a5,7
    239e:	74f50b63          	beq	a0,a5,2af4 <_ZN6tflite12_GLOBAL__N_18ConvEvalEP13TfLiteContextP10TfLiteNode+0x7fa>
    23a2:	47a5                	li	a5,9
    23a4:	5ef50563          	beq	a0,a5,298e <_ZN6tflite12_GLOBAL__N_18ConvEvalEP13TfLiteContextP10TfLiteNode+0x694>
    23a8:	4785                	li	a5,1
    23aa:	20f50e63          	beq	a0,a5,25c6 <_ZN6tflite12_GLOBAL__N_18ConvEvalEP13TfLiteContextP10TfLiteNode+0x2cc>
    23ae:	00009097          	auipc	ra,0x9
    23b2:	e68080e7          	jalr	-408(ra) # b216 <TfLiteTypeGetName>
    23b6:	0089a603          	lw	a2,8(s3)
    23ba:	85aa                	mv	a1,a0
    23bc:	8004d517          	auipc	a0,0x8004d
    23c0:	74050513          	addi	a0,a0,1856 # 8004fafc <__stack_top+0xfff92cdc>
    23c4:	fffff097          	auipc	ra,0xfffff
    23c8:	5aa080e7          	jalr	1450(ra) # 196e <_Z11MicroPrintfPKcz>
    23cc:	4505                	li	a0,1
    23ce:	47c12083          	lw	ra,1148(sp)
    23d2:	47812403          	lw	s0,1144(sp)
    23d6:	47412483          	lw	s1,1140(sp)
    23da:	47012903          	lw	s2,1136(sp)
    23de:	46c12983          	lw	s3,1132(sp)
    23e2:	46812a03          	lw	s4,1128(sp)
    23e6:	46412a83          	lw	s5,1124(sp)
    23ea:	46012b03          	lw	s6,1120(sp)
    23ee:	45c12b83          	lw	s7,1116(sp)
    23f2:	45812c03          	lw	s8,1112(sp)
    23f6:	45412c83          	lw	s9,1108(sp)
    23fa:	45012d03          	lw	s10,1104(sp)
    23fe:	44c12d83          	lw	s11,1100(sp)
    2402:	48010113          	addi	sp,sp,1152
    2406:	8082                	ret
    2408:	4705                	li	a4,1
    240a:	4786                	lw	a5,64(sp)
    240c:	1af71963          	bne	a4,a5,25be <_ZN6tflite12_GLOBAL__N_18ConvEvalEP13TfLiteContextP10TfLiteNode+0x2c4>
    2410:	25012783          	lw	a5,592(sp)
    2414:	27412b83          	lw	s7,628(sp)
    2418:	26c12703          	lw	a4,620(sp)
    241c:	da3e                	sw	a5,52(sp)
    241e:	25412783          	lw	a5,596(sp)
    2422:	ca3a                	sw	a4,20(sp)
    2424:	27012d83          	lw	s11,624(sp)
    2428:	dc3e                	sw	a5,56(sp)
    242a:	037647b3          	div	a5,a2,s7
    242e:	18078863          	beqz	a5,25be <_ZN6tflite12_GLOBAL__N_18ConvEvalEP13TfLiteContextP10TfLiteNode+0x2c4>
    2432:	03766633          	rem	a2,a2,s7
    2436:	18061463          	bnez	a2,25be <_ZN6tflite12_GLOBAL__N_18ConvEvalEP13TfLiteContextP10TfLiteNode+0x2c4>
    243a:	4706                	lw	a4,64(sp)
    243c:	02f747b3          	div	a5,a4,a5
    2440:	c8be                	sw	a5,80(sp)
    2442:	16078e63          	beqz	a5,25be <_ZN6tflite12_GLOBAL__N_18ConvEvalEP13TfLiteContextP10TfLiteNode+0x2c4>
    2446:	2a412783          	lw	a5,676(sp)
    244a:	4d01                	li	s10,0
    244c:	8c6e                	mv	s8,s11
    244e:	dcbe                	sw	a5,120(sp)
    2450:	2a812783          	lw	a5,680(sp)
    2454:	8dea                	mv	s11,s10
    2456:	4c91                	li	s9,4
    2458:	d8be                	sw	a5,112(sp)
    245a:	57f6                	lw	a5,124(sp)
    245c:	8d5e                	mv	s10,s7
    245e:	4cf05763          	blez	a5,292c <_ZN6tflite12_GLOBAL__N_18ConvEvalEP13TfLiteContextP10TfLiteNode+0x632>
    2462:	479a                	lw	a5,132(sp)
    2464:	c282                	sw	zero,68(sp)
    2466:	40f007b3          	neg	a5,a5
    246a:	cabe                	sw	a5,84(sp)
    246c:	57e6                	lw	a5,120(sp)
    246e:	00f04463          	bgtz	a5,2476 <_ZN6tflite12_GLOBAL__N_18ConvEvalEP13TfLiteContextP10TfLiteNode+0x17c>
    2472:	0fc0106f          	j	356e <_ZN6tflite12_GLOBAL__N_18ConvEvalEP13TfLiteContextP10TfLiteNode+0x1274>
    2476:	478a                	lw	a5,128(sp)
    2478:	de02                	sw	zero,60(sp)
    247a:	40f007b3          	neg	a5,a5
    247e:	c83e                	sw	a5,16(sp)
    2480:	57c6                	lw	a5,112(sp)
    2482:	00f04463          	bgtz	a5,248a <_ZN6tflite12_GLOBAL__N_18ConvEvalEP13TfLiteContextP10TfLiteNode+0x190>
    2486:	0d00106f          	j	3556 <_ZN6tflite12_GLOBAL__N_18ConvEvalEP13TfLiteContextP10TfLiteNode+0x125c>
    248a:	8be2                	mv	s7,s8
    248c:	8c6a                	mv	s8,s10
    248e:	8d6e                	mv	s10,s11
    2490:	4786                	lw	a5,64(sp)
    2492:	4d81                	li	s11,0
    2494:	00f04463          	bgtz	a5,249c <_ZN6tflite12_GLOBAL__N_18ConvEvalEP13TfLiteContextP10TfLiteNode+0x1a2>
    2498:	0a00106f          	j	3538 <_ZN6tflite12_GLOBAL__N_18ConvEvalEP13TfLiteContextP10TfLiteNode+0x123e>
    249c:	47c6                	lw	a5,80(sp)
    249e:	02fdcab3          	div	s5,s11,a5
    24a2:	47d2                	lw	a5,20(sp)
    24a4:	00f04463          	bgtz	a5,24ac <_ZN6tflite12_GLOBAL__N_18ConvEvalEP13TfLiteContextP10TfLiteNode+0x1b2>
    24a8:	55c0106f          	j	3a04 <_ZN6tflite12_GLOBAL__N_18ConvEvalEP13TfLiteContextP10TfLiteNode+0x170a>
    24ac:	25012903          	lw	s2,592(sp)
    24b0:	24812783          	lw	a5,584(sp)
    24b4:	25412403          	lw	s0,596(sp)
    24b8:	27012083          	lw	ra,624(sp)
    24bc:	d23e                	sw	a5,36(sp)
    24be:	26412783          	lw	a5,612(sp)
    24c2:	26c12483          	lw	s1,620(sp)
    24c6:	25812383          	lw	t2,600(sp)
    24ca:	d03e                	sw	a5,32(sp)
    24cc:	47d6                	lw	a5,84(sp)
    24ce:	27412283          	lw	t0,628(sp)
    24d2:	24c12a03          	lw	s4,588(sp)
    24d6:	86be                	mv	a3,a5
    24d8:	26812983          	lw	s3,616(sp)
    24dc:	4881                	li	a7,0
    24de:	4501                	li	a0,0
    24e0:	03a90833          	mul	a6,s2,s10
    24e4:	983e                	add	a6,a6,a5
    24e6:	02880833          	mul	a6,a6,s0
    24ea:	47c2                	lw	a5,16(sp)
    24ec:	02148333          	mul	t1,s1,ra
    24f0:	983e                	add	a6,a6,a5
    24f2:	47e6                	lw	a5,88(sp)
    24f4:	038a8ab3          	mul	s5,s5,s8
    24f8:	02780833          	mul	a6,a6,t2
    24fc:	02530333          	mul	t1,t1,t0
    2500:	9856                	add	a6,a6,s5
    2502:	983e                	add	a6,a6,a5
    2504:	025087b3          	mul	a5,ra,t0
    2508:	03b30333          	mul	t1,t1,s11
    250c:	d63e                	sw	a5,44(sp)
    250e:	47a6                	lw	a5,72(sp)
    2510:	02740b33          	mul	s6,s0,t2
    2514:	933e                	add	t1,t1,a5
    2516:	47f2                	lw	a5,28(sp)
    2518:	02fb0b33          	mul	s6,s6,a5
    251c:	47e2                	lw	a5,24(sp)
    251e:	027787b3          	mul	a5,a5,t2
    2522:	d43e                	sw	a5,40(sp)
    2524:	03705a63          	blez	s7,2558 <_ZN6tflite12_GLOBAL__N_18ConvEvalEP13TfLiteContextP10TfLiteNode+0x25e>
    2528:	4742                	lw	a4,16(sp)
    252a:	8ec2                	mv	t4,a6
    252c:	8e1a                	mv	t3,t1
    252e:	4601                	li	a2,0
    2530:	00074c63          	bltz	a4,2548 <_ZN6tflite12_GLOBAL__N_18ConvEvalEP13TfLiteContextP10TfLiteNode+0x24e>
    2534:	57e2                	lw	a5,56(sp)
    2536:	00f75963          	bge	a4,a5,2548 <_ZN6tflite12_GLOBAL__N_18ConvEvalEP13TfLiteContextP10TfLiteNode+0x24e>
    253a:	0006c763          	bltz	a3,2548 <_ZN6tflite12_GLOBAL__N_18ConvEvalEP13TfLiteContextP10TfLiteNode+0x24e>
    253e:	57d2                	lw	a5,52(sp)
    2540:	00f6d463          	bge	a3,a5,2548 <_ZN6tflite12_GLOBAL__N_18ConvEvalEP13TfLiteContextP10TfLiteNode+0x24e>
    2544:	1100106f          	j	3654 <_ZN6tflite12_GLOBAL__N_18ConvEvalEP13TfLiteContextP10TfLiteNode+0x135a>
    2548:	47e2                	lw	a5,24(sp)
    254a:	0605                	addi	a2,a2,1
    254c:	9e16                	add	t3,t3,t0
    254e:	973e                	add	a4,a4,a5
    2550:	57a2                	lw	a5,40(sp)
    2552:	9ebe                	add	t4,t4,a5
    2554:	fccb9ee3          	bne	s7,a2,2530 <_ZN6tflite12_GLOBAL__N_18ConvEvalEP13TfLiteContextP10TfLiteNode+0x236>
    2558:	47f2                	lw	a5,28(sp)
    255a:	0885                	addi	a7,a7,1
    255c:	985a                	add	a6,a6,s6
    255e:	96be                	add	a3,a3,a5
    2560:	57b2                	lw	a5,44(sp)
    2562:	933e                	add	t1,t1,a5
    2564:	47d2                	lw	a5,20(sp)
    2566:	fb179fe3          	bne	a5,a7,2524 <_ZN6tflite12_GLOBAL__N_18ConvEvalEP13TfLiteContextP10TfLiteNode+0x22a>
    256a:	4736                	lw	a4,76(sp)
    256c:	c711                	beqz	a4,2578 <_ZN6tflite12_GLOBAL__N_18ConvEvalEP13TfLiteContextP10TfLiteNode+0x27e>
    256e:	002d9793          	slli	a5,s11,0x2
    2572:	97ba                	add	a5,a5,a4
    2574:	439c                	lw	a5,0(a5)
    2576:	953e                	add	a0,a0,a5
    2578:	5706                	lw	a4,96(sp)
    257a:	46f6                	lw	a3,92(sp)
    257c:	002d9793          	slli	a5,s11,0x2
    2580:	973e                	add	a4,a4,a5
    2582:	97b6                	add	a5,a5,a3
    2584:	4310                	lw	a2,0(a4)
    2586:	438c                	lw	a1,0(a5)
    2588:	00008097          	auipc	ra,0x8
    258c:	1f2080e7          	jalr	498(ra) # a77a <_ZN6tflite29MultiplyByQuantizedMultiplierElli>
    2590:	5796                	lw	a5,100(sp)
    2592:	953e                	add	a0,a0,a5
    2594:	57a6                	lw	a5,104(sp)
    2596:	873e                	mv	a4,a5
    2598:	00f54763          	blt	a0,a5,25a6 <_ZN6tflite12_GLOBAL__N_18ConvEvalEP13TfLiteContextP10TfLiteNode+0x2ac>
    259c:	57d6                	lw	a5,116(sp)
    259e:	873e                	mv	a4,a5
    25a0:	00f55363          	bge	a0,a5,25a6 <_ZN6tflite12_GLOBAL__N_18ConvEvalEP13TfLiteContextP10TfLiteNode+0x2ac>
    25a4:	872a                	mv	a4,a0
    25a6:	29c12783          	lw	a5,668(sp)
    25aa:	0762                	slli	a4,a4,0x18
    25ac:	8761                	srai	a4,a4,0x18
    25ae:	01979863          	bne	a5,s9,25be <_ZN6tflite12_GLOBAL__N_18ConvEvalEP13TfLiteContextP10TfLiteNode+0x2c4>
    25b2:	2a012783          	lw	a5,672(sp)
    25b6:	720796e3          	bnez	a5,34e2 <_ZN6tflite12_GLOBAL__N_18ConvEvalEP13TfLiteContextP10TfLiteNode+0x11e8>
    25ba:	720d06e3          	beqz	s10,34e6 <_ZN6tflite12_GLOBAL__N_18ConvEvalEP13TfLiteContextP10TfLiteNode+0x11ec>
    25be:	fffff097          	auipc	ra,0xfffff
    25c2:	9a0080e7          	jalr	-1632(ra) # f5e <_Z9AbortImplv>
    25c6:	1628                	addi	a0,sp,808
    25c8:	85da                	mv	a1,s6
    25ca:	8652                	mv	a2,s4
    25cc:	00001097          	auipc	ra,0x1
    25d0:	4b0080e7          	jalr	1200(ra) # 3a7c <_ZN6tflite15ConvParamsFloatERK16TfLiteConvParamsRKNS_10OpDataConvE>
    25d4:	85ce                	mv	a1,s3
    25d6:	09e8                	addi	a0,sp,220
    25d8:	00003097          	auipc	ra,0x3
    25dc:	518080e7          	jalr	1304(ra) # 5af0 <_ZN6tflite5micro14GetTensorShapeEPK16TfLiteEvalTensor>
    25e0:	fc098fe3          	beqz	s3,25be <_ZN6tflite12_GLOBAL__N_18ConvEvalEP13TfLiteContextP10TfLiteNode+0x2c4>
    25e4:	0009a783          	lw	a5,0(s3)
    25e8:	85ca                	mv	a1,s2
    25ea:	19a8                	addi	a0,sp,248
    25ec:	d8be                	sw	a5,112(sp)
    25ee:	00003097          	auipc	ra,0x3
    25f2:	502080e7          	jalr	1282(ra) # 5af0 <_ZN6tflite5micro14GetTensorShapeEPK16TfLiteEvalTensor>
    25f6:	fc0904e3          	beqz	s2,25be <_ZN6tflite12_GLOBAL__N_18ConvEvalEP13TfLiteContextP10TfLiteNode+0x2c4>
    25fa:	00092783          	lw	a5,0(s2)
    25fe:	85a6                	mv	a1,s1
    2600:	0a48                	addi	a0,sp,276
    2602:	c93e                	sw	a5,144(sp)
    2604:	00003097          	auipc	ra,0x3
    2608:	4ec080e7          	jalr	1260(ra) # 5af0 <_ZN6tflite5micro14GetTensorShapeEPK16TfLiteEvalTensor>
    260c:	e099                	bnez	s1,2612 <_ZN6tflite12_GLOBAL__N_18ConvEvalEP13TfLiteContextP10TfLiteNode+0x318>
    260e:	3ec0106f          	j	39fa <_ZN6tflite12_GLOBAL__N_18ConvEvalEP13TfLiteContextP10TfLiteNode+0x1700>
    2612:	409c                	lw	a5,0(s1)
    2614:	cebe                	sw	a5,92(sp)
    2616:	85a2                	mv	a1,s0
    2618:	1a08                	addi	a0,sp,304
    261a:	00003097          	auipc	ra,0x3
    261e:	4d6080e7          	jalr	1238(ra) # 5af0 <_ZN6tflite5micro14GetTensorShapeEPK16TfLiteEvalTensor>
    2622:	dc51                	beqz	s0,25be <_ZN6tflite12_GLOBAL__N_18ConvEvalEP13TfLiteContextP10TfLiteNode+0x2c4>
    2624:	4581                	li	a1,0
    2626:	02e8                	addi	a0,sp,332
    2628:	4000                	lw	s0,0(s0)
    262a:	00003097          	auipc	ra,0x3
    262e:	4c6080e7          	jalr	1222(ra) # 5af0 <_ZN6tflite5micro14GetTensorShapeEPK16TfLiteEvalTensor>
    2632:	33211683          	lh	a3,818(sp)
    2636:	477e                	lw	a4,220(sp)
    2638:	4791                	li	a5,4
    263a:	c736                	sw	a3,140(sp)
    263c:	33411683          	lh	a3,820(sp)
    2640:	d136                	sw	a3,160(sp)
    2642:	33611683          	lh	a3,822(sp)
    2646:	d636                	sw	a3,44(sp)
    2648:	33811683          	lh	a3,824(sp)
    264c:	d836                	sw	a3,48(sp)
    264e:	32a11683          	lh	a3,810(sp)
    2652:	c336                	sw	a3,132(sp)
    2654:	32c11683          	lh	a3,812(sp)
    2658:	c536                	sw	a3,136(sp)
    265a:	35812683          	lw	a3,856(sp)
    265e:	d4b6                	sw	a3,104(sp)
    2660:	35c12683          	lw	a3,860(sp)
    2664:	d6b6                	sw	a3,108(sp)
    2666:	f4f71ce3          	bne	a4,a5,25be <_ZN6tflite12_GLOBAL__N_18ConvEvalEP13TfLiteContextP10TfLiteNode+0x2c4>
    266a:	57ee                	lw	a5,248(sp)
    266c:	f4e799e3          	bne	a5,a4,25be <_ZN6tflite12_GLOBAL__N_18ConvEvalEP13TfLiteContextP10TfLiteNode+0x2c4>
    2670:	13012703          	lw	a4,304(sp)
    2674:	f4f715e3          	bne	a4,a5,25be <_ZN6tflite12_GLOBAL__N_18ConvEvalEP13TfLiteContextP10TfLiteNode+0x2c4>
    2678:	578e                	lw	a5,224(sp)
    267a:	873e                	mv	a4,a5
    267c:	cb3e                	sw	a5,148(sp)
    267e:	13412783          	lw	a5,308(sp)
    2682:	f2f71ee3          	bne	a4,a5,25be <_ZN6tflite12_GLOBAL__N_18ConvEvalEP13TfLiteContextP10TfLiteNode+0x2c4>
    2686:	57fe                	lw	a5,252(sp)
    2688:	14012583          	lw	a1,320(sp)
    268c:	5d3e                	lw	s10,236(sp)
    268e:	d43e                	sw	a5,40(sp)
    2690:	f2b797e3          	bne	a5,a1,25be <_ZN6tflite12_GLOBAL__N_18ConvEvalEP13TfLiteContextP10TfLiteNode+0x2c4>
    2694:	47f6                	lw	a5,92(sp)
    2696:	c785                	beqz	a5,26be <_ZN6tflite12_GLOBAL__N_18ConvEvalEP13TfLiteContextP10TfLiteNode+0x3c4>
    2698:	11412603          	lw	a2,276(sp)
    269c:	00c04463          	bgtz	a2,26a4 <_ZN6tflite12_GLOBAL__N_18ConvEvalEP13TfLiteContextP10TfLiteNode+0x3aa>
    26a0:	3780106f          	j	3a18 <_ZN6tflite12_GLOBAL__N_18ConvEvalEP13TfLiteContextP10TfLiteNode+0x171e>
    26a4:	0a3c                	addi	a5,sp,280
    26a6:	060a                	slli	a2,a2,0x2
    26a8:	963e                	add	a2,a2,a5
    26aa:	4705                	li	a4,1
    26ac:	4394                	lw	a3,0(a5)
    26ae:	0791                	addi	a5,a5,4
    26b0:	02d70733          	mul	a4,a4,a3
    26b4:	fef61ce3          	bne	a2,a5,26ac <_ZN6tflite12_GLOBAL__N_18ConvEvalEP13TfLiteContextP10TfLiteNode+0x3b2>
    26b8:	57a2                	lw	a5,40(sp)
    26ba:	f0e792e3          	bne	a5,a4,25be <_ZN6tflite12_GLOBAL__N_18ConvEvalEP13TfLiteContextP10TfLiteNode+0x2c4>
    26be:	579e                	lw	a5,228(sp)
    26c0:	10812a83          	lw	s5,264(sp)
    26c4:	10012a03          	lw	s4,256(sp)
    26c8:	da3e                	sw	a5,52(sp)
    26ca:	57ae                	lw	a5,232(sp)
    26cc:	10412b03          	lw	s6,260(sp)
    26d0:	dc3e                	sw	a5,56(sp)
    26d2:	035d47b3          	div	a5,s10,s5
    26d6:	ee0784e3          	beqz	a5,25be <_ZN6tflite12_GLOBAL__N_18ConvEvalEP13TfLiteContextP10TfLiteNode+0x2c4>
    26da:	035d6733          	rem	a4,s10,s5
    26de:	ee0710e3          	bnez	a4,25be <_ZN6tflite12_GLOBAL__N_18ConvEvalEP13TfLiteContextP10TfLiteNode+0x2c4>
    26e2:	5722                	lw	a4,40(sp)
    26e4:	02f747b3          	div	a5,a4,a5
    26e8:	d0be                	sw	a5,96(sp)
    26ea:	ec078ae3          	beqz	a5,25be <_ZN6tflite12_GLOBAL__N_18ConvEvalEP13TfLiteContextP10TfLiteNode+0x2c4>
    26ee:	13812783          	lw	a5,312(sp)
    26f2:	dcbe                	sw	a5,120(sp)
    26f4:	13c12783          	lw	a5,316(sp)
    26f8:	dabe                	sw	a5,116(sp)
    26fa:	47da                	lw	a5,148(sp)
    26fc:	22f05863          	blez	a5,292c <_ZN6tflite12_GLOBAL__N_18ConvEvalEP13TfLiteContextP10TfLiteNode+0x632>
    2700:	5762                	lw	a4,56(sp)
    2702:	47aa                	lw	a5,136(sp)
    2704:	00259693          	slli	a3,a1,0x2
    2708:	db36                	sw	a3,180(sp)
    270a:	02e787b3          	mul	a5,a5,a4
    270e:	002a9693          	slli	a3,s5,0x2
    2712:	c8b6                	sw	a3,80(sp)
    2714:	469a                	lw	a3,132(sp)
    2716:	d322                	sw	s0,164(sp)
    2718:	5456                	lw	s0,116(sp)
    271a:	54d2                	lw	s1,52(sp)
    271c:	df02                	sw	zero,188(sp)
    271e:	ce52                	sw	s4,28(sp)
    2720:	40f007b3          	neg	a5,a5
    2724:	8f95                	sub	a5,a5,a3
    2726:	56e6                	lw	a3,120(sp)
    2728:	03a787b3          	mul	a5,a5,s10
    272c:	02868633          	mul	a2,a3,s0
    2730:	d53e                	sw	a5,168(sp)
    2732:	578a                	lw	a5,160(sp)
    2734:	02b60633          	mul	a2,a2,a1
    2738:	036a06b3          	mul	a3,s4,s6
    273c:	060a                	slli	a2,a2,0x2
    273e:	c5b2                	sw	a2,200(sp)
    2740:	5642                	lw	a2,48(sp)
    2742:	03a70533          	mul	a0,a4,s10
    2746:	035686b3          	mul	a3,a3,s5
    274a:	02e48833          	mul	a6,s1,a4
    274e:	068a                	slli	a3,a3,0x2
    2750:	deb6                	sw	a3,124(sp)
    2752:	02b40733          	mul	a4,s0,a1
    2756:	02a605b3          	mul	a1,a2,a0
    275a:	070a                	slli	a4,a4,0x2
    275c:	c3ba                	sw	a4,196(sp)
    275e:	02a787b3          	mul	a5,a5,a0
    2762:	00259693          	slli	a3,a1,0x2
    2766:	c4b6                	sw	a3,72(sp)
    2768:	56b2                	lw	a3,44(sp)
    276a:	036a8633          	mul	a2,s5,s6
    276e:	c1be                	sw	a5,192(sp)
    2770:	47ba                	lw	a5,140(sp)
    2772:	060a                	slli	a2,a2,0x2
    2774:	02dd06b3          	mul	a3,s10,a3
    2778:	c2b2                	sw	a2,68(sp)
    277a:	02fd07b3          	mul	a5,s10,a5
    277e:	068a                	slli	a3,a3,0x2
    2780:	c6b6                	sw	a3,76(sp)
    2782:	03a80633          	mul	a2,a6,s10
    2786:	d93e                	sw	a5,176(sp)
    2788:	c7b2                	sw	a2,204(sp)
    278a:	57e6                	lw	a5,120(sp)
    278c:	18f05263          	blez	a5,2910 <_ZN6tflite12_GLOBAL__N_18ConvEvalEP13TfLiteContextP10TfLiteNode+0x616>
    2790:	47aa                	lw	a5,136(sp)
    2792:	dd02                	sw	zero,184(sp)
    2794:	40f007b3          	neg	a5,a5
    2798:	d2be                	sw	a5,100(sp)
    279a:	57aa                	lw	a5,168(sp)
    279c:	cd3e                	sw	a5,152(sp)
    279e:	579a                	lw	a5,164(sp)
    27a0:	cf3e                	sw	a5,156(sp)
    27a2:	57d6                	lw	a5,116(sp)
    27a4:	14f05463          	blez	a5,28ec <_ZN6tflite12_GLOBAL__N_18ConvEvalEP13TfLiteContextP10TfLiteNode+0x5f2>
    27a8:	479a                	lw	a5,132(sp)
    27aa:	d702                	sw	zero,172(sp)
    27ac:	40f007b3          	neg	a5,a5
    27b0:	de3e                	sw	a5,60(sp)
    27b2:	47ea                	lw	a5,152(sp)
    27b4:	ccbe                	sw	a5,88(sp)
    27b6:	47fa                	lw	a5,156(sp)
    27b8:	c13e                	sw	a5,128(sp)
    27ba:	47ca                	lw	a5,144(sp)
    27bc:	4401                	li	s0,0
    27be:	cc3e                	sw	a5,24(sp)
    27c0:	478a                	lw	a5,128(sp)
    27c2:	c0be                	sw	a5,64(sp)
    27c4:	57a2                	lw	a5,40(sp)
    27c6:	10f05163          	blez	a5,28c8 <_ZN6tflite12_GLOBAL__N_18ConvEvalEP13TfLiteContextP10TfLiteNode+0x5ce>
    27ca:	5786                	lw	a5,96(sp)
    27cc:	02f44833          	div	a6,s0,a5
    27d0:	47f2                	lw	a5,28(sp)
    27d2:	00f04463          	bgtz	a5,27da <_ZN6tflite12_GLOBAL__N_18ConvEvalEP13TfLiteContextP10TfLiteNode+0x4e0>
    27d6:	1f40106f          	j	39ca <_ZN6tflite12_GLOBAL__N_18ConvEvalEP13TfLiteContextP10TfLiteNode+0x16d0>
    27da:	47e6                	lw	a5,88(sp)
    27dc:	4962                	lw	s2,24(sp)
    27de:	5a16                	lw	s4,100(sp)
    27e0:	00000b93          	li	s7,0
    27e4:	4d81                	li	s11,0
    27e6:	865e                	mv	a2,s7
    27e8:	caa2                	sw	s0,84(sp)
    27ea:	8bea                	mv	s7,s10
    27ec:	8d4a                	mv	s10,s2
    27ee:	03580c33          	mul	s8,a6,s5
    27f2:	8856                	mv	a6,s5
    27f4:	00fc0733          	add	a4,s8,a5
    27f8:	57c6                	lw	a5,112(sp)
    27fa:	070a                	slli	a4,a4,0x2
    27fc:	d262                	sw	s8,36(sp)
    27fe:	00e78cb3          	add	s9,a5,a4
    2802:	015c07b3          	add	a5,s8,s5
    2806:	d03e                	sw	a5,32(sp)
    2808:	8aee                	mv	s5,s11
    280a:	87e6                	mv	a5,s9
    280c:	05605363          	blez	s6,2852 <_ZN6tflite12_GLOBAL__N_18ConvEvalEP13TfLiteContextP10TfLiteNode+0x558>
    2810:	59f2                	lw	s3,60(sp)
    2812:	8cea                	mv	s9,s10
    2814:	8756                	mv	a4,s5
    2816:	86ea                	mv	a3,s10
    2818:	8ad2                	mv	s5,s4
    281a:	8c3e                	mv	s8,a5
    281c:	4901                	li	s2,0
    281e:	8d42                	mv	s10,a6
    2820:	8a32                	mv	s4,a2
    2822:	0009ca63          	bltz	s3,2836 <_ZN6tflite12_GLOBAL__N_18ConvEvalEP13TfLiteContextP10TfLiteNode+0x53c>
    2826:	5662                	lw	a2,56(sp)
    2828:	00c9d763          	bge	s3,a2,2836 <_ZN6tflite12_GLOBAL__N_18ConvEvalEP13TfLiteContextP10TfLiteNode+0x53c>
    282c:	000ac563          	bltz	s5,2836 <_ZN6tflite12_GLOBAL__N_18ConvEvalEP13TfLiteContextP10TfLiteNode+0x53c>
    2830:	5652                	lw	a2,52(sp)
    2832:	0ecacf63          	blt	s5,a2,2930 <_ZN6tflite12_GLOBAL__N_18ConvEvalEP13TfLiteContextP10TfLiteNode+0x636>
    2836:	5632                	lw	a2,44(sp)
    2838:	0905                	addi	s2,s2,1
    283a:	99b2                	add	s3,s3,a2
    283c:	4636                	lw	a2,76(sp)
    283e:	9c32                	add	s8,s8,a2
    2840:	4646                	lw	a2,80(sp)
    2842:	9cb2                	add	s9,s9,a2
    2844:	fd2b1fe3          	bne	s6,s2,2822 <_ZN6tflite12_GLOBAL__N_18ConvEvalEP13TfLiteContextP10TfLiteNode+0x528>
    2848:	886a                	mv	a6,s10
    284a:	8652                	mv	a2,s4
    284c:	8d36                	mv	s10,a3
    284e:	8a56                	mv	s4,s5
    2850:	8aba                	mv	s5,a4
    2852:	5742                	lw	a4,48(sp)
    2854:	0a85                	addi	s5,s5,1
    2856:	9a3a                	add	s4,s4,a4
    2858:	4726                	lw	a4,72(sp)
    285a:	97ba                	add	a5,a5,a4
    285c:	4716                	lw	a4,68(sp)
    285e:	9d3a                	add	s10,s10,a4
    2860:	4772                	lw	a4,28(sp)
    2862:	fb5715e3          	bne	a4,s5,280c <_ZN6tflite12_GLOBAL__N_18ConvEvalEP13TfLiteContextP10TfLiteNode+0x512>
    2866:	4456                	lw	s0,84(sp)
    2868:	8d5e                	mv	s10,s7
    286a:	8ac2                	mv	s5,a6
    286c:	8bb2                	mv	s7,a2
    286e:	4776                	lw	a4,92(sp)
    2870:	00000513          	li	a0,0
    2874:	c709                	beqz	a4,287e <_ZN6tflite12_GLOBAL__N_18ConvEvalEP13TfLiteContextP10TfLiteNode+0x584>
    2876:	00241793          	slli	a5,s0,0x2
    287a:	97ba                	add	a5,a5,a4
    287c:	4388                	lw	a0,0(a5)
    287e:	85de                	mv	a1,s7
    2880:	0000c097          	auipc	ra,0xc
    2884:	480080e7          	jalr	1152(ra) # ed00 <__addsf3>
    2888:	89aa                	mv	s3,a0
    288a:	85aa                	mv	a1,a0
    288c:	5526                	lw	a0,104(sp)
    288e:	0000d097          	auipc	ra,0xd
    2892:	c66080e7          	jalr	-922(ra) # f4f4 <__gesf2>
    2896:	00a05363          	blez	a0,289c <_ZN6tflite12_GLOBAL__N_18ConvEvalEP13TfLiteContextP10TfLiteNode+0x5a2>
    289a:	59a6                	lw	s3,104(sp)
    289c:	5536                	lw	a0,108(sp)
    289e:	85ce                	mv	a1,s3
    28a0:	0000d097          	auipc	ra,0xd
    28a4:	d10080e7          	jalr	-752(ra) # f5b0 <__lesf2>
    28a8:	00055363          	bgez	a0,28ae <_ZN6tflite12_GLOBAL__N_18ConvEvalEP13TfLiteContextP10TfLiteNode+0x5b4>
    28ac:	59b6                	lw	s3,108(sp)
    28ae:	4786                	lw	a5,64(sp)
    28b0:	5776                	lw	a4,124(sp)
    28b2:	0405                	addi	s0,s0,1
    28b4:	0137a023          	sw	s3,0(a5)
    28b8:	0791                	addi	a5,a5,4
    28ba:	c0be                	sw	a5,64(sp)
    28bc:	47e2                	lw	a5,24(sp)
    28be:	97ba                	add	a5,a5,a4
    28c0:	cc3e                	sw	a5,24(sp)
    28c2:	57a2                	lw	a5,40(sp)
    28c4:	f0f413e3          	bne	s0,a5,27ca <_ZN6tflite12_GLOBAL__N_18ConvEvalEP13TfLiteContextP10TfLiteNode+0x4d0>
    28c8:	470a                	lw	a4,128(sp)
    28ca:	56da                	lw	a3,180(sp)
    28cc:	57ba                	lw	a5,172(sp)
    28ce:	9736                	add	a4,a4,a3
    28d0:	c13a                	sw	a4,128(sp)
    28d2:	46ba                	lw	a3,140(sp)
    28d4:	5772                	lw	a4,60(sp)
    28d6:	0785                	addi	a5,a5,1
    28d8:	d73e                	sw	a5,172(sp)
    28da:	9736                	add	a4,a4,a3
    28dc:	de3a                	sw	a4,60(sp)
    28de:	56ca                	lw	a3,176(sp)
    28e0:	4766                	lw	a4,88(sp)
    28e2:	9736                	add	a4,a4,a3
    28e4:	ccba                	sw	a4,88(sp)
    28e6:	5756                	lw	a4,116(sp)
    28e8:	ecf719e3          	bne	a4,a5,27ba <_ZN6tflite12_GLOBAL__N_18ConvEvalEP13TfLiteContextP10TfLiteNode+0x4c0>
    28ec:	477a                	lw	a4,156(sp)
    28ee:	469e                	lw	a3,196(sp)
    28f0:	57ea                	lw	a5,184(sp)
    28f2:	9736                	add	a4,a4,a3
    28f4:	cf3a                	sw	a4,156(sp)
    28f6:	468e                	lw	a3,192(sp)
    28f8:	476a                	lw	a4,152(sp)
    28fa:	0785                	addi	a5,a5,1
    28fc:	dd3e                	sw	a5,184(sp)
    28fe:	9736                	add	a4,a4,a3
    2900:	cd3a                	sw	a4,152(sp)
    2902:	568a                	lw	a3,160(sp)
    2904:	5716                	lw	a4,100(sp)
    2906:	9736                	add	a4,a4,a3
    2908:	d2ba                	sw	a4,100(sp)
    290a:	5766                	lw	a4,120(sp)
    290c:	e8f71be3          	bne	a4,a5,27a2 <_ZN6tflite12_GLOBAL__N_18ConvEvalEP13TfLiteContextP10TfLiteNode+0x4a8>
    2910:	571a                	lw	a4,164(sp)
    2912:	46ae                	lw	a3,200(sp)
    2914:	57fa                	lw	a5,188(sp)
    2916:	9736                	add	a4,a4,a3
    2918:	d33a                	sw	a4,164(sp)
    291a:	46be                	lw	a3,204(sp)
    291c:	572a                	lw	a4,168(sp)
    291e:	0785                	addi	a5,a5,1
    2920:	df3e                	sw	a5,188(sp)
    2922:	9736                	add	a4,a4,a3
    2924:	d53a                	sw	a4,168(sp)
    2926:	475a                	lw	a4,148(sp)
    2928:	e6e791e3          	bne	a5,a4,278a <_ZN6tflite12_GLOBAL__N_18ConvEvalEP13TfLiteContextP10TfLiteNode+0x490>
    292c:	4501                	li	a0,0
    292e:	b445                	j	23ce <_ZN6tflite12_GLOBAL__N_18ConvEvalEP13TfLiteContextP10TfLiteNode+0xd4>
    2930:	f1a053e3          	blez	s10,2836 <_ZN6tflite12_GLOBAL__N_18ConvEvalEP13TfLiteContextP10TfLiteNode+0x53c>
    2934:	5412                	lw	s0,36(sp)
    2936:	84e2                	mv	s1,s8
    2938:	c662                	sw	s8,12(sp)
    293a:	c84e                	sw	s3,16(sp)
    293c:	ca56                	sw	s5,20(sp)
    293e:	8de6                	mv	s11,s9
    2940:	8c3e                	mv	s8,a5
    2942:	89ba                	mv	s3,a4
    2944:	8ab6                	mv	s5,a3
    2946:	020b9f63          	bnez	s7,2984 <_ZN6tflite12_GLOBAL__N_18ConvEvalEP13TfLiteContextP10TfLiteNode+0x68a>
    294a:	c6041ae3          	bnez	s0,25be <_ZN6tflite12_GLOBAL__N_18ConvEvalEP13TfLiteContextP10TfLiteNode+0x2c4>
    294e:	000da583          	lw	a1,0(s11)
    2952:	4088                	lw	a0,0(s1)
    2954:	0405                	addi	s0,s0,1
    2956:	0491                	addi	s1,s1,4
    2958:	0000d097          	auipc	ra,0xd
    295c:	d14080e7          	jalr	-748(ra) # f66c <__mulsf3>
    2960:	85aa                	mv	a1,a0
    2962:	8552                	mv	a0,s4
    2964:	0000c097          	auipc	ra,0xc
    2968:	39c080e7          	jalr	924(ra) # ed00 <__addsf3>
    296c:	5782                	lw	a5,32(sp)
    296e:	8a2a                	mv	s4,a0
    2970:	0d91                	addi	s11,s11,4
    2972:	fc879ae3          	bne	a5,s0,2946 <_ZN6tflite12_GLOBAL__N_18ConvEvalEP13TfLiteContextP10TfLiteNode+0x64c>
    2976:	874e                	mv	a4,s3
    2978:	86d6                	mv	a3,s5
    297a:	87e2                	mv	a5,s8
    297c:	49c2                	lw	s3,16(sp)
    297e:	4c32                	lw	s8,12(sp)
    2980:	4ad2                	lw	s5,20(sp)
    2982:	bd55                	j	2836 <_ZN6tflite12_GLOBAL__N_18ConvEvalEP13TfLiteContextP10TfLiteNode+0x53c>
    2984:	c2044de3          	bltz	s0,25be <_ZN6tflite12_GLOBAL__N_18ConvEvalEP13TfLiteContextP10TfLiteNode+0x2c4>
    2988:	fd7443e3          	blt	s0,s7,294e <_ZN6tflite12_GLOBAL__N_18ConvEvalEP13TfLiteContextP10TfLiteNode+0x654>
    298c:	b90d                	j	25be <_ZN6tflite12_GLOBAL__N_18ConvEvalEP13TfLiteContextP10TfLiteNode+0x2c4>
    298e:	00892783          	lw	a5,8(s2)
    2992:	4ca78c63          	beq	a5,a0,2e6a <_ZN6tflite12_GLOBAL__N_18ConvEvalEP13TfLiteContextP10TfLiteNode+0xb70>
    2996:	4749                	li	a4,18
    2998:	4ae79663          	bne	a5,a4,2e44 <_ZN6tflite12_GLOBAL__N_18ConvEvalEP13TfLiteContextP10TfLiteNode+0xb4a>
    299c:	044aa783          	lw	a5,68(s5)
    29a0:	034a2583          	lw	a1,52(s4)
    29a4:	8556                	mv	a0,s5
    29a6:	9782                	jalr	a5
    29a8:	c4aa                	sw	a0,72(sp)
    29aa:	c0090ae3          	beqz	s2,25be <_ZN6tflite12_GLOBAL__N_18ConvEvalEP13TfLiteContextP10TfLiteNode+0x2c4>
    29ae:	85ca                	mv	a1,s2
    29b0:	40810513          	addi	a0,sp,1032
    29b4:	00092a83          	lw	s5,0(s2)
    29b8:	00003097          	auipc	ra,0x3
    29bc:	138080e7          	jalr	312(ra) # 5af0 <_ZN6tflite5micro14GetTensorShapeEPK16TfLiteEvalTensor>
    29c0:	40812683          	lw	a3,1032(sp)
    29c4:	00d04463          	bgtz	a3,29cc <_ZN6tflite12_GLOBAL__N_18ConvEvalEP13TfLiteContextP10TfLiteNode+0x6d2>
    29c8:	0680106f          	j	3a30 <_ZN6tflite12_GLOBAL__N_18ConvEvalEP13TfLiteContextP10TfLiteNode+0x1736>
    29cc:	40c10793          	addi	a5,sp,1036
    29d0:	068a                	slli	a3,a3,0x2
    29d2:	96be                	add	a3,a3,a5
    29d4:	4585                	li	a1,1
    29d6:	4398                	lw	a4,0(a5)
    29d8:	0791                	addi	a5,a5,4
    29da:	02e585b3          	mul	a1,a1,a4
    29de:	fed79ce3          	bne	a5,a3,29d6 <_ZN6tflite12_GLOBAL__N_18ConvEvalEP13TfLiteContextP10TfLiteNode+0x6dc>
    29e2:	4626                	lw	a2,72(sp)
    29e4:	8556                	mv	a0,s5
    29e6:	00008097          	auipc	ra,0x8
    29ea:	176080e7          	jalr	374(ra) # ab5c <_ZN6tflite12tensor_utils23UnpackDenseInt4IntoInt8EPKaiPa>
    29ee:	85da                	mv	a1,s6
    29f0:	0f88                	addi	a0,sp,976
    29f2:	8652                	mv	a2,s4
    29f4:	00001097          	auipc	ra,0x1
    29f8:	13e080e7          	jalr	318(ra) # 3b32 <_ZN6tflite19ConvParamsQuantizedERK16TfLiteConvParamsRKNS_10OpDataConvE>
    29fc:	024a2783          	lw	a5,36(s4)
    2a00:	85ce                	mv	a1,s3
    2a02:	04a8                	addi	a0,sp,584
    2a04:	cebe                	sw	a5,92(sp)
    2a06:	028a2783          	lw	a5,40(s4)
    2a0a:	d0be                	sw	a5,96(sp)
    2a0c:	00003097          	auipc	ra,0x3
    2a10:	0e4080e7          	jalr	228(ra) # 5af0 <_ZN6tflite5micro14GetTensorShapeEPK16TfLiteEvalTensor>
    2a14:	ba0985e3          	beqz	s3,25be <_ZN6tflite12_GLOBAL__N_18ConvEvalEP13TfLiteContextP10TfLiteNode+0x2c4>
    2a18:	0009a783          	lw	a5,0(s3)
    2a1c:	14c8                	addi	a0,sp,612
    2a1e:	85ca                	mv	a1,s2
    2a20:	ccbe                	sw	a5,88(sp)
    2a22:	00003097          	auipc	ra,0x3
    2a26:	0ce080e7          	jalr	206(ra) # 5af0 <_ZN6tflite5micro14GetTensorShapeEPK16TfLiteEvalTensor>
    2a2a:	85a6                	mv	a1,s1
    2a2c:	0508                	addi	a0,sp,640
    2a2e:	00003097          	auipc	ra,0x3
    2a32:	0c2080e7          	jalr	194(ra) # 5af0 <_ZN6tflite5micro14GetTensorShapeEPK16TfLiteEvalTensor>
    2a36:	7e0487e3          	beqz	s1,3a24 <_ZN6tflite12_GLOBAL__N_18ConvEvalEP13TfLiteContextP10TfLiteNode+0x172a>
    2a3a:	409c                	lw	a5,0(s1)
    2a3c:	c6be                	sw	a5,76(sp)
    2a3e:	85a2                	mv	a1,s0
    2a40:	0d68                	addi	a0,sp,668
    2a42:	00003097          	auipc	ra,0x3
    2a46:	0ae080e7          	jalr	174(ra) # 5af0 <_ZN6tflite5micro14GetTensorShapeEPK16TfLiteEvalTensor>
    2a4a:	b6040ae3          	beqz	s0,25be <_ZN6tflite12_GLOBAL__N_18ConvEvalEP13TfLiteContextP10TfLiteNode+0x2c4>
    2a4e:	4014                	lw	a3,0(s0)
    2a50:	3f812783          	lw	a5,1016(sp)
    2a54:	3fc12703          	lw	a4,1020(sp)
    2a58:	d6b6                	sw	a3,108(sp)
    2a5a:	3e412683          	lw	a3,996(sp)
    2a5e:	d4be                	sw	a5,104(sp)
    2a60:	daba                	sw	a4,116(sp)
    2a62:	d836                	sw	a3,48(sp)
    2a64:	3da11683          	lh	a3,986(sp)
    2a68:	c536                	sw	a3,136(sp)
    2a6a:	3dc11683          	lh	a3,988(sp)
    2a6e:	c736                	sw	a3,140(sp)
    2a70:	3de11683          	lh	a3,990(sp)
    2a74:	cc36                	sw	a3,24(sp)
    2a76:	3e011683          	lh	a3,992(sp)
    2a7a:	ce36                	sw	a3,28(sp)
    2a7c:	3d211683          	lh	a3,978(sp)
    2a80:	c136                	sw	a3,128(sp)
    2a82:	3d411683          	lh	a3,980(sp)
    2a86:	c336                	sw	a3,132(sp)
    2a88:	3ec12683          	lw	a3,1004(sp)
    2a8c:	d2b6                	sw	a3,100(sp)
    2a8e:	b2f748e3          	blt	a4,a5,25be <_ZN6tflite12_GLOBAL__N_18ConvEvalEP13TfLiteContextP10TfLiteNode+0x2c4>
    2a92:	24812703          	lw	a4,584(sp)
    2a96:	4791                	li	a5,4
    2a98:	b2f713e3          	bne	a4,a5,25be <_ZN6tflite12_GLOBAL__N_18ConvEvalEP13TfLiteContextP10TfLiteNode+0x2c4>
    2a9c:	26412783          	lw	a5,612(sp)
    2aa0:	b0e79fe3          	bne	a5,a4,25be <_ZN6tflite12_GLOBAL__N_18ConvEvalEP13TfLiteContextP10TfLiteNode+0x2c4>
    2aa4:	29c12703          	lw	a4,668(sp)
    2aa8:	b0f71be3          	bne	a4,a5,25be <_ZN6tflite12_GLOBAL__N_18ConvEvalEP13TfLiteContextP10TfLiteNode+0x2c4>
    2aac:	24c12783          	lw	a5,588(sp)
    2ab0:	873e                	mv	a4,a5
    2ab2:	debe                	sw	a5,124(sp)
    2ab4:	2a012783          	lw	a5,672(sp)
    2ab8:	b0f713e3          	bne	a4,a5,25be <_ZN6tflite12_GLOBAL__N_18ConvEvalEP13TfLiteContextP10TfLiteNode+0x2c4>
    2abc:	26812783          	lw	a5,616(sp)
    2ac0:	25812603          	lw	a2,600(sp)
    2ac4:	873e                	mv	a4,a5
    2ac6:	c0be                	sw	a5,64(sp)
    2ac8:	2ac12783          	lw	a5,684(sp)
    2acc:	aef719e3          	bne	a4,a5,25be <_ZN6tflite12_GLOBAL__N_18ConvEvalEP13TfLiteContextP10TfLiteNode+0x2c4>
    2ad0:	47b6                	lw	a5,76(sp)
    2ad2:	92078fe3          	beqz	a5,2410 <_ZN6tflite12_GLOBAL__N_18ConvEvalEP13TfLiteContextP10TfLiteNode+0x116>
    2ad6:	28012583          	lw	a1,640(sp)
    2ada:	92b057e3          	blez	a1,2408 <_ZN6tflite12_GLOBAL__N_18ConvEvalEP13TfLiteContextP10TfLiteNode+0x10e>
    2ade:	055c                	addi	a5,sp,644
    2ae0:	058a                	slli	a1,a1,0x2
    2ae2:	95be                	add	a1,a1,a5
    2ae4:	4705                	li	a4,1
    2ae6:	4394                	lw	a3,0(a5)
    2ae8:	0791                	addi	a5,a5,4
    2aea:	02d70733          	mul	a4,a4,a3
    2aee:	feb79ce3          	bne	a5,a1,2ae6 <_ZN6tflite12_GLOBAL__N_18ConvEvalEP13TfLiteContextP10TfLiteNode+0x7ec>
    2af2:	ba21                	j	240a <_ZN6tflite12_GLOBAL__N_18ConvEvalEP13TfLiteContextP10TfLiteNode+0x110>
    2af4:	6a048763          	beqz	s1,31a2 <_ZN6tflite12_GLOBAL__N_18ConvEvalEP13TfLiteContextP10TfLiteNode+0xea8>
    2af8:	4488                	lw	a0,8(s1)
    2afa:	4789                	li	a5,2
    2afc:	6af50363          	beq	a0,a5,31a2 <_ZN6tflite12_GLOBAL__N_18ConvEvalEP13TfLiteContextP10TfLiteNode+0xea8>
    2b00:	4791                	li	a5,4
    2b02:	6cf518e3          	bne	a0,a5,39d2 <_ZN6tflite12_GLOBAL__N_18ConvEvalEP13TfLiteContextP10TfLiteNode+0x16d8>
    2b06:	85da                	mv	a1,s6
    2b08:	0f28                	addi	a0,sp,920
    2b0a:	8652                	mv	a2,s4
    2b0c:	00001097          	auipc	ra,0x1
    2b10:	026080e7          	jalr	38(ra) # 3b32 <_ZN6tflite19ConvParamsQuantizedERK16TfLiteConvParamsRKNS_10OpDataConvE>
    2b14:	024a2783          	lw	a5,36(s4)
    2b18:	85ce                	mv	a1,s3
    2b1a:	0ba8                	addi	a0,sp,472
    2b1c:	cebe                	sw	a5,92(sp)
    2b1e:	028a2783          	lw	a5,40(s4)
    2b22:	d0be                	sw	a5,96(sp)
    2b24:	00003097          	auipc	ra,0x3
    2b28:	fcc080e7          	jalr	-52(ra) # 5af0 <_ZN6tflite5micro14GetTensorShapeEPK16TfLiteEvalTensor>
    2b2c:	a80989e3          	beqz	s3,25be <_ZN6tflite12_GLOBAL__N_18ConvEvalEP13TfLiteContextP10TfLiteNode+0x2c4>
    2b30:	0009a783          	lw	a5,0(s3)
    2b34:	85ca                	mv	a1,s2
    2b36:	1bc8                	addi	a0,sp,500
    2b38:	cabe                	sw	a5,84(sp)
    2b3a:	00003097          	auipc	ra,0x3
    2b3e:	fb6080e7          	jalr	-74(ra) # 5af0 <_ZN6tflite5micro14GetTensorShapeEPK16TfLiteEvalTensor>
    2b42:	a6090ee3          	beqz	s2,25be <_ZN6tflite12_GLOBAL__N_18ConvEvalEP13TfLiteContextP10TfLiteNode+0x2c4>
    2b46:	00092783          	lw	a5,0(s2)
    2b4a:	85a6                	mv	a1,s1
    2b4c:	0c08                	addi	a0,sp,528
    2b4e:	ccbe                	sw	a5,88(sp)
    2b50:	00003097          	auipc	ra,0x3
    2b54:	fa0080e7          	jalr	-96(ra) # 5af0 <_ZN6tflite5micro14GetTensorShapeEPK16TfLiteEvalTensor>
    2b58:	4084                	lw	s1,0(s1)
    2b5a:	85a2                	mv	a1,s0
    2b5c:	1468                	addi	a0,sp,556
    2b5e:	d2a6                	sw	s1,100(sp)
    2b60:	00003097          	auipc	ra,0x3
    2b64:	f90080e7          	jalr	-112(ra) # 5af0 <_ZN6tflite5micro14GetTensorShapeEPK16TfLiteEvalTensor>
    2b68:	a4040be3          	beqz	s0,25be <_ZN6tflite12_GLOBAL__N_18ConvEvalEP13TfLiteContextP10TfLiteNode+0x2c4>
    2b6c:	4014                	lw	a3,0(s0)
    2b6e:	3c012783          	lw	a5,960(sp)
    2b72:	3c412703          	lw	a4,964(sp)
    2b76:	d4b6                	sw	a3,104(sp)
    2b78:	3a211683          	lh	a3,930(sp)
    2b7c:	d6be                	sw	a5,108(sp)
    2b7e:	daba                	sw	a4,116(sp)
    2b80:	c536                	sw	a3,136(sp)
    2b82:	3a411683          	lh	a3,932(sp)
    2b86:	c736                	sw	a3,140(sp)
    2b88:	3a611683          	lh	a3,934(sp)
    2b8c:	cc36                	sw	a3,24(sp)
    2b8e:	3a811683          	lh	a3,936(sp)
    2b92:	ce36                	sw	a3,28(sp)
    2b94:	39a11683          	lh	a3,922(sp)
    2b98:	c136                	sw	a3,128(sp)
    2b9a:	39c11683          	lh	a3,924(sp)
    2b9e:	c336                	sw	a3,132(sp)
    2ba0:	a0f74fe3          	blt	a4,a5,25be <_ZN6tflite12_GLOBAL__N_18ConvEvalEP13TfLiteContextP10TfLiteNode+0x2c4>
    2ba4:	1d812783          	lw	a5,472(sp)
    2ba8:	4711                	li	a4,4
    2baa:	a0e79ae3          	bne	a5,a4,25be <_ZN6tflite12_GLOBAL__N_18ConvEvalEP13TfLiteContextP10TfLiteNode+0x2c4>
    2bae:	1f412703          	lw	a4,500(sp)
    2bb2:	a0f716e3          	bne	a4,a5,25be <_ZN6tflite12_GLOBAL__N_18ConvEvalEP13TfLiteContextP10TfLiteNode+0x2c4>
    2bb6:	22c12783          	lw	a5,556(sp)
    2bba:	a0e792e3          	bne	a5,a4,25be <_ZN6tflite12_GLOBAL__N_18ConvEvalEP13TfLiteContextP10TfLiteNode+0x2c4>
    2bbe:	1dc12783          	lw	a5,476(sp)
    2bc2:	873e                	mv	a4,a5
    2bc4:	debe                	sw	a5,124(sp)
    2bc6:	23012783          	lw	a5,560(sp)
    2bca:	9ef71ae3          	bne	a4,a5,25be <_ZN6tflite12_GLOBAL__N_18ConvEvalEP13TfLiteContextP10TfLiteNode+0x2c4>
    2bce:	1f812783          	lw	a5,504(sp)
    2bd2:	1e812583          	lw	a1,488(sp)
    2bd6:	873e                	mv	a4,a5
    2bd8:	c2be                	sw	a5,68(sp)
    2bda:	23c12783          	lw	a5,572(sp)
    2bde:	9ef710e3          	bne	a4,a5,25be <_ZN6tflite12_GLOBAL__N_18ConvEvalEP13TfLiteContextP10TfLiteNode+0x2c4>
    2be2:	c095                	beqz	s1,2c06 <_ZN6tflite12_GLOBAL__N_18ConvEvalEP13TfLiteContextP10TfLiteNode+0x90c>
    2be4:	21012603          	lw	a2,528(sp)
    2be8:	64c05ce3          	blez	a2,3a40 <_ZN6tflite12_GLOBAL__N_18ConvEvalEP13TfLiteContextP10TfLiteNode+0x1746>
    2bec:	0c5c                	addi	a5,sp,532
    2bee:	060a                	slli	a2,a2,0x2
    2bf0:	963e                	add	a2,a2,a5
    2bf2:	4705                	li	a4,1
    2bf4:	4394                	lw	a3,0(a5)
    2bf6:	0791                	addi	a5,a5,4
    2bf8:	02d70733          	mul	a4,a4,a3
    2bfc:	fec79ce3          	bne	a5,a2,2bf4 <_ZN6tflite12_GLOBAL__N_18ConvEvalEP13TfLiteContextP10TfLiteNode+0x8fa>
    2c00:	4796                	lw	a5,68(sp)
    2c02:	9ae79ee3          	bne	a5,a4,25be <_ZN6tflite12_GLOBAL__N_18ConvEvalEP13TfLiteContextP10TfLiteNode+0x2c4>
    2c06:	1e012783          	lw	a5,480(sp)
    2c0a:	20412c83          	lw	s9,516(sp)
    2c0e:	1fc12703          	lw	a4,508(sp)
    2c12:	dc3e                	sw	a5,56(sp)
    2c14:	1e412783          	lw	a5,484(sp)
    2c18:	ca3a                	sw	a4,20(sp)
    2c1a:	20012d03          	lw	s10,512(sp)
    2c1e:	de3e                	sw	a5,60(sp)
    2c20:	0395e7b3          	rem	a5,a1,s9
    2c24:	0395c5b3          	div	a1,a1,s9
    2c28:	98079be3          	bnez	a5,25be <_ZN6tflite12_GLOBAL__N_18ConvEvalEP13TfLiteContextP10TfLiteNode+0x2c4>
    2c2c:	23412783          	lw	a5,564(sp)
    2c30:	4b01                	li	s6,0
    2c32:	4d91                	li	s11,4
    2c34:	dcbe                	sw	a5,120(sp)
    2c36:	23812783          	lw	a5,568(sp)
    2c3a:	8ada                	mv	s5,s6
    2c3c:	d8be                	sw	a5,112(sp)
    2c3e:	4796                	lw	a5,68(sp)
    2c40:	02b7c7b3          	div	a5,a5,a1
    2c44:	c6be                	sw	a5,76(sp)
    2c46:	57f6                	lw	a5,124(sp)
    2c48:	cef052e3          	blez	a5,292c <_ZN6tflite12_GLOBAL__N_18ConvEvalEP13TfLiteContextP10TfLiteNode+0x632>
    2c4c:	479a                	lw	a5,132(sp)
    2c4e:	c482                	sw	zero,72(sp)
    2c50:	40f007b3          	neg	a5,a5
    2c54:	c8be                	sw	a5,80(sp)
    2c56:	57e6                	lw	a5,120(sp)
    2c58:	1cf05f63          	blez	a5,2e36 <_ZN6tflite12_GLOBAL__N_18ConvEvalEP13TfLiteContextP10TfLiteNode+0xb3c>
    2c5c:	8c66                	mv	s8,s9
    2c5e:	8cea                	mv	s9,s10
    2c60:	8d56                	mv	s10,s5
    2c62:	478a                	lw	a5,128(sp)
    2c64:	c082                	sw	zero,64(sp)
    2c66:	40f007b3          	neg	a5,a5
    2c6a:	c83e                	sw	a5,16(sp)
    2c6c:	57c6                	lw	a5,112(sp)
    2c6e:	1af05763          	blez	a5,2e1c <_ZN6tflite12_GLOBAL__N_18ConvEvalEP13TfLiteContextP10TfLiteNode+0xb22>
    2c72:	87e6                	mv	a5,s9
    2c74:	8cea                	mv	s9,s10
    2c76:	8d3e                	mv	s10,a5
    2c78:	4796                	lw	a5,68(sp)
    2c7a:	4b81                	li	s7,0
    2c7c:	18f05363          	blez	a5,2e02 <_ZN6tflite12_GLOBAL__N_18ConvEvalEP13TfLiteContextP10TfLiteNode+0xb08>
    2c80:	47b6                	lw	a5,76(sp)
    2c82:	4752                	lw	a4,20(sp)
    2c84:	02fbc7b3          	div	a5,s7,a5
    2c88:	58e054e3          	blez	a4,3a10 <_ZN6tflite12_GLOBAL__N_18ConvEvalEP13TfLiteContextP10TfLiteNode+0x1716>
    2c8c:	1e012a03          	lw	s4,480(sp)
    2c90:	1d812703          	lw	a4,472(sp)
    2c94:	1e412903          	lw	s2,484(sp)
    2c98:	20012483          	lw	s1,512(sp)
    2c9c:	da3a                	sw	a4,52(sp)
    2c9e:	1f412703          	lw	a4,500(sp)
    2ca2:	1fc12983          	lw	s3,508(sp)
    2ca6:	1e812403          	lw	s0,488(sp)
    2caa:	d03a                	sw	a4,32(sp)
    2cac:	4746                	lw	a4,80(sp)
    2cae:	20412383          	lw	t2,516(sp)
    2cb2:	1dc12b03          	lw	s6,476(sp)
    2cb6:	863a                	mv	a2,a4
    2cb8:	1f812a83          	lw	s5,504(sp)
    2cbc:	4e01                	li	t3,0
    2cbe:	4501                	li	a0,0
    2cc0:	4581                	li	a1,0
    2cc2:	034c8333          	mul	t1,s9,s4
    2cc6:	933a                	add	t1,t1,a4
    2cc8:	03230333          	mul	t1,t1,s2
    2ccc:	4742                	lw	a4,16(sp)
    2cce:	02998eb3          	mul	t4,s3,s1
    2cd2:	933a                	add	t1,t1,a4
    2cd4:	038787b3          	mul	a5,a5,s8
    2cd8:	02830333          	mul	t1,t1,s0
    2cdc:	d43e                	sw	a5,40(sp)
    2cde:	027e8eb3          	mul	t4,t4,t2
    2ce2:	933e                	add	t1,t1,a5
    2ce4:	47d6                	lw	a5,84(sp)
    2ce6:	0306                	slli	t1,t1,0x1
    2ce8:	933e                	add	t1,t1,a5
    2cea:	47f2                	lw	a5,28(sp)
    2cec:	03240733          	mul	a4,s0,s2
    2cf0:	037e8eb3          	mul	t4,t4,s7
    2cf4:	02f70733          	mul	a4,a4,a5
    2cf8:	47e6                	lw	a5,88(sp)
    2cfa:	9ebe                	add	t4,t4,a5
    2cfc:	47e2                	lw	a5,24(sp)
    2cfe:	0706                	slli	a4,a4,0x1
    2d00:	02f407b3          	mul	a5,s0,a5
    2d04:	d23a                	sw	a4,36(sp)
    2d06:	02938733          	mul	a4,t2,s1
    2d0a:	0786                	slli	a5,a5,0x1
    2d0c:	d83e                	sw	a5,48(sp)
    2d0e:	d63a                	sw	a4,44(sp)
    2d10:	03a05a63          	blez	s10,2d44 <_ZN6tflite12_GLOBAL__N_18ConvEvalEP13TfLiteContextP10TfLiteNode+0xa4a>
    2d14:	46c2                	lw	a3,16(sp)
    2d16:	829a                	mv	t0,t1
    2d18:	8ff6                	mv	t6,t4
    2d1a:	4881                	li	a7,0
    2d1c:	809a                	mv	ra,t1
    2d1e:	0006ca63          	bltz	a3,2d32 <_ZN6tflite12_GLOBAL__N_18ConvEvalEP13TfLiteContextP10TfLiteNode+0xa38>
    2d22:	57f2                	lw	a5,60(sp)
    2d24:	00f6d763          	bge	a3,a5,2d32 <_ZN6tflite12_GLOBAL__N_18ConvEvalEP13TfLiteContextP10TfLiteNode+0xa38>
    2d28:	00064563          	bltz	a2,2d32 <_ZN6tflite12_GLOBAL__N_18ConvEvalEP13TfLiteContextP10TfLiteNode+0xa38>
    2d2c:	57e2                	lw	a5,56(sp)
    2d2e:	04f649e3          	blt	a2,a5,3580 <_ZN6tflite12_GLOBAL__N_18ConvEvalEP13TfLiteContextP10TfLiteNode+0x1286>
    2d32:	47e2                	lw	a5,24(sp)
    2d34:	0885                	addi	a7,a7,1
    2d36:	9f9e                	add	t6,t6,t2
    2d38:	96be                	add	a3,a3,a5
    2d3a:	57c2                	lw	a5,48(sp)
    2d3c:	92be                	add	t0,t0,a5
    2d3e:	ff1d10e3          	bne	s10,a7,2d1e <_ZN6tflite12_GLOBAL__N_18ConvEvalEP13TfLiteContextP10TfLiteNode+0xa24>
    2d42:	8306                	mv	t1,ra
    2d44:	47f2                	lw	a5,28(sp)
    2d46:	0e05                	addi	t3,t3,1
    2d48:	963e                	add	a2,a2,a5
    2d4a:	57b2                	lw	a5,44(sp)
    2d4c:	9ebe                	add	t4,t4,a5
    2d4e:	5792                	lw	a5,36(sp)
    2d50:	933e                	add	t1,t1,a5
    2d52:	47d2                	lw	a5,20(sp)
    2d54:	fbc79ee3          	bne	a5,t3,2d10 <_ZN6tflite12_GLOBAL__N_18ConvEvalEP13TfLiteContextP10TfLiteNode+0xa16>
    2d58:	5796                	lw	a5,100(sp)
    2d5a:	cf81                	beqz	a5,2d72 <_ZN6tflite12_GLOBAL__N_18ConvEvalEP13TfLiteContextP10TfLiteNode+0xa78>
    2d5c:	003b9713          	slli	a4,s7,0x3
    2d60:	973e                	add	a4,a4,a5
    2d62:	431c                	lw	a5,0(a4)
    2d64:	4358                	lw	a4,4(a4)
    2d66:	97aa                	add	a5,a5,a0
    2d68:	00a7b6b3          	sltu	a3,a5,a0
    2d6c:	95ba                	add	a1,a1,a4
    2d6e:	853e                	mv	a0,a5
    2d70:	95b6                	add	a1,a1,a3
    2d72:	46f6                	lw	a3,92(sp)
    2d74:	5706                	lw	a4,96(sp)
    2d76:	002b9793          	slli	a5,s7,0x2
    2d7a:	973e                	add	a4,a4,a5
    2d7c:	97b6                	add	a5,a5,a3
    2d7e:	4390                	lw	a2,0(a5)
    2d80:	4314                	lw	a3,0(a4)
    2d82:	00008097          	auipc	ra,0x8
    2d86:	ace080e7          	jalr	-1330(ra) # a850 <_ZN6tflite29MultiplyByQuantizedMultiplierExli>
    2d8a:	57b6                	lw	a5,108(sp)
    2d8c:	873e                	mv	a4,a5
    2d8e:	00f54663          	blt	a0,a5,2d9a <_ZN6tflite12_GLOBAL__N_18ConvEvalEP13TfLiteContextP10TfLiteNode+0xaa0>
    2d92:	57d6                	lw	a5,116(sp)
    2d94:	873e                	mv	a4,a5
    2d96:	44f54fe3          	blt	a0,a5,39f4 <_ZN6tflite12_GLOBAL__N_18ConvEvalEP13TfLiteContextP10TfLiteNode+0x16fa>
    2d9a:	22c12783          	lw	a5,556(sp)
    2d9e:	0742                	slli	a4,a4,0x10
    2da0:	8741                	srai	a4,a4,0x10
    2da2:	81b79ee3          	bne	a5,s11,25be <_ZN6tflite12_GLOBAL__N_18ConvEvalEP13TfLiteContextP10TfLiteNode+0x2c4>
    2da6:	23012783          	lw	a5,560(sp)
    2daa:	400790e3          	bnez	a5,39aa <_ZN6tflite12_GLOBAL__N_18ConvEvalEP13TfLiteContextP10TfLiteNode+0x16b0>
    2dae:	800c98e3          	bnez	s9,25be <_ZN6tflite12_GLOBAL__N_18ConvEvalEP13TfLiteContextP10TfLiteNode+0x2c4>
    2db2:	23412783          	lw	a5,564(sp)
    2db6:	46a6                	lw	a3,72(sp)
    2db8:	400791e3          	bnez	a5,39ba <_ZN6tflite12_GLOBAL__N_18ConvEvalEP13TfLiteContextP10TfLiteNode+0x16c0>
    2dbc:	800691e3          	bnez	a3,25be <_ZN6tflite12_GLOBAL__N_18ConvEvalEP13TfLiteContextP10TfLiteNode+0x2c4>
    2dc0:	23812603          	lw	a2,568(sp)
    2dc4:	4686                	lw	a3,64(sp)
    2dc6:	3e0616e3          	bnez	a2,39b2 <_ZN6tflite12_GLOBAL__N_18ConvEvalEP13TfLiteContextP10TfLiteNode+0x16b8>
    2dca:	fe069a63          	bnez	a3,25be <_ZN6tflite12_GLOBAL__N_18ConvEvalEP13TfLiteContextP10TfLiteNode+0x2c4>
    2dce:	23c12683          	lw	a3,572(sp)
    2dd2:	3e0698e3          	bnez	a3,39c2 <_ZN6tflite12_GLOBAL__N_18ConvEvalEP13TfLiteContextP10TfLiteNode+0x16c8>
    2dd6:	fe0b9463          	bnez	s7,25be <_ZN6tflite12_GLOBAL__N_18ConvEvalEP13TfLiteContextP10TfLiteNode+0x2c4>
    2dda:	02fc87b3          	mul	a5,s9,a5
    2dde:	45a6                	lw	a1,72(sp)
    2de0:	97ae                	add	a5,a5,a1
    2de2:	02c787b3          	mul	a5,a5,a2
    2de6:	4606                	lw	a2,64(sp)
    2de8:	97b2                	add	a5,a5,a2
    2dea:	02d787b3          	mul	a5,a5,a3
    2dee:	56a6                	lw	a3,104(sp)
    2df0:	97de                	add	a5,a5,s7
    2df2:	0786                	slli	a5,a5,0x1
    2df4:	97b6                	add	a5,a5,a3
    2df6:	00e79023          	sh	a4,0(a5)
    2dfa:	4796                	lw	a5,68(sp)
    2dfc:	0b85                	addi	s7,s7,1
    2dfe:	e8fb91e3          	bne	s7,a5,2c80 <_ZN6tflite12_GLOBAL__N_18ConvEvalEP13TfLiteContextP10TfLiteNode+0x986>
    2e02:	4742                	lw	a4,16(sp)
    2e04:	46aa                	lw	a3,136(sp)
    2e06:	4786                	lw	a5,64(sp)
    2e08:	9736                	add	a4,a4,a3
    2e0a:	c83a                	sw	a4,16(sp)
    2e0c:	5746                	lw	a4,112(sp)
    2e0e:	0785                	addi	a5,a5,1
    2e10:	c0be                	sw	a5,64(sp)
    2e12:	e6f713e3          	bne	a4,a5,2c78 <_ZN6tflite12_GLOBAL__N_18ConvEvalEP13TfLiteContextP10TfLiteNode+0x97e>
    2e16:	87ea                	mv	a5,s10
    2e18:	8d66                	mv	s10,s9
    2e1a:	8cbe                	mv	s9,a5
    2e1c:	4746                	lw	a4,80(sp)
    2e1e:	46ba                	lw	a3,140(sp)
    2e20:	47a6                	lw	a5,72(sp)
    2e22:	9736                	add	a4,a4,a3
    2e24:	c8ba                	sw	a4,80(sp)
    2e26:	5766                	lw	a4,120(sp)
    2e28:	0785                	addi	a5,a5,1
    2e2a:	c4be                	sw	a5,72(sp)
    2e2c:	e2f71be3          	bne	a4,a5,2c62 <_ZN6tflite12_GLOBAL__N_18ConvEvalEP13TfLiteContextP10TfLiteNode+0x968>
    2e30:	8aea                	mv	s5,s10
    2e32:	8d66                	mv	s10,s9
    2e34:	8ce2                	mv	s9,s8
    2e36:	57f6                	lw	a5,124(sp)
    2e38:	0a85                	addi	s5,s5,1
    2e3a:	e0fa99e3          	bne	s5,a5,2c4c <_ZN6tflite12_GLOBAL__N_18ConvEvalEP13TfLiteContextP10TfLiteNode+0x952>
    2e3e:	4501                	li	a0,0
    2e40:	d8eff06f          	j	23ce <_ZN6tflite12_GLOBAL__N_18ConvEvalEP13TfLiteContextP10TfLiteNode+0xd4>
    2e44:	853e                	mv	a0,a5
    2e46:	00008097          	auipc	ra,0x8
    2e4a:	3d0080e7          	jalr	976(ra) # b216 <TfLiteTypeGetName>
    2e4e:	00892603          	lw	a2,8(s2)
    2e52:	85aa                	mv	a1,a0
    2e54:	8004d517          	auipc	a0,0x8004d
    2e58:	c8450513          	addi	a0,a0,-892 # 8004fad8 <__stack_top+0xfff92cb8>
    2e5c:	fffff097          	auipc	ra,0xfffff
    2e60:	b12080e7          	jalr	-1262(ra) # 196e <_Z11MicroPrintfPKcz>
    2e64:	4505                	li	a0,1
    2e66:	d68ff06f          	j	23ce <_ZN6tflite12_GLOBAL__N_18ConvEvalEP13TfLiteContextP10TfLiteNode+0xd4>
    2e6a:	85da                	mv	a1,s6
    2e6c:	40810513          	addi	a0,sp,1032
    2e70:	8652                	mv	a2,s4
    2e72:	00001097          	auipc	ra,0x1
    2e76:	cc0080e7          	jalr	-832(ra) # 3b32 <_ZN6tflite19ConvParamsQuantizedERK16TfLiteConvParamsRKNS_10OpDataConvE>
    2e7a:	024a2783          	lw	a5,36(s4)
    2e7e:	85ce                	mv	a1,s3
    2e80:	1d28                	addi	a0,sp,696
    2e82:	cebe                	sw	a5,92(sp)
    2e84:	028a2783          	lw	a5,40(s4)
    2e88:	d0be                	sw	a5,96(sp)
    2e8a:	00003097          	auipc	ra,0x3
    2e8e:	c66080e7          	jalr	-922(ra) # 5af0 <_ZN6tflite5micro14GetTensorShapeEPK16TfLiteEvalTensor>
    2e92:	f2098663          	beqz	s3,25be <_ZN6tflite12_GLOBAL__N_18ConvEvalEP13TfLiteContextP10TfLiteNode+0x2c4>
    2e96:	0009a783          	lw	a5,0(s3)
    2e9a:	85ca                	mv	a1,s2
    2e9c:	0dc8                	addi	a0,sp,724
    2e9e:	ccbe                	sw	a5,88(sp)
    2ea0:	00003097          	auipc	ra,0x3
    2ea4:	c50080e7          	jalr	-944(ra) # 5af0 <_ZN6tflite5micro14GetTensorShapeEPK16TfLiteEvalTensor>
    2ea8:	f0090b63          	beqz	s2,25be <_ZN6tflite12_GLOBAL__N_18ConvEvalEP13TfLiteContextP10TfLiteNode+0x2c4>
    2eac:	00092783          	lw	a5,0(s2)
    2eb0:	85a6                	mv	a1,s1
    2eb2:	1d88                	addi	a0,sp,752
    2eb4:	cabe                	sw	a5,84(sp)
    2eb6:	00003097          	auipc	ra,0x3
    2eba:	c3a080e7          	jalr	-966(ra) # 5af0 <_ZN6tflite5micro14GetTensorShapeEPK16TfLiteEvalTensor>
    2ebe:	360486e3          	beqz	s1,3a2a <_ZN6tflite12_GLOBAL__N_18ConvEvalEP13TfLiteContextP10TfLiteNode+0x1730>
    2ec2:	409c                	lw	a5,0(s1)
    2ec4:	c4be                	sw	a5,72(sp)
    2ec6:	85a2                	mv	a1,s0
    2ec8:	0668                	addi	a0,sp,780
    2eca:	00003097          	auipc	ra,0x3
    2ece:	c26080e7          	jalr	-986(ra) # 5af0 <_ZN6tflite5micro14GetTensorShapeEPK16TfLiteEvalTensor>
    2ed2:	ee040663          	beqz	s0,25be <_ZN6tflite12_GLOBAL__N_18ConvEvalEP13TfLiteContextP10TfLiteNode+0x2c4>
    2ed6:	4014                	lw	a3,0(s0)
